ARM GAS  C:\Users\corne\AppData\Local\Temp\ccpTlc6c.s 			page 1


   1              		.syntax unified
   2              		.cpu cortex-m0
   3              		.fpu softvfp
   4              		.eabi_attribute 20, 1
   5              		.eabi_attribute 21, 1
   6              		.eabi_attribute 23, 3
   7              		.eabi_attribute 24, 1
   8              		.eabi_attribute 25, 1
   9              		.eabi_attribute 26, 1
  10              		.eabi_attribute 30, 1
  11              		.eabi_attribute 34, 0
  12              		.eabi_attribute 18, 4
  13              		.thumb
  14              		.syntax unified
  15              		.file	"ADC_SAR_Seq_1.c"
  16              		.text
  17              	.Ltext0:
  18              		.cfi_sections	.debug_frame
  19              		.section	.text.ADC_SAR_Seq_1_Init,"ax",%progbits
  20              		.align	2
  21              		.global	ADC_SAR_Seq_1_Init
  22              		.code	16
  23              		.thumb_func
  24              		.type	ADC_SAR_Seq_1_Init, %function
  25              	ADC_SAR_Seq_1_Init:
  26              	.LFB2:
  27              		.file 1 "Generated_Source\\PSoC4\\ADC_SAR_Seq_1.c"
   1:Generated_Source\PSoC4/ADC_SAR_Seq_1.c **** /*******************************************************************************
   2:Generated_Source\PSoC4/ADC_SAR_Seq_1.c **** * File Name: ADC_SAR_Seq_1.c
   3:Generated_Source\PSoC4/ADC_SAR_Seq_1.c **** * Version 2.40
   4:Generated_Source\PSoC4/ADC_SAR_Seq_1.c **** *
   5:Generated_Source\PSoC4/ADC_SAR_Seq_1.c **** * Description:
   6:Generated_Source\PSoC4/ADC_SAR_Seq_1.c **** *  This file provides the source code to the API for the Sequencing Successive
   7:Generated_Source\PSoC4/ADC_SAR_Seq_1.c **** *  Approximation ADC Component Component.
   8:Generated_Source\PSoC4/ADC_SAR_Seq_1.c **** *
   9:Generated_Source\PSoC4/ADC_SAR_Seq_1.c **** * Note:
  10:Generated_Source\PSoC4/ADC_SAR_Seq_1.c **** *
  11:Generated_Source\PSoC4/ADC_SAR_Seq_1.c **** ********************************************************************************
  12:Generated_Source\PSoC4/ADC_SAR_Seq_1.c **** * Copyright 2008-2015, Cypress Semiconductor Corporation.  All rights reserved.
  13:Generated_Source\PSoC4/ADC_SAR_Seq_1.c **** * You may use this file only in accordance with the license, terms, conditions,
  14:Generated_Source\PSoC4/ADC_SAR_Seq_1.c **** * disclaimers, and limitations in the end user license agreement accompanying
  15:Generated_Source\PSoC4/ADC_SAR_Seq_1.c **** * the software package with which this file was provided.
  16:Generated_Source\PSoC4/ADC_SAR_Seq_1.c **** *******************************************************************************/
  17:Generated_Source\PSoC4/ADC_SAR_Seq_1.c **** 
  18:Generated_Source\PSoC4/ADC_SAR_Seq_1.c **** #include "ADC_SAR_Seq_1.h"
  19:Generated_Source\PSoC4/ADC_SAR_Seq_1.c **** 
  20:Generated_Source\PSoC4/ADC_SAR_Seq_1.c **** 
  21:Generated_Source\PSoC4/ADC_SAR_Seq_1.c **** /***************************************
  22:Generated_Source\PSoC4/ADC_SAR_Seq_1.c **** * Global data allocation
  23:Generated_Source\PSoC4/ADC_SAR_Seq_1.c **** ***************************************/
  24:Generated_Source\PSoC4/ADC_SAR_Seq_1.c **** uint8 ADC_SAR_Seq_1_initVar = 0u;
  25:Generated_Source\PSoC4/ADC_SAR_Seq_1.c **** volatile int16 ADC_SAR_Seq_1_offset[ADC_SAR_Seq_1_TOTAL_CHANNELS_NUM];
  26:Generated_Source\PSoC4/ADC_SAR_Seq_1.c **** volatile int32 ADC_SAR_Seq_1_countsPer10Volt[ADC_SAR_Seq_1_TOTAL_CHANNELS_NUM];   /* Gain compensat
  27:Generated_Source\PSoC4/ADC_SAR_Seq_1.c **** 
  28:Generated_Source\PSoC4/ADC_SAR_Seq_1.c **** 
  29:Generated_Source\PSoC4/ADC_SAR_Seq_1.c **** /***************************************
  30:Generated_Source\PSoC4/ADC_SAR_Seq_1.c **** * Local data allocation
ARM GAS  C:\Users\corne\AppData\Local\Temp\ccpTlc6c.s 			page 2


  31:Generated_Source\PSoC4/ADC_SAR_Seq_1.c **** ***************************************/
  32:Generated_Source\PSoC4/ADC_SAR_Seq_1.c **** /* Channels configuration generated by customiser */
  33:Generated_Source\PSoC4/ADC_SAR_Seq_1.c **** static const uint32 CYCODE ADC_SAR_Seq_1_channelsConfig[] = { 0x00000000u, 0x00000000u, 0x00000000u
  34:Generated_Source\PSoC4/ADC_SAR_Seq_1.c ****  0x00000000u };
  35:Generated_Source\PSoC4/ADC_SAR_Seq_1.c **** 
  36:Generated_Source\PSoC4/ADC_SAR_Seq_1.c **** 
  37:Generated_Source\PSoC4/ADC_SAR_Seq_1.c **** /*******************************************************************************
  38:Generated_Source\PSoC4/ADC_SAR_Seq_1.c **** * Function Name: ADC_SAR_Seq_1_Start
  39:Generated_Source\PSoC4/ADC_SAR_Seq_1.c **** ********************************************************************************
  40:Generated_Source\PSoC4/ADC_SAR_Seq_1.c **** *
  41:Generated_Source\PSoC4/ADC_SAR_Seq_1.c **** * Summary:
  42:Generated_Source\PSoC4/ADC_SAR_Seq_1.c **** *  Performs all required initialization for this component
  43:Generated_Source\PSoC4/ADC_SAR_Seq_1.c **** *  and enables the power. The power will be set to the appropriate
  44:Generated_Source\PSoC4/ADC_SAR_Seq_1.c **** *  power based on the clock frequency.
  45:Generated_Source\PSoC4/ADC_SAR_Seq_1.c **** *
  46:Generated_Source\PSoC4/ADC_SAR_Seq_1.c **** * Parameters:
  47:Generated_Source\PSoC4/ADC_SAR_Seq_1.c **** *  None.
  48:Generated_Source\PSoC4/ADC_SAR_Seq_1.c **** *
  49:Generated_Source\PSoC4/ADC_SAR_Seq_1.c **** * Return:
  50:Generated_Source\PSoC4/ADC_SAR_Seq_1.c **** *  None.
  51:Generated_Source\PSoC4/ADC_SAR_Seq_1.c **** *
  52:Generated_Source\PSoC4/ADC_SAR_Seq_1.c **** * Global variables:
  53:Generated_Source\PSoC4/ADC_SAR_Seq_1.c **** *  The ADC_SAR_Seq_1_initVar variable is used to indicate when/if initial
  54:Generated_Source\PSoC4/ADC_SAR_Seq_1.c **** *  configuration of this component has happened. The variable is initialized to
  55:Generated_Source\PSoC4/ADC_SAR_Seq_1.c **** *  zero and set to 1 the first time ADC_Start() is called. This allows for
  56:Generated_Source\PSoC4/ADC_SAR_Seq_1.c **** *  component Re-Start without re-initialization in all subsequent calls to the
  57:Generated_Source\PSoC4/ADC_SAR_Seq_1.c **** *  ADC_SAR_Seq_1_Start() routine.
  58:Generated_Source\PSoC4/ADC_SAR_Seq_1.c **** *  If re-initialization of the component is required the variable should be set
  59:Generated_Source\PSoC4/ADC_SAR_Seq_1.c **** *  to zero before call of ADC_SAR_Seq_1_Start() routine, or the user may call
  60:Generated_Source\PSoC4/ADC_SAR_Seq_1.c **** *  ADC_SAR_Seq_1_Init() and ADC_SAR_Seq_1_Enable() as done in the
  61:Generated_Source\PSoC4/ADC_SAR_Seq_1.c **** *  ADC_SAR_Seq_1_Start() routine.
  62:Generated_Source\PSoC4/ADC_SAR_Seq_1.c **** *
  63:Generated_Source\PSoC4/ADC_SAR_Seq_1.c **** *******************************************************************************/
  64:Generated_Source\PSoC4/ADC_SAR_Seq_1.c **** void ADC_SAR_Seq_1_Start(void)
  65:Generated_Source\PSoC4/ADC_SAR_Seq_1.c **** {
  66:Generated_Source\PSoC4/ADC_SAR_Seq_1.c ****     /* If not Initialized then initialize all required hardware and software */
  67:Generated_Source\PSoC4/ADC_SAR_Seq_1.c ****     if(ADC_SAR_Seq_1_initVar == 0u)
  68:Generated_Source\PSoC4/ADC_SAR_Seq_1.c ****     {
  69:Generated_Source\PSoC4/ADC_SAR_Seq_1.c ****         ADC_SAR_Seq_1_Init();
  70:Generated_Source\PSoC4/ADC_SAR_Seq_1.c ****         ADC_SAR_Seq_1_initVar = 1u;
  71:Generated_Source\PSoC4/ADC_SAR_Seq_1.c ****     }
  72:Generated_Source\PSoC4/ADC_SAR_Seq_1.c ****     ADC_SAR_Seq_1_Enable();
  73:Generated_Source\PSoC4/ADC_SAR_Seq_1.c **** }
  74:Generated_Source\PSoC4/ADC_SAR_Seq_1.c **** 
  75:Generated_Source\PSoC4/ADC_SAR_Seq_1.c **** 
  76:Generated_Source\PSoC4/ADC_SAR_Seq_1.c **** /*******************************************************************************
  77:Generated_Source\PSoC4/ADC_SAR_Seq_1.c **** * Function Name: ADC_SAR_Seq_1_Init
  78:Generated_Source\PSoC4/ADC_SAR_Seq_1.c **** ********************************************************************************
  79:Generated_Source\PSoC4/ADC_SAR_Seq_1.c **** *
  80:Generated_Source\PSoC4/ADC_SAR_Seq_1.c **** * Summary:
  81:Generated_Source\PSoC4/ADC_SAR_Seq_1.c **** *  Initialize component's parameters to the parameters set by user in the
  82:Generated_Source\PSoC4/ADC_SAR_Seq_1.c **** *  customizer of the component placed onto schematic. Usually called in
  83:Generated_Source\PSoC4/ADC_SAR_Seq_1.c **** *  ADC_SAR_Seq_1_Start().
  84:Generated_Source\PSoC4/ADC_SAR_Seq_1.c **** *
  85:Generated_Source\PSoC4/ADC_SAR_Seq_1.c **** * Parameters:
  86:Generated_Source\PSoC4/ADC_SAR_Seq_1.c **** *  None.
  87:Generated_Source\PSoC4/ADC_SAR_Seq_1.c **** *
ARM GAS  C:\Users\corne\AppData\Local\Temp\ccpTlc6c.s 			page 3


  88:Generated_Source\PSoC4/ADC_SAR_Seq_1.c **** * Return:
  89:Generated_Source\PSoC4/ADC_SAR_Seq_1.c **** *  None.
  90:Generated_Source\PSoC4/ADC_SAR_Seq_1.c **** *
  91:Generated_Source\PSoC4/ADC_SAR_Seq_1.c **** * Global variables:
  92:Generated_Source\PSoC4/ADC_SAR_Seq_1.c **** *  The ADC_SAR_Seq_1_offset variable is initialized.
  93:Generated_Source\PSoC4/ADC_SAR_Seq_1.c **** *
  94:Generated_Source\PSoC4/ADC_SAR_Seq_1.c **** *******************************************************************************/
  95:Generated_Source\PSoC4/ADC_SAR_Seq_1.c **** void ADC_SAR_Seq_1_Init(void)
  96:Generated_Source\PSoC4/ADC_SAR_Seq_1.c **** {
  28              		.loc 1 96 0
  29              		.cfi_startproc
  30              		@ args = 0, pretend = 0, frame = 0
  31              		@ frame_needed = 0, uses_anonymous_args = 0
  32 0000 10B5     		push	{r4, lr}
  33              		.cfi_def_cfa_offset 8
  34              		.cfi_offset 4, -8
  35              		.cfi_offset 14, -4
  97:Generated_Source\PSoC4/ADC_SAR_Seq_1.c ****     uint32 chNum;
  98:Generated_Source\PSoC4/ADC_SAR_Seq_1.c ****     uint32 tmpRegVal;
  99:Generated_Source\PSoC4/ADC_SAR_Seq_1.c ****     int32 counts;
 100:Generated_Source\PSoC4/ADC_SAR_Seq_1.c **** 
 101:Generated_Source\PSoC4/ADC_SAR_Seq_1.c ****     #if(ADC_SAR_Seq_1_TOTAL_CHANNELS_NUM > 1u)
 102:Generated_Source\PSoC4/ADC_SAR_Seq_1.c ****         static const uint8 CYCODE ADC_SAR_Seq_1_InputsPlacement[] =
 103:Generated_Source\PSoC4/ADC_SAR_Seq_1.c ****         {
 104:Generated_Source\PSoC4/ADC_SAR_Seq_1.c ****             (uint8)(ADC_SAR_Seq_1_cy_psoc4_sarmux_8__CH_0_PORT << 4u) |
 105:Generated_Source\PSoC4/ADC_SAR_Seq_1.c ****             (uint8)ADC_SAR_Seq_1_cy_psoc4_sarmux_8__CH_0_PIN
 106:Generated_Source\PSoC4/ADC_SAR_Seq_1.c ****             ,(uint8)(ADC_SAR_Seq_1_cy_psoc4_sarmux_8__CH_1_PORT << 4u) |
 107:Generated_Source\PSoC4/ADC_SAR_Seq_1.c ****              (uint8)ADC_SAR_Seq_1_cy_psoc4_sarmux_8__CH_1_PIN
 108:Generated_Source\PSoC4/ADC_SAR_Seq_1.c ****             #if(ADC_SAR_Seq_1_TOTAL_CHANNELS_NUM > 2u)
 109:Generated_Source\PSoC4/ADC_SAR_Seq_1.c ****                 ,(uint8)(ADC_SAR_Seq_1_cy_psoc4_sarmux_8__CH_2_PORT << 4u) |
 110:Generated_Source\PSoC4/ADC_SAR_Seq_1.c ****                  (uint8)ADC_SAR_Seq_1_cy_psoc4_sarmux_8__CH_2_PIN
 111:Generated_Source\PSoC4/ADC_SAR_Seq_1.c ****             #endif /* End ADC_SAR_Seq_1_TOTAL_CHANNELS_NUM > 2u */
 112:Generated_Source\PSoC4/ADC_SAR_Seq_1.c ****             #if(ADC_SAR_Seq_1_TOTAL_CHANNELS_NUM > 3u)
 113:Generated_Source\PSoC4/ADC_SAR_Seq_1.c ****                 ,(uint8)(ADC_SAR_Seq_1_cy_psoc4_sarmux_8__CH_3_PORT << 4u) |
 114:Generated_Source\PSoC4/ADC_SAR_Seq_1.c ****                  (uint8)ADC_SAR_Seq_1_cy_psoc4_sarmux_8__CH_3_PIN
 115:Generated_Source\PSoC4/ADC_SAR_Seq_1.c ****             #endif /* End ADC_SAR_Seq_1_TOTAL_CHANNELS_NUM > 3u */
 116:Generated_Source\PSoC4/ADC_SAR_Seq_1.c ****             #if(ADC_SAR_Seq_1_TOTAL_CHANNELS_NUM > 4u)
 117:Generated_Source\PSoC4/ADC_SAR_Seq_1.c ****                 ,(uint8)(ADC_SAR_Seq_1_cy_psoc4_sarmux_8__CH_4_PORT << 4u) |
 118:Generated_Source\PSoC4/ADC_SAR_Seq_1.c ****                  (uint8)ADC_SAR_Seq_1_cy_psoc4_sarmux_8__CH_4_PIN
 119:Generated_Source\PSoC4/ADC_SAR_Seq_1.c ****             #endif /* End ADC_SAR_Seq_1_TOTAL_CHANNELS_NUM > 4u */
 120:Generated_Source\PSoC4/ADC_SAR_Seq_1.c ****             #if(ADC_SAR_Seq_1_TOTAL_CHANNELS_NUM > 5u)
 121:Generated_Source\PSoC4/ADC_SAR_Seq_1.c ****                 ,(uint8)(ADC_SAR_Seq_1_cy_psoc4_sarmux_8__CH_5_PORT << 4u) |
 122:Generated_Source\PSoC4/ADC_SAR_Seq_1.c ****                  (uint8)ADC_SAR_Seq_1_cy_psoc4_sarmux_8__CH_5_PIN
 123:Generated_Source\PSoC4/ADC_SAR_Seq_1.c ****             #endif /* End ADC_SAR_Seq_1_TOTAL_CHANNELS_NUM > 5u */
 124:Generated_Source\PSoC4/ADC_SAR_Seq_1.c ****             #if(ADC_SAR_Seq_1_TOTAL_CHANNELS_NUM > 6u)
 125:Generated_Source\PSoC4/ADC_SAR_Seq_1.c ****                 ,(uint8)(ADC_SAR_Seq_1_cy_psoc4_sarmux_8__CH_6_PORT << 4u) |
 126:Generated_Source\PSoC4/ADC_SAR_Seq_1.c ****                  (uint8)ADC_SAR_Seq_1_cy_psoc4_sarmux_8__CH_6_PIN
 127:Generated_Source\PSoC4/ADC_SAR_Seq_1.c ****             #endif /* End ADC_SAR_Seq_1_TOTAL_CHANNELS_NUM > 6u */
 128:Generated_Source\PSoC4/ADC_SAR_Seq_1.c ****             #if(ADC_SAR_Seq_1_TOTAL_CHANNELS_NUM > 7u)
 129:Generated_Source\PSoC4/ADC_SAR_Seq_1.c ****                 ,(uint8)(ADC_SAR_Seq_1_cy_psoc4_sarmux_8__CH_7_PORT << 4u) |
 130:Generated_Source\PSoC4/ADC_SAR_Seq_1.c ****                  (uint8)ADC_SAR_Seq_1_cy_psoc4_sarmux_8__CH_7_PIN
 131:Generated_Source\PSoC4/ADC_SAR_Seq_1.c ****             #endif /* End ADC_SAR_Seq_1_TOTAL_CHANNELS_NUM > 7u */
 132:Generated_Source\PSoC4/ADC_SAR_Seq_1.c ****             #if(ADC_SAR_Seq_1_TOTAL_CHANNELS_NUM > 8u)
 133:Generated_Source\PSoC4/ADC_SAR_Seq_1.c ****                 ,(uint8)(ADC_SAR_Seq_1_cy_psoc4_sarmux_8__CH_8_PORT << 4u) |
 134:Generated_Source\PSoC4/ADC_SAR_Seq_1.c ****                  (uint8)ADC_SAR_Seq_1_cy_psoc4_sarmux_8__CH_8_PIN
 135:Generated_Source\PSoC4/ADC_SAR_Seq_1.c ****             #endif /* End ADC_SAR_Seq_1_TOTAL_CHANNELS_NUM > 8u */
 136:Generated_Source\PSoC4/ADC_SAR_Seq_1.c ****             #if(ADC_SAR_Seq_1_TOTAL_CHANNELS_NUM > 9u)
ARM GAS  C:\Users\corne\AppData\Local\Temp\ccpTlc6c.s 			page 4


 137:Generated_Source\PSoC4/ADC_SAR_Seq_1.c ****                 ,(uint8)(ADC_SAR_Seq_1_cy_psoc4_sarmux_8__CH_9_PORT << 4u) |
 138:Generated_Source\PSoC4/ADC_SAR_Seq_1.c ****                  (uint8)ADC_SAR_Seq_1_cy_psoc4_sarmux_8__CH_9_PIN
 139:Generated_Source\PSoC4/ADC_SAR_Seq_1.c ****             #endif /* End ADC_SAR_Seq_1_TOTAL_CHANNELS_NUM > 9u */
 140:Generated_Source\PSoC4/ADC_SAR_Seq_1.c ****             #if(ADC_SAR_Seq_1_TOTAL_CHANNELS_NUM > 10u)
 141:Generated_Source\PSoC4/ADC_SAR_Seq_1.c ****                 ,(uint8)(ADC_SAR_Seq_1_cy_psoc4_sarmux_8__CH_10_PORT << 4u) |
 142:Generated_Source\PSoC4/ADC_SAR_Seq_1.c ****                  (uint8)ADC_SAR_Seq_1_cy_psoc4_sarmux_8__CH_10_PIN
 143:Generated_Source\PSoC4/ADC_SAR_Seq_1.c ****             #endif /* End ADC_SAR_Seq_1_TOTAL_CHANNELS_NUM > 10u */
 144:Generated_Source\PSoC4/ADC_SAR_Seq_1.c ****             #if(ADC_SAR_Seq_1_TOTAL_CHANNELS_NUM > 11u)
 145:Generated_Source\PSoC4/ADC_SAR_Seq_1.c ****                 ,(uint8)(ADC_SAR_Seq_1_cy_psoc4_sarmux_8__CH_11_PORT << 4u) |
 146:Generated_Source\PSoC4/ADC_SAR_Seq_1.c ****                  (uint8)ADC_SAR_Seq_1_cy_psoc4_sarmux_8__CH_11_PIN
 147:Generated_Source\PSoC4/ADC_SAR_Seq_1.c ****             #endif /* End ADC_SAR_Seq_1_TOTAL_CHANNELS_NUM > 11u */
 148:Generated_Source\PSoC4/ADC_SAR_Seq_1.c ****             #if(ADC_SAR_Seq_1_TOTAL_CHANNELS_NUM > 12u)
 149:Generated_Source\PSoC4/ADC_SAR_Seq_1.c ****                 ,(uint8)(ADC_SAR_Seq_1_cy_psoc4_sarmux_8__CH_12_PORT << 4u) |
 150:Generated_Source\PSoC4/ADC_SAR_Seq_1.c ****                  (uint8)ADC_SAR_Seq_1_cy_psoc4_sarmux_8__CH_12_PIN
 151:Generated_Source\PSoC4/ADC_SAR_Seq_1.c ****             #endif /* End ADC_SAR_Seq_1_TOTAL_CHANNELS_NUM > 12u */
 152:Generated_Source\PSoC4/ADC_SAR_Seq_1.c ****             #if(ADC_SAR_Seq_1_TOTAL_CHANNELS_NUM > 13u)
 153:Generated_Source\PSoC4/ADC_SAR_Seq_1.c ****                 ,(uint8)(ADC_SAR_Seq_1_cy_psoc4_sarmux_8__CH_13_PORT << 4u) |
 154:Generated_Source\PSoC4/ADC_SAR_Seq_1.c ****                  (uint8)ADC_SAR_Seq_1_cy_psoc4_sarmux_8__CH_13_PIN
 155:Generated_Source\PSoC4/ADC_SAR_Seq_1.c ****             #endif /* End ADC_SAR_Seq_1_TOTAL_CHANNELS_NUM > 13u */
 156:Generated_Source\PSoC4/ADC_SAR_Seq_1.c ****             #if(ADC_SAR_Seq_1_TOTAL_CHANNELS_NUM > 14u)
 157:Generated_Source\PSoC4/ADC_SAR_Seq_1.c ****                 ,(uint8)(ADC_SAR_Seq_1_cy_psoc4_sarmux_8__CH_14_PORT << 4u) |
 158:Generated_Source\PSoC4/ADC_SAR_Seq_1.c ****                  (uint8)ADC_SAR_Seq_1_cy_psoc4_sarmux_8__CH_14_PIN
 159:Generated_Source\PSoC4/ADC_SAR_Seq_1.c ****             #endif /* End ADC_SAR_Seq_1_TOTAL_CHANNELS_NUM > 14u */
 160:Generated_Source\PSoC4/ADC_SAR_Seq_1.c ****             #if(ADC_SAR_Seq_1_TOTAL_CHANNELS_NUM > 15u)
 161:Generated_Source\PSoC4/ADC_SAR_Seq_1.c ****                 ,(uint8)(ADC_SAR_Seq_1_cy_psoc4_sarmux_8__CH_15_PORT << 4u) |
 162:Generated_Source\PSoC4/ADC_SAR_Seq_1.c ****                  (uint8)ADC_SAR_Seq_1_cy_psoc4_sarmux_8__CH_15_PIN
 163:Generated_Source\PSoC4/ADC_SAR_Seq_1.c ****             #endif /* End ADC_SAR_Seq_1_TOTAL_CHANNELS_NUM > 15u */
 164:Generated_Source\PSoC4/ADC_SAR_Seq_1.c ****             #if(ADC_SAR_Seq_1_TOTAL_CHANNELS_NUM > 16u)
 165:Generated_Source\PSoC4/ADC_SAR_Seq_1.c ****                 ,(uint8)(ADC_SAR_Seq_1_cy_psoc4_sarmux_8__CH_16_PORT << 4u) |
 166:Generated_Source\PSoC4/ADC_SAR_Seq_1.c ****                  (uint8)ADC_SAR_Seq_1_cy_psoc4_sarmux_8__CH_16_PIN
 167:Generated_Source\PSoC4/ADC_SAR_Seq_1.c ****             #endif /* End ADC_SAR_Seq_1_TOTAL_CHANNELS_NUM > 16u */
 168:Generated_Source\PSoC4/ADC_SAR_Seq_1.c ****         };
 169:Generated_Source\PSoC4/ADC_SAR_Seq_1.c ****     #endif /* End ADC_SAR_Seq_1_TOTAL_CHANNELS_NUM > 1u */
 170:Generated_Source\PSoC4/ADC_SAR_Seq_1.c **** 
 171:Generated_Source\PSoC4/ADC_SAR_Seq_1.c ****     #if(ADC_SAR_Seq_1_IRQ_REMOVE == 0u)
 172:Generated_Source\PSoC4/ADC_SAR_Seq_1.c ****         /* Start and set interrupt vector */
 173:Generated_Source\PSoC4/ADC_SAR_Seq_1.c ****         CyIntSetPriority(ADC_SAR_Seq_1_INTC_NUMBER, ADC_SAR_Seq_1_INTC_PRIOR_NUMBER);
  36              		.loc 1 173 0
  37 0002 0321     		movs	r1, #3
  38 0004 1120     		movs	r0, #17
  39 0006 FFF7FEFF 		bl	CyIntSetPriority
  40              	.LVL0:
 174:Generated_Source\PSoC4/ADC_SAR_Seq_1.c ****         (void)CyIntSetVector(ADC_SAR_Seq_1_INTC_NUMBER, &ADC_SAR_Seq_1_ISR);
  41              		.loc 1 174 0
  42 000a 4349     		ldr	r1, .L12
  43 000c 1120     		movs	r0, #17
  44 000e FFF7FEFF 		bl	CyIntSetVector
  45              	.LVL1:
 175:Generated_Source\PSoC4/ADC_SAR_Seq_1.c ****     #endif   /* End ADC_SAR_Seq_1_IRQ_REMOVE */
 176:Generated_Source\PSoC4/ADC_SAR_Seq_1.c **** 
 177:Generated_Source\PSoC4/ADC_SAR_Seq_1.c ****     /* Init SAR and MUX registers */
 178:Generated_Source\PSoC4/ADC_SAR_Seq_1.c ****     ADC_SAR_Seq_1_SAR_CHAN_EN_REG = ADC_SAR_Seq_1_DEFAULT_EN_CHANNELS;
  46              		.loc 1 178 0
  47 0012 1F22     		movs	r2, #31
  48 0014 414B     		ldr	r3, .L12+4
  49 0016 1A60     		str	r2, [r3]
 179:Generated_Source\PSoC4/ADC_SAR_Seq_1.c ****     ADC_SAR_Seq_1_SAR_CTRL_REG |= ADC_SAR_Seq_1_DEFAULT_CTRL_REG_CFG | 
ARM GAS  C:\Users\corne\AppData\Local\Temp\ccpTlc6c.s 			page 5


 180:Generated_Source\PSoC4/ADC_SAR_Seq_1.c ****         /* Enable the SAR internal pump when global pump is enabled */
 181:Generated_Source\PSoC4/ADC_SAR_Seq_1.c ****         (((ADC_SAR_Seq_1_PUMP_CTRL_REG & ADC_SAR_Seq_1_PUMP_CTRL_ENABLED) != 0u) ? 
  50              		.loc 1 181 0
  51 0018 414B     		ldr	r3, .L12+8
  52 001a 1B68     		ldr	r3, [r3]
 179:Generated_Source\PSoC4/ADC_SAR_Seq_1.c ****     ADC_SAR_Seq_1_SAR_CTRL_REG |= ADC_SAR_Seq_1_DEFAULT_CTRL_REG_CFG | 
  53              		.loc 1 179 0
  54 001c 002B     		cmp	r3, #0
  55 001e 01DA     		bge	.L10
  56 0020 4049     		ldr	r1, .L12+12
  57 0022 00E0     		b	.L2
  58              	.L10:
  59 0024 4049     		ldr	r1, .L12+16
  60              	.L2:
 179:Generated_Source\PSoC4/ADC_SAR_Seq_1.c ****     ADC_SAR_Seq_1_SAR_CTRL_REG |= ADC_SAR_Seq_1_DEFAULT_CTRL_REG_CFG | 
  61              		.loc 1 179 0 is_stmt 0 discriminator 4
  62 0026 414A     		ldr	r2, .L12+20
  63 0028 1368     		ldr	r3, [r2]
  64 002a 0B43     		orrs	r3, r1
  65 002c 1360     		str	r3, [r2]
 182:Generated_Source\PSoC4/ADC_SAR_Seq_1.c ****         ADC_SAR_Seq_1_BOOSTPUMP_EN : 0u);
 183:Generated_Source\PSoC4/ADC_SAR_Seq_1.c ****     ADC_SAR_Seq_1_SAR_SAMPLE_CTRL_REG = ADC_SAR_Seq_1_DEFAULT_SAMPLE_CTRL_REG_CFG;
  66              		.loc 1 183 0 is_stmt 1 discriminator 4
  67 002e 404A     		ldr	r2, .L12+24
  68 0030 404B     		ldr	r3, .L12+28
  69 0032 1A60     		str	r2, [r3]
 184:Generated_Source\PSoC4/ADC_SAR_Seq_1.c ****     ADC_SAR_Seq_1_SAR_RANGE_THRES_REG = ADC_SAR_Seq_1_DEFAULT_RANGE_THRES_REG_CFG;
  70              		.loc 1 184 0 discriminator 4
  71 0034 404A     		ldr	r2, .L12+32
  72 0036 414B     		ldr	r3, .L12+36
  73 0038 1A60     		str	r2, [r3]
 185:Generated_Source\PSoC4/ADC_SAR_Seq_1.c ****     ADC_SAR_Seq_1_SAR_RANGE_COND_REG  = ADC_SAR_Seq_1_COMPARE_MODE;
  74              		.loc 1 185 0 discriminator 4
  75 003a 0023     		movs	r3, #0
  76 003c 404A     		ldr	r2, .L12+40
  77 003e 1360     		str	r3, [r2]
 186:Generated_Source\PSoC4/ADC_SAR_Seq_1.c ****     ADC_SAR_Seq_1_SAR_SAMPLE_TIME01_REG = ADC_SAR_Seq_1_DEFAULT_SAMPLE_TIME01_REG_CFG;
  78              		.loc 1 186 0 discriminator 4
  79 0040 404A     		ldr	r2, .L12+44
  80 0042 4149     		ldr	r1, .L12+48
  81 0044 0A60     		str	r2, [r1]
 187:Generated_Source\PSoC4/ADC_SAR_Seq_1.c ****     ADC_SAR_Seq_1_SAR_SAMPLE_TIME23_REG = ADC_SAR_Seq_1_DEFAULT_SAMPLE_TIME23_REG_CFG;
  82              		.loc 1 187 0 discriminator 4
  83 0046 4149     		ldr	r1, .L12+52
  84 0048 0A60     		str	r2, [r1]
 188:Generated_Source\PSoC4/ADC_SAR_Seq_1.c ****     
 189:Generated_Source\PSoC4/ADC_SAR_Seq_1.c ****     /* Connect Vm to VSSA when even one channel is single-ended or multiple channels configured */
 190:Generated_Source\PSoC4/ADC_SAR_Seq_1.c ****     #if(ADC_SAR_Seq_1_DEFAULT_MUX_SWITCH0 != 0u)
 191:Generated_Source\PSoC4/ADC_SAR_Seq_1.c ****         ADC_SAR_Seq_1_MUX_SWITCH0_REG |= ADC_SAR_Seq_1_DEFAULT_MUX_SWITCH0;
  85              		.loc 1 191 0 discriminator 4
  86 004a 414A     		ldr	r2, .L12+56
  87 004c 1168     		ldr	r1, [r2]
  88 004e 8020     		movs	r0, #128
  89 0050 4002     		lsls	r0, r0, #9
  90 0052 0143     		orrs	r1, r0
  91 0054 1160     		str	r1, [r2]
 192:Generated_Source\PSoC4/ADC_SAR_Seq_1.c ****         /* Set MUX_HW_CTRL_VSSA in MUX_SWITCH_HW_CTRL when multiple channels enabled */
ARM GAS  C:\Users\corne\AppData\Local\Temp\ccpTlc6c.s 			page 6


 193:Generated_Source\PSoC4/ADC_SAR_Seq_1.c ****         #if(ADC_SAR_Seq_1_TOTAL_CHANNELS_NUM > 1u)
 194:Generated_Source\PSoC4/ADC_SAR_Seq_1.c ****             ADC_SAR_Seq_1_MUX_SWITCH_HW_CTRL_REG |= ADC_SAR_Seq_1_DEFAULT_MUX_SWITCH0;
  92              		.loc 1 194 0 discriminator 4
  93 0056 3F49     		ldr	r1, .L12+60
  94 0058 0A68     		ldr	r2, [r1]
  95 005a 0243     		orrs	r2, r0
  96 005c 0A60     		str	r2, [r1]
 195:Generated_Source\PSoC4/ADC_SAR_Seq_1.c ****         #endif /* ADC_SAR_Seq_1_TOTAL_CHANNELS_NUM > 1u */
 196:Generated_Source\PSoC4/ADC_SAR_Seq_1.c ****     #endif /*ADC_SAR_Seq_1_CHANNELS_MODE !=0 */
 197:Generated_Source\PSoC4/ADC_SAR_Seq_1.c **** 
 198:Generated_Source\PSoC4/ADC_SAR_Seq_1.c ****     ADC_SAR_Seq_1_SAR_SATURATE_INTR_MASK_REG = 0u;
  97              		.loc 1 198 0 discriminator 4
  98 005e 3E4A     		ldr	r2, .L12+64
  99 0060 1360     		str	r3, [r2]
 199:Generated_Source\PSoC4/ADC_SAR_Seq_1.c ****     ADC_SAR_Seq_1_SAR_RANGE_INTR_MASK_REG = 0u;
 100              		.loc 1 199 0 discriminator 4
 101 0062 3E4A     		ldr	r2, .L12+68
 102 0064 1360     		str	r3, [r2]
 200:Generated_Source\PSoC4/ADC_SAR_Seq_1.c ****     ADC_SAR_Seq_1_SAR_INTR_MASK_REG = ADC_SAR_Seq_1_SAR_INTR_MASK;
 103              		.loc 1 200 0 discriminator 4
 104 0066 0122     		movs	r2, #1
 105 0068 3D4B     		ldr	r3, .L12+72
 106 006a 1A60     		str	r2, [r3]
 201:Generated_Source\PSoC4/ADC_SAR_Seq_1.c **** 
 202:Generated_Source\PSoC4/ADC_SAR_Seq_1.c ****     #if(ADC_SAR_Seq_1_CY_SAR_IP_VER == ADC_SAR_Seq_1_CY_SAR_IP_VER0)
 203:Generated_Source\PSoC4/ADC_SAR_Seq_1.c ****         ADC_SAR_Seq_1_ANA_TRIM_REG = ADC_SAR_Seq_1_TRIM_COEF;
 204:Generated_Source\PSoC4/ADC_SAR_Seq_1.c ****     #endif /* (ADC_SAR_Seq_1_CY_SAR_IP_VER == ADC_SAR_Seq_1_CY_SAR_IP_VER0) */
 205:Generated_Source\PSoC4/ADC_SAR_Seq_1.c **** 
 206:Generated_Source\PSoC4/ADC_SAR_Seq_1.c ****     /* Read and modify default configuration based on characterization */
 207:Generated_Source\PSoC4/ADC_SAR_Seq_1.c ****     tmpRegVal = ADC_SAR_Seq_1_SAR_DFT_CTRL_REG;
 107              		.loc 1 207 0 discriminator 4
 108 006c 3D4A     		ldr	r2, .L12+76
 109 006e 1168     		ldr	r1, [r2]
 110              	.LVL2:
 111 0070 3D4B     		ldr	r3, .L12+80
 112 0072 0B40     		ands	r3, r1
 208:Generated_Source\PSoC4/ADC_SAR_Seq_1.c ****     tmpRegVal &= (uint32)~ADC_SAR_Seq_1_DCEN;
 209:Generated_Source\PSoC4/ADC_SAR_Seq_1.c ****     
 210:Generated_Source\PSoC4/ADC_SAR_Seq_1.c ****     #if(ADC_SAR_Seq_1_CY_SAR_IP_VER == ADC_SAR_Seq_1_CY_SAR_IP_VER0)
 211:Generated_Source\PSoC4/ADC_SAR_Seq_1.c ****         #if(ADC_SAR_Seq_1_NOMINAL_CLOCK_FREQ > (ADC_SAR_Seq_1_MAX_FREQUENCY / 2))
 212:Generated_Source\PSoC4/ADC_SAR_Seq_1.c ****             tmpRegVal |= ADC_SAR_Seq_1_SEL_CSEL_DFT_CHAR;
 213:Generated_Source\PSoC4/ADC_SAR_Seq_1.c ****         #else  /* clock speed < 9 Mhz */
 214:Generated_Source\PSoC4/ADC_SAR_Seq_1.c ****             tmpRegVal |= ADC_SAR_Seq_1_DLY_INC;
 215:Generated_Source\PSoC4/ADC_SAR_Seq_1.c ****         #endif /* clock speed > 9 Mhz */
 216:Generated_Source\PSoC4/ADC_SAR_Seq_1.c ****     #else
 217:Generated_Source\PSoC4/ADC_SAR_Seq_1.c ****         #if ((ADC_SAR_Seq_1_DEFAULT_VREF_SEL == ADC_SAR_Seq_1__INTERNAL1024) || \
 218:Generated_Source\PSoC4/ADC_SAR_Seq_1.c ****              (ADC_SAR_Seq_1_DEFAULT_VREF_SEL == ADC_SAR_Seq_1__INTERNALVREF))
 219:Generated_Source\PSoC4/ADC_SAR_Seq_1.c ****             tmpRegVal |= ADC_SAR_Seq_1_DLY_INC;
 220:Generated_Source\PSoC4/ADC_SAR_Seq_1.c ****         #else
 221:Generated_Source\PSoC4/ADC_SAR_Seq_1.c ****             tmpRegVal |= ADC_SAR_Seq_1_DCEN;
 222:Generated_Source\PSoC4/ADC_SAR_Seq_1.c ****             tmpRegVal &= (uint32)~ADC_SAR_Seq_1_DLY_INC;
 113              		.loc 1 222 0 discriminator 4
 114 0074 8021     		movs	r1, #128
 115              	.LVL3:
 116 0076 8905     		lsls	r1, r1, #22
 117 0078 0B43     		orrs	r3, r1
 118              	.LVL4:
ARM GAS  C:\Users\corne\AppData\Local\Temp\ccpTlc6c.s 			page 7


 223:Generated_Source\PSoC4/ADC_SAR_Seq_1.c ****         #endif /* ((ADC_SAR_Seq_1_DEFAULT_VREF_SEL == ADC_SAR_Seq_1__INTERNAL1024) || \
 224:Generated_Source\PSoC4/ADC_SAR_Seq_1.c ****                    (ADC_SAR_Seq_1_DEFAULT_VREF_SEL == ADC_SAR_Seq_1__INTERNALVREF)) */
 225:Generated_Source\PSoC4/ADC_SAR_Seq_1.c ****     #endif /* (ADC_SAR_Seq_1_CY_SAR_IP_VER == ADC_SAR_Seq_1_CY_SAR_IP_VER0) */
 226:Generated_Source\PSoC4/ADC_SAR_Seq_1.c ****     
 227:Generated_Source\PSoC4/ADC_SAR_Seq_1.c ****     ADC_SAR_Seq_1_SAR_DFT_CTRL_REG = tmpRegVal;
 119              		.loc 1 227 0 discriminator 4
 120 007a 1360     		str	r3, [r2]
 121              	.LVL5:
 228:Generated_Source\PSoC4/ADC_SAR_Seq_1.c **** 
 229:Generated_Source\PSoC4/ADC_SAR_Seq_1.c ****     #if(ADC_SAR_Seq_1_MAX_RESOLUTION != ADC_SAR_Seq_1_RESOLUTION_12)
 230:Generated_Source\PSoC4/ADC_SAR_Seq_1.c ****         ADC_SAR_Seq_1_WOUNDING_REG = ADC_SAR_Seq_1_ALT_WOUNDING;
 231:Generated_Source\PSoC4/ADC_SAR_Seq_1.c ****     #endif /* ADC_SAR_Seq_1_MAX_RESOLUTION != ADC_SAR_Seq_1_RESOLUTION_12 */
 232:Generated_Source\PSoC4/ADC_SAR_Seq_1.c **** 
 233:Generated_Source\PSoC4/ADC_SAR_Seq_1.c ****     for(chNum = 0u; chNum < ADC_SAR_Seq_1_TOTAL_CHANNELS_NUM; chNum++)
 122              		.loc 1 233 0 discriminator 4
 123 007c 0022     		movs	r2, #0
 124 007e 48E0     		b	.L3
 125              	.LVL6:
 126              	.L9:
 234:Generated_Source\PSoC4/ADC_SAR_Seq_1.c ****     {
 235:Generated_Source\PSoC4/ADC_SAR_Seq_1.c ****         tmpRegVal = (ADC_SAR_Seq_1_channelsConfig[chNum] & ADC_SAR_Seq_1_CHANNEL_CONFIG_MASK);
 127              		.loc 1 235 0
 128 0080 3A48     		ldr	r0, .L12+84
 129 0082 9100     		lsls	r1, r2, #2
 130 0084 0C58     		ldr	r4, [r1, r0]
 131 0086 DC23     		movs	r3, #220
 132 0088 9B01     		lsls	r3, r3, #6
 133 008a 2340     		ands	r3, r4
 134              	.LVL7:
 236:Generated_Source\PSoC4/ADC_SAR_Seq_1.c ****         #if(ADC_SAR_Seq_1_TOTAL_CHANNELS_NUM > 1u)
 237:Generated_Source\PSoC4/ADC_SAR_Seq_1.c ****             tmpRegVal |= ADC_SAR_Seq_1_InputsPlacement[chNum];
 135              		.loc 1 237 0
 136 008c 8018     		adds	r0, r0, r2
 137 008e 007D     		ldrb	r0, [r0, #20]
 138 0090 0343     		orrs	r3, r0
 139              	.LVL8:
 238:Generated_Source\PSoC4/ADC_SAR_Seq_1.c ****         #endif /* End ADC_SAR_Seq_1_TOTAL_CHANNELS_NUM > 1u */
 239:Generated_Source\PSoC4/ADC_SAR_Seq_1.c ****         
 240:Generated_Source\PSoC4/ADC_SAR_Seq_1.c ****         
 241:Generated_Source\PSoC4/ADC_SAR_Seq_1.c ****         /* When the part is limited to 10-bit then the SUB_RESOLUTION bit
 242:Generated_Source\PSoC4/ADC_SAR_Seq_1.c ****         *  will be ignored and the RESOLUTION bit selects between 10-bit
 243:Generated_Source\PSoC4/ADC_SAR_Seq_1.c ****         *  (0) and 8-bit (1) resolution.
 244:Generated_Source\PSoC4/ADC_SAR_Seq_1.c ****         */
 245:Generated_Source\PSoC4/ADC_SAR_Seq_1.c ****         #if((ADC_SAR_Seq_1_MAX_RESOLUTION != ADC_SAR_Seq_1_RESOLUTION_12) && \
 246:Generated_Source\PSoC4/ADC_SAR_Seq_1.c ****             (ADC_SAR_Seq_1_ALT_WOUNDING == ADC_SAR_Seq_1_WOUNDING_10BIT))
 247:Generated_Source\PSoC4/ADC_SAR_Seq_1.c ****             tmpRegVal &= (uint32)(~ADC_SAR_Seq_1_ALT_RESOLUTION_ON);
 248:Generated_Source\PSoC4/ADC_SAR_Seq_1.c ****         #endif /* ADC_SAR_Seq_1_MAX_RESOLUTION != ADC_SAR_Seq_1_RESOLUTION_12 */
 249:Generated_Source\PSoC4/ADC_SAR_Seq_1.c **** 
 250:Generated_Source\PSoC4/ADC_SAR_Seq_1.c ****         #if(ADC_SAR_Seq_1_INJ_CHANNEL_ENABLED)
 251:Generated_Source\PSoC4/ADC_SAR_Seq_1.c ****         if(chNum < ADC_SAR_Seq_1_SEQUENCED_CHANNELS_NUM)
 252:Generated_Source\PSoC4/ADC_SAR_Seq_1.c ****         #endif /* ADC_SAR_Seq_1_INJ_CHANNEL_ENABLED */
 253:Generated_Source\PSoC4/ADC_SAR_Seq_1.c ****         {
 254:Generated_Source\PSoC4/ADC_SAR_Seq_1.c ****             CY_SET_REG32((reg32 *)(ADC_SAR_Seq_1_SAR_CHAN_CONFIG_IND + (uint32)(chNum << 2)), tmpRe
 140              		.loc 1 254 0
 141 0092 3748     		ldr	r0, .L12+88
 142 0094 8446     		mov	ip, r0
 143 0096 6144     		add	r1, r1, ip
ARM GAS  C:\Users\corne\AppData\Local\Temp\ccpTlc6c.s 			page 8


 144 0098 0B60     		str	r3, [r1]
 255:Generated_Source\PSoC4/ADC_SAR_Seq_1.c **** 
 256:Generated_Source\PSoC4/ADC_SAR_Seq_1.c ****             if((ADC_SAR_Seq_1_channelsConfig[chNum] & ADC_SAR_Seq_1_IS_SATURATE_EN_MASK) != 0u)
 145              		.loc 1 256 0
 146 009a E307     		lsls	r3, r4, #31
 147 009c 07D5     		bpl	.L4
 148              	.LVL9:
 257:Generated_Source\PSoC4/ADC_SAR_Seq_1.c ****             {
 258:Generated_Source\PSoC4/ADC_SAR_Seq_1.c ****                 ADC_SAR_Seq_1_SAR_SATURATE_INTR_MASK_REG |= (uint16)((uint16)1 << chNum);
 149              		.loc 1 258 0
 150 009e 2E48     		ldr	r0, .L12+64
 151 00a0 0168     		ldr	r1, [r0]
 152              	.LVL10:
 153 00a2 0123     		movs	r3, #1
 154 00a4 9340     		lsls	r3, r3, r2
 155 00a6 1B04     		lsls	r3, r3, #16
 156 00a8 1B0C     		lsrs	r3, r3, #16
 157 00aa 0B43     		orrs	r3, r1
 158 00ac 0360     		str	r3, [r0]
 159              	.LVL11:
 160              	.L4:
 259:Generated_Source\PSoC4/ADC_SAR_Seq_1.c ****             }
 260:Generated_Source\PSoC4/ADC_SAR_Seq_1.c **** 
 261:Generated_Source\PSoC4/ADC_SAR_Seq_1.c ****             if((ADC_SAR_Seq_1_channelsConfig[chNum] & ADC_SAR_Seq_1_IS_RANGE_CTRL_EN_MASK) != 0u)
 161              		.loc 1 261 0
 162 00ae 9300     		lsls	r3, r2, #2
 163 00b0 2E49     		ldr	r1, .L12+84
 164              	.LVL12:
 165 00b2 5B58     		ldr	r3, [r3, r1]
 166 00b4 9B07     		lsls	r3, r3, #30
 167 00b6 07D5     		bpl	.L5
 262:Generated_Source\PSoC4/ADC_SAR_Seq_1.c ****             {
 263:Generated_Source\PSoC4/ADC_SAR_Seq_1.c ****                 ADC_SAR_Seq_1_SAR_RANGE_INTR_MASK_REG |= (uint16)((uint16)1 << chNum);
 168              		.loc 1 263 0
 169 00b8 2848     		ldr	r0, .L12+68
 170 00ba 0168     		ldr	r1, [r0]
 171              	.LVL13:
 172 00bc 0123     		movs	r3, #1
 173 00be 9340     		lsls	r3, r3, r2
 174 00c0 1B04     		lsls	r3, r3, #16
 175 00c2 1B0C     		lsrs	r3, r3, #16
 176 00c4 0B43     		orrs	r3, r1
 177 00c6 0360     		str	r3, [r0]
 178              	.L5:
 264:Generated_Source\PSoC4/ADC_SAR_Seq_1.c ****             }
 265:Generated_Source\PSoC4/ADC_SAR_Seq_1.c ****         }
 266:Generated_Source\PSoC4/ADC_SAR_Seq_1.c ****         #if(ADC_SAR_Seq_1_INJ_CHANNEL_ENABLED)
 267:Generated_Source\PSoC4/ADC_SAR_Seq_1.c ****             else
 268:Generated_Source\PSoC4/ADC_SAR_Seq_1.c ****             {
 269:Generated_Source\PSoC4/ADC_SAR_Seq_1.c ****                 CY_SET_REG32(ADC_SAR_Seq_1_SAR_INJ_CHAN_CONFIG_PTR, tmpRegVal | ADC_SAR_Seq_1_INJ_T
 270:Generated_Source\PSoC4/ADC_SAR_Seq_1.c **** 
 271:Generated_Source\PSoC4/ADC_SAR_Seq_1.c ****                 if((ADC_SAR_Seq_1_channelsConfig[chNum] & ADC_SAR_Seq_1_IS_SATURATE_EN_MASK) != 0u)
 272:Generated_Source\PSoC4/ADC_SAR_Seq_1.c ****                 {
 273:Generated_Source\PSoC4/ADC_SAR_Seq_1.c ****                     ADC_SAR_Seq_1_SAR_INTR_MASK_REG |= ADC_SAR_Seq_1_INJ_SATURATE_MASK;
 274:Generated_Source\PSoC4/ADC_SAR_Seq_1.c ****                 }
 275:Generated_Source\PSoC4/ADC_SAR_Seq_1.c **** 
 276:Generated_Source\PSoC4/ADC_SAR_Seq_1.c ****                 if((ADC_SAR_Seq_1_channelsConfig[chNum] & ADC_SAR_Seq_1_IS_RANGE_CTRL_EN_MASK) != 0
ARM GAS  C:\Users\corne\AppData\Local\Temp\ccpTlc6c.s 			page 9


 277:Generated_Source\PSoC4/ADC_SAR_Seq_1.c ****                 {
 278:Generated_Source\PSoC4/ADC_SAR_Seq_1.c ****                     ADC_SAR_Seq_1_SAR_INTR_MASK_REG |= ADC_SAR_Seq_1_INJ_RANGE_MASK;
 279:Generated_Source\PSoC4/ADC_SAR_Seq_1.c ****                 }
 280:Generated_Source\PSoC4/ADC_SAR_Seq_1.c ****             }
 281:Generated_Source\PSoC4/ADC_SAR_Seq_1.c ****         #endif /* ADC_SAR_Seq_1_INJ_CHANNEL_ENABLED */
 282:Generated_Source\PSoC4/ADC_SAR_Seq_1.c **** 
 283:Generated_Source\PSoC4/ADC_SAR_Seq_1.c ****         if((ADC_SAR_Seq_1_channelsConfig[chNum] & ADC_SAR_Seq_1_ALT_RESOLUTION_ON) != 0u)
 179              		.loc 1 283 0
 180 00c8 9300     		lsls	r3, r2, #2
 181 00ca 2849     		ldr	r1, .L12+84
 182              	.LVL14:
 183 00cc 5958     		ldr	r1, [r3, r1]
 184              	.LVL15:
 185 00ce 8B05     		lsls	r3, r1, #22
 186 00d0 02D5     		bpl	.L11
 284:Generated_Source\PSoC4/ADC_SAR_Seq_1.c ****         {
 285:Generated_Source\PSoC4/ADC_SAR_Seq_1.c ****                counts = (int32)ADC_SAR_Seq_1_DEFAULT_MAX_WRK_ALT;
 187              		.loc 1 285 0
 188 00d2 8020     		movs	r0, #128
 189 00d4 4000     		lsls	r0, r0, #1
 190 00d6 01E0     		b	.L6
 191              	.L11:
 286:Generated_Source\PSoC4/ADC_SAR_Seq_1.c ****         }
 287:Generated_Source\PSoC4/ADC_SAR_Seq_1.c ****         else
 288:Generated_Source\PSoC4/ADC_SAR_Seq_1.c ****         {
 289:Generated_Source\PSoC4/ADC_SAR_Seq_1.c ****                counts = (int32)ADC_SAR_Seq_1_SAR_WRK_MAX_12BIT;
 192              		.loc 1 289 0
 193 00d8 8020     		movs	r0, #128
 194 00da 4001     		lsls	r0, r0, #5
 195              	.L6:
 196              	.LVL16:
 290:Generated_Source\PSoC4/ADC_SAR_Seq_1.c ****         }
 291:Generated_Source\PSoC4/ADC_SAR_Seq_1.c **** 
 292:Generated_Source\PSoC4/ADC_SAR_Seq_1.c ****         if((ADC_SAR_Seq_1_channelsConfig[chNum] & ADC_SAR_Seq_1_DIFFERENTIAL_EN) == 0u)
 197              		.loc 1 292 0
 198 00dc CB05     		lsls	r3, r1, #23
 199 00de 04D4     		bmi	.L7
 293:Generated_Source\PSoC4/ADC_SAR_Seq_1.c ****         {
 294:Generated_Source\PSoC4/ADC_SAR_Seq_1.c ****             #if((ADC_SAR_Seq_1_DEFAULT_SE_RESULT_FORMAT_SEL == ADC_SAR_Seq_1__FSIGNED) && \
 295:Generated_Source\PSoC4/ADC_SAR_Seq_1.c ****                 (ADC_SAR_Seq_1_DEFAULT_NEG_INPUT_SEL == ADC_SAR_Seq_1__VREF))
 296:Generated_Source\PSoC4/ADC_SAR_Seq_1.c ****                 /* Set offset to the minus half scale to convert results to unsigned format */
 297:Generated_Source\PSoC4/ADC_SAR_Seq_1.c ****                 ADC_SAR_Seq_1_offset[chNum] = (int16)(counts / -2);
 298:Generated_Source\PSoC4/ADC_SAR_Seq_1.c ****             #else
 299:Generated_Source\PSoC4/ADC_SAR_Seq_1.c ****                 ADC_SAR_Seq_1_offset[chNum] = 0;
 200              		.loc 1 299 0
 201 00e0 5300     		lsls	r3, r2, #1
 202 00e2 0024     		movs	r4, #0
 203              	.LVL17:
 204 00e4 2349     		ldr	r1, .L12+92
 205 00e6 5C52     		strh	r4, [r3, r1]
 206 00e8 03E0     		b	.L8
 207              	.LVL18:
 208              	.L7:
 300:Generated_Source\PSoC4/ADC_SAR_Seq_1.c ****             #endif /* end DEFAULT_SE_RESULT_FORMAT_SEL == ADC_SAR_Seq_1__FSIGNED */
 301:Generated_Source\PSoC4/ADC_SAR_Seq_1.c ****         }
 302:Generated_Source\PSoC4/ADC_SAR_Seq_1.c ****         else    /* Differential channel */
 303:Generated_Source\PSoC4/ADC_SAR_Seq_1.c ****         {
ARM GAS  C:\Users\corne\AppData\Local\Temp\ccpTlc6c.s 			page 10


 304:Generated_Source\PSoC4/ADC_SAR_Seq_1.c ****             #if(ADC_SAR_Seq_1_DEFAULT_DIFF_RESULT_FORMAT_SEL == ADC_SAR_Seq_1__FUNSIGNED)
 305:Generated_Source\PSoC4/ADC_SAR_Seq_1.c ****                 /* Set offset to the half scale to convert results to signed format */
 306:Generated_Source\PSoC4/ADC_SAR_Seq_1.c ****                 ADC_SAR_Seq_1_offset[chNum] = (int16)(counts / 2);
 307:Generated_Source\PSoC4/ADC_SAR_Seq_1.c ****             #else
 308:Generated_Source\PSoC4/ADC_SAR_Seq_1.c ****                 ADC_SAR_Seq_1_offset[chNum] = 0;
 209              		.loc 1 308 0
 210 00ea 5300     		lsls	r3, r2, #1
 211 00ec 0024     		movs	r4, #0
 212              	.LVL19:
 213 00ee 2149     		ldr	r1, .L12+92
 214 00f0 5C52     		strh	r4, [r3, r1]
 215              	.L8:
 309:Generated_Source\PSoC4/ADC_SAR_Seq_1.c ****             #endif /* end ADC_SAR_Seq_1_DEFAULT_DIFF_RESULT_FORMAT_SEL == ADC_SAR_Seq_1__FUNSIGNED 
 310:Generated_Source\PSoC4/ADC_SAR_Seq_1.c ****         }
 311:Generated_Source\PSoC4/ADC_SAR_Seq_1.c ****         /* Calculate gain in counts per 10 volts with rounding */
 312:Generated_Source\PSoC4/ADC_SAR_Seq_1.c ****         ADC_SAR_Seq_1_countsPer10Volt[chNum] = (int16)(((counts * ADC_SAR_Seq_1_10MV_COUNTS) +
 216              		.loc 1 312 0 discriminator 2
 217 00f2 214B     		ldr	r3, .L12+96
 218 00f4 4343     		muls	r3, r0
 219 00f6 8021     		movs	r1, #128
 220 00f8 C900     		lsls	r1, r1, #3
 221 00fa 8C46     		mov	ip, r1
 222 00fc 6344     		add	r3, r3, ip
 313:Generated_Source\PSoC4/ADC_SAR_Seq_1.c ****                             ADC_SAR_Seq_1_DEFAULT_VREF_MV_VALUE) / (ADC_SAR_Seq_1_DEFAULT_VREF_MV_V
 223              		.loc 1 313 0 discriminator 2
 224 00fe D917     		asrs	r1, r3, #31
 225 0100 4905     		lsls	r1, r1, #21
 226 0102 490D     		lsrs	r1, r1, #21
 227 0104 CB18     		adds	r3, r1, r3
 228 0106 DB12     		asrs	r3, r3, #11
 312:Generated_Source\PSoC4/ADC_SAR_Seq_1.c ****                             ADC_SAR_Seq_1_DEFAULT_VREF_MV_VALUE) / (ADC_SAR_Seq_1_DEFAULT_VREF_MV_V
 229              		.loc 1 312 0 discriminator 2
 230 0108 1BB2     		sxth	r3, r3
 231 010a 9000     		lsls	r0, r2, #2
 232              	.LVL20:
 233 010c 1B49     		ldr	r1, .L12+100
 234 010e 4350     		str	r3, [r0, r1]
 233:Generated_Source\PSoC4/ADC_SAR_Seq_1.c ****     {
 235              		.loc 1 233 0 discriminator 2
 236 0110 0132     		adds	r2, r2, #1
 237              	.LVL21:
 238              	.L3:
 233:Generated_Source\PSoC4/ADC_SAR_Seq_1.c ****     {
 239              		.loc 1 233 0 is_stmt 0 discriminator 1
 240 0112 042A     		cmp	r2, #4
 241 0114 B4D9     		bls	.L9
 314:Generated_Source\PSoC4/ADC_SAR_Seq_1.c ****     }
 315:Generated_Source\PSoC4/ADC_SAR_Seq_1.c **** }
 242              		.loc 1 315 0 is_stmt 1
 243              		@ sp needed
 244 0116 10BD     		pop	{r4, pc}
 245              	.L13:
 246              		.align	2
 247              	.L12:
 248 0118 00000000 		.word	ADC_SAR_Seq_1_ISR
 249 011c 20003A40 		.word	1077542944
 250 0120 80033A40 		.word	1077543808
ARM GAS  C:\Users\corne\AppData\Local\Temp\ccpTlc6c.s 			page 11


 251 0124 C0201013 		.word	319824064
 252 0128 C0200013 		.word	318775488
 253 012c 00003A40 		.word	1077542912
 254 0130 8C000080 		.word	-2147483508
 255 0134 04003A40 		.word	1077542916
 256 0138 0000FF07 		.word	134152192
 257 013c 18003A40 		.word	1077542936
 258 0140 1C003A40 		.word	1077542940
 259 0144 04000400 		.word	262148
 260 0148 10003A40 		.word	1077542928
 261 014c 14003A40 		.word	1077542932
 262 0150 00033A40 		.word	1077543680
 263 0154 40033A40 		.word	1077543744
 264 0158 28023A40 		.word	1077543464
 265 015c 38023A40 		.word	1077543480
 266 0160 18023A40 		.word	1077543448
 267 0164 30003A40 		.word	1077542960
 268 0168 FEFFFFDF 		.word	-536870914
 269 016c 00000000 		.word	.LANCHOR0
 270 0170 80003A40 		.word	1077543040
 271 0174 00000000 		.word	ADC_SAR_Seq_1_offset
 272 0178 10270000 		.word	10000
 273 017c 00000000 		.word	ADC_SAR_Seq_1_countsPer10Volt
 274              		.cfi_endproc
 275              	.LFE2:
 276              		.size	ADC_SAR_Seq_1_Init, .-ADC_SAR_Seq_1_Init
 277              		.section	.text.ADC_SAR_Seq_1_Enable,"ax",%progbits
 278              		.align	2
 279              		.global	ADC_SAR_Seq_1_Enable
 280              		.code	16
 281              		.thumb_func
 282              		.type	ADC_SAR_Seq_1_Enable, %function
 283              	ADC_SAR_Seq_1_Enable:
 284              	.LFB3:
 316:Generated_Source\PSoC4/ADC_SAR_Seq_1.c **** 
 317:Generated_Source\PSoC4/ADC_SAR_Seq_1.c **** /*******************************************************************************
 318:Generated_Source\PSoC4/ADC_SAR_Seq_1.c **** * Function Name: ADC_SAR_1_Enable
 319:Generated_Source\PSoC4/ADC_SAR_Seq_1.c **** ********************************************************************************
 320:Generated_Source\PSoC4/ADC_SAR_Seq_1.c **** *
 321:Generated_Source\PSoC4/ADC_SAR_Seq_1.c **** * Summary:
 322:Generated_Source\PSoC4/ADC_SAR_Seq_1.c **** *  Enables the clock and analog power for SAR ADC.
 323:Generated_Source\PSoC4/ADC_SAR_Seq_1.c **** *
 324:Generated_Source\PSoC4/ADC_SAR_Seq_1.c **** * Parameters:
 325:Generated_Source\PSoC4/ADC_SAR_Seq_1.c **** *  None.
 326:Generated_Source\PSoC4/ADC_SAR_Seq_1.c **** *
 327:Generated_Source\PSoC4/ADC_SAR_Seq_1.c **** * Return:
 328:Generated_Source\PSoC4/ADC_SAR_Seq_1.c **** *  None.
 329:Generated_Source\PSoC4/ADC_SAR_Seq_1.c **** *
 330:Generated_Source\PSoC4/ADC_SAR_Seq_1.c **** *******************************************************************************/
 331:Generated_Source\PSoC4/ADC_SAR_Seq_1.c **** void ADC_SAR_Seq_1_Enable(void)
 332:Generated_Source\PSoC4/ADC_SAR_Seq_1.c **** {
 285              		.loc 1 332 0
 286              		.cfi_startproc
 287              		@ args = 0, pretend = 0, frame = 0
 288              		@ frame_needed = 0, uses_anonymous_args = 0
 289 0000 10B5     		push	{r4, lr}
 290              		.cfi_def_cfa_offset 8
ARM GAS  C:\Users\corne\AppData\Local\Temp\ccpTlc6c.s 			page 12


 291              		.cfi_offset 4, -8
 292              		.cfi_offset 14, -4
 333:Generated_Source\PSoC4/ADC_SAR_Seq_1.c ****     if (0u == (ADC_SAR_Seq_1_SAR_CTRL_REG & ADC_SAR_Seq_1_ENABLE))
 293              		.loc 1 333 0
 294 0002 094B     		ldr	r3, .L17
 295 0004 1B68     		ldr	r3, [r3]
 296 0006 002B     		cmp	r3, #0
 297 0008 0CDB     		blt	.L14
 298              	.L16:
 334:Generated_Source\PSoC4/ADC_SAR_Seq_1.c ****     {
 335:Generated_Source\PSoC4/ADC_SAR_Seq_1.c ****         #if(ADC_SAR_Seq_1_CY_SAR_IP_VER != ADC_SAR_Seq_1_CY_SAR_IP_VER0)
 336:Generated_Source\PSoC4/ADC_SAR_Seq_1.c **** 
 337:Generated_Source\PSoC4/ADC_SAR_Seq_1.c ****             while (0u != (ADC_SAR_Seq_1_SAR_STATUS_REG & ADC_SAR_Seq_1_STATUS_BUSY))
 299              		.loc 1 337 0 discriminator 1
 300 000a 084B     		ldr	r3, .L17+4
 301 000c 1B68     		ldr	r3, [r3]
 302 000e 002B     		cmp	r3, #0
 303 0010 FBDB     		blt	.L16
 338:Generated_Source\PSoC4/ADC_SAR_Seq_1.c ****             {
 339:Generated_Source\PSoC4/ADC_SAR_Seq_1.c ****                 /* wait for SAR to go idle to avoid deadlock */
 340:Generated_Source\PSoC4/ADC_SAR_Seq_1.c ****             }
 341:Generated_Source\PSoC4/ADC_SAR_Seq_1.c ****         #endif /* (ADC_SAR_Seq_1_CY_SAR_IP_VER != ADC_SAR_Seq_1_CY_SAR_IP_VER0) */
 342:Generated_Source\PSoC4/ADC_SAR_Seq_1.c ****         
 343:Generated_Source\PSoC4/ADC_SAR_Seq_1.c ****         ADC_SAR_Seq_1_SAR_CTRL_REG |= ADC_SAR_Seq_1_ENABLE;
 304              		.loc 1 343 0
 305 0012 054A     		ldr	r2, .L17
 306 0014 1368     		ldr	r3, [r2]
 307 0016 8021     		movs	r1, #128
 308 0018 0906     		lsls	r1, r1, #24
 309 001a 0B43     		orrs	r3, r1
 310 001c 1360     		str	r3, [r2]
 344:Generated_Source\PSoC4/ADC_SAR_Seq_1.c ****         
 345:Generated_Source\PSoC4/ADC_SAR_Seq_1.c ****         /* The block is ready to use 10 us after the enable signal is set high. */
 346:Generated_Source\PSoC4/ADC_SAR_Seq_1.c ****         CyDelayUs(ADC_SAR_Seq_1_10US_DELAY);         
 311              		.loc 1 346 0
 312 001e 0A20     		movs	r0, #10
 313 0020 FFF7FEFF 		bl	CyDelayUs
 314              	.LVL22:
 315              	.L14:
 347:Generated_Source\PSoC4/ADC_SAR_Seq_1.c ****     }
 348:Generated_Source\PSoC4/ADC_SAR_Seq_1.c **** }
 316              		.loc 1 348 0
 317              		@ sp needed
 318 0024 10BD     		pop	{r4, pc}
 319              	.L18:
 320 0026 C046     		.align	2
 321              	.L17:
 322 0028 00003A40 		.word	1077542912
 323 002c 08023A40 		.word	1077543432
 324              		.cfi_endproc
 325              	.LFE3:
 326              		.size	ADC_SAR_Seq_1_Enable, .-ADC_SAR_Seq_1_Enable
 327              		.section	.text.ADC_SAR_Seq_1_Start,"ax",%progbits
 328              		.align	2
 329              		.global	ADC_SAR_Seq_1_Start
 330              		.code	16
 331              		.thumb_func
ARM GAS  C:\Users\corne\AppData\Local\Temp\ccpTlc6c.s 			page 13


 332              		.type	ADC_SAR_Seq_1_Start, %function
 333              	ADC_SAR_Seq_1_Start:
 334              	.LFB1:
  65:Generated_Source\PSoC4/ADC_SAR_Seq_1.c ****     /* If not Initialized then initialize all required hardware and software */
 335              		.loc 1 65 0
 336              		.cfi_startproc
 337              		@ args = 0, pretend = 0, frame = 0
 338              		@ frame_needed = 0, uses_anonymous_args = 0
 339 0000 10B5     		push	{r4, lr}
 340              		.cfi_def_cfa_offset 8
 341              		.cfi_offset 4, -8
 342              		.cfi_offset 14, -4
  67:Generated_Source\PSoC4/ADC_SAR_Seq_1.c ****     {
 343              		.loc 1 67 0
 344 0002 064B     		ldr	r3, .L21
 345 0004 1B78     		ldrb	r3, [r3]
 346 0006 002B     		cmp	r3, #0
 347 0008 04D1     		bne	.L20
  69:Generated_Source\PSoC4/ADC_SAR_Seq_1.c ****         ADC_SAR_Seq_1_initVar = 1u;
 348              		.loc 1 69 0
 349 000a FFF7FEFF 		bl	ADC_SAR_Seq_1_Init
 350              	.LVL23:
  70:Generated_Source\PSoC4/ADC_SAR_Seq_1.c ****     }
 351              		.loc 1 70 0
 352 000e 0122     		movs	r2, #1
 353 0010 024B     		ldr	r3, .L21
 354 0012 1A70     		strb	r2, [r3]
 355              	.L20:
  72:Generated_Source\PSoC4/ADC_SAR_Seq_1.c **** }
 356              		.loc 1 72 0
 357 0014 FFF7FEFF 		bl	ADC_SAR_Seq_1_Enable
 358              	.LVL24:
  73:Generated_Source\PSoC4/ADC_SAR_Seq_1.c **** 
 359              		.loc 1 73 0
 360              		@ sp needed
 361 0018 10BD     		pop	{r4, pc}
 362              	.L22:
 363 001a C046     		.align	2
 364              	.L21:
 365 001c 00000000 		.word	.LANCHOR1
 366              		.cfi_endproc
 367              	.LFE1:
 368              		.size	ADC_SAR_Seq_1_Start, .-ADC_SAR_Seq_1_Start
 369              		.section	.text.ADC_SAR_Seq_1_Stop,"ax",%progbits
 370              		.align	2
 371              		.global	ADC_SAR_Seq_1_Stop
 372              		.code	16
 373              		.thumb_func
 374              		.type	ADC_SAR_Seq_1_Stop, %function
 375              	ADC_SAR_Seq_1_Stop:
 376              	.LFB4:
 349:Generated_Source\PSoC4/ADC_SAR_Seq_1.c **** 
 350:Generated_Source\PSoC4/ADC_SAR_Seq_1.c **** 
 351:Generated_Source\PSoC4/ADC_SAR_Seq_1.c **** /*******************************************************************************
 352:Generated_Source\PSoC4/ADC_SAR_Seq_1.c **** * Function Name: ADC_SAR_Seq_1_Stop
 353:Generated_Source\PSoC4/ADC_SAR_Seq_1.c **** ********************************************************************************
 354:Generated_Source\PSoC4/ADC_SAR_Seq_1.c **** *
ARM GAS  C:\Users\corne\AppData\Local\Temp\ccpTlc6c.s 			page 14


 355:Generated_Source\PSoC4/ADC_SAR_Seq_1.c **** * Summary:
 356:Generated_Source\PSoC4/ADC_SAR_Seq_1.c **** *  This function stops ADC conversions and puts the ADC into its lowest power
 357:Generated_Source\PSoC4/ADC_SAR_Seq_1.c **** *  mode.
 358:Generated_Source\PSoC4/ADC_SAR_Seq_1.c **** *
 359:Generated_Source\PSoC4/ADC_SAR_Seq_1.c **** * Parameters:
 360:Generated_Source\PSoC4/ADC_SAR_Seq_1.c **** *  None.
 361:Generated_Source\PSoC4/ADC_SAR_Seq_1.c **** *
 362:Generated_Source\PSoC4/ADC_SAR_Seq_1.c **** * Return:
 363:Generated_Source\PSoC4/ADC_SAR_Seq_1.c **** *  None.
 364:Generated_Source\PSoC4/ADC_SAR_Seq_1.c **** *
 365:Generated_Source\PSoC4/ADC_SAR_Seq_1.c **** *******************************************************************************/
 366:Generated_Source\PSoC4/ADC_SAR_Seq_1.c **** void ADC_SAR_Seq_1_Stop(void)
 367:Generated_Source\PSoC4/ADC_SAR_Seq_1.c **** {
 377              		.loc 1 367 0
 378              		.cfi_startproc
 379              		@ args = 0, pretend = 0, frame = 0
 380              		@ frame_needed = 0, uses_anonymous_args = 0
 381              		@ link register save eliminated.
 368:Generated_Source\PSoC4/ADC_SAR_Seq_1.c ****     ADC_SAR_Seq_1_SAR_CTRL_REG &= (uint32)~ADC_SAR_Seq_1_ENABLE;
 382              		.loc 1 368 0
 383 0000 024A     		ldr	r2, .L24
 384 0002 1368     		ldr	r3, [r2]
 385 0004 5B00     		lsls	r3, r3, #1
 386 0006 5B08     		lsrs	r3, r3, #1
 387 0008 1360     		str	r3, [r2]
 369:Generated_Source\PSoC4/ADC_SAR_Seq_1.c **** }
 388              		.loc 1 369 0
 389              		@ sp needed
 390 000a 7047     		bx	lr
 391              	.L25:
 392              		.align	2
 393              	.L24:
 394 000c 00003A40 		.word	1077542912
 395              		.cfi_endproc
 396              	.LFE4:
 397              		.size	ADC_SAR_Seq_1_Stop, .-ADC_SAR_Seq_1_Stop
 398              		.section	.text.ADC_SAR_Seq_1_StartConvert,"ax",%progbits
 399              		.align	2
 400              		.global	ADC_SAR_Seq_1_StartConvert
 401              		.code	16
 402              		.thumb_func
 403              		.type	ADC_SAR_Seq_1_StartConvert, %function
 404              	ADC_SAR_Seq_1_StartConvert:
 405              	.LFB5:
 370:Generated_Source\PSoC4/ADC_SAR_Seq_1.c **** 
 371:Generated_Source\PSoC4/ADC_SAR_Seq_1.c **** 
 372:Generated_Source\PSoC4/ADC_SAR_Seq_1.c **** /*******************************************************************************
 373:Generated_Source\PSoC4/ADC_SAR_Seq_1.c **** * Function Name: ADC_SAR_Seq_1_StartConvert
 374:Generated_Source\PSoC4/ADC_SAR_Seq_1.c **** ********************************************************************************
 375:Generated_Source\PSoC4/ADC_SAR_Seq_1.c **** *
 376:Generated_Source\PSoC4/ADC_SAR_Seq_1.c **** * Summary:
 377:Generated_Source\PSoC4/ADC_SAR_Seq_1.c **** *  Description:
 378:Generated_Source\PSoC4/ADC_SAR_Seq_1.c **** *  For free running mode, this API starts the conversion process and it
 379:Generated_Source\PSoC4/ADC_SAR_Seq_1.c **** *  runs continuously.
 380:Generated_Source\PSoC4/ADC_SAR_Seq_1.c **** *
 381:Generated_Source\PSoC4/ADC_SAR_Seq_1.c **** *  In a triggered mode, this routine triggers every conversion by
 382:Generated_Source\PSoC4/ADC_SAR_Seq_1.c **** *  writing into the FW_TRIGGER bit in SAR_START_CTRL reg. In triggered mode,
ARM GAS  C:\Users\corne\AppData\Local\Temp\ccpTlc6c.s 			page 15


 383:Generated_Source\PSoC4/ADC_SAR_Seq_1.c **** *  every conversion has to start by this API.
 384:Generated_Source\PSoC4/ADC_SAR_Seq_1.c **** *
 385:Generated_Source\PSoC4/ADC_SAR_Seq_1.c **** * Parameters:
 386:Generated_Source\PSoC4/ADC_SAR_Seq_1.c **** *  None.
 387:Generated_Source\PSoC4/ADC_SAR_Seq_1.c **** *
 388:Generated_Source\PSoC4/ADC_SAR_Seq_1.c **** * Return:
 389:Generated_Source\PSoC4/ADC_SAR_Seq_1.c **** *  None.
 390:Generated_Source\PSoC4/ADC_SAR_Seq_1.c **** *
 391:Generated_Source\PSoC4/ADC_SAR_Seq_1.c **** *******************************************************************************/
 392:Generated_Source\PSoC4/ADC_SAR_Seq_1.c **** void ADC_SAR_Seq_1_StartConvert(void)
 393:Generated_Source\PSoC4/ADC_SAR_Seq_1.c **** {
 406              		.loc 1 393 0
 407              		.cfi_startproc
 408              		@ args = 0, pretend = 0, frame = 0
 409              		@ frame_needed = 0, uses_anonymous_args = 0
 410              		@ link register save eliminated.
 394:Generated_Source\PSoC4/ADC_SAR_Seq_1.c ****     #if(ADC_SAR_Seq_1_DEFAULT_SAMPLE_MODE_SEL == ADC_SAR_Seq_1__FREERUNNING)
 395:Generated_Source\PSoC4/ADC_SAR_Seq_1.c ****         ADC_SAR_Seq_1_SAR_SAMPLE_CTRL_REG |= ADC_SAR_Seq_1_CONTINUOUS_EN;
 411              		.loc 1 395 0
 412 0000 034A     		ldr	r2, .L27
 413 0002 1368     		ldr	r3, [r2]
 414 0004 8021     		movs	r1, #128
 415 0006 4902     		lsls	r1, r1, #9
 416 0008 0B43     		orrs	r3, r1
 417 000a 1360     		str	r3, [r2]
 396:Generated_Source\PSoC4/ADC_SAR_Seq_1.c ****     #else /* Firmware trigger */
 397:Generated_Source\PSoC4/ADC_SAR_Seq_1.c ****         ADC_SAR_Seq_1_SAR_START_CTRL_REG = ADC_SAR_Seq_1_FW_TRIGGER;
 398:Generated_Source\PSoC4/ADC_SAR_Seq_1.c ****     #endif /* End ADC_SAR_Seq_1_DEFAULT_SAMPLE_MODE == ADC_SAR_Seq_1__FREERUNNING */
 399:Generated_Source\PSoC4/ADC_SAR_Seq_1.c **** 
 400:Generated_Source\PSoC4/ADC_SAR_Seq_1.c **** }
 418              		.loc 1 400 0
 419              		@ sp needed
 420 000c 7047     		bx	lr
 421              	.L28:
 422 000e C046     		.align	2
 423              	.L27:
 424 0010 04003A40 		.word	1077542916
 425              		.cfi_endproc
 426              	.LFE5:
 427              		.size	ADC_SAR_Seq_1_StartConvert, .-ADC_SAR_Seq_1_StartConvert
 428              		.section	.text.ADC_SAR_Seq_1_StopConvert,"ax",%progbits
 429              		.align	2
 430              		.global	ADC_SAR_Seq_1_StopConvert
 431              		.code	16
 432              		.thumb_func
 433              		.type	ADC_SAR_Seq_1_StopConvert, %function
 434              	ADC_SAR_Seq_1_StopConvert:
 435              	.LFB6:
 401:Generated_Source\PSoC4/ADC_SAR_Seq_1.c **** 
 402:Generated_Source\PSoC4/ADC_SAR_Seq_1.c **** 
 403:Generated_Source\PSoC4/ADC_SAR_Seq_1.c **** /*******************************************************************************
 404:Generated_Source\PSoC4/ADC_SAR_Seq_1.c **** * Function Name: ADC_SAR_Seq_1_StopConvert
 405:Generated_Source\PSoC4/ADC_SAR_Seq_1.c **** ********************************************************************************
 406:Generated_Source\PSoC4/ADC_SAR_Seq_1.c **** *
 407:Generated_Source\PSoC4/ADC_SAR_Seq_1.c **** * Summary:
 408:Generated_Source\PSoC4/ADC_SAR_Seq_1.c **** *  Forces the ADC to stop all conversions.
 409:Generated_Source\PSoC4/ADC_SAR_Seq_1.c **** *
ARM GAS  C:\Users\corne\AppData\Local\Temp\ccpTlc6c.s 			page 16


 410:Generated_Source\PSoC4/ADC_SAR_Seq_1.c **** * Parameters:
 411:Generated_Source\PSoC4/ADC_SAR_Seq_1.c **** *  None.
 412:Generated_Source\PSoC4/ADC_SAR_Seq_1.c **** *
 413:Generated_Source\PSoC4/ADC_SAR_Seq_1.c **** * Return:
 414:Generated_Source\PSoC4/ADC_SAR_Seq_1.c **** *  None.
 415:Generated_Source\PSoC4/ADC_SAR_Seq_1.c **** *
 416:Generated_Source\PSoC4/ADC_SAR_Seq_1.c **** *******************************************************************************/
 417:Generated_Source\PSoC4/ADC_SAR_Seq_1.c **** void ADC_SAR_Seq_1_StopConvert(void)
 418:Generated_Source\PSoC4/ADC_SAR_Seq_1.c **** {
 436              		.loc 1 418 0
 437              		.cfi_startproc
 438              		@ args = 0, pretend = 0, frame = 0
 439              		@ frame_needed = 0, uses_anonymous_args = 0
 440              		@ link register save eliminated.
 419:Generated_Source\PSoC4/ADC_SAR_Seq_1.c ****     #if(ADC_SAR_Seq_1_DEFAULT_SAMPLE_MODE_SEL == ADC_SAR_Seq_1__FREERUNNING)
 420:Generated_Source\PSoC4/ADC_SAR_Seq_1.c ****         ADC_SAR_Seq_1_SAR_SAMPLE_CTRL_REG &= (uint32)(~ADC_SAR_Seq_1_CONTINUOUS_EN);
 441              		.loc 1 420 0
 442 0000 024A     		ldr	r2, .L30
 443 0002 1168     		ldr	r1, [r2]
 444 0004 024B     		ldr	r3, .L30+4
 445 0006 0B40     		ands	r3, r1
 446 0008 1360     		str	r3, [r2]
 421:Generated_Source\PSoC4/ADC_SAR_Seq_1.c ****     #endif /* ADC_SAR_Seq_1_DEFAULT_SAMPLE_MODE == ADC_SAR_Seq_1__FREERUNNING */
 422:Generated_Source\PSoC4/ADC_SAR_Seq_1.c **** }
 447              		.loc 1 422 0
 448              		@ sp needed
 449 000a 7047     		bx	lr
 450              	.L31:
 451              		.align	2
 452              	.L30:
 453 000c 04003A40 		.word	1077542916
 454 0010 FFFFFEFF 		.word	-65537
 455              		.cfi_endproc
 456              	.LFE6:
 457              		.size	ADC_SAR_Seq_1_StopConvert, .-ADC_SAR_Seq_1_StopConvert
 458              		.section	.text.ADC_SAR_Seq_1_IsEndConversion,"ax",%progbits
 459              		.align	2
 460              		.global	ADC_SAR_Seq_1_IsEndConversion
 461              		.code	16
 462              		.thumb_func
 463              		.type	ADC_SAR_Seq_1_IsEndConversion, %function
 464              	ADC_SAR_Seq_1_IsEndConversion:
 465              	.LFB7:
 423:Generated_Source\PSoC4/ADC_SAR_Seq_1.c **** 
 424:Generated_Source\PSoC4/ADC_SAR_Seq_1.c **** 
 425:Generated_Source\PSoC4/ADC_SAR_Seq_1.c **** /*******************************************************************************
 426:Generated_Source\PSoC4/ADC_SAR_Seq_1.c **** * Function Name: ADC_SAR_Seq_1_IsEndConversion
 427:Generated_Source\PSoC4/ADC_SAR_Seq_1.c **** ********************************************************************************
 428:Generated_Source\PSoC4/ADC_SAR_Seq_1.c **** *
 429:Generated_Source\PSoC4/ADC_SAR_Seq_1.c **** * Summary:
 430:Generated_Source\PSoC4/ADC_SAR_Seq_1.c **** *  Description: Checks for ADC end of conversion for the case one
 431:Generated_Source\PSoC4/ADC_SAR_Seq_1.c **** *  channel and end of scan for the case of multiple channels. It acts
 432:Generated_Source\PSoC4/ADC_SAR_Seq_1.c **** *  as a software version of the EOC. This function provides the
 433:Generated_Source\PSoC4/ADC_SAR_Seq_1.c **** *  programmer with two options. In one mode this function
 434:Generated_Source\PSoC4/ADC_SAR_Seq_1.c **** *  immediately returns with the conversion status. In the other mode,
 435:Generated_Source\PSoC4/ADC_SAR_Seq_1.c **** *  the function does not return (blocking) until the conversion has
 436:Generated_Source\PSoC4/ADC_SAR_Seq_1.c **** *  completed.
ARM GAS  C:\Users\corne\AppData\Local\Temp\ccpTlc6c.s 			page 17


 437:Generated_Source\PSoC4/ADC_SAR_Seq_1.c **** *
 438:Generated_Source\PSoC4/ADC_SAR_Seq_1.c **** * Parameters:
 439:Generated_Source\PSoC4/ADC_SAR_Seq_1.c **** *  ADC_RETURN_STATUS        -> Immediately returns conversion result status
 440:Generated_Source\PSoC4/ADC_SAR_Seq_1.c **** *  ADC_WAIT_FOR_RESULT      -> Does not return until ADC complete
 441:Generated_Source\PSoC4/ADC_SAR_Seq_1.c **** *  ADC_RETURN_STATUS_INJ    -> Immediately returns conversion result status
 442:Generated_Source\PSoC4/ADC_SAR_Seq_1.c **** *                              for injection channel
 443:Generated_Source\PSoC4/ADC_SAR_Seq_1.c **** *  ADC_WAIT_FOR_RESULT_INJ  -> Does not return until ADC completes injection
 444:Generated_Source\PSoC4/ADC_SAR_Seq_1.c **** *                              channel conversion
 445:Generated_Source\PSoC4/ADC_SAR_Seq_1.c **** *
 446:Generated_Source\PSoC4/ADC_SAR_Seq_1.c **** * Return:
 447:Generated_Source\PSoC4/ADC_SAR_Seq_1.c **** *  If a non-zero value is returned, the last conversion or scan has completed.
 448:Generated_Source\PSoC4/ADC_SAR_Seq_1.c **** *  If the returned value is zero, the ADC is still in the process of a scan.
 449:Generated_Source\PSoC4/ADC_SAR_Seq_1.c **** *
 450:Generated_Source\PSoC4/ADC_SAR_Seq_1.c **** *******************************************************************************/
 451:Generated_Source\PSoC4/ADC_SAR_Seq_1.c **** uint32 ADC_SAR_Seq_1_IsEndConversion(uint32 retMode)
 452:Generated_Source\PSoC4/ADC_SAR_Seq_1.c **** {
 466              		.loc 1 452 0
 467              		.cfi_startproc
 468              		@ args = 0, pretend = 0, frame = 0
 469              		@ frame_needed = 0, uses_anonymous_args = 0
 470              		@ link register save eliminated.
 471              	.LVL25:
 472 0000 0200     		movs	r2, r0
 473              	.LVL26:
 453:Generated_Source\PSoC4/ADC_SAR_Seq_1.c ****     uint32 status = 0u;
 454:Generated_Source\PSoC4/ADC_SAR_Seq_1.c **** 
 455:Generated_Source\PSoC4/ADC_SAR_Seq_1.c ****     if((retMode & (ADC_SAR_Seq_1_RETURN_STATUS | ADC_SAR_Seq_1_WAIT_FOR_RESULT)) != 0u)
 474              		.loc 1 455 0
 475 0002 8307     		lsls	r3, r0, #30
 476 0004 0CD0     		beq	.L36
 477              	.LVL27:
 478              	.L35:
 456:Generated_Source\PSoC4/ADC_SAR_Seq_1.c ****     {
 457:Generated_Source\PSoC4/ADC_SAR_Seq_1.c ****         do
 458:Generated_Source\PSoC4/ADC_SAR_Seq_1.c ****         {
 459:Generated_Source\PSoC4/ADC_SAR_Seq_1.c ****             status = ADC_SAR_Seq_1_SAR_INTR_REG & ADC_SAR_Seq_1_EOS_MASK;
 479              		.loc 1 459 0 discriminator 2
 480 0006 074B     		ldr	r3, .L37
 481 0008 1B68     		ldr	r3, [r3]
 482 000a 0120     		movs	r0, #1
 483 000c 1840     		ands	r0, r3
 484              	.LVL28:
 460:Generated_Source\PSoC4/ADC_SAR_Seq_1.c ****         }while((status == 0u) && ((retMode & ADC_SAR_Seq_1_WAIT_FOR_RESULT) != 0u));
 485              		.loc 1 460 0 discriminator 2
 486 000e 01D1     		bne	.L34
 487              		.loc 1 460 0 is_stmt 0 discriminator 1
 488 0010 9307     		lsls	r3, r2, #30
 489 0012 F8D4     		bmi	.L35
 490              	.L34:
 461:Generated_Source\PSoC4/ADC_SAR_Seq_1.c **** 
 462:Generated_Source\PSoC4/ADC_SAR_Seq_1.c ****         if(status != 0u)
 491              		.loc 1 462 0 is_stmt 1
 492 0014 0028     		cmp	r0, #0
 493 0016 04D0     		beq	.L33
 463:Generated_Source\PSoC4/ADC_SAR_Seq_1.c ****         {
 464:Generated_Source\PSoC4/ADC_SAR_Seq_1.c ****             /* Clear EOS bit */
 465:Generated_Source\PSoC4/ADC_SAR_Seq_1.c ****             ADC_SAR_Seq_1_SAR_INTR_REG = ADC_SAR_Seq_1_EOS_MASK;
ARM GAS  C:\Users\corne\AppData\Local\Temp\ccpTlc6c.s 			page 18


 494              		.loc 1 465 0
 495 0018 0122     		movs	r2, #1
 496              	.LVL29:
 497 001a 024B     		ldr	r3, .L37
 498 001c 1A60     		str	r2, [r3]
 499 001e 00E0     		b	.L33
 500              	.LVL30:
 501              	.L36:
 453:Generated_Source\PSoC4/ADC_SAR_Seq_1.c **** 
 502              		.loc 1 453 0
 503 0020 0020     		movs	r0, #0
 504              	.LVL31:
 505              	.L33:
 466:Generated_Source\PSoC4/ADC_SAR_Seq_1.c ****         }
 467:Generated_Source\PSoC4/ADC_SAR_Seq_1.c ****     }
 468:Generated_Source\PSoC4/ADC_SAR_Seq_1.c **** 
 469:Generated_Source\PSoC4/ADC_SAR_Seq_1.c ****     #if(ADC_SAR_Seq_1_INJ_CHANNEL_ENABLED)
 470:Generated_Source\PSoC4/ADC_SAR_Seq_1.c ****         if((retMode & (ADC_SAR_Seq_1_RETURN_STATUS_INJ | ADC_SAR_Seq_1_WAIT_FOR_RESULT_INJ)) != 0u)
 471:Generated_Source\PSoC4/ADC_SAR_Seq_1.c ****         {
 472:Generated_Source\PSoC4/ADC_SAR_Seq_1.c ****             do
 473:Generated_Source\PSoC4/ADC_SAR_Seq_1.c ****             {
 474:Generated_Source\PSoC4/ADC_SAR_Seq_1.c ****                 status |= ADC_SAR_Seq_1_SAR_INTR_REG & ADC_SAR_Seq_1_INJ_EOC_MASK;
 475:Generated_Source\PSoC4/ADC_SAR_Seq_1.c ****             }while(((status & ADC_SAR_Seq_1_INJ_EOC_MASK) == 0u) &&
 476:Generated_Source\PSoC4/ADC_SAR_Seq_1.c ****                    ((retMode & ADC_SAR_Seq_1_WAIT_FOR_RESULT_INJ) != 0u));
 477:Generated_Source\PSoC4/ADC_SAR_Seq_1.c **** 
 478:Generated_Source\PSoC4/ADC_SAR_Seq_1.c ****             if((status & ADC_SAR_Seq_1_INJ_EOC_MASK) != 0u)
 479:Generated_Source\PSoC4/ADC_SAR_Seq_1.c ****             {
 480:Generated_Source\PSoC4/ADC_SAR_Seq_1.c ****                 /* Clear Injection EOS bit */
 481:Generated_Source\PSoC4/ADC_SAR_Seq_1.c ****                 ADC_SAR_Seq_1_SAR_INTR_REG = ADC_SAR_Seq_1_INJ_EOC_MASK;
 482:Generated_Source\PSoC4/ADC_SAR_Seq_1.c ****             }
 483:Generated_Source\PSoC4/ADC_SAR_Seq_1.c ****         }
 484:Generated_Source\PSoC4/ADC_SAR_Seq_1.c ****     #endif /* ADC_SAR_Seq_1_INJ_CHANNEL_ENABLED */
 485:Generated_Source\PSoC4/ADC_SAR_Seq_1.c **** 
 486:Generated_Source\PSoC4/ADC_SAR_Seq_1.c ****     return (status);
 487:Generated_Source\PSoC4/ADC_SAR_Seq_1.c **** }
 506              		.loc 1 487 0
 507              		@ sp needed
 508 0022 7047     		bx	lr
 509              	.L38:
 510              		.align	2
 511              	.L37:
 512 0024 10023A40 		.word	1077543440
 513              		.cfi_endproc
 514              	.LFE7:
 515              		.size	ADC_SAR_Seq_1_IsEndConversion, .-ADC_SAR_Seq_1_IsEndConversion
 516              		.section	.text.ADC_SAR_Seq_1_GetResult16,"ax",%progbits
 517              		.align	2
 518              		.global	ADC_SAR_Seq_1_GetResult16
 519              		.code	16
 520              		.thumb_func
 521              		.type	ADC_SAR_Seq_1_GetResult16, %function
 522              	ADC_SAR_Seq_1_GetResult16:
 523              	.LFB8:
 488:Generated_Source\PSoC4/ADC_SAR_Seq_1.c **** 
 489:Generated_Source\PSoC4/ADC_SAR_Seq_1.c **** 
 490:Generated_Source\PSoC4/ADC_SAR_Seq_1.c **** /*******************************************************************************
 491:Generated_Source\PSoC4/ADC_SAR_Seq_1.c **** * Function Name: ADC_SAR_Seq_1_GetResult16
ARM GAS  C:\Users\corne\AppData\Local\Temp\ccpTlc6c.s 			page 19


 492:Generated_Source\PSoC4/ADC_SAR_Seq_1.c **** ********************************************************************************
 493:Generated_Source\PSoC4/ADC_SAR_Seq_1.c **** *
 494:Generated_Source\PSoC4/ADC_SAR_Seq_1.c **** * Summary:
 495:Generated_Source\PSoC4/ADC_SAR_Seq_1.c **** *  Gets the data available in the SAR DATA register.
 496:Generated_Source\PSoC4/ADC_SAR_Seq_1.c **** *
 497:Generated_Source\PSoC4/ADC_SAR_Seq_1.c **** * Parameters:
 498:Generated_Source\PSoC4/ADC_SAR_Seq_1.c **** *  chan: The ADC channel in which to return the result. The first channel
 499:Generated_Source\PSoC4/ADC_SAR_Seq_1.c **** *  is 0 and the injection channel if enabled is the number of valid channels.
 500:Generated_Source\PSoC4/ADC_SAR_Seq_1.c **** *
 501:Generated_Source\PSoC4/ADC_SAR_Seq_1.c **** * Return:
 502:Generated_Source\PSoC4/ADC_SAR_Seq_1.c **** *  Returns converted data as a signed 16-bit integer
 503:Generated_Source\PSoC4/ADC_SAR_Seq_1.c **** *
 504:Generated_Source\PSoC4/ADC_SAR_Seq_1.c **** *******************************************************************************/
 505:Generated_Source\PSoC4/ADC_SAR_Seq_1.c **** int16 ADC_SAR_Seq_1_GetResult16(uint32 chan)
 506:Generated_Source\PSoC4/ADC_SAR_Seq_1.c **** {
 524              		.loc 1 506 0
 525              		.cfi_startproc
 526              		@ args = 0, pretend = 0, frame = 0
 527              		@ frame_needed = 0, uses_anonymous_args = 0
 528              	.LVL32:
 529 0000 10B5     		push	{r4, lr}
 530              		.cfi_def_cfa_offset 8
 531              		.cfi_offset 4, -8
 532              		.cfi_offset 14, -4
 533 0002 0400     		movs	r4, r0
 507:Generated_Source\PSoC4/ADC_SAR_Seq_1.c ****     uint32 result;
 508:Generated_Source\PSoC4/ADC_SAR_Seq_1.c **** 
 509:Generated_Source\PSoC4/ADC_SAR_Seq_1.c ****     /* Halt CPU in debug mode if channel is out of valid range */
 510:Generated_Source\PSoC4/ADC_SAR_Seq_1.c ****     CYASSERT(chan < ADC_SAR_Seq_1_TOTAL_CHANNELS_NUM);
 534              		.loc 1 510 0
 535 0004 0428     		cmp	r0, #4
 536 0006 02D9     		bls	.L40
 537              		.loc 1 510 0 is_stmt 0 discriminator 1
 538 0008 0020     		movs	r0, #0
 539              	.LVL33:
 540 000a FFF7FEFF 		bl	CyHalt
 541              	.LVL34:
 542              	.L40:
 511:Generated_Source\PSoC4/ADC_SAR_Seq_1.c **** 
 512:Generated_Source\PSoC4/ADC_SAR_Seq_1.c ****     if(chan < ADC_SAR_Seq_1_SEQUENCED_CHANNELS_NUM)
 543              		.loc 1 512 0 is_stmt 1
 544 000e 042C     		cmp	r4, #4
 545 0010 07D8     		bhi	.L42
 513:Generated_Source\PSoC4/ADC_SAR_Seq_1.c ****     {
 514:Generated_Source\PSoC4/ADC_SAR_Seq_1.c ****         result = CY_GET_REG32((reg32 *)(ADC_SAR_Seq_1_SAR_CHAN_RESULT_IND + (uint32)(chan << 2u))) 
 546              		.loc 1 514 0
 547 0012 A400     		lsls	r4, r4, #2
 548              	.LVL35:
 549 0014 044B     		ldr	r3, .L43
 550 0016 9C46     		mov	ip, r3
 551 0018 6444     		add	r4, r4, ip
 552 001a 2068     		ldr	r0, [r4]
 553 001c 0004     		lsls	r0, r0, #16
 554 001e 000C     		lsrs	r0, r0, #16
 555              	.LVL36:
 556 0020 00E0     		b	.L41
 557              	.LVL37:
ARM GAS  C:\Users\corne\AppData\Local\Temp\ccpTlc6c.s 			page 20


 558              	.L42:
 515:Generated_Source\PSoC4/ADC_SAR_Seq_1.c ****                 ADC_SAR_Seq_1_RESULT_MASK;
 516:Generated_Source\PSoC4/ADC_SAR_Seq_1.c ****     }
 517:Generated_Source\PSoC4/ADC_SAR_Seq_1.c ****     else
 518:Generated_Source\PSoC4/ADC_SAR_Seq_1.c ****     {
 519:Generated_Source\PSoC4/ADC_SAR_Seq_1.c ****         #if(ADC_SAR_Seq_1_INJ_CHANNEL_ENABLED)
 520:Generated_Source\PSoC4/ADC_SAR_Seq_1.c ****             result = ADC_SAR_Seq_1_SAR_INJ_RESULT_REG & ADC_SAR_Seq_1_RESULT_MASK;
 521:Generated_Source\PSoC4/ADC_SAR_Seq_1.c ****         #else
 522:Generated_Source\PSoC4/ADC_SAR_Seq_1.c ****             result = 0u;
 559              		.loc 1 522 0
 560 0022 0020     		movs	r0, #0
 561              	.LVL38:
 562              	.L41:
 523:Generated_Source\PSoC4/ADC_SAR_Seq_1.c ****         #endif /* ADC_SAR_Seq_1_INJ_CHANNEL_ENABLED */
 524:Generated_Source\PSoC4/ADC_SAR_Seq_1.c ****     }
 525:Generated_Source\PSoC4/ADC_SAR_Seq_1.c **** 
 526:Generated_Source\PSoC4/ADC_SAR_Seq_1.c ****     return ( (int16)result );
 563              		.loc 1 526 0
 564 0024 00B2     		sxth	r0, r0
 565              	.LVL39:
 527:Generated_Source\PSoC4/ADC_SAR_Seq_1.c **** }
 566              		.loc 1 527 0
 567              		@ sp needed
 568 0026 10BD     		pop	{r4, pc}
 569              	.L44:
 570              		.align	2
 571              	.L43:
 572 0028 80013A40 		.word	1077543296
 573              		.cfi_endproc
 574              	.LFE8:
 575              		.size	ADC_SAR_Seq_1_GetResult16, .-ADC_SAR_Seq_1_GetResult16
 576              		.section	.text.ADC_SAR_Seq_1_SetChanMask,"ax",%progbits
 577              		.align	2
 578              		.global	ADC_SAR_Seq_1_SetChanMask
 579              		.code	16
 580              		.thumb_func
 581              		.type	ADC_SAR_Seq_1_SetChanMask, %function
 582              	ADC_SAR_Seq_1_SetChanMask:
 583              	.LFB9:
 528:Generated_Source\PSoC4/ADC_SAR_Seq_1.c **** 
 529:Generated_Source\PSoC4/ADC_SAR_Seq_1.c **** 
 530:Generated_Source\PSoC4/ADC_SAR_Seq_1.c **** /*******************************************************************************
 531:Generated_Source\PSoC4/ADC_SAR_Seq_1.c **** * Function Name: ADC_SAR_Seq_1_SetChanMask
 532:Generated_Source\PSoC4/ADC_SAR_Seq_1.c **** ********************************************************************************
 533:Generated_Source\PSoC4/ADC_SAR_Seq_1.c **** *
 534:Generated_Source\PSoC4/ADC_SAR_Seq_1.c **** * Summary:
 535:Generated_Source\PSoC4/ADC_SAR_Seq_1.c **** *  Sets the channel enable mask.
 536:Generated_Source\PSoC4/ADC_SAR_Seq_1.c **** *
 537:Generated_Source\PSoC4/ADC_SAR_Seq_1.c **** * Parameters:
 538:Generated_Source\PSoC4/ADC_SAR_Seq_1.c **** *  mask: Sets which channels that will be
 539:Generated_Source\PSoC4/ADC_SAR_Seq_1.c **** *  scanned. Setting bits for channels that do not exist will have no
 540:Generated_Source\PSoC4/ADC_SAR_Seq_1.c **** *  effect. For example, if only 6 channels were enabled, setting a
 541:Generated_Source\PSoC4/ADC_SAR_Seq_1.c **** *  mask of 0x0103 would only enable the last two channels (0 and 1).
 542:Generated_Source\PSoC4/ADC_SAR_Seq_1.c **** *  This API will not enable the injection channel.
 543:Generated_Source\PSoC4/ADC_SAR_Seq_1.c **** *  Examples: If the component is setup to sequence through 8
 544:Generated_Source\PSoC4/ADC_SAR_Seq_1.c **** *  channels, a mask of 0x000F would enable channels 0, 1, 2, and 3.
 545:Generated_Source\PSoC4/ADC_SAR_Seq_1.c **** *
ARM GAS  C:\Users\corne\AppData\Local\Temp\ccpTlc6c.s 			page 21


 546:Generated_Source\PSoC4/ADC_SAR_Seq_1.c **** * Return:
 547:Generated_Source\PSoC4/ADC_SAR_Seq_1.c **** *  None.
 548:Generated_Source\PSoC4/ADC_SAR_Seq_1.c **** *
 549:Generated_Source\PSoC4/ADC_SAR_Seq_1.c **** *******************************************************************************/
 550:Generated_Source\PSoC4/ADC_SAR_Seq_1.c **** void ADC_SAR_Seq_1_SetChanMask(uint32 mask)
 551:Generated_Source\PSoC4/ADC_SAR_Seq_1.c **** {
 584              		.loc 1 551 0
 585              		.cfi_startproc
 586              		@ args = 0, pretend = 0, frame = 0
 587              		@ frame_needed = 0, uses_anonymous_args = 0
 588              		@ link register save eliminated.
 589              	.LVL40:
 552:Generated_Source\PSoC4/ADC_SAR_Seq_1.c ****     ADC_SAR_Seq_1_SAR_CHAN_EN_REG = mask & ADC_SAR_Seq_1_MAX_CHANNELS_EN_MASK;
 590              		.loc 1 552 0
 591 0000 1F23     		movs	r3, #31
 592 0002 1840     		ands	r0, r3
 593              	.LVL41:
 594 0004 014B     		ldr	r3, .L46
 595 0006 1860     		str	r0, [r3]
 553:Generated_Source\PSoC4/ADC_SAR_Seq_1.c **** }
 596              		.loc 1 553 0
 597              		@ sp needed
 598 0008 7047     		bx	lr
 599              	.L47:
 600 000a C046     		.align	2
 601              	.L46:
 602 000c 20003A40 		.word	1077542944
 603              		.cfi_endproc
 604              	.LFE9:
 605              		.size	ADC_SAR_Seq_1_SetChanMask, .-ADC_SAR_Seq_1_SetChanMask
 606              		.section	.text.ADC_SAR_Seq_1_SetLowLimit,"ax",%progbits
 607              		.align	2
 608              		.global	ADC_SAR_Seq_1_SetLowLimit
 609              		.code	16
 610              		.thumb_func
 611              		.type	ADC_SAR_Seq_1_SetLowLimit, %function
 612              	ADC_SAR_Seq_1_SetLowLimit:
 613              	.LFB10:
 554:Generated_Source\PSoC4/ADC_SAR_Seq_1.c **** 
 555:Generated_Source\PSoC4/ADC_SAR_Seq_1.c **** #if(ADC_SAR_Seq_1_INJ_CHANNEL_ENABLED)
 556:Generated_Source\PSoC4/ADC_SAR_Seq_1.c **** 
 557:Generated_Source\PSoC4/ADC_SAR_Seq_1.c **** 
 558:Generated_Source\PSoC4/ADC_SAR_Seq_1.c ****     /*******************************************************************************
 559:Generated_Source\PSoC4/ADC_SAR_Seq_1.c ****     * Function Name: ADC_SAR_Seq_1_EnableInjection
 560:Generated_Source\PSoC4/ADC_SAR_Seq_1.c ****     ********************************************************************************
 561:Generated_Source\PSoC4/ADC_SAR_Seq_1.c ****     *
 562:Generated_Source\PSoC4/ADC_SAR_Seq_1.c ****     * Summary:
 563:Generated_Source\PSoC4/ADC_SAR_Seq_1.c ****     *  Enables the injection channel for the next scan only.
 564:Generated_Source\PSoC4/ADC_SAR_Seq_1.c ****     *
 565:Generated_Source\PSoC4/ADC_SAR_Seq_1.c ****     * Parameters:
 566:Generated_Source\PSoC4/ADC_SAR_Seq_1.c ****     *  None.
 567:Generated_Source\PSoC4/ADC_SAR_Seq_1.c ****     *
 568:Generated_Source\PSoC4/ADC_SAR_Seq_1.c ****     * Return:
 569:Generated_Source\PSoC4/ADC_SAR_Seq_1.c ****     *  None.
 570:Generated_Source\PSoC4/ADC_SAR_Seq_1.c ****     *
 571:Generated_Source\PSoC4/ADC_SAR_Seq_1.c ****     *******************************************************************************/
 572:Generated_Source\PSoC4/ADC_SAR_Seq_1.c ****     void ADC_SAR_Seq_1_EnableInjection(void)
ARM GAS  C:\Users\corne\AppData\Local\Temp\ccpTlc6c.s 			page 22


 573:Generated_Source\PSoC4/ADC_SAR_Seq_1.c ****     {
 574:Generated_Source\PSoC4/ADC_SAR_Seq_1.c ****         ADC_SAR_Seq_1_SAR_INJ_CHAN_CONFIG_REG |= ADC_SAR_Seq_1_INJ_CHAN_EN;
 575:Generated_Source\PSoC4/ADC_SAR_Seq_1.c ****     }
 576:Generated_Source\PSoC4/ADC_SAR_Seq_1.c **** 
 577:Generated_Source\PSoC4/ADC_SAR_Seq_1.c **** #endif /* ADC_SAR_Seq_1_INJ_CHANNEL_ENABLED */
 578:Generated_Source\PSoC4/ADC_SAR_Seq_1.c **** 
 579:Generated_Source\PSoC4/ADC_SAR_Seq_1.c **** 
 580:Generated_Source\PSoC4/ADC_SAR_Seq_1.c **** /*******************************************************************************
 581:Generated_Source\PSoC4/ADC_SAR_Seq_1.c **** * Function Name: ADC_SAR_Seq_1_SetLowLimit
 582:Generated_Source\PSoC4/ADC_SAR_Seq_1.c **** ********************************************************************************
 583:Generated_Source\PSoC4/ADC_SAR_Seq_1.c **** *
 584:Generated_Source\PSoC4/ADC_SAR_Seq_1.c **** * Summary:
 585:Generated_Source\PSoC4/ADC_SAR_Seq_1.c **** *  Sets the low limit parameter for a limit condition.
 586:Generated_Source\PSoC4/ADC_SAR_Seq_1.c **** *
 587:Generated_Source\PSoC4/ADC_SAR_Seq_1.c **** * Parameters:
 588:Generated_Source\PSoC4/ADC_SAR_Seq_1.c **** *  lowLimit: The low limit for a limit condition.
 589:Generated_Source\PSoC4/ADC_SAR_Seq_1.c **** *
 590:Generated_Source\PSoC4/ADC_SAR_Seq_1.c **** * Return:
 591:Generated_Source\PSoC4/ADC_SAR_Seq_1.c **** *  None.
 592:Generated_Source\PSoC4/ADC_SAR_Seq_1.c **** *
 593:Generated_Source\PSoC4/ADC_SAR_Seq_1.c **** *******************************************************************************/
 594:Generated_Source\PSoC4/ADC_SAR_Seq_1.c **** void ADC_SAR_Seq_1_SetLowLimit(uint32 lowLimit)
 595:Generated_Source\PSoC4/ADC_SAR_Seq_1.c **** {
 614              		.loc 1 595 0
 615              		.cfi_startproc
 616              		@ args = 0, pretend = 0, frame = 0
 617              		@ frame_needed = 0, uses_anonymous_args = 0
 618              		@ link register save eliminated.
 619              	.LVL42:
 596:Generated_Source\PSoC4/ADC_SAR_Seq_1.c ****     ADC_SAR_Seq_1_SAR_RANGE_THRES_REG &= (uint32)(~ADC_SAR_Seq_1_RANGE_LOW_MASK);
 620              		.loc 1 596 0
 621 0000 054A     		ldr	r2, .L49
 622 0002 1368     		ldr	r3, [r2]
 623 0004 1B0C     		lsrs	r3, r3, #16
 624 0006 1B04     		lsls	r3, r3, #16
 625 0008 1360     		str	r3, [r2]
 597:Generated_Source\PSoC4/ADC_SAR_Seq_1.c ****     ADC_SAR_Seq_1_SAR_RANGE_THRES_REG |= lowLimit & ADC_SAR_Seq_1_RANGE_LOW_MASK;
 626              		.loc 1 597 0
 627 000a 1368     		ldr	r3, [r2]
 628 000c 0004     		lsls	r0, r0, #16
 629              	.LVL43:
 630 000e 000C     		lsrs	r0, r0, #16
 631 0010 1843     		orrs	r0, r3
 632 0012 1060     		str	r0, [r2]
 598:Generated_Source\PSoC4/ADC_SAR_Seq_1.c **** }
 633              		.loc 1 598 0
 634              		@ sp needed
 635 0014 7047     		bx	lr
 636              	.L50:
 637 0016 C046     		.align	2
 638              	.L49:
 639 0018 18003A40 		.word	1077542936
 640              		.cfi_endproc
 641              	.LFE10:
 642              		.size	ADC_SAR_Seq_1_SetLowLimit, .-ADC_SAR_Seq_1_SetLowLimit
 643              		.section	.text.ADC_SAR_Seq_1_SetHighLimit,"ax",%progbits
 644              		.align	2
ARM GAS  C:\Users\corne\AppData\Local\Temp\ccpTlc6c.s 			page 23


 645              		.global	ADC_SAR_Seq_1_SetHighLimit
 646              		.code	16
 647              		.thumb_func
 648              		.type	ADC_SAR_Seq_1_SetHighLimit, %function
 649              	ADC_SAR_Seq_1_SetHighLimit:
 650              	.LFB11:
 599:Generated_Source\PSoC4/ADC_SAR_Seq_1.c **** 
 600:Generated_Source\PSoC4/ADC_SAR_Seq_1.c **** 
 601:Generated_Source\PSoC4/ADC_SAR_Seq_1.c **** /*******************************************************************************
 602:Generated_Source\PSoC4/ADC_SAR_Seq_1.c **** * Function Name: ADC_SAR_Seq_1_SetHighLimit
 603:Generated_Source\PSoC4/ADC_SAR_Seq_1.c **** ********************************************************************************
 604:Generated_Source\PSoC4/ADC_SAR_Seq_1.c **** *
 605:Generated_Source\PSoC4/ADC_SAR_Seq_1.c **** * Summary:
 606:Generated_Source\PSoC4/ADC_SAR_Seq_1.c **** *  Sets the low limit parameter for a limit condition.
 607:Generated_Source\PSoC4/ADC_SAR_Seq_1.c **** *
 608:Generated_Source\PSoC4/ADC_SAR_Seq_1.c **** * Parameters:
 609:Generated_Source\PSoC4/ADC_SAR_Seq_1.c **** *  highLimit: The high limit for a limit condition.
 610:Generated_Source\PSoC4/ADC_SAR_Seq_1.c **** *
 611:Generated_Source\PSoC4/ADC_SAR_Seq_1.c **** * Return:
 612:Generated_Source\PSoC4/ADC_SAR_Seq_1.c **** *  None.
 613:Generated_Source\PSoC4/ADC_SAR_Seq_1.c **** *
 614:Generated_Source\PSoC4/ADC_SAR_Seq_1.c **** *******************************************************************************/
 615:Generated_Source\PSoC4/ADC_SAR_Seq_1.c **** void ADC_SAR_Seq_1_SetHighLimit(uint32 highLimit)
 616:Generated_Source\PSoC4/ADC_SAR_Seq_1.c **** {
 651              		.loc 1 616 0
 652              		.cfi_startproc
 653              		@ args = 0, pretend = 0, frame = 0
 654              		@ frame_needed = 0, uses_anonymous_args = 0
 655              		@ link register save eliminated.
 656              	.LVL44:
 617:Generated_Source\PSoC4/ADC_SAR_Seq_1.c ****     ADC_SAR_Seq_1_SAR_RANGE_THRES_REG &= (uint32)(~ADC_SAR_Seq_1_RANGE_HIGH_MASK);
 657              		.loc 1 617 0
 658 0000 044A     		ldr	r2, .L52
 659 0002 1368     		ldr	r3, [r2]
 660 0004 1B04     		lsls	r3, r3, #16
 661 0006 1B0C     		lsrs	r3, r3, #16
 662 0008 1360     		str	r3, [r2]
 618:Generated_Source\PSoC4/ADC_SAR_Seq_1.c ****     ADC_SAR_Seq_1_SAR_RANGE_THRES_REG |= (uint32)(highLimit << ADC_SAR_Seq_1_RANGE_HIGH_OFFSET);
 663              		.loc 1 618 0
 664 000a 1368     		ldr	r3, [r2]
 665 000c 0004     		lsls	r0, r0, #16
 666              	.LVL45:
 667 000e 1843     		orrs	r0, r3
 668 0010 1060     		str	r0, [r2]
 619:Generated_Source\PSoC4/ADC_SAR_Seq_1.c **** }
 669              		.loc 1 619 0
 670              		@ sp needed
 671 0012 7047     		bx	lr
 672              	.L53:
 673              		.align	2
 674              	.L52:
 675 0014 18003A40 		.word	1077542936
 676              		.cfi_endproc
 677              	.LFE11:
 678              		.size	ADC_SAR_Seq_1_SetHighLimit, .-ADC_SAR_Seq_1_SetHighLimit
 679              		.section	.text.ADC_SAR_Seq_1_SetLimitMask,"ax",%progbits
 680              		.align	2
ARM GAS  C:\Users\corne\AppData\Local\Temp\ccpTlc6c.s 			page 24


 681              		.global	ADC_SAR_Seq_1_SetLimitMask
 682              		.code	16
 683              		.thumb_func
 684              		.type	ADC_SAR_Seq_1_SetLimitMask, %function
 685              	ADC_SAR_Seq_1_SetLimitMask:
 686              	.LFB12:
 620:Generated_Source\PSoC4/ADC_SAR_Seq_1.c **** 
 621:Generated_Source\PSoC4/ADC_SAR_Seq_1.c **** 
 622:Generated_Source\PSoC4/ADC_SAR_Seq_1.c **** /*******************************************************************************
 623:Generated_Source\PSoC4/ADC_SAR_Seq_1.c **** * Function Name: ADC_SAR_Seq_1_SetLimitMask
 624:Generated_Source\PSoC4/ADC_SAR_Seq_1.c **** ********************************************************************************
 625:Generated_Source\PSoC4/ADC_SAR_Seq_1.c **** *
 626:Generated_Source\PSoC4/ADC_SAR_Seq_1.c **** * Summary:
 627:Generated_Source\PSoC4/ADC_SAR_Seq_1.c **** *  Sets the channel limit condition mask.
 628:Generated_Source\PSoC4/ADC_SAR_Seq_1.c **** *
 629:Generated_Source\PSoC4/ADC_SAR_Seq_1.c **** * Parameters:
 630:Generated_Source\PSoC4/ADC_SAR_Seq_1.c **** *  mask: Sets which channels that may cause a
 631:Generated_Source\PSoC4/ADC_SAR_Seq_1.c **** *  limit condition interrupt. Setting bits for channels that do not exist
 632:Generated_Source\PSoC4/ADC_SAR_Seq_1.c **** *  will have no effect. For example, if only 6 channels were enabled,
 633:Generated_Source\PSoC4/ADC_SAR_Seq_1.c **** *  setting a mask of 0x0103 would only enable the last two channels (0 and 1).
 634:Generated_Source\PSoC4/ADC_SAR_Seq_1.c **** *
 635:Generated_Source\PSoC4/ADC_SAR_Seq_1.c **** * Return:
 636:Generated_Source\PSoC4/ADC_SAR_Seq_1.c **** *  None.
 637:Generated_Source\PSoC4/ADC_SAR_Seq_1.c **** *
 638:Generated_Source\PSoC4/ADC_SAR_Seq_1.c **** *******************************************************************************/
 639:Generated_Source\PSoC4/ADC_SAR_Seq_1.c **** void ADC_SAR_Seq_1_SetLimitMask(uint32 mask)
 640:Generated_Source\PSoC4/ADC_SAR_Seq_1.c **** {
 687              		.loc 1 640 0
 688              		.cfi_startproc
 689              		@ args = 0, pretend = 0, frame = 0
 690              		@ frame_needed = 0, uses_anonymous_args = 0
 691              		@ link register save eliminated.
 692              	.LVL46:
 641:Generated_Source\PSoC4/ADC_SAR_Seq_1.c ****     ADC_SAR_Seq_1_SAR_RANGE_INTR_MASK_REG = mask & ADC_SAR_Seq_1_MAX_CHANNELS_EN_MASK;
 693              		.loc 1 641 0
 694 0000 1F23     		movs	r3, #31
 695 0002 1840     		ands	r0, r3
 696              	.LVL47:
 697 0004 014B     		ldr	r3, .L55
 698 0006 1860     		str	r0, [r3]
 642:Generated_Source\PSoC4/ADC_SAR_Seq_1.c **** }
 699              		.loc 1 642 0
 700              		@ sp needed
 701 0008 7047     		bx	lr
 702              	.L56:
 703 000a C046     		.align	2
 704              	.L55:
 705 000c 38023A40 		.word	1077543480
 706              		.cfi_endproc
 707              	.LFE12:
 708              		.size	ADC_SAR_Seq_1_SetLimitMask, .-ADC_SAR_Seq_1_SetLimitMask
 709              		.section	.text.ADC_SAR_Seq_1_SetSatMask,"ax",%progbits
 710              		.align	2
 711              		.global	ADC_SAR_Seq_1_SetSatMask
 712              		.code	16
 713              		.thumb_func
 714              		.type	ADC_SAR_Seq_1_SetSatMask, %function
ARM GAS  C:\Users\corne\AppData\Local\Temp\ccpTlc6c.s 			page 25


 715              	ADC_SAR_Seq_1_SetSatMask:
 716              	.LFB13:
 643:Generated_Source\PSoC4/ADC_SAR_Seq_1.c **** 
 644:Generated_Source\PSoC4/ADC_SAR_Seq_1.c **** 
 645:Generated_Source\PSoC4/ADC_SAR_Seq_1.c **** /*******************************************************************************
 646:Generated_Source\PSoC4/ADC_SAR_Seq_1.c **** * Function Name: ADC_SAR_Seq_1_SetSatMask
 647:Generated_Source\PSoC4/ADC_SAR_Seq_1.c **** ********************************************************************************
 648:Generated_Source\PSoC4/ADC_SAR_Seq_1.c **** *
 649:Generated_Source\PSoC4/ADC_SAR_Seq_1.c **** * Summary:
 650:Generated_Source\PSoC4/ADC_SAR_Seq_1.c **** *  Sets the channel saturation event mask.
 651:Generated_Source\PSoC4/ADC_SAR_Seq_1.c **** *
 652:Generated_Source\PSoC4/ADC_SAR_Seq_1.c **** * Parameters:
 653:Generated_Source\PSoC4/ADC_SAR_Seq_1.c **** *  mask: Sets which channels that may cause a
 654:Generated_Source\PSoC4/ADC_SAR_Seq_1.c **** *  saturation event interrupt. Setting bits for channels that do not exist
 655:Generated_Source\PSoC4/ADC_SAR_Seq_1.c **** *  will have no effect. For example, if only 8 channels were enabled,
 656:Generated_Source\PSoC4/ADC_SAR_Seq_1.c **** *  setting a mask of 0x01C0 would only enable two channels (6 and 7).
 657:Generated_Source\PSoC4/ADC_SAR_Seq_1.c **** *
 658:Generated_Source\PSoC4/ADC_SAR_Seq_1.c **** * Return:
 659:Generated_Source\PSoC4/ADC_SAR_Seq_1.c **** *  None.
 660:Generated_Source\PSoC4/ADC_SAR_Seq_1.c **** *
 661:Generated_Source\PSoC4/ADC_SAR_Seq_1.c **** *******************************************************************************/
 662:Generated_Source\PSoC4/ADC_SAR_Seq_1.c **** void ADC_SAR_Seq_1_SetSatMask(uint32 mask)
 663:Generated_Source\PSoC4/ADC_SAR_Seq_1.c **** {
 717              		.loc 1 663 0
 718              		.cfi_startproc
 719              		@ args = 0, pretend = 0, frame = 0
 720              		@ frame_needed = 0, uses_anonymous_args = 0
 721              		@ link register save eliminated.
 722              	.LVL48:
 664:Generated_Source\PSoC4/ADC_SAR_Seq_1.c ****     ADC_SAR_Seq_1_SAR_SATURATE_INTR_MASK_REG = mask & ADC_SAR_Seq_1_MAX_CHANNELS_EN_MASK;
 723              		.loc 1 664 0
 724 0000 1F23     		movs	r3, #31
 725 0002 1840     		ands	r0, r3
 726              	.LVL49:
 727 0004 014B     		ldr	r3, .L58
 728 0006 1860     		str	r0, [r3]
 665:Generated_Source\PSoC4/ADC_SAR_Seq_1.c **** }
 729              		.loc 1 665 0
 730              		@ sp needed
 731 0008 7047     		bx	lr
 732              	.L59:
 733 000a C046     		.align	2
 734              	.L58:
 735 000c 28023A40 		.word	1077543464
 736              		.cfi_endproc
 737              	.LFE13:
 738              		.size	ADC_SAR_Seq_1_SetSatMask, .-ADC_SAR_Seq_1_SetSatMask
 739              		.section	.text.ADC_SAR_Seq_1_SetOffset,"ax",%progbits
 740              		.align	2
 741              		.global	ADC_SAR_Seq_1_SetOffset
 742              		.code	16
 743              		.thumb_func
 744              		.type	ADC_SAR_Seq_1_SetOffset, %function
 745              	ADC_SAR_Seq_1_SetOffset:
 746              	.LFB14:
 666:Generated_Source\PSoC4/ADC_SAR_Seq_1.c **** 
 667:Generated_Source\PSoC4/ADC_SAR_Seq_1.c **** 
ARM GAS  C:\Users\corne\AppData\Local\Temp\ccpTlc6c.s 			page 26


 668:Generated_Source\PSoC4/ADC_SAR_Seq_1.c **** /*******************************************************************************
 669:Generated_Source\PSoC4/ADC_SAR_Seq_1.c **** * Function Name: ADC_SAR_Seq_1_SetOffset
 670:Generated_Source\PSoC4/ADC_SAR_Seq_1.c **** ********************************************************************************
 671:Generated_Source\PSoC4/ADC_SAR_Seq_1.c **** *
 672:Generated_Source\PSoC4/ADC_SAR_Seq_1.c **** * Summary:
 673:Generated_Source\PSoC4/ADC_SAR_Seq_1.c **** *   Description: Sets the ADC offset which is used by the functions
 674:Generated_Source\PSoC4/ADC_SAR_Seq_1.c **** *   ADC_CountsTo_uVolts, ADC_CountsTo_mVolts and ADC_CountsTo_Volts
 675:Generated_Source\PSoC4/ADC_SAR_Seq_1.c **** *   to substract the offset from the given reading
 676:Generated_Source\PSoC4/ADC_SAR_Seq_1.c **** *   before calculating the voltage conversion.
 677:Generated_Source\PSoC4/ADC_SAR_Seq_1.c **** *
 678:Generated_Source\PSoC4/ADC_SAR_Seq_1.c **** * Parameters:
 679:Generated_Source\PSoC4/ADC_SAR_Seq_1.c **** *  chan: ADC channel number.
 680:Generated_Source\PSoC4/ADC_SAR_Seq_1.c **** *  offset: This value is a measured value when the
 681:Generated_Source\PSoC4/ADC_SAR_Seq_1.c **** *          inputs are shorted or connected to the same input voltage.
 682:Generated_Source\PSoC4/ADC_SAR_Seq_1.c **** *
 683:Generated_Source\PSoC4/ADC_SAR_Seq_1.c **** * Return:
 684:Generated_Source\PSoC4/ADC_SAR_Seq_1.c **** *  None.
 685:Generated_Source\PSoC4/ADC_SAR_Seq_1.c **** *
 686:Generated_Source\PSoC4/ADC_SAR_Seq_1.c **** * Global variables:
 687:Generated_Source\PSoC4/ADC_SAR_Seq_1.c **** *  ADC_SAR_Seq_1_Offset:  Modified to set the user provided offset.
 688:Generated_Source\PSoC4/ADC_SAR_Seq_1.c **** *
 689:Generated_Source\PSoC4/ADC_SAR_Seq_1.c **** *******************************************************************************/
 690:Generated_Source\PSoC4/ADC_SAR_Seq_1.c **** void ADC_SAR_Seq_1_SetOffset(uint32 chan, int16 offset)
 691:Generated_Source\PSoC4/ADC_SAR_Seq_1.c **** {
 747              		.loc 1 691 0
 748              		.cfi_startproc
 749              		@ args = 0, pretend = 0, frame = 0
 750              		@ frame_needed = 0, uses_anonymous_args = 0
 751              	.LVL50:
 752 0000 70B5     		push	{r4, r5, r6, lr}
 753              		.cfi_def_cfa_offset 16
 754              		.cfi_offset 4, -16
 755              		.cfi_offset 5, -12
 756              		.cfi_offset 6, -8
 757              		.cfi_offset 14, -4
 758 0002 0400     		movs	r4, r0
 759 0004 0D00     		movs	r5, r1
 692:Generated_Source\PSoC4/ADC_SAR_Seq_1.c ****     /* Halt CPU in debug mode if channel is out of valid range */
 693:Generated_Source\PSoC4/ADC_SAR_Seq_1.c ****     CYASSERT(chan < ADC_SAR_Seq_1_TOTAL_CHANNELS_NUM);
 760              		.loc 1 693 0
 761 0006 0428     		cmp	r0, #4
 762 0008 02D9     		bls	.L61
 763              		.loc 1 693 0 is_stmt 0 discriminator 1
 764 000a 0020     		movs	r0, #0
 765              	.LVL51:
 766 000c FFF7FEFF 		bl	CyHalt
 767              	.LVL52:
 768              	.L61:
 694:Generated_Source\PSoC4/ADC_SAR_Seq_1.c **** 
 695:Generated_Source\PSoC4/ADC_SAR_Seq_1.c ****     ADC_SAR_Seq_1_offset[chan] = offset;
 769              		.loc 1 695 0 is_stmt 1
 770 0010 6400     		lsls	r4, r4, #1
 771              	.LVL53:
 772 0012 014B     		ldr	r3, .L62
 773 0014 E552     		strh	r5, [r4, r3]
 696:Generated_Source\PSoC4/ADC_SAR_Seq_1.c **** }
 774              		.loc 1 696 0
ARM GAS  C:\Users\corne\AppData\Local\Temp\ccpTlc6c.s 			page 27


 775              		@ sp needed
 776 0016 70BD     		pop	{r4, r5, r6, pc}
 777              	.L63:
 778              		.align	2
 779              	.L62:
 780 0018 00000000 		.word	ADC_SAR_Seq_1_offset
 781              		.cfi_endproc
 782              	.LFE14:
 783              		.size	ADC_SAR_Seq_1_SetOffset, .-ADC_SAR_Seq_1_SetOffset
 784              		.section	.text.ADC_SAR_Seq_1_SetGain,"ax",%progbits
 785              		.align	2
 786              		.global	ADC_SAR_Seq_1_SetGain
 787              		.code	16
 788              		.thumb_func
 789              		.type	ADC_SAR_Seq_1_SetGain, %function
 790              	ADC_SAR_Seq_1_SetGain:
 791              	.LFB15:
 697:Generated_Source\PSoC4/ADC_SAR_Seq_1.c **** 
 698:Generated_Source\PSoC4/ADC_SAR_Seq_1.c **** 
 699:Generated_Source\PSoC4/ADC_SAR_Seq_1.c **** /*******************************************************************************
 700:Generated_Source\PSoC4/ADC_SAR_Seq_1.c **** * Function Name: ADC_SAR_Seq_1_SetGain
 701:Generated_Source\PSoC4/ADC_SAR_Seq_1.c **** ********************************************************************************
 702:Generated_Source\PSoC4/ADC_SAR_Seq_1.c **** *
 703:Generated_Source\PSoC4/ADC_SAR_Seq_1.c **** * Summary:
 704:Generated_Source\PSoC4/ADC_SAR_Seq_1.c **** *  Description: Sets the ADC gain in counts per 10 volt for the voltage
 705:Generated_Source\PSoC4/ADC_SAR_Seq_1.c **** *  conversion functions below. This value is set by default by the
 706:Generated_Source\PSoC4/ADC_SAR_Seq_1.c **** *  reference and input range settings. It should only be used to further
 707:Generated_Source\PSoC4/ADC_SAR_Seq_1.c **** *  calibrate the ADC with a known input or if an external reference is
 708:Generated_Source\PSoC4/ADC_SAR_Seq_1.c **** *  used. Affects the ADC_CountsTo_uVolts, ADC_CountsTo_mVolts
 709:Generated_Source\PSoC4/ADC_SAR_Seq_1.c **** *  and ADC_CountsTo_Volts functions by supplying the correct
 710:Generated_Source\PSoC4/ADC_SAR_Seq_1.c **** *  conversion between ADC counts and voltage.
 711:Generated_Source\PSoC4/ADC_SAR_Seq_1.c **** *
 712:Generated_Source\PSoC4/ADC_SAR_Seq_1.c **** * Parameters:
 713:Generated_Source\PSoC4/ADC_SAR_Seq_1.c **** *  chan: ADC channel number.
 714:Generated_Source\PSoC4/ADC_SAR_Seq_1.c **** *  adcGain: ADC gain in counts per 10 volts.
 715:Generated_Source\PSoC4/ADC_SAR_Seq_1.c **** *
 716:Generated_Source\PSoC4/ADC_SAR_Seq_1.c **** * Return:
 717:Generated_Source\PSoC4/ADC_SAR_Seq_1.c **** *  None.
 718:Generated_Source\PSoC4/ADC_SAR_Seq_1.c **** *
 719:Generated_Source\PSoC4/ADC_SAR_Seq_1.c **** * Global variables:
 720:Generated_Source\PSoC4/ADC_SAR_Seq_1.c **** *  ADC_SAR_Seq_1_CountsPer10Volt:  modified to set the ADC gain in counts
 721:Generated_Source\PSoC4/ADC_SAR_Seq_1.c **** *   per 10 volt.
 722:Generated_Source\PSoC4/ADC_SAR_Seq_1.c **** *
 723:Generated_Source\PSoC4/ADC_SAR_Seq_1.c **** *******************************************************************************/
 724:Generated_Source\PSoC4/ADC_SAR_Seq_1.c **** void ADC_SAR_Seq_1_SetGain(uint32 chan, int32 adcGain)
 725:Generated_Source\PSoC4/ADC_SAR_Seq_1.c **** {
 792              		.loc 1 725 0
 793              		.cfi_startproc
 794              		@ args = 0, pretend = 0, frame = 0
 795              		@ frame_needed = 0, uses_anonymous_args = 0
 796              	.LVL54:
 797 0000 70B5     		push	{r4, r5, r6, lr}
 798              		.cfi_def_cfa_offset 16
 799              		.cfi_offset 4, -16
 800              		.cfi_offset 5, -12
 801              		.cfi_offset 6, -8
 802              		.cfi_offset 14, -4
ARM GAS  C:\Users\corne\AppData\Local\Temp\ccpTlc6c.s 			page 28


 803 0002 0400     		movs	r4, r0
 804 0004 0D00     		movs	r5, r1
 726:Generated_Source\PSoC4/ADC_SAR_Seq_1.c ****     /* Halt CPU in debug mode if channel is out of valid range */
 727:Generated_Source\PSoC4/ADC_SAR_Seq_1.c ****     CYASSERT(chan < ADC_SAR_Seq_1_TOTAL_CHANNELS_NUM);
 805              		.loc 1 727 0
 806 0006 0428     		cmp	r0, #4
 807 0008 02D9     		bls	.L65
 808              		.loc 1 727 0 is_stmt 0 discriminator 1
 809 000a 0020     		movs	r0, #0
 810              	.LVL55:
 811 000c FFF7FEFF 		bl	CyHalt
 812              	.LVL56:
 813              	.L65:
 728:Generated_Source\PSoC4/ADC_SAR_Seq_1.c **** 
 729:Generated_Source\PSoC4/ADC_SAR_Seq_1.c ****     ADC_SAR_Seq_1_countsPer10Volt[chan] = adcGain;
 814              		.loc 1 729 0 is_stmt 1
 815 0010 A400     		lsls	r4, r4, #2
 816              	.LVL57:
 817 0012 014B     		ldr	r3, .L66
 818 0014 E550     		str	r5, [r4, r3]
 730:Generated_Source\PSoC4/ADC_SAR_Seq_1.c **** }
 819              		.loc 1 730 0
 820              		@ sp needed
 821              	.LVL58:
 822 0016 70BD     		pop	{r4, r5, r6, pc}
 823              	.L67:
 824              		.align	2
 825              	.L66:
 826 0018 00000000 		.word	ADC_SAR_Seq_1_countsPer10Volt
 827              		.cfi_endproc
 828              	.LFE15:
 829              		.size	ADC_SAR_Seq_1_SetGain, .-ADC_SAR_Seq_1_SetGain
 830              		.global	__aeabi_idiv
 831              		.section	.text.ADC_SAR_Seq_1_CountsTo_mVolts,"ax",%progbits
 832              		.align	2
 833              		.global	ADC_SAR_Seq_1_CountsTo_mVolts
 834              		.code	16
 835              		.thumb_func
 836              		.type	ADC_SAR_Seq_1_CountsTo_mVolts, %function
 837              	ADC_SAR_Seq_1_CountsTo_mVolts:
 838              	.LFB16:
 731:Generated_Source\PSoC4/ADC_SAR_Seq_1.c **** 
 732:Generated_Source\PSoC4/ADC_SAR_Seq_1.c **** 
 733:Generated_Source\PSoC4/ADC_SAR_Seq_1.c **** #if(ADC_SAR_Seq_1_DEFAULT_JUSTIFICATION_SEL == ADC_SAR_Seq_1__RIGHT)
 734:Generated_Source\PSoC4/ADC_SAR_Seq_1.c **** 
 735:Generated_Source\PSoC4/ADC_SAR_Seq_1.c **** 
 736:Generated_Source\PSoC4/ADC_SAR_Seq_1.c ****     /*******************************************************************************
 737:Generated_Source\PSoC4/ADC_SAR_Seq_1.c ****     * Function Name: ADC_SAR_Seq_1_CountsTo_mVolts
 738:Generated_Source\PSoC4/ADC_SAR_Seq_1.c ****     ********************************************************************************
 739:Generated_Source\PSoC4/ADC_SAR_Seq_1.c ****     *
 740:Generated_Source\PSoC4/ADC_SAR_Seq_1.c ****     * Summary:
 741:Generated_Source\PSoC4/ADC_SAR_Seq_1.c ****     *  This function converts ADC counts to mVolts
 742:Generated_Source\PSoC4/ADC_SAR_Seq_1.c ****     *  This function is not available when left data format justification selected.
 743:Generated_Source\PSoC4/ADC_SAR_Seq_1.c ****     *
 744:Generated_Source\PSoC4/ADC_SAR_Seq_1.c ****     * Parameters:
 745:Generated_Source\PSoC4/ADC_SAR_Seq_1.c ****     *  chan: The ADC channel number.
 746:Generated_Source\PSoC4/ADC_SAR_Seq_1.c ****     *  adcCounts: Result from the ADC conversion
ARM GAS  C:\Users\corne\AppData\Local\Temp\ccpTlc6c.s 			page 29


 747:Generated_Source\PSoC4/ADC_SAR_Seq_1.c ****     *
 748:Generated_Source\PSoC4/ADC_SAR_Seq_1.c ****     * Return:
 749:Generated_Source\PSoC4/ADC_SAR_Seq_1.c ****     *  Results in mVolts
 750:Generated_Source\PSoC4/ADC_SAR_Seq_1.c ****     *
 751:Generated_Source\PSoC4/ADC_SAR_Seq_1.c ****     * Global variables:
 752:Generated_Source\PSoC4/ADC_SAR_Seq_1.c ****     *  ADC_SAR_Seq_1_countsPer10Volt:  used to convert ADC counts to mVolts.
 753:Generated_Source\PSoC4/ADC_SAR_Seq_1.c ****     *  ADC_SAR_Seq_1_Offset:  Used as the offset while converting ADC counts
 754:Generated_Source\PSoC4/ADC_SAR_Seq_1.c ****     *   to mVolts.
 755:Generated_Source\PSoC4/ADC_SAR_Seq_1.c ****     *
 756:Generated_Source\PSoC4/ADC_SAR_Seq_1.c ****     *******************************************************************************/
 757:Generated_Source\PSoC4/ADC_SAR_Seq_1.c ****     int16 ADC_SAR_Seq_1_CountsTo_mVolts(uint32 chan, int16 adcCounts)
 758:Generated_Source\PSoC4/ADC_SAR_Seq_1.c ****     {
 839              		.loc 1 758 0
 840              		.cfi_startproc
 841              		@ args = 0, pretend = 0, frame = 0
 842              		@ frame_needed = 0, uses_anonymous_args = 0
 843              	.LVL59:
 844 0000 70B5     		push	{r4, r5, r6, lr}
 845              		.cfi_def_cfa_offset 16
 846              		.cfi_offset 4, -16
 847              		.cfi_offset 5, -12
 848              		.cfi_offset 6, -8
 849              		.cfi_offset 14, -4
 850 0002 0400     		movs	r4, r0
 851 0004 0D00     		movs	r5, r1
 759:Generated_Source\PSoC4/ADC_SAR_Seq_1.c ****         int16 mVolts;
 760:Generated_Source\PSoC4/ADC_SAR_Seq_1.c **** 
 761:Generated_Source\PSoC4/ADC_SAR_Seq_1.c ****         /* Halt CPU in debug mode if channel is out of valid range */
 762:Generated_Source\PSoC4/ADC_SAR_Seq_1.c ****         CYASSERT(chan < ADC_SAR_Seq_1_TOTAL_CHANNELS_NUM);
 852              		.loc 1 762 0
 853 0006 0428     		cmp	r0, #4
 854 0008 02D9     		bls	.L69
 855              		.loc 1 762 0 is_stmt 0 discriminator 1
 856 000a 0020     		movs	r0, #0
 857              	.LVL60:
 858 000c FFF7FEFF 		bl	CyHalt
 859              	.LVL61:
 860              	.L69:
 763:Generated_Source\PSoC4/ADC_SAR_Seq_1.c **** 
 764:Generated_Source\PSoC4/ADC_SAR_Seq_1.c ****         /* Divide the adcCount when accumulate averaging mode selected */
 765:Generated_Source\PSoC4/ADC_SAR_Seq_1.c ****         #if(ADC_SAR_Seq_1_DEFAULT_AVG_MODE == ADC_SAR_Seq_1__ACCUMULATE)
 766:Generated_Source\PSoC4/ADC_SAR_Seq_1.c ****             if((ADC_SAR_Seq_1_channelsConfig[chan] & ADC_SAR_Seq_1_AVERAGING_EN) != 0u)
 767:Generated_Source\PSoC4/ADC_SAR_Seq_1.c ****             {
 768:Generated_Source\PSoC4/ADC_SAR_Seq_1.c ****                 adcCounts /= ADC_SAR_Seq_1_DEFAULT_AVG_SAMPLES_DIV;
 769:Generated_Source\PSoC4/ADC_SAR_Seq_1.c ****             }
 770:Generated_Source\PSoC4/ADC_SAR_Seq_1.c ****         #endif /* ADC_SAR_Seq_1_DEFAULT_AVG_MODE == ADC_SAR_Seq_1__ACCUMULATE */
 771:Generated_Source\PSoC4/ADC_SAR_Seq_1.c **** 
 772:Generated_Source\PSoC4/ADC_SAR_Seq_1.c ****         /* Subtract ADC offset */
 773:Generated_Source\PSoC4/ADC_SAR_Seq_1.c ****         adcCounts -= ADC_SAR_Seq_1_offset[chan];
 861              		.loc 1 773 0 is_stmt 1
 862 0010 6300     		lsls	r3, r4, #1
 863 0012 0F4A     		ldr	r2, .L72
 864 0014 995A     		ldrh	r1, [r3, r2]
 865 0016 09B2     		sxth	r1, r1
 866 0018 691A     		subs	r1, r5, r1
 867 001a 09B2     		sxth	r1, r1
 868              	.LVL62:
ARM GAS  C:\Users\corne\AppData\Local\Temp\ccpTlc6c.s 			page 30


 774:Generated_Source\PSoC4/ADC_SAR_Seq_1.c **** 
 775:Generated_Source\PSoC4/ADC_SAR_Seq_1.c ****         mVolts = (int16)((((int32)adcCounts * ADC_SAR_Seq_1_10MV_COUNTS) + ( (adcCounts > 0) ?
 869              		.loc 1 775 0
 870 001c 0D48     		ldr	r0, .L72+4
 871 001e 4843     		muls	r0, r1
 776:Generated_Source\PSoC4/ADC_SAR_Seq_1.c ****                  (ADC_SAR_Seq_1_countsPer10Volt[chan] / 2) : (-(ADC_SAR_Seq_1_countsPer10Volt[chan]
 872              		.loc 1 776 0
 873 0020 0029     		cmp	r1, #0
 874 0022 06DD     		ble	.L70
 875              		.loc 1 776 0 is_stmt 0 discriminator 1
 876 0024 A300     		lsls	r3, r4, #2
 877 0026 0C4A     		ldr	r2, .L72+8
 878 0028 9A58     		ldr	r2, [r3, r2]
 879 002a D30F     		lsrs	r3, r2, #31
 880 002c 9A18     		adds	r2, r3, r2
 881 002e 5310     		asrs	r3, r2, #1
 882 0030 06E0     		b	.L71
 883              	.L70:
 884              		.loc 1 776 0 discriminator 2
 885 0032 A300     		lsls	r3, r4, #2
 886 0034 084A     		ldr	r2, .L72+8
 887 0036 9A58     		ldr	r2, [r3, r2]
 888 0038 D30F     		lsrs	r3, r2, #31
 889 003a 9A18     		adds	r2, r3, r2
 890 003c 5210     		asrs	r2, r2, #1
 891 003e 5342     		rsbs	r3, r2, #0
 892              	.L71:
 775:Generated_Source\PSoC4/ADC_SAR_Seq_1.c ****                  (ADC_SAR_Seq_1_countsPer10Volt[chan] / 2) : (-(ADC_SAR_Seq_1_countsPer10Volt[chan]
 893              		.loc 1 775 0 is_stmt 1
 894 0040 1818     		adds	r0, r3, r0
 777:Generated_Source\PSoC4/ADC_SAR_Seq_1.c ****                  / ADC_SAR_Seq_1_countsPer10Volt[chan]);
 895              		.loc 1 777 0
 896 0042 A400     		lsls	r4, r4, #2
 897              	.LVL63:
 898 0044 044B     		ldr	r3, .L72+8
 899 0046 E158     		ldr	r1, [r4, r3]
 900              	.LVL64:
 901 0048 FFF7FEFF 		bl	__aeabi_idiv
 902              	.LVL65:
 775:Generated_Source\PSoC4/ADC_SAR_Seq_1.c ****                  (ADC_SAR_Seq_1_countsPer10Volt[chan] / 2) : (-(ADC_SAR_Seq_1_countsPer10Volt[chan]
 903              		.loc 1 775 0
 904 004c 00B2     		sxth	r0, r0
 905              	.LVL66:
 778:Generated_Source\PSoC4/ADC_SAR_Seq_1.c **** 
 779:Generated_Source\PSoC4/ADC_SAR_Seq_1.c ****         return( mVolts );
 780:Generated_Source\PSoC4/ADC_SAR_Seq_1.c ****     }
 906              		.loc 1 780 0
 907              		@ sp needed
 908 004e 70BD     		pop	{r4, r5, r6, pc}
 909              	.L73:
 910              		.align	2
 911              	.L72:
 912 0050 00000000 		.word	ADC_SAR_Seq_1_offset
 913 0054 10270000 		.word	10000
 914 0058 00000000 		.word	ADC_SAR_Seq_1_countsPer10Volt
 915              		.cfi_endproc
 916              	.LFE16:
ARM GAS  C:\Users\corne\AppData\Local\Temp\ccpTlc6c.s 			page 31


 917              		.size	ADC_SAR_Seq_1_CountsTo_mVolts, .-ADC_SAR_Seq_1_CountsTo_mVolts
 918              		.global	__aeabi_lmul
 919              		.global	__aeabi_ldivmod
 920              		.section	.text.ADC_SAR_Seq_1_CountsTo_uVolts,"ax",%progbits
 921              		.align	2
 922              		.global	ADC_SAR_Seq_1_CountsTo_uVolts
 923              		.code	16
 924              		.thumb_func
 925              		.type	ADC_SAR_Seq_1_CountsTo_uVolts, %function
 926              	ADC_SAR_Seq_1_CountsTo_uVolts:
 927              	.LFB17:
 781:Generated_Source\PSoC4/ADC_SAR_Seq_1.c **** 
 782:Generated_Source\PSoC4/ADC_SAR_Seq_1.c **** 
 783:Generated_Source\PSoC4/ADC_SAR_Seq_1.c ****     /*******************************************************************************
 784:Generated_Source\PSoC4/ADC_SAR_Seq_1.c ****     * Function Name: ADC_SAR_Seq_1_CountsTo_uVolts
 785:Generated_Source\PSoC4/ADC_SAR_Seq_1.c ****     ********************************************************************************
 786:Generated_Source\PSoC4/ADC_SAR_Seq_1.c ****     *
 787:Generated_Source\PSoC4/ADC_SAR_Seq_1.c ****     * Summary:
 788:Generated_Source\PSoC4/ADC_SAR_Seq_1.c ****     *  This function converts ADC counts to micro Volts
 789:Generated_Source\PSoC4/ADC_SAR_Seq_1.c ****     *  This function is not available when left data format justification selected.
 790:Generated_Source\PSoC4/ADC_SAR_Seq_1.c ****     *
 791:Generated_Source\PSoC4/ADC_SAR_Seq_1.c ****     * Parameters:
 792:Generated_Source\PSoC4/ADC_SAR_Seq_1.c ****     *  chan: The ADC channel number.
 793:Generated_Source\PSoC4/ADC_SAR_Seq_1.c ****     *  adcCounts: Result from the ADC conversion
 794:Generated_Source\PSoC4/ADC_SAR_Seq_1.c ****     *
 795:Generated_Source\PSoC4/ADC_SAR_Seq_1.c ****     * Return:
 796:Generated_Source\PSoC4/ADC_SAR_Seq_1.c ****     *  Results in uVolts
 797:Generated_Source\PSoC4/ADC_SAR_Seq_1.c ****     *
 798:Generated_Source\PSoC4/ADC_SAR_Seq_1.c ****     * Global variables:
 799:Generated_Source\PSoC4/ADC_SAR_Seq_1.c ****     *  ADC_SAR_Seq_1_countsPer10Volt:  used to convert ADC counts to uVolts.
 800:Generated_Source\PSoC4/ADC_SAR_Seq_1.c ****     *  ADC_SAR_Seq_1_Offset:  Used as the offset while converting ADC counts
 801:Generated_Source\PSoC4/ADC_SAR_Seq_1.c ****     *   to mVolts.
 802:Generated_Source\PSoC4/ADC_SAR_Seq_1.c ****     *
 803:Generated_Source\PSoC4/ADC_SAR_Seq_1.c ****     * Theory:
 804:Generated_Source\PSoC4/ADC_SAR_Seq_1.c ****     *  Care must be taken to not exceed the maximum value for a 31 bit signed
 805:Generated_Source\PSoC4/ADC_SAR_Seq_1.c ****     *  number in the conversion to uVolts and at the same time not loose
 806:Generated_Source\PSoC4/ADC_SAR_Seq_1.c ****     *  resolution.
 807:Generated_Source\PSoC4/ADC_SAR_Seq_1.c ****     *  To convert adcCounts to microVolts it is required to be multiplied
 808:Generated_Source\PSoC4/ADC_SAR_Seq_1.c ****     *  on 10 million and later divide on gain in counts per 10V.
 809:Generated_Source\PSoC4/ADC_SAR_Seq_1.c ****     *
 810:Generated_Source\PSoC4/ADC_SAR_Seq_1.c ****     *******************************************************************************/
 811:Generated_Source\PSoC4/ADC_SAR_Seq_1.c ****     int32 ADC_SAR_Seq_1_CountsTo_uVolts(uint32 chan, int16 adcCounts)
 812:Generated_Source\PSoC4/ADC_SAR_Seq_1.c ****     {
 928              		.loc 1 812 0
 929              		.cfi_startproc
 930              		@ args = 0, pretend = 0, frame = 0
 931              		@ frame_needed = 0, uses_anonymous_args = 0
 932              	.LVL67:
 933 0000 70B5     		push	{r4, r5, r6, lr}
 934              		.cfi_def_cfa_offset 16
 935              		.cfi_offset 4, -16
 936              		.cfi_offset 5, -12
 937              		.cfi_offset 6, -8
 938              		.cfi_offset 14, -4
 939 0002 0500     		movs	r5, r0
 940 0004 0C00     		movs	r4, r1
 813:Generated_Source\PSoC4/ADC_SAR_Seq_1.c ****         int64 uVolts;
ARM GAS  C:\Users\corne\AppData\Local\Temp\ccpTlc6c.s 			page 32


 814:Generated_Source\PSoC4/ADC_SAR_Seq_1.c **** 
 815:Generated_Source\PSoC4/ADC_SAR_Seq_1.c ****         /* Halt CPU in debug mode if channel is out of valid range */
 816:Generated_Source\PSoC4/ADC_SAR_Seq_1.c ****         CYASSERT(chan < ADC_SAR_Seq_1_TOTAL_CHANNELS_NUM);
 941              		.loc 1 816 0
 942 0006 0428     		cmp	r0, #4
 943 0008 02D9     		bls	.L75
 944              		.loc 1 816 0 is_stmt 0 discriminator 1
 945 000a 0020     		movs	r0, #0
 946              	.LVL68:
 947 000c FFF7FEFF 		bl	CyHalt
 948              	.LVL69:
 949              	.L75:
 817:Generated_Source\PSoC4/ADC_SAR_Seq_1.c **** 
 818:Generated_Source\PSoC4/ADC_SAR_Seq_1.c ****         /* Divide the adcCount when accumulate averaging mode selected */
 819:Generated_Source\PSoC4/ADC_SAR_Seq_1.c ****         #if(ADC_SAR_Seq_1_DEFAULT_AVG_MODE == ADC_SAR_Seq_1__ACCUMULATE)
 820:Generated_Source\PSoC4/ADC_SAR_Seq_1.c ****             if((ADC_SAR_Seq_1_channelsConfig[chan] & ADC_SAR_Seq_1_AVERAGING_EN) != 0u)
 821:Generated_Source\PSoC4/ADC_SAR_Seq_1.c ****             {
 822:Generated_Source\PSoC4/ADC_SAR_Seq_1.c ****                 adcCounts /= ADC_SAR_Seq_1_DEFAULT_AVG_SAMPLES_DIV;
 823:Generated_Source\PSoC4/ADC_SAR_Seq_1.c ****             }
 824:Generated_Source\PSoC4/ADC_SAR_Seq_1.c ****         #endif /* ADC_SAR_Seq_1_DEFAULT_AVG_MODE == ADC_SAR_Seq_1__ACCUMULATE */
 825:Generated_Source\PSoC4/ADC_SAR_Seq_1.c **** 
 826:Generated_Source\PSoC4/ADC_SAR_Seq_1.c ****         /* Subtract ADC offset */
 827:Generated_Source\PSoC4/ADC_SAR_Seq_1.c ****         adcCounts -= ADC_SAR_Seq_1_offset[chan];
 950              		.loc 1 827 0 is_stmt 1
 951 0010 6A00     		lsls	r2, r5, #1
 952 0012 084B     		ldr	r3, .L76
 953 0014 D05A     		ldrh	r0, [r2, r3]
 954 0016 00B2     		sxth	r0, r0
 955 0018 201A     		subs	r0, r4, r0
 956 001a 00B2     		sxth	r0, r0
 957              	.LVL70:
 828:Generated_Source\PSoC4/ADC_SAR_Seq_1.c **** 
 829:Generated_Source\PSoC4/ADC_SAR_Seq_1.c ****         uVolts = ((int64)adcCounts * ADC_SAR_Seq_1_10UV_COUNTS) / ADC_SAR_Seq_1_countsPer10Volt[cha
 958              		.loc 1 829 0
 959 001c C117     		asrs	r1, r0, #31
 960 001e 064A     		ldr	r2, .L76+4
 961 0020 0023     		movs	r3, #0
 962 0022 FFF7FEFF 		bl	__aeabi_lmul
 963              	.LVL71:
 964 0026 AD00     		lsls	r5, r5, #2
 965              	.LVL72:
 966 0028 044B     		ldr	r3, .L76+8
 967 002a EA58     		ldr	r2, [r5, r3]
 968 002c D317     		asrs	r3, r2, #31
 969 002e FFF7FEFF 		bl	__aeabi_ldivmod
 970              	.LVL73:
 830:Generated_Source\PSoC4/ADC_SAR_Seq_1.c **** 
 831:Generated_Source\PSoC4/ADC_SAR_Seq_1.c ****         return( (int32)uVolts );
 832:Generated_Source\PSoC4/ADC_SAR_Seq_1.c ****     }
 971              		.loc 1 832 0
 972              		@ sp needed
 973 0032 70BD     		pop	{r4, r5, r6, pc}
 974              	.L77:
 975              		.align	2
 976              	.L76:
 977 0034 00000000 		.word	ADC_SAR_Seq_1_offset
 978 0038 80969800 		.word	10000000
ARM GAS  C:\Users\corne\AppData\Local\Temp\ccpTlc6c.s 			page 33


 979 003c 00000000 		.word	ADC_SAR_Seq_1_countsPer10Volt
 980              		.cfi_endproc
 981              	.LFE17:
 982              		.size	ADC_SAR_Seq_1_CountsTo_uVolts, .-ADC_SAR_Seq_1_CountsTo_uVolts
 983              		.global	__aeabi_i2f
 984              		.global	__aeabi_fmul
 985              		.global	__aeabi_fdiv
 986              		.section	.text.ADC_SAR_Seq_1_CountsTo_Volts,"ax",%progbits
 987              		.align	2
 988              		.global	ADC_SAR_Seq_1_CountsTo_Volts
 989              		.code	16
 990              		.thumb_func
 991              		.type	ADC_SAR_Seq_1_CountsTo_Volts, %function
 992              	ADC_SAR_Seq_1_CountsTo_Volts:
 993              	.LFB18:
 833:Generated_Source\PSoC4/ADC_SAR_Seq_1.c **** 
 834:Generated_Source\PSoC4/ADC_SAR_Seq_1.c **** 
 835:Generated_Source\PSoC4/ADC_SAR_Seq_1.c ****     /*******************************************************************************
 836:Generated_Source\PSoC4/ADC_SAR_Seq_1.c ****     * Function Name: ADC_SAR_Seq_1_CountsTo_Volts
 837:Generated_Source\PSoC4/ADC_SAR_Seq_1.c ****     ********************************************************************************
 838:Generated_Source\PSoC4/ADC_SAR_Seq_1.c ****     *
 839:Generated_Source\PSoC4/ADC_SAR_Seq_1.c ****     * Summary:
 840:Generated_Source\PSoC4/ADC_SAR_Seq_1.c ****     *  Converts the ADC output to Volts as a floating point number.
 841:Generated_Source\PSoC4/ADC_SAR_Seq_1.c ****     *  This function is not available when left data format justification selected.
 842:Generated_Source\PSoC4/ADC_SAR_Seq_1.c ****     *
 843:Generated_Source\PSoC4/ADC_SAR_Seq_1.c ****     * Parameters:
 844:Generated_Source\PSoC4/ADC_SAR_Seq_1.c ****     *  chan: The ADC channel number.
 845:Generated_Source\PSoC4/ADC_SAR_Seq_1.c ****     *  Result from the ADC conversion
 846:Generated_Source\PSoC4/ADC_SAR_Seq_1.c ****     *
 847:Generated_Source\PSoC4/ADC_SAR_Seq_1.c ****     * Return:
 848:Generated_Source\PSoC4/ADC_SAR_Seq_1.c ****     *  Results in Volts
 849:Generated_Source\PSoC4/ADC_SAR_Seq_1.c ****     *
 850:Generated_Source\PSoC4/ADC_SAR_Seq_1.c ****     * Global variables:
 851:Generated_Source\PSoC4/ADC_SAR_Seq_1.c ****     *  ADC_SAR_Seq_1_countsPer10Volt:  used to convert ADC counts to Volts.
 852:Generated_Source\PSoC4/ADC_SAR_Seq_1.c ****     *  ADC_SAR_Seq_1_Offset:  Used as the offset while converting ADC counts
 853:Generated_Source\PSoC4/ADC_SAR_Seq_1.c ****     *   to mVolts.
 854:Generated_Source\PSoC4/ADC_SAR_Seq_1.c ****     *
 855:Generated_Source\PSoC4/ADC_SAR_Seq_1.c ****     *******************************************************************************/
 856:Generated_Source\PSoC4/ADC_SAR_Seq_1.c ****     float32 ADC_SAR_Seq_1_CountsTo_Volts(uint32 chan, int16 adcCounts)
 857:Generated_Source\PSoC4/ADC_SAR_Seq_1.c ****     {
 994              		.loc 1 857 0
 995              		.cfi_startproc
 996              		@ args = 0, pretend = 0, frame = 0
 997              		@ frame_needed = 0, uses_anonymous_args = 0
 998              	.LVL74:
 999 0000 70B5     		push	{r4, r5, r6, lr}
 1000              		.cfi_def_cfa_offset 16
 1001              		.cfi_offset 4, -16
 1002              		.cfi_offset 5, -12
 1003              		.cfi_offset 6, -8
 1004              		.cfi_offset 14, -4
 1005 0002 0400     		movs	r4, r0
 1006 0004 0D00     		movs	r5, r1
 858:Generated_Source\PSoC4/ADC_SAR_Seq_1.c ****         float32 volts;
 859:Generated_Source\PSoC4/ADC_SAR_Seq_1.c **** 
 860:Generated_Source\PSoC4/ADC_SAR_Seq_1.c ****         /* Halt CPU in debug mode if channel is out of valid range */
 861:Generated_Source\PSoC4/ADC_SAR_Seq_1.c ****         CYASSERT(chan < ADC_SAR_Seq_1_TOTAL_CHANNELS_NUM);
ARM GAS  C:\Users\corne\AppData\Local\Temp\ccpTlc6c.s 			page 34


 1007              		.loc 1 861 0
 1008 0006 0428     		cmp	r0, #4
 1009 0008 02D9     		bls	.L79
 1010              		.loc 1 861 0 is_stmt 0 discriminator 1
 1011 000a 0020     		movs	r0, #0
 1012              	.LVL75:
 1013 000c FFF7FEFF 		bl	CyHalt
 1014              	.LVL76:
 1015              	.L79:
 862:Generated_Source\PSoC4/ADC_SAR_Seq_1.c **** 
 863:Generated_Source\PSoC4/ADC_SAR_Seq_1.c ****         /* Divide the adcCount when accumulate averaging mode selected */
 864:Generated_Source\PSoC4/ADC_SAR_Seq_1.c ****         #if(ADC_SAR_Seq_1_DEFAULT_AVG_MODE == ADC_SAR_Seq_1__ACCUMULATE)
 865:Generated_Source\PSoC4/ADC_SAR_Seq_1.c ****             if((ADC_SAR_Seq_1_channelsConfig[chan] & ADC_SAR_Seq_1_AVERAGING_EN) != 0u)
 866:Generated_Source\PSoC4/ADC_SAR_Seq_1.c ****             {
 867:Generated_Source\PSoC4/ADC_SAR_Seq_1.c ****                 adcCounts /= ADC_SAR_Seq_1_DEFAULT_AVG_SAMPLES_DIV;
 868:Generated_Source\PSoC4/ADC_SAR_Seq_1.c ****             }
 869:Generated_Source\PSoC4/ADC_SAR_Seq_1.c ****         #endif /* ADC_SAR_Seq_1_DEFAULT_AVG_MODE == ADC_SAR_Seq_1__ACCUMULATE */
 870:Generated_Source\PSoC4/ADC_SAR_Seq_1.c **** 
 871:Generated_Source\PSoC4/ADC_SAR_Seq_1.c ****         /* Subtract ADC offset */
 872:Generated_Source\PSoC4/ADC_SAR_Seq_1.c ****         adcCounts -= ADC_SAR_Seq_1_offset[chan];
 1016              		.loc 1 872 0 is_stmt 1
 1017 0010 6200     		lsls	r2, r4, #1
 1018 0012 0A4B     		ldr	r3, .L80
 1019 0014 D05A     		ldrh	r0, [r2, r3]
 1020 0016 00B2     		sxth	r0, r0
 1021 0018 281A     		subs	r0, r5, r0
 1022 001a 00B2     		sxth	r0, r0
 1023              	.LVL77:
 873:Generated_Source\PSoC4/ADC_SAR_Seq_1.c **** 
 874:Generated_Source\PSoC4/ADC_SAR_Seq_1.c ****         volts = ((float32)adcCounts * ADC_SAR_Seq_1_10V_COUNTS) / (float32)ADC_SAR_Seq_1_countsPer1
 1024              		.loc 1 874 0
 1025 001c FFF7FEFF 		bl	__aeabi_i2f
 1026              	.LVL78:
 1027 0020 0749     		ldr	r1, .L80+4
 1028 0022 FFF7FEFF 		bl	__aeabi_fmul
 1029              	.LVL79:
 1030 0026 051C     		adds	r5, r0, #0
 1031 0028 A400     		lsls	r4, r4, #2
 1032              	.LVL80:
 1033 002a 064B     		ldr	r3, .L80+8
 1034 002c E058     		ldr	r0, [r4, r3]
 1035 002e FFF7FEFF 		bl	__aeabi_i2f
 1036              	.LVL81:
 1037 0032 011C     		adds	r1, r0, #0
 1038 0034 281C     		adds	r0, r5, #0
 1039 0036 FFF7FEFF 		bl	__aeabi_fdiv
 1040              	.LVL82:
 875:Generated_Source\PSoC4/ADC_SAR_Seq_1.c **** 
 876:Generated_Source\PSoC4/ADC_SAR_Seq_1.c ****         return( volts );
 877:Generated_Source\PSoC4/ADC_SAR_Seq_1.c ****     }
 1041              		.loc 1 877 0
 1042              		@ sp needed
 1043 003a 70BD     		pop	{r4, r5, r6, pc}
 1044              	.L81:
 1045              		.align	2
 1046              	.L80:
 1047 003c 00000000 		.word	ADC_SAR_Seq_1_offset
ARM GAS  C:\Users\corne\AppData\Local\Temp\ccpTlc6c.s 			page 35


 1048 0040 00002041 		.word	1092616192
 1049 0044 00000000 		.word	ADC_SAR_Seq_1_countsPer10Volt
 1050              		.cfi_endproc
 1051              	.LFE18:
 1052              		.size	ADC_SAR_Seq_1_CountsTo_Volts, .-ADC_SAR_Seq_1_CountsTo_Volts
 1053              		.comm	ADC_SAR_Seq_1_countsPer10Volt,20,4
 1054              		.comm	ADC_SAR_Seq_1_offset,10,4
 1055              		.global	ADC_SAR_Seq_1_initVar
 1056              		.section	.rodata
 1057              		.align	2
 1058              		.set	.LANCHOR0,. + 0
 1059              		.type	ADC_SAR_Seq_1_channelsConfig, %object
 1060              		.size	ADC_SAR_Seq_1_channelsConfig, 20
 1061              	ADC_SAR_Seq_1_channelsConfig:
 1062 0000 00000000 		.space	20
 1062      00000000 
 1062      00000000 
 1062      00000000 
 1062      00000000 
 1063              		.type	ADC_SAR_Seq_1_InputsPlacement.4974, %object
 1064              		.size	ADC_SAR_Seq_1_InputsPlacement.4974, 5
 1065              	ADC_SAR_Seq_1_InputsPlacement.4974:
 1066 0014 06       		.byte	6
 1067 0015 05       		.byte	5
 1068 0016 04       		.byte	4
 1069 0017 07       		.byte	7
 1070 0018 22       		.byte	34
 1071              		.bss
 1072              		.set	.LANCHOR1,. + 0
 1073              		.type	ADC_SAR_Seq_1_initVar, %object
 1074              		.size	ADC_SAR_Seq_1_initVar, 1
 1075              	ADC_SAR_Seq_1_initVar:
 1076 0000 00       		.space	1
 1077              		.text
 1078              	.Letext0:
 1079              		.file 2 "Generated_Source\\PSoC4\\cytypes.h"
 1080              		.file 3 "Generated_Source\\PSoC4\\CyLib.h"