ARM GAS  C:\Users\corne\AppData\Local\Temp\ccpWA4Fl.s 			page 1


   1              		.syntax unified
   2              		.cpu cortex-m0
   3              		.fpu softvfp
   4              		.eabi_attribute 20, 1
   5              		.eabi_attribute 21, 1
   6              		.eabi_attribute 23, 3
   7              		.eabi_attribute 24, 1
   8              		.eabi_attribute 25, 1
   9              		.eabi_attribute 26, 1
  10              		.eabi_attribute 30, 1
  11              		.eabi_attribute 34, 0
  12              		.eabi_attribute 18, 4
  13              		.thumb
  14              		.syntax unified
  15              		.file	"bme280_hw.c"
  16              		.text
  17              	.Ltext0:
  18              		.cfi_sections	.debug_frame
  19              		.section	.text.get_sensor_data_normal_mode,"ax",%progbits
  20              		.align	2
  21              		.global	get_sensor_data_normal_mode
  22              		.code	16
  23              		.thumb_func
  24              		.type	get_sensor_data_normal_mode, %function
  25              	get_sensor_data_normal_mode:
  26              	.LFB65:
  27              		.file 1 "bme280_hw.c"
   1:bme280_hw.c   **** /* ========================================
   2:bme280_hw.c   ****  *
   3:bme280_hw.c   ****  * Copyright YOUR COMPANY, THE YEAR
   4:bme280_hw.c   ****  * All Rights Reserved
   5:bme280_hw.c   ****  * UNPUBLISHED, LICENSED SOFTWARE.
   6:bme280_hw.c   ****  *
   7:bme280_hw.c   ****  * CONFIDENTIAL AND PROPRIETARY INFORMATION
   8:bme280_hw.c   ****  * WHICH IS THE PROPERTY OF your company.
   9:bme280_hw.c   ****  *
  10:bme280_hw.c   ****  * ========================================
  11:bme280_hw.c   **** */
  12:bme280_hw.c   **** 
  13:bme280_hw.c   **** /* [] END OF FILE */
  14:bme280_hw.c   **** 
  15:bme280_hw.c   **** #include "bme280_hw.h"
  16:bme280_hw.c   **** #include "bme280_defs.h"
  17:bme280_hw.c   **** 
  18:bme280_hw.c   **** 
  19:bme280_hw.c   **** int8_t get_sensor_data_normal_mode(bme280_dev *dev)
  20:bme280_hw.c   **** {
  28              		.loc 1 20 0
  29              		.cfi_startproc
  30              		@ args = 0, pretend = 0, frame = 16
  31              		@ frame_needed = 0, uses_anonymous_args = 0
  32              	.LVL0:
  33 0000 10B5     		push	{r4, lr}
  34              		.cfi_def_cfa_offset 8
  35              		.cfi_offset 4, -8
  36              		.cfi_offset 14, -4
  37 0002 84B0     		sub	sp, sp, #16
ARM GAS  C:\Users\corne\AppData\Local\Temp\ccpWA4Fl.s 			page 2


  38              		.cfi_def_cfa_offset 24
  39 0004 0400     		movs	r4, r0
  21:bme280_hw.c   **** 	int8_t rslt;
  22:bme280_hw.c   **** 	uint8_t settings_sel;
  23:bme280_hw.c   **** 	bme280_data comp_data;
  24:bme280_hw.c   **** 
  25:bme280_hw.c   **** 	dev->settings.osr_h = BME280_OVERSAMPLING_4X;
  40              		.loc 1 25 0
  41 0006 0323     		movs	r3, #3
  42 0008 3A22     		movs	r2, #58
  43 000a 8354     		strb	r3, [r0, r2]
  26:bme280_hw.c   **** 	dev->settings.osr_p = BME280_OVERSAMPLING_4X;
  44              		.loc 1 26 0
  45 000c 023A     		subs	r2, r2, #2
  46 000e 8354     		strb	r3, [r0, r2]
  27:bme280_hw.c   **** 	dev->settings.osr_t = BME280_OVERSAMPLING_4X;
  47              		.loc 1 27 0
  48 0010 0132     		adds	r2, r2, #1
  49 0012 8354     		strb	r3, [r0, r2]
  50              	.LVL1:
  28:bme280_hw.c   **** 
  29:bme280_hw.c   **** 	settings_sel = BME280_OSR_PRESS_SEL|BME280_OSR_TEMP_SEL|BME280_OSR_HUM_SEL;
  30:bme280_hw.c   **** 	rslt = bme280_set_sensor_settings(settings_sel, dev);
  51              		.loc 1 30 0
  52 0014 0100     		movs	r1, r0
  53 0016 0720     		movs	r0, #7
  54              	.LVL2:
  55 0018 FFF7FEFF 		bl	bme280_set_sensor_settings
  56              	.LVL3:
  31:bme280_hw.c   **** 	rslt = bme280_set_sensor_mode(BME280_NORMAL_MODE, dev);
  57              		.loc 1 31 0
  58 001c 2100     		movs	r1, r4
  59 001e 0320     		movs	r0, #3
  60 0020 FFF7FEFF 		bl	bme280_set_sensor_mode
  61              	.LVL4:
  32:bme280_hw.c   **** 	/* Give some delay for the sensor to go into normal mode */
  33:bme280_hw.c   **** 	CyDelay(5);
  62              		.loc 1 33 0
  63 0024 0520     		movs	r0, #5
  64 0026 FFF7FEFF 		bl	CyDelay
  65              	.LVL5:
  66              	.L2:
  34:bme280_hw.c   **** 	
  35:bme280_hw.c   **** 	while (1) {
  36:bme280_hw.c   **** 		rslt = bme280_get_sensor_data(BME280_PRESS | BME280_HUM | BME280_TEMP, &comp_data, dev);
  67              		.loc 1 36 0 discriminator 1
  68 002a 2200     		movs	r2, r4
  69 002c 01A9     		add	r1, sp, #4
  70 002e 0720     		movs	r0, #7
  71 0030 FFF7FEFF 		bl	bme280_get_sensor_data
  72              	.LVL6:
  73 0034 F9E7     		b	.L2
  74              		.cfi_endproc
  75              	.LFE65:
  76              		.size	get_sensor_data_normal_mode, .-get_sensor_data_normal_mode
  77              		.global	__aeabi_idiv
  78              		.global	__aeabi_uidiv
ARM GAS  C:\Users\corne\AppData\Local\Temp\ccpWA4Fl.s 			page 3


  79 0036 C046     		.section	.text.get_sensor_data_forced_mode,"ax",%progbits
  80              		.align	2
  81              		.global	get_sensor_data_forced_mode
  82              		.code	16
  83              		.thumb_func
  84              		.type	get_sensor_data_forced_mode, %function
  85              	get_sensor_data_forced_mode:
  86              	.LFB66:
  37:bme280_hw.c   **** 		//print_sensor_data(&comp_data);
  38:bme280_hw.c   **** 	}
  39:bme280_hw.c   **** 
  40:bme280_hw.c   **** 	return rslt;
  41:bme280_hw.c   **** }
  42:bme280_hw.c   **** 
  43:bme280_hw.c   **** int8_t get_sensor_data_forced_mode(bme280_dev *devp)
  44:bme280_hw.c   **** {
  87              		.loc 1 44 0
  88              		.cfi_startproc
  89              		@ args = 0, pretend = 0, frame = 120
  90              		@ frame_needed = 0, uses_anonymous_args = 0
  91              	.LVL7:
  92 0000 70B5     		push	{r4, r5, r6, lr}
  93              		.cfi_def_cfa_offset 16
  94              		.cfi_offset 4, -16
  95              		.cfi_offset 5, -12
  96              		.cfi_offset 6, -8
  97              		.cfi_offset 14, -4
  98 0002 9EB0     		sub	sp, sp, #120
  99              		.cfi_def_cfa_offset 136
 100 0004 0500     		movs	r5, r0
 101              	.LVL8:
 102              	.L4:
 103              	.LBB2:
  45:bme280_hw.c   **** 	int8_t rslt;
  46:bme280_hw.c   **** 	uint8_t settings_sel;
  47:bme280_hw.c   **** 	bme280_data comp_data;
  48:bme280_hw.c   **** 
  49:bme280_hw.c   **** 	/* Continuously get the sensor data */
  50:bme280_hw.c   **** 	while (1) {
  51:bme280_hw.c   **** 		devp->settings.osr_h = BME280_OVERSAMPLING_1X;
 104              		.loc 1 51 0 discriminator 1
 105 0006 0123     		movs	r3, #1
 106 0008 3A22     		movs	r2, #58
 107 000a AB54     		strb	r3, [r5, r2]
  52:bme280_hw.c   **** 		devp->settings.osr_p = BME280_OVERSAMPLING_1X;
 108              		.loc 1 52 0 discriminator 1
 109 000c 023A     		subs	r2, r2, #2
 110 000e AB54     		strb	r3, [r5, r2]
  53:bme280_hw.c   **** 		devp->settings.osr_t = BME280_OVERSAMPLING_1X;
 111              		.loc 1 53 0 discriminator 1
 112 0010 0132     		adds	r2, r2, #1
 113 0012 AB54     		strb	r3, [r5, r2]
 114              	.LVL9:
  54:bme280_hw.c   ****  
  55:bme280_hw.c   **** 		settings_sel = BME280_OSR_PRESS_SEL|BME280_OSR_TEMP_SEL|BME280_OSR_HUM_SEL;
  56:bme280_hw.c   **** 
  57:bme280_hw.c   **** 		rslt = bme280_set_sensor_settings(settings_sel, devp);
ARM GAS  C:\Users\corne\AppData\Local\Temp\ccpWA4Fl.s 			page 4


 115              		.loc 1 57 0 discriminator 1
 116 0014 2900     		movs	r1, r5
 117 0016 0720     		movs	r0, #7
 118 0018 FFF7FEFF 		bl	bme280_set_sensor_settings
 119              	.LVL10:
  58:bme280_hw.c   **** 		rslt = bme280_set_sensor_mode(BME280_FORCED_MODE, devp);
 120              		.loc 1 58 0 discriminator 1
 121 001c 2900     		movs	r1, r5
 122 001e 0120     		movs	r0, #1
 123 0020 FFF7FEFF 		bl	bme280_set_sensor_mode
 124              	.LVL11:
  59:bme280_hw.c   **** 		/* Give some delay for the sensor to go into force mode */
  60:bme280_hw.c   **** 		CyDelay(5);
 125              		.loc 1 60 0 discriminator 1
 126 0024 0520     		movs	r0, #5
 127 0026 FFF7FEFF 		bl	CyDelay
 128              	.LVL12:
  61:bme280_hw.c   **** 
  62:bme280_hw.c   **** 		rslt = bme280_get_sensor_data(BME280_PRESS | BME280_HUM | BME280_TEMP, &comp_data, devp);
 129              		.loc 1 62 0 discriminator 1
 130 002a 2A00     		movs	r2, r5
 131 002c 1BA9     		add	r1, sp, #108
 132 002e 0720     		movs	r0, #7
 133 0030 FFF7FEFF 		bl	bme280_get_sensor_data
 134              	.LVL13:
  63:bme280_hw.c   ****         
  64:bme280_hw.c   ****         char outstring[100];
  65:bme280_hw.c   ****         uint16 templ = comp_data.temperature;
 135              		.loc 1 65 0 discriminator 1
 136 0034 1C9B     		ldr	r3, [sp, #112]
 137 0036 0193     		str	r3, [sp, #4]
 138 0038 6B46     		mov	r3, sp
 139 003a 9E88     		ldrh	r6, [r3, #4]
 140              	.LVL14:
  66:bme280_hw.c   ****         uint16 temph = comp_data.temperature /100;
 141              		.loc 1 66 0 discriminator 1
 142 003c 6421     		movs	r1, #100
 143 003e 0198     		ldr	r0, [sp, #4]
 144 0040 FFF7FEFF 		bl	__aeabi_idiv
 145              	.LVL15:
 146 0044 83B2     		uxth	r3, r0
 147              	.LVL16:
  67:bme280_hw.c   ****         templ = templ - (temph *100);
 148              		.loc 1 67 0 discriminator 1
 149 0046 6424     		movs	r4, #100
 150 0048 6442     		rsbs	r4, r4, #0
 151 004a 6343     		muls	r3, r4
 152              	.LVL17:
 153 004c F318     		adds	r3, r6, r3
 154 004e 9BB2     		uxth	r3, r3
 155              	.LVL18:
  68:bme280_hw.c   ****         sprintf(outstring, "Temperature is:\t%d.%02d ºC\r\n",temph,templ);
 156              		.loc 1 68 0 discriminator 1
 157 0050 0004     		lsls	r0, r0, #16
 158              	.LVL19:
 159 0052 020C     		lsrs	r2, r0, #16
 160 0054 1849     		ldr	r1, .L5
ARM GAS  C:\Users\corne\AppData\Local\Temp\ccpWA4Fl.s 			page 5


 161 0056 02A8     		add	r0, sp, #8
 162 0058 FFF7FEFF 		bl	sprintf
 163              	.LVL20:
  69:bme280_hw.c   ****         UART_UartPutString(outstring);
 164              		.loc 1 69 0 discriminator 1
 165 005c 02A8     		add	r0, sp, #8
 166 005e FFF7FEFF 		bl	UART_UartPutString
 167              	.LVL21:
  70:bme280_hw.c   ****         
  71:bme280_hw.c   ****         uint16 humil = comp_data.humidity;
 168              		.loc 1 71 0 discriminator 1
 169 0062 1D98     		ldr	r0, [sp, #116]
 170 0064 86B2     		uxth	r6, r0
 171              	.LVL22:
  72:bme280_hw.c   ****         uint16 humih = comp_data.humidity / 1000;
 172              		.loc 1 72 0 discriminator 1
 173 0066 FA21     		movs	r1, #250
 174 0068 8900     		lsls	r1, r1, #2
 175 006a FFF7FEFF 		bl	__aeabi_uidiv
 176              	.LVL23:
 177 006e 82B2     		uxth	r2, r0
 178              	.LVL24:
  73:bme280_hw.c   ****         humil = humil - (humih *1000);
 179              		.loc 1 73 0 discriminator 1
 180 0070 124B     		ldr	r3, .L5+4
 181 0072 5343     		muls	r3, r2
 182 0074 F318     		adds	r3, r6, r3
 183 0076 9BB2     		uxth	r3, r3
 184              	.LVL25:
  74:bme280_hw.c   ****         sprintf(outstring, "Humidity is:\t%d.%03d %%\r\n",humih,humil);
 185              		.loc 1 74 0 discriminator 1
 186 0078 0004     		lsls	r0, r0, #16
 187 007a 020C     		lsrs	r2, r0, #16
 188              	.LVL26:
 189 007c 1049     		ldr	r1, .L5+8
 190 007e 02A8     		add	r0, sp, #8
 191 0080 FFF7FEFF 		bl	sprintf
 192              	.LVL27:
  75:bme280_hw.c   ****         UART_UartPutString(outstring);
 193              		.loc 1 75 0 discriminator 1
 194 0084 02A8     		add	r0, sp, #8
 195 0086 FFF7FEFF 		bl	UART_UartPutString
 196              	.LVL28:
  76:bme280_hw.c   ****         
  77:bme280_hw.c   ****         uint16 presh = comp_data.pressure / 100;
 197              		.loc 1 77 0 discriminator 1
 198 008a 1B9E     		ldr	r6, [sp, #108]
 199 008c 6421     		movs	r1, #100
 200 008e 3000     		movs	r0, r6
 201 0090 FFF7FEFF 		bl	__aeabi_uidiv
 202              	.LVL29:
 203 0094 82B2     		uxth	r2, r0
 204              	.LVL30:
  78:bme280_hw.c   ****         uint16 presl = comp_data.pressure;
 205              		.loc 1 78 0 discriminator 1
 206 0096 B3B2     		uxth	r3, r6
 207              	.LVL31:
ARM GAS  C:\Users\corne\AppData\Local\Temp\ccpWA4Fl.s 			page 6


  79:bme280_hw.c   ****         presl = presl - (presh *100);
 208              		.loc 1 79 0 discriminator 1
 209 0098 5443     		muls	r4, r2
 210 009a 1C19     		adds	r4, r3, r4
 211 009c A3B2     		uxth	r3, r4
 212              	.LVL32:
  80:bme280_hw.c   ****         sprintf(outstring, "Pressure is:\t%d.%02d Pa\r\n\r\n",presh,presl);
 213              		.loc 1 80 0 discriminator 1
 214 009e 0004     		lsls	r0, r0, #16
 215 00a0 020C     		lsrs	r2, r0, #16
 216              	.LVL33:
 217 00a2 0849     		ldr	r1, .L5+12
 218 00a4 02A8     		add	r0, sp, #8
 219 00a6 FFF7FEFF 		bl	sprintf
 220              	.LVL34:
  81:bme280_hw.c   ****         UART_UartPutString(outstring);
 221              		.loc 1 81 0 discriminator 1
 222 00aa 02A8     		add	r0, sp, #8
 223 00ac FFF7FEFF 		bl	UART_UartPutString
 224              	.LVL35:
  82:bme280_hw.c   ****         
  83:bme280_hw.c   ****         CyDelay(6000);
 225              		.loc 1 83 0 discriminator 1
 226 00b0 0548     		ldr	r0, .L5+16
 227 00b2 FFF7FEFF 		bl	CyDelay
 228              	.LVL36:
 229 00b6 A6E7     		b	.L4
 230              	.L6:
 231              		.align	2
 232              	.L5:
 233 00b8 00000000 		.word	.LC0
 234 00bc 18FCFFFF 		.word	-1000
 235 00c0 20000000 		.word	.LC2
 236 00c4 3C000000 		.word	.LC4
 237 00c8 70170000 		.word	6000
 238              	.LBE2:
 239              		.cfi_endproc
 240              	.LFE66:
 241              		.size	get_sensor_data_forced_mode, .-get_sensor_data_forced_mode
 242              		.section	.text.BME_SpiRead,"ax",%progbits
 243              		.align	2
 244              		.global	BME_SpiRead
 245              		.code	16
 246              		.thumb_func
 247              		.type	BME_SpiRead, %function
 248              	BME_SpiRead:
 249              	.LFB67:
  84:bme280_hw.c   **** 	}
  85:bme280_hw.c   **** 	return rslt;
  86:bme280_hw.c   **** }
  87:bme280_hw.c   **** 
  88:bme280_hw.c   **** 
  89:bme280_hw.c   **** 
  90:bme280_hw.c   **** int8_t BME_SpiRead( uint8_t dev_id,volatile uint8_t reg_addr,volatile uint8_t *data,volatile uint16
  91:bme280_hw.c   **** {
 250              		.loc 1 91 0
 251              		.cfi_startproc
ARM GAS  C:\Users\corne\AppData\Local\Temp\ccpWA4Fl.s 			page 7


 252              		@ args = 0, pretend = 0, frame = 80
 253              		@ frame_needed = 0, uses_anonymous_args = 0
 254              	.LVL37:
 255 0000 70B5     		push	{r4, r5, r6, lr}
 256              		.cfi_def_cfa_offset 16
 257              		.cfi_offset 4, -16
 258              		.cfi_offset 5, -12
 259              		.cfi_offset 6, -8
 260              		.cfi_offset 14, -4
 261 0002 94B0     		sub	sp, sp, #80
 262              		.cfi_def_cfa_offset 96
 263 0004 1500     		movs	r5, r2
 264 0006 6A46     		mov	r2, sp
 265              	.LVL38:
 266 0008 D171     		strb	r1, [r2, #7]
 267 000a 01A9     		add	r1, sp, #4
 268              	.LVL39:
 269 000c 0B80     		strh	r3, [r1]
 270              	.LVL40:
  92:bme280_hw.c   ****     volatile int test = 0;
 271              		.loc 1 92 0
 272 000e 0023     		movs	r3, #0
 273              	.LVL41:
 274 0010 1393     		str	r3, [sp, #76]
 275              	.LVL42:
  93:bme280_hw.c   ****     if(reg_addr == 0x74)
 276              		.loc 1 93 0
 277 0012 D379     		ldrb	r3, [r2, #7]
 278              	.LVL43:
 279 0014 742B     		cmp	r3, #116
 280 0016 02D1     		bne	.L8
  94:bme280_hw.c   ****     {
  95:bme280_hw.c   ****         CyDelay(1);
 281              		.loc 1 95 0
 282 0018 0120     		movs	r0, #1
 283              	.LVL44:
 284 001a FFF7FEFF 		bl	CyDelay
 285              	.LVL45:
 286              	.L8:
  96:bme280_hw.c   ****     }
  97:bme280_hw.c   ****     len = len +1;
 287              		.loc 1 97 0
 288 001e 01AA     		add	r2, sp, #4
 289 0020 1388     		ldrh	r3, [r2]
 290              	.LVL46:
 291 0022 0133     		adds	r3, r3, #1
 292 0024 9BB2     		uxth	r3, r3
 293 0026 1380     		strh	r3, [r2]
  98:bme280_hw.c   ****     uint8 packetsize = len;
 294              		.loc 1 98 0
 295 0028 1488     		ldrh	r4, [r2]
 296 002a E4B2     		uxtb	r4, r4
 297              	.LVL47:
  99:bme280_hw.c   ****     uint8 dummyBuffer[30];
 100:bme280_hw.c   ****     volatile uint8 tmpBuffer[30];
 101:bme280_hw.c   ****     uint8 status;
 102:bme280_hw.c   ****     uint32 i=0;
ARM GAS  C:\Users\corne\AppData\Local\Temp\ccpWA4Fl.s 			page 8


 103:bme280_hw.c   ****     for(i=0;i<30;i++)
 298              		.loc 1 103 0
 299 002c 0023     		movs	r3, #0
 300 002e 06E0     		b	.L9
 301              	.LVL48:
 302              	.L10:
 104:bme280_hw.c   ****     {
 105:bme280_hw.c   ****         dummyBuffer[i] = 0xFFu;
 303              		.loc 1 105 0 discriminator 3
 304 0030 FF21     		movs	r1, #255
 305 0032 0BAA     		add	r2, sp, #44
 306 0034 D154     		strb	r1, [r2, r3]
 106:bme280_hw.c   ****         tmpBuffer[i] = 0x00u;
 307              		.loc 1 106 0 discriminator 3
 308 0036 0021     		movs	r1, #0
 309 0038 03AA     		add	r2, sp, #12
 310 003a D154     		strb	r1, [r2, r3]
 103:bme280_hw.c   ****     {
 311              		.loc 1 103 0 discriminator 3
 312 003c 0133     		adds	r3, r3, #1
 313              	.LVL49:
 314              	.L9:
 103:bme280_hw.c   ****     {
 315              		.loc 1 103 0 is_stmt 0 discriminator 1
 316 003e 1D2B     		cmp	r3, #29
 317 0040 F6D9     		bls	.L10
 318              	.LVL50:
 107:bme280_hw.c   ****     }
 108:bme280_hw.c   ****     i=0;
 109:bme280_hw.c   ****     dummyBuffer[0] = (reg_addr | 0x80);
 319              		.loc 1 109 0 is_stmt 1
 320 0042 6B46     		mov	r3, sp
 321 0044 DA79     		ldrb	r2, [r3, #7]
 322 0046 8023     		movs	r3, #128
 323 0048 5B42     		rsbs	r3, r3, #0
 324 004a 1343     		orrs	r3, r2
 325 004c 0BAA     		add	r2, sp, #44
 326 004e 1370     		strb	r3, [r2]
 110:bme280_hw.c   ****     SPIM_ClearRxBuffer();
 327              		.loc 1 110 0
 328 0050 FFF7FEFF 		bl	SPIM_ClearRxBuffer
 329              	.LVL51:
 108:bme280_hw.c   ****     dummyBuffer[0] = (reg_addr | 0x80);
 330              		.loc 1 108 0
 331 0054 0026     		movs	r6, #0
 111:bme280_hw.c   ****     while(len--)
 332              		.loc 1 111 0
 333 0056 04E0     		b	.L11
 334              	.LVL52:
 335              	.L12:
 112:bme280_hw.c   ****     {
 113:bme280_hw.c   ****         SPIM_WriteTxData(dummyBuffer[i]);
 336              		.loc 1 113 0
 337 0058 0BAB     		add	r3, sp, #44
 338 005a 985D     		ldrb	r0, [r3, r6]
 339 005c FFF7FEFF 		bl	SPIM_WriteTxData
 340              	.LVL53:
ARM GAS  C:\Users\corne\AppData\Local\Temp\ccpWA4Fl.s 			page 9


 114:bme280_hw.c   ****         i++;
 341              		.loc 1 114 0
 342 0060 0136     		adds	r6, r6, #1
 343              	.LVL54:
 344              	.L11:
 111:bme280_hw.c   ****     while(len--)
 345              		.loc 1 111 0
 346 0062 01A9     		add	r1, sp, #4
 347 0064 0B88     		ldrh	r3, [r1]
 348 0066 9BB2     		uxth	r3, r3
 349 0068 5A1E     		subs	r2, r3, #1
 350 006a 92B2     		uxth	r2, r2
 351 006c 0A80     		strh	r2, [r1]
 352 006e 002B     		cmp	r3, #0
 353 0070 F2D1     		bne	.L12
 354              	.L13:
 115:bme280_hw.c   ****     }
 116:bme280_hw.c   ****     while (packetsize != SPIM_GetRxBufferSize())
 355              		.loc 1 116 0 discriminator 1
 356 0072 FFF7FEFF 		bl	SPIM_GetRxBufferSize
 357              	.LVL55:
 358 0076 8442     		cmp	r4, r0
 359 0078 FBD1     		bne	.L13
 117:bme280_hw.c   ****     {
 118:bme280_hw.c   ****     }
 119:bme280_hw.c   ****     SPIM_ClearTxBuffer();
 360              		.loc 1 119 0
 361 007a FFF7FEFF 		bl	SPIM_ClearTxBuffer
 362              	.LVL56:
 120:bme280_hw.c   ****     
 121:bme280_hw.c   ****     i=0u;
 363              		.loc 1 121 0
 364 007e 0024     		movs	r4, #0
 365              	.LVL57:
 122:bme280_hw.c   ****     while(0u != SPIM_GetRxBufferSize())
 366              		.loc 1 122 0
 367 0080 0AE0     		b	.L14
 368              	.LVL58:
 369              	.L16:
 123:bme280_hw.c   ****     {
 124:bme280_hw.c   ****         tmpBuffer[i] = SPIM_ReadRxData();
 370              		.loc 1 124 0
 371 0082 FFF7FEFF 		bl	SPIM_ReadRxData
 372              	.LVL59:
 373 0086 03AB     		add	r3, sp, #12
 374 0088 1855     		strb	r0, [r3, r4]
 125:bme280_hw.c   ****         if(i > 0)
 375              		.loc 1 125 0
 376 008a 002C     		cmp	r4, #0
 377 008c 03D0     		beq	.L15
 126:bme280_hw.c   ****         {
 127:bme280_hw.c   ****             *data = tmpBuffer[i];
 378              		.loc 1 127 0
 379 008e 1B5D     		ldrb	r3, [r3, r4]
 380 0090 DBB2     		uxtb	r3, r3
 381 0092 2B70     		strb	r3, [r5]
 128:bme280_hw.c   ****             data++;
ARM GAS  C:\Users\corne\AppData\Local\Temp\ccpWA4Fl.s 			page 10


 382              		.loc 1 128 0
 383 0094 0135     		adds	r5, r5, #1
 384              	.LVL60:
 385              	.L15:
 129:bme280_hw.c   ****         }
 130:bme280_hw.c   ****         i++; 
 386              		.loc 1 130 0
 387 0096 0134     		adds	r4, r4, #1
 388              	.LVL61:
 389              	.L14:
 122:bme280_hw.c   ****     {
 390              		.loc 1 122 0
 391 0098 FFF7FEFF 		bl	SPIM_GetRxBufferSize
 392              	.LVL62:
 393 009c 0028     		cmp	r0, #0
 394 009e F0D1     		bne	.L16
 131:bme280_hw.c   ****     }
 132:bme280_hw.c   ****     return 0;
 133:bme280_hw.c   **** }
 395              		.loc 1 133 0
 396 00a0 14B0     		add	sp, sp, #80
 397              		@ sp needed
 398              	.LVL63:
 399              	.LVL64:
 400 00a2 70BD     		pop	{r4, r5, r6, pc}
 401              		.cfi_endproc
 402              	.LFE67:
 403              		.size	BME_SpiRead, .-BME_SpiRead
 404              		.section	.text.BME_SpiWrite,"ax",%progbits
 405              		.align	2
 406              		.global	BME_SpiWrite
 407              		.code	16
 408              		.thumb_func
 409              		.type	BME_SpiWrite, %function
 410              	BME_SpiWrite:
 411              	.LFB68:
 134:bme280_hw.c   **** 
 135:bme280_hw.c   **** int8_t BME_SpiWrite(uint8_t dev_id, uint8_t reg_addr, uint8_t *data, uint16_t len)
 136:bme280_hw.c   **** {
 412              		.loc 1 136 0
 413              		.cfi_startproc
 414              		@ args = 0, pretend = 0, frame = 0
 415              		@ frame_needed = 0, uses_anonymous_args = 0
 416              	.LVL65:
 417 0000 10B5     		push	{r4, lr}
 418              		.cfi_def_cfa_offset 8
 419              		.cfi_offset 4, -8
 420              		.cfi_offset 14, -4
 137:bme280_hw.c   ****     static uint8_t mTxBuffer[2];
 138:bme280_hw.c   ****     mTxBuffer[0] = (reg_addr & (~0x80));
 421              		.loc 1 138 0
 422 0002 7F20     		movs	r0, #127
 423              	.LVL66:
 424 0004 0840     		ands	r0, r1
 425 0006 074C     		ldr	r4, .L19
 426 0008 2070     		strb	r0, [r4]
 139:bme280_hw.c   ****     mTxBuffer[1] = *data;
ARM GAS  C:\Users\corne\AppData\Local\Temp\ccpWA4Fl.s 			page 11


 427              		.loc 1 139 0
 428 000a 1378     		ldrb	r3, [r2]
 429              	.LVL67:
 430 000c 6370     		strb	r3, [r4, #1]
 140:bme280_hw.c   ****     SPIM_WriteTxData(mTxBuffer[0]);
 431              		.loc 1 140 0
 432 000e FFF7FEFF 		bl	SPIM_WriteTxData
 433              	.LVL68:
 141:bme280_hw.c   ****     SPIM_WriteTxData(mTxBuffer[1]);
 434              		.loc 1 141 0
 435 0012 6078     		ldrb	r0, [r4, #1]
 436 0014 FFF7FEFF 		bl	SPIM_WriteTxData
 437              	.LVL69:
 438              	.L18:
 142:bme280_hw.c   ****     while(0 != SPIM_GetTxBufferSize());
 439              		.loc 1 142 0 discriminator 1
 440 0018 FFF7FEFF 		bl	SPIM_GetTxBufferSize
 441              	.LVL70:
 442 001c 0028     		cmp	r0, #0
 443 001e FBD1     		bne	.L18
 143:bme280_hw.c   ****     return 0;
 144:bme280_hw.c   **** }
 444              		.loc 1 144 0
 445              		@ sp needed
 446 0020 10BD     		pop	{r4, pc}
 447              	.L20:
 448 0022 C046     		.align	2
 449              	.L19:
 450 0024 00000000 		.word	.LANCHOR0
 451              		.cfi_endproc
 452              	.LFE68:
 453              		.size	BME_SpiWrite, .-BME_SpiWrite
 454              		.section	.rodata.str1.4,"aMS",%progbits,1
 455              		.align	2
 456              	.LC0:
 457 0000 54656D70 		.ascii	"Temperature is:\011%d.%02d \302\272C\015\012\000"
 457      65726174 
 457      75726520 
 457      69733A09 
 457      25642E25 
 458 001e 0000     		.space	2
 459              	.LC2:
 460 0020 48756D69 		.ascii	"Humidity is:\011%d.%03d %%\015\012\000"
 460      64697479 
 460      2069733A 
 460      0925642E 
 460      25303364 
 461 003a 0000     		.space	2
 462              	.LC4:
 463 003c 50726573 		.ascii	"Pressure is:\011%d.%02d Pa\015\012\015\012\000"
 463      73757265 
 463      2069733A 
 463      0925642E 
 463      25303264 
 464              		.bss
 465              		.align	2
 466              		.set	.LANCHOR0,. + 0
ARM GAS  C:\Users\corne\AppData\Local\Temp\ccpWA4Fl.s 			page 12


 467              		.type	mTxBuffer.7731, %object
 468              		.size	mTxBuffer.7731, 2
 469              	mTxBuffer.7731:
 470 0000 0000     		.space	2
 471              		.text
 472              	.Letext0:
 473              		.file 2 "c:\\program files (x86)\\cypress\\psoc creator\\4.1\\psoc creator\\import\\gnu\\arm\\5.4.
 474              		.file 3 "c:\\program files (x86)\\cypress\\psoc creator\\4.1\\psoc creator\\import\\gnu\\arm\\5.4.
 475              		.file 4 "Generated_Source\\PSoC4/cytypes.h"
 476              		.file 5 "bme280_defs.h"
 477              		.file 6 "bme280.h"
 478              		.file 7 "Generated_Source\\PSoC4/CyLib.h"
 479              		.file 8 "c:\\program files (x86)\\cypress\\psoc creator\\4.1\\psoc creator\\import\\gnu\\arm\\5.4.
 480              		.file 9 "Generated_Source\\PSoC4/UART_SPI_UART.h"
 481              		.file 10 "Generated_Source\\PSoC4/SPIM.h"