ARM GAS  C:\Users\corne\AppData\Local\Temp\cc0fqrF9.s 			page 1


   1              		.syntax unified
   2              		.cpu cortex-m0
   3              		.fpu softvfp
   4              		.eabi_attribute 20, 1
   5              		.eabi_attribute 21, 1
   6              		.eabi_attribute 23, 3
   7              		.eabi_attribute 24, 1
   8              		.eabi_attribute 25, 1
   9              		.eabi_attribute 26, 1
  10              		.eabi_attribute 30, 1
  11              		.eabi_attribute 34, 0
  12              		.eabi_attribute 18, 4
  13              		.thumb
  14              		.syntax unified
  15              		.file	"bme280.c"
  16              		.text
  17              	.Ltext0:
  18              		.cfi_sections	.debug_frame
  19              		.section	.text.fill_filter_settings,"ax",%progbits
  20              		.align	2
  21              		.code	16
  22              		.thumb_func
  23              		.type	fill_filter_settings, %function
  24              	fill_filter_settings:
  25              	.LFB14:
  26              		.file 1 "bme280.c"
   1:bme280.c      **** /**\mainpage
   2:bme280.c      ****  * Copyright (C) 2016 - 2017 Bosch Sensortec GmbH
   3:bme280.c      ****  *
   4:bme280.c      ****  * Redistribution and use in source and binary forms, with or without
   5:bme280.c      ****  * modification, are permitted provided that the following conditions are met:
   6:bme280.c      ****  *
   7:bme280.c      ****  * Redistributions of source code must retain the above copyright
   8:bme280.c      ****  * notice, this list of conditions and the following disclaimer.
   9:bme280.c      ****  *
  10:bme280.c      ****  * Redistributions in binary form must reproduce the above copyright
  11:bme280.c      ****  * notice, this list of conditions and the following disclaimer in the
  12:bme280.c      ****  * documentation and/or other materials provided with the distribution.
  13:bme280.c      ****  *
  14:bme280.c      ****  * Neither the name of the copyright holder nor the names of the
  15:bme280.c      ****  * contributors may be used to endorse or promote products derived from
  16:bme280.c      ****  * this software without specific prior written permission.
  17:bme280.c      ****  *
  18:bme280.c      ****  * THIS SOFTWARE IS PROVIDED BY THE COPYRIGHT HOLDERS AND
  19:bme280.c      ****  * CONTRIBUTORS "AS IS" AND ANY EXPRESS OR
  20:bme280.c      ****  * IMPLIED WARRANTIES, INCLUDING, BUT NOT LIMITED TO, THE IMPLIED
  21:bme280.c      ****  * WARRANTIES OF MERCHANTABILITY AND FITNESS FOR A PARTICULAR PURPOSE ARE
  22:bme280.c      ****  * DISCLAIMED. IN NO EVENT SHALL COPYRIGHT HOLDER
  23:bme280.c      ****  * OR CONTRIBUTORS BE LIABLE FOR ANY
  24:bme280.c      ****  * DIRECT, INDIRECT, INCIDENTAL, SPECIAL, EXEMPLARY,
  25:bme280.c      ****  * OR CONSEQUENTIAL DAMAGES(INCLUDING, BUT NOT LIMITED TO,
  26:bme280.c      ****  * PROCUREMENT OF SUBSTITUTE GOODS OR SERVICES;
  27:bme280.c      ****  * LOSS OF USE, DATA, OR PROFITS; OR BUSINESS INTERRUPTION)
  28:bme280.c      ****  * HOWEVER CAUSED AND ON ANY THEORY OF LIABILITY,
  29:bme280.c      ****  * WHETHER IN CONTRACT, STRICT LIABILITY, OR TORT
  30:bme280.c      ****  * (INCLUDING NEGLIGENCE OR OTHERWISE) ARISING IN
  31:bme280.c      ****  * ANY WAY OUT OF THE USE OF THIS
ARM GAS  C:\Users\corne\AppData\Local\Temp\cc0fqrF9.s 			page 2


  32:bme280.c      ****  * SOFTWARE, EVEN IF ADVISED OF THE POSSIBILITY OF SUCH DAMAGE
  33:bme280.c      ****  *
  34:bme280.c      ****  * The information provided is believed to be accurate and reliable.
  35:bme280.c      ****  * The copyright holder assumes no responsibility
  36:bme280.c      ****  * for the consequences of use
  37:bme280.c      ****  * of such information nor for any infringement of patents or
  38:bme280.c      ****  * other rights of third parties which may result from its use.
  39:bme280.c      ****  * No license is granted by implication or otherwise under any patent or
  40:bme280.c      ****  * patent rights of the copyright holder.
  41:bme280.c      ****  *
  42:bme280.c      ****  * File		bme280.c
  43:bme280.c      ****  * Date		21 Mar 2017
  44:bme280.c      ****  * Version	3.2.0
  45:bme280.c      ****  *
  46:bme280.c      ****  */
  47:bme280.c      **** 
  48:bme280.c      **** /*! @file bme280.c
  49:bme280.c      ****     @brief Sensor driver for BME280 sensor */
  50:bme280.c      **** #include "bme280.h"
  51:bme280.c      **** 
  52:bme280.c      **** /**\name Internal macros */
  53:bme280.c      **** /* To identify osr settings selected by user */
  54:bme280.c      **** #define OVERSAMPLING_SETTINGS		UINT8_C(0x07)
  55:bme280.c      **** /* To identify filter and standby settings selected by user */
  56:bme280.c      **** #define FILTER_STANDBY_SETTINGS		UINT8_C(0x18)
  57:bme280.c      **** 
  58:bme280.c      **** /*!
  59:bme280.c      ****  * @brief This internal API puts the device to sleep mode.
  60:bme280.c      ****  *
  61:bme280.c      ****  * @param[in] dev : Structure instance of bme280_dev.
  62:bme280.c      ****  *
  63:bme280.c      ****  * @return Result of API execution status.
  64:bme280.c      ****  * @retval zero -> Success / +ve value -> Warning / -ve value -> Error
  65:bme280.c      ****  */
  66:bme280.c      **** static int8_t put_device_to_sleep(const bme280_dev *dev);
  67:bme280.c      **** 
  68:bme280.c      **** /*!
  69:bme280.c      ****  * @brief This internal API writes the power mode in the sensor.
  70:bme280.c      ****  *
  71:bme280.c      ****  * @param[in] dev : Structure instance of bme280_dev.
  72:bme280.c      ****  * @param[in] sensor_mode : Variable which contains the power mode to be set.
  73:bme280.c      ****  *
  74:bme280.c      ****  * @return Result of API execution status.
  75:bme280.c      ****  * @retval zero -> Success / +ve value -> Warning / -ve value -> Error
  76:bme280.c      ****  */
  77:bme280.c      **** static int8_t write_power_mode(uint8_t sensor_mode, const bme280_dev *dev);
  78:bme280.c      **** 
  79:bme280.c      **** /*!
  80:bme280.c      ****  * @brief This internal API is used to validate the device pointer for
  81:bme280.c      ****  * null conditions.
  82:bme280.c      ****  *
  83:bme280.c      ****  * @param[in] dev : Structure instance of bme280_dev.
  84:bme280.c      ****  *
  85:bme280.c      ****  * @return Result of API execution status
  86:bme280.c      ****  * @retval zero -> Success / +ve value -> Warning / -ve value -> Error
  87:bme280.c      ****  */
  88:bme280.c      **** static int8_t null_ptr_check(const bme280_dev *dev);
ARM GAS  C:\Users\corne\AppData\Local\Temp\cc0fqrF9.s 			page 3


  89:bme280.c      **** 
  90:bme280.c      **** /*!
  91:bme280.c      ****  * @brief This internal API interleaves the register address between the
  92:bme280.c      ****  * register data buffer for burst write operation.
  93:bme280.c      ****  *
  94:bme280.c      ****  * @param[in] reg_addr : Contains the register address array.
  95:bme280.c      ****  * @param[out] temp_buff : Contains the temporary buffer to store the
  96:bme280.c      ****  * register data and register address.
  97:bme280.c      ****  * @param[in] reg_data : Contains the register data to be written in the
  98:bme280.c      ****  * temporary buffer.
  99:bme280.c      ****  * @param[in] len : No of bytes of data to be written for burst write.
 100:bme280.c      ****  */
 101:bme280.c      **** static void interleave_reg_addr(const uint8_t *reg_addr, uint8_t *temp_buff, const uint8_t *reg_dat
 102:bme280.c      **** 
 103:bme280.c      **** /*!
 104:bme280.c      ****  * @brief This internal API reads the calibration data from the sensor, parse
 105:bme280.c      ****  * it and store in the device structure.
 106:bme280.c      ****  *
 107:bme280.c      ****  * @param[in] dev : Structure instance of bme280_dev.
 108:bme280.c      ****  *
 109:bme280.c      ****  * @return Result of API execution status
 110:bme280.c      ****  * @retval zero -> Success / +ve value -> Warning / -ve value -> Error
 111:bme280.c      ****  */
 112:bme280.c      **** static int8_t get_calib_data(bme280_dev *dev);
 113:bme280.c      **** 
 114:bme280.c      **** /*!
 115:bme280.c      ****  *  @brief This internal API is used to parse the temperature and
 116:bme280.c      ****  *  pressure calibration data and store it in the device structure.
 117:bme280.c      ****  *
 118:bme280.c      ****  *  @param[out] dev : Structure instance of bme280_dev to store the calib data.
 119:bme280.c      ****  *  @param[in] reg_data : Contains the calibration data to be parsed.
 120:bme280.c      ****  */
 121:bme280.c      **** static void parse_temp_press_calib_data(const uint8_t *reg_data, bme280_dev *dev);
 122:bme280.c      **** 
 123:bme280.c      **** /*!
 124:bme280.c      ****  *  @brief This internal API is used to parse the humidity calibration data
 125:bme280.c      ****  *  and store it in device structure.
 126:bme280.c      ****  *
 127:bme280.c      ****  *  @param[out] dev : Structure instance of bme280_dev to store the calib data.
 128:bme280.c      ****  *  @param[in] reg_data : Contains calibration data to be parsed.
 129:bme280.c      ****  */
 130:bme280.c      **** static void parse_humidity_calib_data(const uint8_t *reg_data, bme280_dev *dev);
 131:bme280.c      **** 
 132:bme280.c      **** /*!
 133:bme280.c      ****  *  @brief This internal API is used to parse the pressure, temperature and
 134:bme280.c      ****  *  humidity data and store it in the bme280_uncomp_data structure instance.
 135:bme280.c      ****  *
 136:bme280.c      ****  *  @param[in] reg_data : Contains the register data which needs to be parsed.
 137:bme280.c      ****  *  @param[out] uncomp_data : Contains the uncompensated pressure, temperature
 138:bme280.c      ****  *  and humidity data.
 139:bme280.c      ****  */
 140:bme280.c      **** static void parse_sensor_data(const uint8_t *reg_data, bme280_uncomp_data *uncomp_data);
 141:bme280.c      **** 
 142:bme280.c      **** /*!
 143:bme280.c      ****  * @brief This internal API is used to compensate the pressure and/or
 144:bme280.c      ****  * temperature and/or humidity data according to the component selected by the
 145:bme280.c      ****  * user.
ARM GAS  C:\Users\corne\AppData\Local\Temp\cc0fqrF9.s 			page 4


 146:bme280.c      ****  *
 147:bme280.c      ****  * @param[in] sensor_comp : Used to select pressure and/or temperature and/or
 148:bme280.c      ****  * humidity.
 149:bme280.c      ****  * @param[in] uncomp_data : Contains the uncompensated pressure, temperature and
 150:bme280.c      ****  * humidity data.
 151:bme280.c      ****  * @param[out] comp_data : Contains the compensated pressure and/or temperature
 152:bme280.c      ****  * and/or humidity data.
 153:bme280.c      ****  * @param[in] calib_data : Pointer to the calibration data structure.
 154:bme280.c      ****  *
 155:bme280.c      ****  * @return Result of API execution status.
 156:bme280.c      ****  * @retval zero -> Success / -ve value -> Error
 157:bme280.c      ****  */
 158:bme280.c      **** static int8_t compensate_data(uint8_t sensor_comp, const bme280_uncomp_data *uncomp_data,
 159:bme280.c      **** 				      bme280_data *comp_data, bme280_calib_data *calib_data);
 160:bme280.c      **** 
 161:bme280.c      **** #ifdef FLOATING_POINT_REPRESENTATION
 162:bme280.c      **** /*!
 163:bme280.c      ****  * @brief This internal API is used to compensate the raw pressure data and
 164:bme280.c      ****  * return the compensated pressure data in double data type.
 165:bme280.c      ****  *
 166:bme280.c      ****  * @param[in] uncomp_data : Contains the uncompensated pressure data.
 167:bme280.c      ****  * @param[in] calib_data : Pointer to the calibration data structure.
 168:bme280.c      ****  *
 169:bme280.c      ****  * @return Compensated pressure data.
 170:bme280.c      ****  * @retval Compensated pressure data in double.
 171:bme280.c      ****  */
 172:bme280.c      **** static double compensate_pressure(const  bme280_uncomp_data *uncomp_data,
 173:bme280.c      **** 						const  bme280_calib_data *calib_data);
 174:bme280.c      **** 
 175:bme280.c      **** /*!
 176:bme280.c      ****  * @brief This internal API is used to compensate the raw humidity data and
 177:bme280.c      ****  * return the compensated humidity data in double data type.
 178:bme280.c      ****  *
 179:bme280.c      ****  * @param[in] uncomp_data : Contains the uncompensated humidity data.
 180:bme280.c      ****  * @param[in] calib_data : Pointer to the calibration data structure.
 181:bme280.c      ****  *
 182:bme280.c      ****  * @return Compensated humidity data.
 183:bme280.c      ****  * @retval Compensated humidity data in double.
 184:bme280.c      ****  */
 185:bme280.c      **** static double compensate_humidity(const  bme280_uncomp_data *uncomp_data,
 186:bme280.c      **** 						const  bme280_calib_data *calib_data);
 187:bme280.c      **** 
 188:bme280.c      **** /*!
 189:bme280.c      ****  * @brief This internal API is used to compensate the raw temperature data and
 190:bme280.c      ****  * return the compensated temperature data in double data type.
 191:bme280.c      ****  *
 192:bme280.c      ****  * @param[in] uncomp_data : Contains the uncompensated temperature data.
 193:bme280.c      ****  * @param[in] calib_data : Pointer to calibration data structure.
 194:bme280.c      ****  *
 195:bme280.c      ****  * @return Compensated temperature data.
 196:bme280.c      ****  * @retval Compensated temperature data in double.
 197:bme280.c      ****  */
 198:bme280.c      **** static  double compensate_temperature(const  bme280_uncomp_data *uncomp_data,
 199:bme280.c      **** 						 bme280_calib_data *calib_data);
 200:bme280.c      **** 
 201:bme280.c      **** #else
 202:bme280.c      **** 
ARM GAS  C:\Users\corne\AppData\Local\Temp\cc0fqrF9.s 			page 5


 203:bme280.c      **** /*!
 204:bme280.c      ****  * @brief This internal API is used to compensate the raw temperature data and
 205:bme280.c      ****  * return the compensated temperature data in integer data type.
 206:bme280.c      ****  *
 207:bme280.c      ****  * @param[in] uncomp_data : Contains the uncompensated temperature data.
 208:bme280.c      ****  * @param[in] calib_data : Pointer to calibration data structure.
 209:bme280.c      ****  *
 210:bme280.c      ****  * @return Compensated temperature data.
 211:bme280.c      ****  * @retval Compensated temperature data in integer.
 212:bme280.c      ****  */
 213:bme280.c      **** static int32_t compensate_temperature(const  bme280_uncomp_data *uncomp_data,
 214:bme280.c      **** 						 bme280_calib_data *calib_data);
 215:bme280.c      **** 
 216:bme280.c      **** /*!
 217:bme280.c      ****  * @brief This internal API is used to compensate the raw pressure data and
 218:bme280.c      ****  * return the compensated pressure data in integer data type.
 219:bme280.c      ****  *
 220:bme280.c      ****  * @param[in] uncomp_data : Contains the uncompensated pressure data.
 221:bme280.c      ****  * @param[in] calib_data : Pointer to the calibration data structure.
 222:bme280.c      ****  *
 223:bme280.c      ****  * @return Compensated pressure data.
 224:bme280.c      ****  * @retval Compensated pressure data in integer.
 225:bme280.c      ****  */
 226:bme280.c      **** static uint32_t compensate_pressure(const  bme280_uncomp_data *uncomp_data,
 227:bme280.c      **** 						const  bme280_calib_data *calib_data);
 228:bme280.c      **** 
 229:bme280.c      **** /*!
 230:bme280.c      ****  * @brief This internal API is used to compensate the raw humidity data and
 231:bme280.c      ****  * return the compensated humidity data in integer data type.
 232:bme280.c      ****  *
 233:bme280.c      ****  * @param[in] uncomp_data : Contains the uncompensated humidity data.
 234:bme280.c      ****  * @param[in] calib_data : Pointer to the calibration data structure.
 235:bme280.c      ****  *
 236:bme280.c      ****  * @return Compensated humidity data.
 237:bme280.c      ****  * @retval Compensated humidity data in integer.
 238:bme280.c      ****  */
 239:bme280.c      **** static uint32_t compensate_humidity(const  bme280_uncomp_data *uncomp_data,
 240:bme280.c      **** 						const  bme280_calib_data *calib_data);
 241:bme280.c      **** 
 242:bme280.c      **** #endif
 243:bme280.c      **** 
 244:bme280.c      **** /*!
 245:bme280.c      ****  * @brief This internal API is used to identify the settings which the user
 246:bme280.c      ****  * wants to modify in the sensor.
 247:bme280.c      ****  *
 248:bme280.c      ****  * @param[in] sub_settings : Contains the settings subset to identify particular
 249:bme280.c      ****  * group of settings which the user is interested to change.
 250:bme280.c      ****  * @param[in] desired_settings : Contains the user specified settings.
 251:bme280.c      ****  *
 252:bme280.c      ****  * @return Indicates whether user is interested to modify the settings which
 253:bme280.c      ****  * are related to sub_settings.
 254:bme280.c      ****  * @retval True -> User wants to modify this group of settings
 255:bme280.c      ****  * @retval False -> User does not want to modify this group of settings
 256:bme280.c      ****  */
 257:bme280.c      **** static uint8_t are_settings_changed(uint8_t sub_settings, uint8_t desired_settings);
 258:bme280.c      **** 
 259:bme280.c      **** /*!
ARM GAS  C:\Users\corne\AppData\Local\Temp\cc0fqrF9.s 			page 6


 260:bme280.c      ****  * @brief This API sets the humidity oversampling settings of the sensor.
 261:bme280.c      ****  *
 262:bme280.c      ****  * @param[in] dev : Structure instance of bme280_dev.
 263:bme280.c      ****  *
 264:bme280.c      ****  * @return Result of API execution status
 265:bme280.c      ****  * @retval zero -> Success / +ve value -> Warning / -ve value -> Error
 266:bme280.c      ****  */
 267:bme280.c      **** static int8_t set_osr_humidity_settings(const  bme280_settings *settings, const  bme280_dev *dev);
 268:bme280.c      **** 
 269:bme280.c      **** /*!
 270:bme280.c      ****  * @brief This internal API sets the oversampling settings for pressure,
 271:bme280.c      ****  * temperature and humidity in the sensor.
 272:bme280.c      ****  *
 273:bme280.c      ****  * @param[in] desired_settings : Variable used to select the settings which
 274:bme280.c      ****  * are to be set.
 275:bme280.c      ****  * @param[in] dev : Structure instance of bme280_dev.
 276:bme280.c      ****  *
 277:bme280.c      ****  * @return Result of API execution status
 278:bme280.c      ****  * @retval zero -> Success / +ve value -> Warning / -ve value -> Error
 279:bme280.c      ****  */
 280:bme280.c      **** static int8_t set_osr_settings(uint8_t desired_settings, const   bme280_settings *settings,
 281:bme280.c      **** 				const  bme280_dev *dev);
 282:bme280.c      **** 
 283:bme280.c      **** /*!
 284:bme280.c      ****  * @brief This API sets the pressure and/or temperature oversampling settings
 285:bme280.c      ****  * in the sensor according to the settings selected by the user.
 286:bme280.c      ****  *
 287:bme280.c      ****  * @param[in] dev : Structure instance of bme280_dev.
 288:bme280.c      ****  * @param[in] desired_settings: variable to select the pressure and/or
 289:bme280.c      ****  * temperature oversampling settings.
 290:bme280.c      ****  *
 291:bme280.c      ****  * @return Result of API execution status
 292:bme280.c      ****  * @retval zero -> Success / +ve value -> Warning / -ve value -> Error
 293:bme280.c      ****  */
 294:bme280.c      **** static int8_t set_osr_press_temp_settings(uint8_t desired_settings, const   bme280_settings *settin
 295:bme280.c      **** 						const   bme280_dev *dev);
 296:bme280.c      **** 
 297:bme280.c      **** /*!
 298:bme280.c      ****  * @brief This internal API fills the pressure oversampling settings provided by
 299:bme280.c      ****  * the user in the data buffer so as to write in the sensor.
 300:bme280.c      ****  *
 301:bme280.c      ****  * @param[in] dev : Structure instance of bme280_dev.
 302:bme280.c      ****  * @param[out] reg_data : Variable which is filled according to the pressure
 303:bme280.c      ****  * oversampling data provided by the user.
 304:bme280.c      ****  */
 305:bme280.c      **** static void fill_osr_press_settings(uint8_t *reg_data, const   bme280_settings *settings);
 306:bme280.c      **** 
 307:bme280.c      **** /*!
 308:bme280.c      ****  * @brief This internal API fills the temperature oversampling settings provided
 309:bme280.c      ****  * by the user in the data buffer so as to write in the sensor.
 310:bme280.c      ****  *
 311:bme280.c      ****  * @param[in] dev : Structure instance of bme280_dev.
 312:bme280.c      ****  * @param[out] reg_data : Variable which is filled according to the temperature
 313:bme280.c      ****  * oversampling data provided by the user.
 314:bme280.c      ****  */
 315:bme280.c      **** static void fill_osr_temp_settings(uint8_t *reg_data, const  bme280_settings *settings);
 316:bme280.c      **** 
ARM GAS  C:\Users\corne\AppData\Local\Temp\cc0fqrF9.s 			page 7


 317:bme280.c      **** /*!
 318:bme280.c      ****  * @brief This internal API sets the filter and/or standby duration settings
 319:bme280.c      ****  * in the sensor according to the settings selected by the user.
 320:bme280.c      ****  *
 321:bme280.c      ****  * @param[in] dev : Structure instance of bme280_dev.
 322:bme280.c      ****  * @param[in] desired_settings : variable to select the filter and/or
 323:bme280.c      ****  * standby duration settings.
 324:bme280.c      ****  *
 325:bme280.c      ****  * @return Result of API execution status
 326:bme280.c      ****  * @retval zero -> Success / +ve value -> Warning / -ve value -> Error
 327:bme280.c      ****  */
 328:bme280.c      **** static int8_t set_filter_standby_settings(uint8_t desired_settings, const  bme280_settings *setting
 329:bme280.c      **** 						const  bme280_dev *dev);
 330:bme280.c      **** 
 331:bme280.c      **** /*!
 332:bme280.c      ****  * @brief This internal API fills the filter settings provided by the user
 333:bme280.c      ****  * in the data buffer so as to write in the sensor.
 334:bme280.c      ****  *
 335:bme280.c      ****  * @param[in] dev : Structure instance of bme280_dev.
 336:bme280.c      ****  * @param[out] reg_data : Variable which is filled according to the filter
 337:bme280.c      ****  * settings data provided by the user.
 338:bme280.c      ****  */
 339:bme280.c      **** static void fill_filter_settings(uint8_t *reg_data, const  bme280_settings *settings);
 340:bme280.c      **** 
 341:bme280.c      **** /*!
 342:bme280.c      ****  * @brief This internal API fills the standby duration settings provided by the
 343:bme280.c      ****  * user in the data buffer so as to write in the sensor.
 344:bme280.c      ****  *
 345:bme280.c      ****  * @param[in] dev : Structure instance of bme280_dev.
 346:bme280.c      ****  * @param[out] reg_data : Variable which is filled according to the standby
 347:bme280.c      ****  * settings data provided by the user.
 348:bme280.c      ****  */
 349:bme280.c      **** static void fill_standby_settings(uint8_t *reg_data, const  bme280_settings *settings);
 350:bme280.c      **** 
 351:bme280.c      **** /*!
 352:bme280.c      ****  * @brief This internal API parse the oversampling(pressure, temperature
 353:bme280.c      ****  * and humidity), filter and standby duration settings and store in the
 354:bme280.c      ****  * device structure.
 355:bme280.c      ****  *
 356:bme280.c      ****  * @param[out] dev : Structure instance of bme280_dev.
 357:bme280.c      ****  * @param[in] reg_data : Register data to be parsed.
 358:bme280.c      ****  */
 359:bme280.c      **** static void parse_device_settings(const uint8_t *reg_data,  bme280_settings *settings);
 360:bme280.c      **** 
 361:bme280.c      **** /*!
 362:bme280.c      ****  * @brief This internal API reloads the already existing device settings in the
 363:bme280.c      ****  * sensor after soft reset.
 364:bme280.c      ****  *
 365:bme280.c      ****  * @param[in] dev : Structure instance of bme280_dev.
 366:bme280.c      ****  * @param[in] settings : Pointer variable which contains the settings to
 367:bme280.c      ****  * be set in the sensor.
 368:bme280.c      ****  *
 369:bme280.c      ****  * @return Result of API execution status
 370:bme280.c      ****  * @retval zero -> Success / +ve value -> Warning / -ve value -> Error
 371:bme280.c      ****  */
 372:bme280.c      **** static int8_t reload_device_settings(const  bme280_settings *settings, const  bme280_dev *dev);
 373:bme280.c      **** 
ARM GAS  C:\Users\corne\AppData\Local\Temp\cc0fqrF9.s 			page 8


 374:bme280.c      **** /****************** Global Function Definitions *******************************/
 375:bme280.c      **** 
 376:bme280.c      **** /*!
 377:bme280.c      ****  *  @brief This API is the entry point.
 378:bme280.c      ****  *  It reads the chip-id and calibration data from the sensor.
 379:bme280.c      ****  */
 380:bme280.c      **** int8_t bme280_init( bme280_dev *dev)
 381:bme280.c      **** {
 382:bme280.c      **** 	int8_t rslt;
 383:bme280.c      **** 	/* chip id read try count */
 384:bme280.c      **** 	uint8_t try_count = 5;
 385:bme280.c      **** 	uint8_t chip_id = 0;
 386:bme280.c      **** 
 387:bme280.c      **** 	/* Check for null pointer in the device structure*/
 388:bme280.c      **** 	rslt = null_ptr_check(dev);
 389:bme280.c      **** 	/* Proceed if null check is fine */
 390:bme280.c      **** 	if (rslt ==  BME280_OK) {
 391:bme280.c      **** 		while (try_count) {
 392:bme280.c      **** 			/* Read the chip-id of bme280 sensor */
 393:bme280.c      **** 			rslt = bme280_get_regs(BME280_CHIP_ID_ADDR, &chip_id, 1, dev);
 394:bme280.c      **** 			/* Check for chip id validity */
 395:bme280.c      **** 			if ((rslt == BME280_OK) && (chip_id == BME280_CHIP_ID)) {
 396:bme280.c      **** 				dev->chip_id = chip_id;
 397:bme280.c      **** 				/* Reset the sensor */
 398:bme280.c      **** 				rslt = bme280_soft_reset(dev);
 399:bme280.c      **** 				if (rslt == BME280_OK) {
 400:bme280.c      **** 					/* Read the calibration data */
 401:bme280.c      **** 					rslt = get_calib_data(dev);
 402:bme280.c      **** 				}
 403:bme280.c      **** 				break;
 404:bme280.c      **** 			}
 405:bme280.c      **** 			/* Wait for 1 ms */
 406:bme280.c      **** 			dev->delay_ms(1);
 407:bme280.c      **** 			--try_count;
 408:bme280.c      **** 		}
 409:bme280.c      **** 		/* Chip id check failed */
 410:bme280.c      **** 		if (!try_count)
 411:bme280.c      **** 			rslt = BME280_E_DEV_NOT_FOUND;
 412:bme280.c      **** 	}
 413:bme280.c      **** 
 414:bme280.c      **** 	return rslt;
 415:bme280.c      **** }
 416:bme280.c      **** 
 417:bme280.c      **** /*!
 418:bme280.c      ****  * @brief This API reads the data from the given register address of the sensor.
 419:bme280.c      ****  */
 420:bme280.c      **** int8_t bme280_get_regs(uint8_t reg_addr, uint8_t *reg_data, uint16_t len, const  bme280_dev *dev)
 421:bme280.c      **** {
 422:bme280.c      **** 	int8_t rslt;
 423:bme280.c      **** 
 424:bme280.c      **** 	/* Check for null pointer in the device structure*/
 425:bme280.c      **** 	rslt = null_ptr_check(dev);
 426:bme280.c      **** 	/* Proceed if null check is fine */
 427:bme280.c      **** 	if (rslt == BME280_OK) {
 428:bme280.c      **** 		/* If interface selected is SPI */
 429:bme280.c      **** 		if (dev->interface != BME280_I2C_INTF)
 430:bme280.c      **** 			reg_addr = reg_addr | 0x80;
ARM GAS  C:\Users\corne\AppData\Local\Temp\cc0fqrF9.s 			page 9


 431:bme280.c      **** 		/* Read the data  */
 432:bme280.c      **** 		rslt = dev->read(dev->id, reg_addr, reg_data, len);
 433:bme280.c      **** 		/* Check for communication error */
 434:bme280.c      **** 		if (rslt != BME280_OK)
 435:bme280.c      **** 			rslt = BME280_E_COMM_FAIL;
 436:bme280.c      **** 	}
 437:bme280.c      **** 
 438:bme280.c      **** 	return rslt;
 439:bme280.c      **** }
 440:bme280.c      **** 
 441:bme280.c      **** /*!
 442:bme280.c      ****  * @brief This API writes the given data to the register address
 443:bme280.c      ****  * of the sensor.
 444:bme280.c      ****  */
 445:bme280.c      **** int8_t bme280_set_regs(uint8_t *reg_addr, const uint8_t *reg_data, uint8_t len, const  bme280_dev *
 446:bme280.c      **** {
 447:bme280.c      **** 	int8_t rslt;
 448:bme280.c      **** 	uint8_t temp_buff[len * 2];
 449:bme280.c      **** 	uint16_t temp_len;
 450:bme280.c      **** 	uint8_t reg_addr_cnt;
 451:bme280.c      **** 
 452:bme280.c      **** 	/* Check for null pointer in the device structure*/
 453:bme280.c      **** 	rslt = null_ptr_check(dev);
 454:bme280.c      **** 	/* Check for arguments validity */
 455:bme280.c      **** 	if ((rslt ==  BME280_OK) && (reg_addr != NULL) && (reg_data != NULL)) {
 456:bme280.c      **** 		if (len != 0) {
 457:bme280.c      **** 			temp_buff[0] = reg_data[0];
 458:bme280.c      **** 			/* If interface selected is SPI */
 459:bme280.c      **** 			if (dev->interface != BME280_I2C_INTF) {
 460:bme280.c      **** 				for (reg_addr_cnt = 0; reg_addr_cnt < len; reg_addr_cnt++)
 461:bme280.c      **** 					reg_addr[reg_addr_cnt] = reg_addr[reg_addr_cnt] & 0x7F;
 462:bme280.c      **** 			}
 463:bme280.c      **** 			/* Burst write mode */
 464:bme280.c      **** 			if (len > 1) {
 465:bme280.c      **** 				/* Interleave register address w.r.t data for
 466:bme280.c      **** 				burst write*/
 467:bme280.c      **** 				interleave_reg_addr(reg_addr, temp_buff, reg_data, len);
 468:bme280.c      **** 				temp_len = len * 2;
 469:bme280.c      **** 			} else {
 470:bme280.c      **** 				temp_len = len;
 471:bme280.c      **** 			}
 472:bme280.c      **** 			rslt = dev->write(dev->id, reg_addr[0], temp_buff, temp_len);
 473:bme280.c      **** 			/* Check for communication error */
 474:bme280.c      **** 			if (rslt != BME280_OK)
 475:bme280.c      **** 				rslt = BME280_E_COMM_FAIL;
 476:bme280.c      **** 		} else {
 477:bme280.c      **** 			rslt = BME280_E_INVALID_LEN;
 478:bme280.c      **** 		}
 479:bme280.c      **** 	} else {
 480:bme280.c      **** 		rslt = BME280_E_NULL_PTR;
 481:bme280.c      **** 	}
 482:bme280.c      **** 
 483:bme280.c      **** 
 484:bme280.c      **** 	return rslt;
 485:bme280.c      **** }
 486:bme280.c      **** 
 487:bme280.c      **** /*!
ARM GAS  C:\Users\corne\AppData\Local\Temp\cc0fqrF9.s 			page 10


 488:bme280.c      ****  * @brief This API sets the oversampling, filter and standby duration
 489:bme280.c      ****  * (normal mode) settings in the sensor.
 490:bme280.c      ****  */
 491:bme280.c      **** int8_t bme280_set_sensor_settings(uint8_t desired_settings, const  bme280_dev *dev)
 492:bme280.c      **** {
 493:bme280.c      **** 	int8_t rslt;
 494:bme280.c      **** 	uint8_t sensor_mode;
 495:bme280.c      **** 
 496:bme280.c      **** 	/* Check for null pointer in the device structure*/
 497:bme280.c      **** 	rslt = null_ptr_check(dev);
 498:bme280.c      **** 	/* Proceed if null check is fine */
 499:bme280.c      **** 	if (rslt == BME280_OK) {
 500:bme280.c      **** 		rslt = bme280_get_sensor_mode(&sensor_mode, dev);
 501:bme280.c      **** 		if ((rslt == BME280_OK) && (sensor_mode != BME280_SLEEP_MODE))
 502:bme280.c      **** 			rslt = put_device_to_sleep(dev);
 503:bme280.c      **** 		if (rslt == BME280_OK) {
 504:bme280.c      **** 			/* Check if user wants to change oversampling
 505:bme280.c      **** 			   settings */
 506:bme280.c      **** 			if (are_settings_changed(OVERSAMPLING_SETTINGS, desired_settings))
 507:bme280.c      **** 				rslt = set_osr_settings(desired_settings, &dev->settings, dev);
 508:bme280.c      **** 			/* Check if user wants to change filter and/or
 509:bme280.c      **** 			   standby settings */
 510:bme280.c      **** 			if ((rslt == BME280_OK) && are_settings_changed(FILTER_STANDBY_SETTINGS, desired_settings))
 511:bme280.c      **** 				rslt = set_filter_standby_settings(desired_settings, &dev->settings, dev);
 512:bme280.c      **** 		}
 513:bme280.c      **** 	}
 514:bme280.c      **** 
 515:bme280.c      **** 	return rslt;
 516:bme280.c      **** }
 517:bme280.c      **** 
 518:bme280.c      **** /*!
 519:bme280.c      ****  * @brief This API gets the oversampling, filter and standby duration
 520:bme280.c      ****  * (normal mode) settings from the sensor.
 521:bme280.c      ****  */
 522:bme280.c      **** int8_t bme280_get_sensor_settings( bme280_dev *dev)
 523:bme280.c      **** {
 524:bme280.c      **** 	int8_t rslt;
 525:bme280.c      **** 	uint8_t reg_data[4];
 526:bme280.c      **** 
 527:bme280.c      **** 	/* Check for null pointer in the device structure*/
 528:bme280.c      **** 	rslt = null_ptr_check(dev);
 529:bme280.c      **** 	/* Proceed if null check is fine */
 530:bme280.c      **** 	if (rslt == BME280_OK) {
 531:bme280.c      **** 		rslt = bme280_get_regs(BME280_CTRL_HUM_ADDR, reg_data, 4, dev);
 532:bme280.c      **** 		if (rslt == BME280_OK)
 533:bme280.c      **** 			parse_device_settings(reg_data, &dev->settings);
 534:bme280.c      **** 	}
 535:bme280.c      **** 
 536:bme280.c      **** 	return rslt;
 537:bme280.c      **** }
 538:bme280.c      **** 
 539:bme280.c      **** /*!
 540:bme280.c      ****  * @brief This API sets the power mode of the sensor.
 541:bme280.c      ****  */
 542:bme280.c      **** int8_t bme280_set_sensor_mode(uint8_t sensor_mode, const  bme280_dev *dev)
 543:bme280.c      **** {
 544:bme280.c      **** 	int8_t rslt;
ARM GAS  C:\Users\corne\AppData\Local\Temp\cc0fqrF9.s 			page 11


 545:bme280.c      **** 	uint8_t last_set_mode;
 546:bme280.c      **** 
 547:bme280.c      **** 	/* Check for null pointer in the device structure*/
 548:bme280.c      **** 	rslt = null_ptr_check(dev);
 549:bme280.c      **** 
 550:bme280.c      **** 	if (rslt == BME280_OK) {
 551:bme280.c      **** 		rslt = bme280_get_sensor_mode(&last_set_mode, dev);
 552:bme280.c      **** 		/* If the sensor is not in sleep mode put the device to sleep
 553:bme280.c      **** 		   mode */
 554:bme280.c      **** 		if ((rslt == BME280_OK) && (last_set_mode != BME280_SLEEP_MODE))
 555:bme280.c      **** 			rslt = put_device_to_sleep(dev);
 556:bme280.c      **** 		/* Set the power mode */
 557:bme280.c      **** 		if (rslt == BME280_OK)
 558:bme280.c      **** 			rslt = write_power_mode(sensor_mode, dev);
 559:bme280.c      **** 	}
 560:bme280.c      **** 
 561:bme280.c      **** 	return rslt;
 562:bme280.c      **** }
 563:bme280.c      **** 
 564:bme280.c      **** /*!
 565:bme280.c      ****  * @brief This API gets the power mode of the sensor.
 566:bme280.c      ****  */
 567:bme280.c      **** int8_t bme280_get_sensor_mode(uint8_t *sensor_mode, const  bme280_dev *dev)
 568:bme280.c      **** {
 569:bme280.c      **** 	int8_t rslt;
 570:bme280.c      **** 
 571:bme280.c      **** 	/* Check for null pointer in the device structure*/
 572:bme280.c      **** 	rslt = null_ptr_check(dev);
 573:bme280.c      **** 
 574:bme280.c      **** 	if (rslt == BME280_OK) {
 575:bme280.c      **** 		/* Read the power mode register */
 576:bme280.c      **** 		rslt = bme280_get_regs(BME280_PWR_CTRL_ADDR, sensor_mode, 1, dev);
 577:bme280.c      **** 		/* Assign the power mode in the device structure */
 578:bme280.c      **** 		*sensor_mode = BME280_GET_BITS_POS_0(*sensor_mode, BME280_SENSOR_MODE);
 579:bme280.c      **** 	}
 580:bme280.c      **** 
 581:bme280.c      **** 	return rslt;
 582:bme280.c      **** }
 583:bme280.c      **** 
 584:bme280.c      **** /*!
 585:bme280.c      ****  * @brief This API performs the soft reset of the sensor.
 586:bme280.c      ****  */
 587:bme280.c      **** int8_t bme280_soft_reset(const  bme280_dev *dev)
 588:bme280.c      **** {
 589:bme280.c      **** 	int8_t rslt;
 590:bme280.c      **** 	uint8_t reg_addr = BME280_RESET_ADDR;
 591:bme280.c      **** 	/* 0xB6 is the soft reset command */
 592:bme280.c      **** 	uint8_t soft_rst_cmd = 0xB6;
 593:bme280.c      **** 
 594:bme280.c      **** 	/* Check for null pointer in the device structure*/
 595:bme280.c      **** 	rslt = null_ptr_check(dev);
 596:bme280.c      **** 	/* Proceed if null check is fine */
 597:bme280.c      **** 	if (rslt == BME280_OK) {
 598:bme280.c      **** 		/* Write the soft reset command in the sensor */
 599:bme280.c      **** 		rslt = bme280_set_regs(&reg_addr, &soft_rst_cmd, 1, dev);
 600:bme280.c      **** 		/* As per data sheet, startup time is 2 ms. */
 601:bme280.c      **** 		dev->delay_ms(2);
ARM GAS  C:\Users\corne\AppData\Local\Temp\cc0fqrF9.s 			page 12


 602:bme280.c      **** 	}
 603:bme280.c      **** 
 604:bme280.c      **** 	return rslt;
 605:bme280.c      **** }
 606:bme280.c      **** 
 607:bme280.c      **** /*!
 608:bme280.c      ****  * @brief This API reads the pressure, temperature and humidity data from the
 609:bme280.c      ****  * sensor, compensates the data and store it in the bme280_data structure
 610:bme280.c      ****  * instance passed by the user.
 611:bme280.c      ****  */
 612:bme280.c      **** int8_t bme280_get_sensor_data(uint8_t sensor_comp,  bme280_data *comp_data,  bme280_dev *dev)
 613:bme280.c      **** {
 614:bme280.c      **** 	int8_t rslt;
 615:bme280.c      **** 	/* Array to store the pressure, temperature and humidity data read from
 616:bme280.c      **** 	the sensor */
 617:bme280.c      **** 	uint8_t reg_data[BME280_P_T_H_DATA_LEN] = {0};
 618:bme280.c      **** 	 bme280_uncomp_data uncomp_data = {0};
 619:bme280.c      **** 
 620:bme280.c      **** 	/* Check for null pointer in the device structure*/
 621:bme280.c      **** 	rslt = null_ptr_check(dev);
 622:bme280.c      **** 
 623:bme280.c      **** 	if ((rslt == BME280_OK) && (comp_data != NULL)) {
 624:bme280.c      **** 		/* Read the pressure and temperature data from the sensor */
 625:bme280.c      **** 		rslt = bme280_get_regs(BME280_DATA_ADDR, reg_data, BME280_P_T_H_DATA_LEN, dev);
 626:bme280.c      **** 
 627:bme280.c      **** 		if (rslt == BME280_OK) {
 628:bme280.c      **** 			/* Parse the read data from the sensor */
 629:bme280.c      **** 			parse_sensor_data(reg_data, &uncomp_data);
 630:bme280.c      **** 			/* Compensate the pressure and/or temperature and/or
 631:bme280.c      **** 			   humidity data from the sensor */
 632:bme280.c      **** 			rslt = compensate_data(sensor_comp, &uncomp_data, comp_data, &dev->calib_data);
 633:bme280.c      **** 		}
 634:bme280.c      **** 	} else {
 635:bme280.c      **** 		rslt = BME280_E_NULL_PTR;
 636:bme280.c      **** 	}
 637:bme280.c      **** 
 638:bme280.c      **** 	return rslt;
 639:bme280.c      **** }
 640:bme280.c      **** 
 641:bme280.c      **** /*!
 642:bme280.c      ****  * @brief This internal API sets the oversampling settings for pressure,
 643:bme280.c      ****  * temperature and humidity in the sensor.
 644:bme280.c      ****  */
 645:bme280.c      **** static int8_t set_osr_settings(uint8_t desired_settings, const  bme280_settings *settings,
 646:bme280.c      **** 				const  bme280_dev *dev)
 647:bme280.c      **** {
 648:bme280.c      **** 	int8_t rslt = BME280_W_INVALID_OSR_MACRO;
 649:bme280.c      **** 
 650:bme280.c      **** 	if (desired_settings & BME280_OSR_HUM_SEL)
 651:bme280.c      **** 		rslt = set_osr_humidity_settings(settings, dev);
 652:bme280.c      **** 	if (desired_settings & (BME280_OSR_PRESS_SEL | BME280_OSR_TEMP_SEL))
 653:bme280.c      **** 		rslt = set_osr_press_temp_settings(desired_settings, settings, dev);
 654:bme280.c      **** 
 655:bme280.c      **** 	return rslt;
 656:bme280.c      **** }
 657:bme280.c      **** 
 658:bme280.c      **** /*!
ARM GAS  C:\Users\corne\AppData\Local\Temp\cc0fqrF9.s 			page 13


 659:bme280.c      ****  * @brief This API sets the humidity oversampling settings of the sensor.
 660:bme280.c      ****  */
 661:bme280.c      **** static int8_t set_osr_humidity_settings(const  bme280_settings *settings, const  bme280_dev *dev)
 662:bme280.c      **** {
 663:bme280.c      **** 	int8_t rslt;
 664:bme280.c      **** 	uint8_t ctrl_hum;
 665:bme280.c      **** 	uint8_t ctrl_meas;
 666:bme280.c      **** 	uint8_t reg_addr = BME280_CTRL_HUM_ADDR;
 667:bme280.c      **** 
 668:bme280.c      **** 	ctrl_hum = settings->osr_h & BME280_CTRL_HUM_MSK;
 669:bme280.c      **** 	/* Write the humidity control value in the register */
 670:bme280.c      **** 	rslt = bme280_set_regs(&reg_addr, &ctrl_hum, 1, dev);
 671:bme280.c      **** 	/* Humidity related changes will be only effective after a
 672:bme280.c      **** 	   write operation to ctrl_meas register */
 673:bme280.c      **** 	if (rslt == BME280_OK) {
 674:bme280.c      **** 		reg_addr = BME280_CTRL_MEAS_ADDR;
 675:bme280.c      **** 		rslt = bme280_get_regs(reg_addr, &ctrl_meas, 1, dev);
 676:bme280.c      **** 		if (rslt == BME280_OK)
 677:bme280.c      **** 			rslt = bme280_set_regs(&reg_addr, &ctrl_meas, 1, dev);
 678:bme280.c      **** 	}
 679:bme280.c      **** 
 680:bme280.c      **** 	return rslt;
 681:bme280.c      **** }
 682:bme280.c      **** 
 683:bme280.c      **** /*!
 684:bme280.c      ****  * @brief This API sets the pressure and/or temperature oversampling settings
 685:bme280.c      ****  * in the sensor according to the settings selected by the user.
 686:bme280.c      ****  */
 687:bme280.c      **** static int8_t set_osr_press_temp_settings(uint8_t desired_settings, const  bme280_settings *setting
 688:bme280.c      **** 						const  bme280_dev *dev)
 689:bme280.c      **** {
 690:bme280.c      **** 	int8_t rslt;
 691:bme280.c      **** 	uint8_t reg_addr = BME280_CTRL_MEAS_ADDR;
 692:bme280.c      **** 	uint8_t reg_data;
 693:bme280.c      **** 
 694:bme280.c      **** 	rslt = bme280_get_regs(reg_addr, &reg_data, 1, dev);
 695:bme280.c      **** 
 696:bme280.c      **** 	if (rslt == BME280_OK) {
 697:bme280.c      **** 		if (desired_settings & BME280_OSR_PRESS_SEL)
 698:bme280.c      **** 			fill_osr_press_settings(&reg_data, settings);
 699:bme280.c      **** 		if (desired_settings & BME280_OSR_TEMP_SEL)
 700:bme280.c      **** 			fill_osr_temp_settings(&reg_data, settings);
 701:bme280.c      **** 		/* Write the oversampling settings in the register */
 702:bme280.c      **** 		rslt = bme280_set_regs(&reg_addr, &reg_data, 1, dev);
 703:bme280.c      **** 	}
 704:bme280.c      **** 
 705:bme280.c      **** 	return rslt;
 706:bme280.c      **** }
 707:bme280.c      **** 
 708:bme280.c      **** /*!
 709:bme280.c      ****  * @brief This internal API sets the filter and/or standby duration settings
 710:bme280.c      ****  * in the sensor according to the settings selected by the user.
 711:bme280.c      ****  */
 712:bme280.c      **** static int8_t set_filter_standby_settings(uint8_t desired_settings, const  bme280_settings *setting
 713:bme280.c      **** 						const  bme280_dev *dev)
 714:bme280.c      **** {
 715:bme280.c      **** 	int8_t rslt;
ARM GAS  C:\Users\corne\AppData\Local\Temp\cc0fqrF9.s 			page 14


 716:bme280.c      **** 	uint8_t reg_addr = BME280_CONFIG_ADDR;
 717:bme280.c      **** 	uint8_t reg_data;
 718:bme280.c      **** 
 719:bme280.c      **** 	rslt = bme280_get_regs(reg_addr, &reg_data, 1, dev);
 720:bme280.c      **** 
 721:bme280.c      **** 	if (rslt == BME280_OK) {
 722:bme280.c      **** 		if (desired_settings & BME280_FILTER_SEL)
 723:bme280.c      **** 			fill_filter_settings(&reg_data, settings);
 724:bme280.c      **** 		if (desired_settings & BME280_STANDBY_SEL)
 725:bme280.c      **** 			fill_standby_settings(&reg_data, settings);
 726:bme280.c      **** 		/* Write the oversampling settings in the register */
 727:bme280.c      **** 		rslt = bme280_set_regs(&reg_addr, &reg_data, 1, dev);
 728:bme280.c      **** 	}
 729:bme280.c      **** 
 730:bme280.c      **** 	return rslt;
 731:bme280.c      **** }
 732:bme280.c      **** 
 733:bme280.c      **** /*!
 734:bme280.c      ****  * @brief This internal API fills the filter settings provided by the user
 735:bme280.c      ****  * in the data buffer so as to write in the sensor.
 736:bme280.c      ****  */
 737:bme280.c      **** static void fill_filter_settings(uint8_t *reg_data, const  bme280_settings *settings)
 738:bme280.c      **** {
  27              		.loc 1 738 0
  28              		.cfi_startproc
  29              		@ args = 0, pretend = 0, frame = 0
  30              		@ frame_needed = 0, uses_anonymous_args = 0
  31              	.LVL0:
  32 0000 10B5     		push	{r4, lr}
  33              		.cfi_def_cfa_offset 8
  34              		.cfi_offset 4, -8
  35              		.cfi_offset 14, -4
 739:bme280.c      **** 	*reg_data = BME280_SET_BITS(*reg_data, BME280_FILTER, settings->filter);
  36              		.loc 1 739 0
  37 0002 0478     		ldrb	r4, [r0]
  38 0004 CB78     		ldrb	r3, [r1, #3]
  39 0006 9A00     		lsls	r2, r3, #2
  40 0008 1C23     		movs	r3, #28
  41 000a 2100     		movs	r1, r4
  42              	.LVL1:
  43 000c 9943     		bics	r1, r3
  44 000e 1340     		ands	r3, r2
  45 0010 0B43     		orrs	r3, r1
  46 0012 0370     		strb	r3, [r0]
 740:bme280.c      **** }
  47              		.loc 1 740 0
  48              		@ sp needed
  49 0014 10BD     		pop	{r4, pc}
  50              		.cfi_endproc
  51              	.LFE14:
  52              		.size	fill_filter_settings, .-fill_filter_settings
  53 0016 C046     		.section	.text.fill_standby_settings,"ax",%progbits
  54              		.align	2
  55              		.code	16
  56              		.thumb_func
  57              		.type	fill_standby_settings, %function
  58              	fill_standby_settings:
ARM GAS  C:\Users\corne\AppData\Local\Temp\cc0fqrF9.s 			page 15


  59              	.LFB15:
 741:bme280.c      **** 
 742:bme280.c      **** /*!
 743:bme280.c      ****  * @brief This internal API fills the standby duration settings provided by
 744:bme280.c      ****  * the user in the data buffer so as to write in the sensor.
 745:bme280.c      ****  */
 746:bme280.c      **** static void fill_standby_settings(uint8_t *reg_data, const  bme280_settings *settings)
 747:bme280.c      **** {
  60              		.loc 1 747 0
  61              		.cfi_startproc
  62              		@ args = 0, pretend = 0, frame = 0
  63              		@ frame_needed = 0, uses_anonymous_args = 0
  64              		@ link register save eliminated.
  65              	.LVL2:
 748:bme280.c      **** 	*reg_data = BME280_SET_BITS(*reg_data, BME280_STANDBY, settings->standby_time);
  66              		.loc 1 748 0
  67 0000 0378     		ldrb	r3, [r0]
  68 0002 0A79     		ldrb	r2, [r1, #4]
  69 0004 5201     		lsls	r2, r2, #5
  70 0006 1F21     		movs	r1, #31
  71              	.LVL3:
  72 0008 0B40     		ands	r3, r1
  73 000a 1343     		orrs	r3, r2
  74 000c 0370     		strb	r3, [r0]
 749:bme280.c      **** }
  75              		.loc 1 749 0
  76              		@ sp needed
  77 000e 7047     		bx	lr
  78              		.cfi_endproc
  79              	.LFE15:
  80              		.size	fill_standby_settings, .-fill_standby_settings
  81              		.section	.text.fill_osr_press_settings,"ax",%progbits
  82              		.align	2
  83              		.code	16
  84              		.thumb_func
  85              		.type	fill_osr_press_settings, %function
  86              	fill_osr_press_settings:
  87              	.LFB16:
 750:bme280.c      **** 
 751:bme280.c      **** /*!
 752:bme280.c      ****  * @brief This internal API fills the pressure oversampling settings provided by
 753:bme280.c      ****  * the user in the data buffer so as to write in the sensor.
 754:bme280.c      ****  */
 755:bme280.c      **** static void fill_osr_press_settings(uint8_t *reg_data, const  bme280_settings *settings)
 756:bme280.c      **** {
  88              		.loc 1 756 0
  89              		.cfi_startproc
  90              		@ args = 0, pretend = 0, frame = 0
  91              		@ frame_needed = 0, uses_anonymous_args = 0
  92              	.LVL4:
  93 0000 10B5     		push	{r4, lr}
  94              		.cfi_def_cfa_offset 8
  95              		.cfi_offset 4, -8
  96              		.cfi_offset 14, -4
 757:bme280.c      **** 	*reg_data = BME280_SET_BITS(*reg_data, BME280_CTRL_PRESS, settings->osr_p);
  97              		.loc 1 757 0
  98 0002 0478     		ldrb	r4, [r0]
ARM GAS  C:\Users\corne\AppData\Local\Temp\cc0fqrF9.s 			page 16


  99 0004 0B78     		ldrb	r3, [r1]
 100 0006 9A00     		lsls	r2, r3, #2
 101 0008 1C23     		movs	r3, #28
 102 000a 2100     		movs	r1, r4
 103              	.LVL5:
 104 000c 9943     		bics	r1, r3
 105 000e 1340     		ands	r3, r2
 106 0010 0B43     		orrs	r3, r1
 107 0012 0370     		strb	r3, [r0]
 758:bme280.c      **** }
 108              		.loc 1 758 0
 109              		@ sp needed
 110 0014 10BD     		pop	{r4, pc}
 111              		.cfi_endproc
 112              	.LFE16:
 113              		.size	fill_osr_press_settings, .-fill_osr_press_settings
 114 0016 C046     		.section	.text.fill_osr_temp_settings,"ax",%progbits
 115              		.align	2
 116              		.code	16
 117              		.thumb_func
 118              		.type	fill_osr_temp_settings, %function
 119              	fill_osr_temp_settings:
 120              	.LFB17:
 759:bme280.c      **** 
 760:bme280.c      **** /*!
 761:bme280.c      ****  * @brief This internal API fills the temperature oversampling settings
 762:bme280.c      ****  * provided by the user in the data buffer so as to write in the sensor.
 763:bme280.c      ****  */
 764:bme280.c      **** static void fill_osr_temp_settings(uint8_t *reg_data, const  bme280_settings *settings)
 765:bme280.c      **** {
 121              		.loc 1 765 0
 122              		.cfi_startproc
 123              		@ args = 0, pretend = 0, frame = 0
 124              		@ frame_needed = 0, uses_anonymous_args = 0
 125              		@ link register save eliminated.
 126              	.LVL6:
 766:bme280.c      **** 	*reg_data = BME280_SET_BITS(*reg_data, BME280_CTRL_TEMP, settings->osr_t);
 127              		.loc 1 766 0
 128 0000 0378     		ldrb	r3, [r0]
 129 0002 4A78     		ldrb	r2, [r1, #1]
 130 0004 5201     		lsls	r2, r2, #5
 131 0006 1F21     		movs	r1, #31
 132              	.LVL7:
 133 0008 0B40     		ands	r3, r1
 134 000a 1343     		orrs	r3, r2
 135 000c 0370     		strb	r3, [r0]
 767:bme280.c      **** }
 136              		.loc 1 767 0
 137              		@ sp needed
 138 000e 7047     		bx	lr
 139              		.cfi_endproc
 140              	.LFE17:
 141              		.size	fill_osr_temp_settings, .-fill_osr_temp_settings
 142              		.section	.text.parse_device_settings,"ax",%progbits
 143              		.align	2
 144              		.code	16
 145              		.thumb_func
ARM GAS  C:\Users\corne\AppData\Local\Temp\cc0fqrF9.s 			page 17


 146              		.type	parse_device_settings, %function
 147              	parse_device_settings:
 148              	.LFB18:
 768:bme280.c      **** 
 769:bme280.c      **** /*!
 770:bme280.c      ****  * @brief This internal API parse the oversampling(pressure, temperature
 771:bme280.c      ****  * and humidity), filter and standby duration settings and store in the
 772:bme280.c      ****  * device structure.
 773:bme280.c      ****  */
 774:bme280.c      **** static void parse_device_settings(const uint8_t *reg_data,  bme280_settings *settings)
 775:bme280.c      **** {
 149              		.loc 1 775 0
 150              		.cfi_startproc
 151              		@ args = 0, pretend = 0, frame = 0
 152              		@ frame_needed = 0, uses_anonymous_args = 0
 153              	.LVL8:
 154 0000 10B5     		push	{r4, lr}
 155              		.cfi_def_cfa_offset 8
 156              		.cfi_offset 4, -8
 157              		.cfi_offset 14, -4
 776:bme280.c      **** 	settings->osr_h = BME280_GET_BITS_POS_0(reg_data[0], BME280_CTRL_HUM);
 158              		.loc 1 776 0
 159 0002 0378     		ldrb	r3, [r0]
 160 0004 0724     		movs	r4, #7
 161 0006 2340     		ands	r3, r4
 162 0008 8B70     		strb	r3, [r1, #2]
 777:bme280.c      **** 	settings->osr_p = BME280_GET_BITS(reg_data[2], BME280_CTRL_PRESS);
 163              		.loc 1 777 0
 164 000a 8278     		ldrb	r2, [r0, #2]
 165 000c 9210     		asrs	r2, r2, #2
 166 000e 2240     		ands	r2, r4
 167 0010 0A70     		strb	r2, [r1]
 778:bme280.c      **** 	settings->osr_t = BME280_GET_BITS(reg_data[2], BME280_CTRL_TEMP);
 168              		.loc 1 778 0
 169 0012 8378     		ldrb	r3, [r0, #2]
 170 0014 5B09     		lsrs	r3, r3, #5
 171 0016 4B70     		strb	r3, [r1, #1]
 779:bme280.c      **** 	settings->filter = BME280_GET_BITS(reg_data[3], BME280_FILTER);
 172              		.loc 1 779 0
 173 0018 C378     		ldrb	r3, [r0, #3]
 174 001a 9B10     		asrs	r3, r3, #2
 175 001c 2340     		ands	r3, r4
 176 001e CB70     		strb	r3, [r1, #3]
 780:bme280.c      **** 	settings->standby_time = BME280_GET_BITS(reg_data[3], BME280_STANDBY);
 177              		.loc 1 780 0
 178 0020 C378     		ldrb	r3, [r0, #3]
 179 0022 5B09     		lsrs	r3, r3, #5
 180 0024 0B71     		strb	r3, [r1, #4]
 781:bme280.c      **** }
 181              		.loc 1 781 0
 182              		@ sp needed
 183 0026 10BD     		pop	{r4, pc}
 184              		.cfi_endproc
 185              	.LFE18:
 186              		.size	parse_device_settings, .-parse_device_settings
 187              		.section	.text.parse_sensor_data,"ax",%progbits
 188              		.align	2
ARM GAS  C:\Users\corne\AppData\Local\Temp\cc0fqrF9.s 			page 18


 189              		.code	16
 190              		.thumb_func
 191              		.type	parse_sensor_data, %function
 192              	parse_sensor_data:
 193              	.LFB22:
 782:bme280.c      **** /*!
 783:bme280.c      ****  * @brief This internal API writes the power mode in the sensor.
 784:bme280.c      ****  */
 785:bme280.c      **** static int8_t write_power_mode(uint8_t sensor_mode, const  bme280_dev *dev)
 786:bme280.c      **** {
 787:bme280.c      **** 	int8_t rslt;
 788:bme280.c      **** 	uint8_t reg_addr = BME280_PWR_CTRL_ADDR;
 789:bme280.c      **** 	/* Variable to store the value read from power mode register */
 790:bme280.c      **** 	uint8_t sensor_mode_reg_val;
 791:bme280.c      **** 
 792:bme280.c      **** 	/* Read the power mode register */
 793:bme280.c      **** 	rslt = bme280_get_regs(reg_addr, &sensor_mode_reg_val, 1, dev);
 794:bme280.c      **** 	/* Set the power mode */
 795:bme280.c      **** 	if (rslt == BME280_OK) {
 796:bme280.c      **** 		sensor_mode_reg_val = BME280_SET_BITS_POS_0(sensor_mode_reg_val, BME280_SENSOR_MODE, sensor_mode)
 797:bme280.c      **** 		/* Write the power mode in the register */
 798:bme280.c      **** 		rslt = bme280_set_regs(&reg_addr, &sensor_mode_reg_val, 1, dev);
 799:bme280.c      **** 	}
 800:bme280.c      **** 
 801:bme280.c      **** 	return rslt;
 802:bme280.c      **** }
 803:bme280.c      **** 
 804:bme280.c      **** /*!
 805:bme280.c      ****  * @brief This internal API puts the device to sleep mode.
 806:bme280.c      ****  */
 807:bme280.c      **** static int8_t put_device_to_sleep(const  bme280_dev *dev)
 808:bme280.c      **** {
 809:bme280.c      **** 	int8_t rslt;
 810:bme280.c      **** 	uint8_t reg_data[4];
 811:bme280.c      **** 	 bme280_settings settings;
 812:bme280.c      **** 
 813:bme280.c      **** 	rslt = bme280_get_regs(BME280_CTRL_HUM_ADDR, reg_data, 4, dev);
 814:bme280.c      **** 	if (rslt == BME280_OK) {
 815:bme280.c      **** 		parse_device_settings(reg_data, &settings);
 816:bme280.c      **** 		rslt = bme280_soft_reset(dev);
 817:bme280.c      **** 		if (rslt == BME280_OK)
 818:bme280.c      **** 			rslt = reload_device_settings(&settings, dev);
 819:bme280.c      **** 	}
 820:bme280.c      **** 
 821:bme280.c      **** 	return rslt;
 822:bme280.c      **** }
 823:bme280.c      **** 
 824:bme280.c      **** /*!
 825:bme280.c      ****  * @brief This internal API reloads the already existing device settings in
 826:bme280.c      ****  * the sensor after soft reset.
 827:bme280.c      ****  */
 828:bme280.c      **** static int8_t reload_device_settings(const  bme280_settings *settings, const  bme280_dev *dev)
 829:bme280.c      **** {
 830:bme280.c      **** 	int8_t rslt;
 831:bme280.c      **** 
 832:bme280.c      **** 	rslt = set_osr_settings(BME280_ALL_SETTINGS_SEL, settings, dev);
 833:bme280.c      **** 	if (rslt == BME280_OK)
ARM GAS  C:\Users\corne\AppData\Local\Temp\cc0fqrF9.s 			page 19


 834:bme280.c      **** 		rslt = set_filter_standby_settings(BME280_ALL_SETTINGS_SEL, settings, dev);
 835:bme280.c      **** 
 836:bme280.c      **** 	return rslt;
 837:bme280.c      **** }
 838:bme280.c      **** 
 839:bme280.c      **** /*!
 840:bme280.c      ****  *  @brief This internal API is used to parse the pressure, temperature and
 841:bme280.c      ****  *  humidity data and store it in the bme280_uncomp_data structure instance.
 842:bme280.c      ****  */
 843:bme280.c      **** static void parse_sensor_data(const uint8_t *reg_data,  bme280_uncomp_data *uncomp_data)
 844:bme280.c      **** {
 194              		.loc 1 844 0
 195              		.cfi_startproc
 196              		@ args = 0, pretend = 0, frame = 0
 197              		@ frame_needed = 0, uses_anonymous_args = 0
 198              	.LVL9:
 199 0000 10B5     		push	{r4, lr}
 200              		.cfi_def_cfa_offset 8
 201              		.cfi_offset 4, -8
 202              		.cfi_offset 14, -4
 845:bme280.c      **** 	/* Variables to store the sensor data */
 846:bme280.c      **** 	uint32_t data_xlsb;
 847:bme280.c      **** 	uint32_t data_lsb;
 848:bme280.c      **** 	uint32_t data_msb;
 849:bme280.c      **** 
 850:bme280.c      **** 	/* Store the parsed register values for pressure data */
 851:bme280.c      **** 	data_xlsb = (uint32_t)reg_data[0] << 12;
 203              		.loc 1 851 0
 204 0002 0378     		ldrb	r3, [r0]
 205 0004 1C03     		lsls	r4, r3, #12
 206              	.LVL10:
 852:bme280.c      **** 	data_lsb = (uint32_t)reg_data[1] << 4;
 207              		.loc 1 852 0
 208 0006 4378     		ldrb	r3, [r0, #1]
 209 0008 1B01     		lsls	r3, r3, #4
 210              	.LVL11:
 853:bme280.c      **** 	data_msb = (uint32_t)reg_data[2] << 4;
 211              		.loc 1 853 0
 212 000a 8278     		ldrb	r2, [r0, #2]
 213 000c 1201     		lsls	r2, r2, #4
 214              	.LVL12:
 854:bme280.c      **** 	uncomp_data->pressure = data_msb | data_lsb | data_xlsb;
 215              		.loc 1 854 0
 216 000e 1343     		orrs	r3, r2
 217              	.LVL13:
 218 0010 2343     		orrs	r3, r4
 219 0012 0B60     		str	r3, [r1]
 220              	.LVL14:
 855:bme280.c      **** 
 856:bme280.c      **** 	/* Store the parsed register values for temperature data */
 857:bme280.c      **** 	data_xlsb = (uint32_t)reg_data[3] << 12;
 221              		.loc 1 857 0
 222 0014 C378     		ldrb	r3, [r0, #3]
 223 0016 1C03     		lsls	r4, r3, #12
 224              	.LVL15:
 858:bme280.c      **** 	data_lsb = (uint32_t)reg_data[4] << 4;
 225              		.loc 1 858 0
ARM GAS  C:\Users\corne\AppData\Local\Temp\cc0fqrF9.s 			page 20


 226 0018 0379     		ldrb	r3, [r0, #4]
 227 001a 1B01     		lsls	r3, r3, #4
 228              	.LVL16:
 859:bme280.c      **** 	data_msb = (uint32_t)reg_data[5] << 4;
 229              		.loc 1 859 0
 230 001c 4279     		ldrb	r2, [r0, #5]
 231              	.LVL17:
 232 001e 1201     		lsls	r2, r2, #4
 233              	.LVL18:
 860:bme280.c      **** 	uncomp_data->temperature = data_msb | data_lsb | data_xlsb;
 234              		.loc 1 860 0
 235 0020 1343     		orrs	r3, r2
 236              	.LVL19:
 237 0022 2343     		orrs	r3, r4
 238 0024 4B60     		str	r3, [r1, #4]
 239              	.LVL20:
 861:bme280.c      **** 
 862:bme280.c      **** 	/* Store the parsed register values for temperature data */
 863:bme280.c      **** 	data_lsb = (uint32_t)reg_data[6] << 8;
 240              		.loc 1 863 0
 241 0026 8379     		ldrb	r3, [r0, #6]
 242 0028 1B02     		lsls	r3, r3, #8
 243              	.LVL21:
 864:bme280.c      **** 	data_msb = (uint32_t)reg_data[7];
 244              		.loc 1 864 0
 245 002a C279     		ldrb	r2, [r0, #7]
 246              	.LVL22:
 865:bme280.c      **** 	uncomp_data->humidity = data_msb | data_lsb;
 247              		.loc 1 865 0
 248 002c 1343     		orrs	r3, r2
 249              	.LVL23:
 250 002e 8B60     		str	r3, [r1, #8]
 251              	.LVL24:
 866:bme280.c      **** }
 252              		.loc 1 866 0
 253              		@ sp needed
 254              	.LVL25:
 255 0030 10BD     		pop	{r4, pc}
 256              		.cfi_endproc
 257              	.LFE22:
 258              		.size	parse_sensor_data, .-parse_sensor_data
 259 0032 C046     		.section	.text.compensate_temperature,"ax",%progbits
 260              		.align	2
 261              		.code	16
 262              		.thumb_func
 263              		.type	compensate_temperature, %function
 264              	compensate_temperature:
 265              	.LFB24:
 867:bme280.c      **** 
 868:bme280.c      **** /*!
 869:bme280.c      ****  * @brief This internal API is used to compensate the pressure and/or
 870:bme280.c      ****  * temperature and/or humidity data according to the component selected
 871:bme280.c      ****  * by the user.
 872:bme280.c      ****  */
 873:bme280.c      **** static int8_t compensate_data(uint8_t sensor_comp, const  bme280_uncomp_data *uncomp_data,
 874:bme280.c      **** 				      bme280_data *comp_data,  bme280_calib_data *calib_data)
 875:bme280.c      **** {
ARM GAS  C:\Users\corne\AppData\Local\Temp\cc0fqrF9.s 			page 21


 876:bme280.c      **** 	int8_t rslt = BME280_OK;
 877:bme280.c      **** 
 878:bme280.c      **** 	if ((uncomp_data != NULL) && (comp_data != NULL) && (calib_data != NULL)) {
 879:bme280.c      **** 		/* Initialize to zero */
 880:bme280.c      **** 		comp_data->temperature = 0;
 881:bme280.c      **** 		comp_data->pressure = 0;
 882:bme280.c      **** 		comp_data->humidity = 0;
 883:bme280.c      **** 		/* If pressure or temperature component is selected */
 884:bme280.c      **** 		if (sensor_comp & (BME280_PRESS | BME280_TEMP | BME280_HUM)) {
 885:bme280.c      **** 			/* Compensate the temperature data */
 886:bme280.c      **** 			comp_data->temperature = compensate_temperature(uncomp_data, calib_data);
 887:bme280.c      **** 		}
 888:bme280.c      **** 		if (sensor_comp & BME280_PRESS) {
 889:bme280.c      **** 			/* Compensate the pressure data */
 890:bme280.c      **** 			comp_data->pressure = compensate_pressure(uncomp_data, calib_data);
 891:bme280.c      **** 		}
 892:bme280.c      **** 		if (sensor_comp & BME280_HUM) {
 893:bme280.c      **** 			/* Compensate the humidity data */
 894:bme280.c      **** 			comp_data->humidity = compensate_humidity(uncomp_data, calib_data);
 895:bme280.c      **** 		}
 896:bme280.c      **** 	} else {
 897:bme280.c      **** 		rslt = BME280_E_NULL_PTR;
 898:bme280.c      **** 	}
 899:bme280.c      **** 
 900:bme280.c      **** 	return rslt;
 901:bme280.c      **** }
 902:bme280.c      **** 
 903:bme280.c      **** #ifdef FLOATING_POINT_REPRESENTATION
 904:bme280.c      **** /*!
 905:bme280.c      ****  * @brief This internal API is used to compensate the raw temperature data and
 906:bme280.c      ****  * return the compensated temperature data in double data type.
 907:bme280.c      ****  */
 908:bme280.c      **** static double compensate_temperature(const  bme280_uncomp_data *uncomp_data,
 909:bme280.c      **** 						 bme280_calib_data *calib_data)
 910:bme280.c      **** {
 911:bme280.c      **** 	double var1;
 912:bme280.c      **** 	double var2;
 913:bme280.c      **** 	double temperature;
 914:bme280.c      **** 	double temperature_min = -40;
 915:bme280.c      **** 	double temperature_max = 85;
 916:bme280.c      **** 
 917:bme280.c      **** 	var1 = ((double)uncomp_data->temperature) / 16384.0 - ((double)calib_data->dig_T1) / 1024.0;
 918:bme280.c      **** 	var1 = var1 * ((double)calib_data->dig_T2);
 919:bme280.c      **** 	var2 = (((double)uncomp_data->temperature) / 131072.0 - ((double)calib_data->dig_T1) / 8192.0);
 920:bme280.c      **** 	var2 = (var2 * var2) * ((double)calib_data->dig_T3);
 921:bme280.c      **** 	calib_data->t_fine = (int32_t)(var1 + var2);
 922:bme280.c      **** 	temperature = (var1 + var2) / 5120.0;
 923:bme280.c      **** 
 924:bme280.c      **** 	if (temperature < temperature_min)
 925:bme280.c      **** 		temperature = temperature_min;
 926:bme280.c      **** 	else if (temperature > temperature_max)
 927:bme280.c      **** 		temperature = temperature_max;
 928:bme280.c      **** 
 929:bme280.c      **** 	return temperature;
 930:bme280.c      **** }
 931:bme280.c      **** 
 932:bme280.c      **** /*!
ARM GAS  C:\Users\corne\AppData\Local\Temp\cc0fqrF9.s 			page 22


 933:bme280.c      ****  * @brief This internal API is used to compensate the raw pressure data and
 934:bme280.c      ****  * return the compensated pressure data in double data type.
 935:bme280.c      ****  */
 936:bme280.c      **** static double compensate_pressure(const  bme280_uncomp_data *uncomp_data,
 937:bme280.c      **** 						const  bme280_calib_data *calib_data)
 938:bme280.c      **** {
 939:bme280.c      **** 	double var1;
 940:bme280.c      **** 	double var2;
 941:bme280.c      **** 	double var3;
 942:bme280.c      **** 	double pressure;
 943:bme280.c      **** 	double pressure_min = 30000.0;
 944:bme280.c      **** 	double pressure_max = 110000.0;
 945:bme280.c      **** 
 946:bme280.c      **** 	var1 = ((double)calib_data->t_fine / 2.0) - 64000.0;
 947:bme280.c      **** 	var2 = var1 * var1 * ((double)calib_data->dig_P6) / 32768.0;
 948:bme280.c      **** 	var2 = var2 + var1 * ((double)calib_data->dig_P5) * 2.0;
 949:bme280.c      **** 	var2 = (var2 / 4.0) + (((double)calib_data->dig_P4) * 65536.0);
 950:bme280.c      **** 	var3 = ((double)calib_data->dig_P3) * var1 * var1 / 524288.0;
 951:bme280.c      **** 	var1 = (var3 + ((double)calib_data->dig_P2) * var1) / 524288.0;
 952:bme280.c      **** 	var1 = (1.0 + var1 / 32768.0) * ((double)calib_data->dig_P1);
 953:bme280.c      **** 	/* avoid exception caused by division by zero */
 954:bme280.c      **** 	if (var1) {
 955:bme280.c      **** 		pressure = 1048576.0 - (double) uncomp_data->pressure;
 956:bme280.c      **** 		pressure = (pressure - (var2 / 4096.0)) * 6250.0 / var1;
 957:bme280.c      **** 		var1 = ((double)calib_data->dig_P9) * pressure * pressure / 2147483648.0;
 958:bme280.c      **** 		var2 = pressure * ((double)calib_data->dig_P8) / 32768.0;
 959:bme280.c      **** 		pressure = pressure + (var1 + var2 + ((double)calib_data->dig_P7)) / 16.0;
 960:bme280.c      **** 
 961:bme280.c      **** 		if (pressure < pressure_min)
 962:bme280.c      **** 			pressure = pressure_min;
 963:bme280.c      **** 		else if (pressure > pressure_max)
 964:bme280.c      **** 			pressure = pressure_max;
 965:bme280.c      **** 	} else { /* Invalid case */
 966:bme280.c      **** 		pressure = pressure_min;
 967:bme280.c      **** 	}
 968:bme280.c      **** 
 969:bme280.c      **** 	return pressure;
 970:bme280.c      **** }
 971:bme280.c      **** 
 972:bme280.c      **** /*!
 973:bme280.c      ****  * @brief This internal API is used to compensate the raw humidity data and
 974:bme280.c      ****  * return the compensated humidity data in double data type.
 975:bme280.c      ****  */
 976:bme280.c      **** static double compensate_humidity(const  bme280_uncomp_data *uncomp_data,
 977:bme280.c      **** 						const  bme280_calib_data *calib_data)
 978:bme280.c      **** {
 979:bme280.c      **** 	double humidity;
 980:bme280.c      **** 	double humidity_min = 0.0;
 981:bme280.c      **** 	double humidity_max = 100.0;
 982:bme280.c      **** 	double var1;
 983:bme280.c      **** 	double var2;
 984:bme280.c      **** 	double var3;
 985:bme280.c      **** 	double var4;
 986:bme280.c      **** 	double var5;
 987:bme280.c      **** 	double var6;
 988:bme280.c      **** 
 989:bme280.c      **** 	var1 = ((double)calib_data->t_fine) - 76800.0;
ARM GAS  C:\Users\corne\AppData\Local\Temp\cc0fqrF9.s 			page 23


 990:bme280.c      **** 	var2 = (((double)calib_data->dig_H4) * 64.0 + (((double)calib_data->dig_H5) / 16384.0) * var1);
 991:bme280.c      **** 	var3 = uncomp_data->humidity - var2;
 992:bme280.c      **** 	var4 = ((double)calib_data->dig_H2) / 65536.0;
 993:bme280.c      **** 	var5 = (1.0 + (((double)calib_data->dig_H3) / 67108864.0) * var1);
 994:bme280.c      **** 	var6 = 1.0 + (((double)calib_data->dig_H6) / 67108864.0) * var1 * var5;
 995:bme280.c      **** 	var6 = var3 * var4 * (var5 * var6);
 996:bme280.c      **** 	humidity = var6 * (1.0 - ((double)calib_data->dig_H1) * var6 / 524288.0);
 997:bme280.c      **** 
 998:bme280.c      **** 	if (humidity > humidity_max)
 999:bme280.c      **** 		humidity = humidity_max;
1000:bme280.c      **** 	else if (humidity < humidity_min)
1001:bme280.c      **** 		humidity = humidity_min;
1002:bme280.c      **** 
1003:bme280.c      **** 	return humidity;
1004:bme280.c      **** }
1005:bme280.c      **** 
1006:bme280.c      **** #else
1007:bme280.c      **** /*!
1008:bme280.c      ****  * @brief This internal API is used to compensate the raw temperature data and
1009:bme280.c      ****  * return the compensated temperature data in integer data type.
1010:bme280.c      ****  */
1011:bme280.c      **** static int32_t compensate_temperature(const  bme280_uncomp_data *uncomp_data,
1012:bme280.c      **** 						 bme280_calib_data *calib_data)
1013:bme280.c      **** {
 266              		.loc 1 1013 0
 267              		.cfi_startproc
 268              		@ args = 0, pretend = 0, frame = 0
 269              		@ frame_needed = 0, uses_anonymous_args = 0
 270              	.LVL26:
 271 0000 30B5     		push	{r4, r5, lr}
 272              		.cfi_def_cfa_offset 12
 273              		.cfi_offset 4, -12
 274              		.cfi_offset 5, -8
 275              		.cfi_offset 14, -4
 276              	.LVL27:
1014:bme280.c      **** 	int32_t var1;
1015:bme280.c      **** 	int32_t var2;
1016:bme280.c      **** 	int32_t temperature;
1017:bme280.c      **** 	int32_t temperature_min = -4000;
1018:bme280.c      **** 	int32_t temperature_max = 8500;
1019:bme280.c      **** 
1020:bme280.c      **** 	var1 = (int32_t)((uncomp_data->temperature / 8) - ((int32_t)calib_data->dig_T1 * 2));
 277              		.loc 1 1020 0
 278 0002 4268     		ldr	r2, [r0, #4]
 279 0004 D008     		lsrs	r0, r2, #3
 280              	.LVL28:
 281 0006 0B88     		ldrh	r3, [r1]
 282 0008 5C00     		lsls	r4, r3, #1
 283 000a 041B     		subs	r4, r0, r4
 284              	.LVL29:
1021:bme280.c      **** 	var1 = (var1 * ((int32_t)calib_data->dig_T2)) / 2048;
 285              		.loc 1 1021 0
 286 000c 0225     		movs	r5, #2
 287 000e 485F     		ldrsh	r0, [r1, r5]
 288 0010 4443     		muls	r4, r0
 289              	.LVL30:
 290 0012 E017     		asrs	r0, r4, #31
ARM GAS  C:\Users\corne\AppData\Local\Temp\cc0fqrF9.s 			page 24


 291 0014 4005     		lsls	r0, r0, #21
 292 0016 400D     		lsrs	r0, r0, #21
 293 0018 0019     		adds	r0, r0, r4
 294 001a C012     		asrs	r0, r0, #11
 295              	.LVL31:
1022:bme280.c      **** 	var2 = (int32_t)((uncomp_data->temperature / 16) - ((int32_t)calib_data->dig_T1));
 296              		.loc 1 1022 0
 297 001c 1209     		lsrs	r2, r2, #4
 298 001e D21A     		subs	r2, r2, r3
 299              	.LVL32:
1023:bme280.c      **** 	var2 = (((var2 * var2) / 4096) * ((int32_t)calib_data->dig_T3)) / 16384;
 300              		.loc 1 1023 0
 301 0020 5243     		muls	r2, r2
 302              	.LVL33:
 303 0022 D317     		asrs	r3, r2, #31
 304              	.LVL34:
 305 0024 1B05     		lsls	r3, r3, #20
 306 0026 1B0D     		lsrs	r3, r3, #20
 307 0028 9B18     		adds	r3, r3, r2
 308 002a 1B13     		asrs	r3, r3, #12
 309 002c 0424     		movs	r4, #4
 310 002e 0A5F     		ldrsh	r2, [r1, r4]
 311 0030 5343     		muls	r3, r2
 312 0032 DA17     		asrs	r2, r3, #31
 313 0034 9204     		lsls	r2, r2, #18
 314 0036 920C     		lsrs	r2, r2, #18
 315 0038 D318     		adds	r3, r2, r3
 316 003a 9B13     		asrs	r3, r3, #14
 317              	.LVL35:
1024:bme280.c      **** 	calib_data->t_fine = var1 + var2;
 318              		.loc 1 1024 0
 319 003c C018     		adds	r0, r0, r3
 320              	.LVL36:
 321 003e 4862     		str	r0, [r1, #36]
 322              	.LVL37:
1025:bme280.c      **** 	temperature = (calib_data->t_fine * 5 + 128) / 256;
 323              		.loc 1 1025 0
 324 0040 8300     		lsls	r3, r0, #2
 325              	.LVL38:
 326 0042 1818     		adds	r0, r3, r0
 327 0044 0300     		movs	r3, r0
 328 0046 8033     		adds	r3, r3, #128
 329 0048 DA17     		asrs	r2, r3, #31
 330 004a FF20     		movs	r0, #255
 331 004c 1040     		ands	r0, r2
 332 004e C018     		adds	r0, r0, r3
 333 0050 0012     		asrs	r0, r0, #8
 334              	.LVL39:
1026:bme280.c      **** 
1027:bme280.c      **** 	if (temperature < temperature_min)
 335              		.loc 1 1027 0
 336 0052 054B     		ldr	r3, .L11
 337 0054 9842     		cmp	r0, r3
 338 0056 03DB     		blt	.L9
1028:bme280.c      **** 		temperature = temperature_min;
1029:bme280.c      **** 	else if (temperature > temperature_max)
 339              		.loc 1 1029 0
ARM GAS  C:\Users\corne\AppData\Local\Temp\cc0fqrF9.s 			page 25


 340 0058 044B     		ldr	r3, .L11+4
 341 005a 9842     		cmp	r0, r3
 342 005c 02DC     		bgt	.L10
 343 005e 02E0     		b	.L8
 344              	.L9:
1028:bme280.c      **** 		temperature = temperature_min;
 345              		.loc 1 1028 0
 346 0060 0148     		ldr	r0, .L11
 347              	.LVL40:
 348 0062 00E0     		b	.L8
 349              	.LVL41:
 350              	.L10:
1030:bme280.c      **** 		temperature = temperature_max;
 351              		.loc 1 1030 0
 352 0064 0148     		ldr	r0, .L11+4
 353              	.LVL42:
 354              	.L8:
1031:bme280.c      **** 
1032:bme280.c      **** 	return temperature;
1033:bme280.c      **** }
 355              		.loc 1 1033 0
 356              		@ sp needed
 357 0066 30BD     		pop	{r4, r5, pc}
 358              	.L12:
 359              		.align	2
 360              	.L11:
 361 0068 60F0FFFF 		.word	-4000
 362 006c 34210000 		.word	8500
 363              		.cfi_endproc
 364              	.LFE24:
 365              		.size	compensate_temperature, .-compensate_temperature
 366              		.global	__aeabi_lmul
 367              		.global	__aeabi_ldivmod
 368              		.section	.text.compensate_pressure,"ax",%progbits
 369              		.align	2
 370              		.code	16
 371              		.thumb_func
 372              		.type	compensate_pressure, %function
 373              	compensate_pressure:
 374              	.LFB25:
1034:bme280.c      **** #ifdef MACHINE_64_BIT
1035:bme280.c      **** /*!
1036:bme280.c      ****  * @brief This internal API is used to compensate the raw pressure data and
1037:bme280.c      ****  * return the compensated pressure data in integer data type with higher
1038:bme280.c      ****  * accuracy.
1039:bme280.c      ****  */
1040:bme280.c      **** static uint32_t compensate_pressure(const  bme280_uncomp_data *uncomp_data,
1041:bme280.c      **** 						const  bme280_calib_data *calib_data)
1042:bme280.c      **** {
 375              		.loc 1 1042 0
 376              		.cfi_startproc
 377              		@ args = 0, pretend = 0, frame = 16
 378              		@ frame_needed = 0, uses_anonymous_args = 0
 379              	.LVL43:
 380 0000 F0B5     		push	{r4, r5, r6, r7, lr}
 381              		.cfi_def_cfa_offset 20
 382              		.cfi_offset 4, -20
ARM GAS  C:\Users\corne\AppData\Local\Temp\cc0fqrF9.s 			page 26


 383              		.cfi_offset 5, -16
 384              		.cfi_offset 6, -12
 385              		.cfi_offset 7, -8
 386              		.cfi_offset 14, -4
 387 0002 5746     		mov	r7, r10
 388 0004 4E46     		mov	r6, r9
 389 0006 4546     		mov	r5, r8
 390 0008 E0B4     		push	{r5, r6, r7}
 391              		.cfi_def_cfa_offset 32
 392              		.cfi_offset 8, -32
 393              		.cfi_offset 9, -28
 394              		.cfi_offset 10, -24
 395 000a 84B0     		sub	sp, sp, #16
 396              		.cfi_def_cfa_offset 48
 397 000c 8146     		mov	r9, r0
 398 000e 8846     		mov	r8, r1
 399              	.LVL44:
1043:bme280.c      **** 	int64_t var1;
1044:bme280.c      **** 	int64_t var2;
1045:bme280.c      **** 	int64_t var3;
1046:bme280.c      **** 	int64_t var4;
1047:bme280.c      **** 	uint32_t pressure;
1048:bme280.c      **** 	uint32_t pressure_min = 3000000;
1049:bme280.c      **** 	uint32_t pressure_max = 11000000;
1050:bme280.c      **** 
1051:bme280.c      **** 	var1 = ((int64_t)calib_data->t_fine) - 128000;
 400              		.loc 1 1051 0
 401 0010 4A6A     		ldr	r2, [r1, #36]
 402 0012 D317     		asrs	r3, r2, #31
 403 0014 804E     		ldr	r6, .L19
 404 0016 0127     		movs	r7, #1
 405 0018 7F42     		rsbs	r7, r7, #0
 406 001a B618     		adds	r6, r6, r2
 407 001c 5F41     		adcs	r7, r7, r3
 408              	.LVL45:
1052:bme280.c      **** 	var2 = var1 * var1 * (int64_t)calib_data->dig_P6;
 409              		.loc 1 1052 0
 410 001e 3200     		movs	r2, r6
 411 0020 3B00     		movs	r3, r7
 412 0022 3000     		movs	r0, r6
 413              	.LVL46:
 414 0024 3900     		movs	r1, r7
 415              	.LVL47:
 416 0026 FFF7FEFF 		bl	__aeabi_lmul
 417              	.LVL48:
 418 002a 4346     		mov	r3, r8
 419 002c 1022     		movs	r2, #16
 420 002e 9A5E     		ldrsh	r2, [r3, r2]
 421 0030 D317     		asrs	r3, r2, #31
 422 0032 0090     		str	r0, [sp]
 423 0034 0191     		str	r1, [sp, #4]
 424 0036 FFF7FEFF 		bl	__aeabi_lmul
 425              	.LVL49:
 426 003a 0400     		movs	r4, r0
 427 003c 0D00     		movs	r5, r1
 428              	.LVL50:
1053:bme280.c      **** 	var2 = var2 + ((var1 * (int64_t)calib_data->dig_P5) * 131072);
ARM GAS  C:\Users\corne\AppData\Local\Temp\cc0fqrF9.s 			page 27


 429              		.loc 1 1053 0
 430 003e 4346     		mov	r3, r8
 431 0040 0E22     		movs	r2, #14
 432 0042 9A5E     		ldrsh	r2, [r3, r2]
 433 0044 D317     		asrs	r3, r2, #31
 434 0046 3000     		movs	r0, r6
 435 0048 3900     		movs	r1, r7
 436 004a FFF7FEFF 		bl	__aeabi_lmul
 437              	.LVL51:
 438 004e C30B     		lsrs	r3, r0, #15
 439 0050 9A46     		mov	r10, r3
 440 0052 4B04     		lsls	r3, r1, #17
 441 0054 5146     		mov	r1, r10
 442 0056 0B43     		orrs	r3, r1
 443 0058 4204     		lsls	r2, r0, #17
 444 005a A418     		adds	r4, r4, r2
 445 005c 5D41     		adcs	r5, r5, r3
 446              	.LVL52:
1054:bme280.c      **** 	var2 = var2 + (((int64_t)calib_data->dig_P4) * 34359738368);
 447              		.loc 1 1054 0
 448 005e 4346     		mov	r3, r8
 449 0060 0C21     		movs	r1, #12
 450 0062 595E     		ldrsh	r1, [r3, r1]
 451 0064 0022     		movs	r2, #0
 452 0066 CB00     		lsls	r3, r1, #3
 453 0068 A418     		adds	r4, r4, r2
 454 006a 5D41     		adcs	r5, r5, r3
 455              	.LVL53:
 456 006c 0294     		str	r4, [sp, #8]
 457 006e 0395     		str	r5, [sp, #12]
 458              	.LVL54:
1055:bme280.c      **** 	var1 = ((var1 * var1 * (int64_t)calib_data->dig_P3) / 256) + ((var1 * (int64_t)calib_data->dig_P2)
 459              		.loc 1 1055 0
 460 0070 4346     		mov	r3, r8
 461 0072 0A22     		movs	r2, #10
 462 0074 9A5E     		ldrsh	r2, [r3, r2]
 463 0076 D317     		asrs	r3, r2, #31
 464 0078 0098     		ldr	r0, [sp]
 465 007a 0199     		ldr	r1, [sp, #4]
 466 007c FFF7FEFF 		bl	__aeabi_lmul
 467              	.LVL55:
 468 0080 CD17     		asrs	r5, r1, #31
 469 0082 FF24     		movs	r4, #255
 470              	.LVL56:
 471 0084 2540     		ands	r5, r4
 472 0086 2A00     		movs	r2, r5
 473 0088 0023     		movs	r3, #0
 474 008a 8018     		adds	r0, r0, r2
 475 008c 5941     		adcs	r1, r1, r3
 476 008e 0A06     		lsls	r2, r1, #24
 477 0090 030A     		lsrs	r3, r0, #8
 478 0092 1A43     		orrs	r2, r3
 479 0094 1400     		movs	r4, r2
 480 0096 0D12     		asrs	r5, r1, #8
 481 0098 4346     		mov	r3, r8
 482 009a 0822     		movs	r2, #8
 483 009c 9A5E     		ldrsh	r2, [r3, r2]
ARM GAS  C:\Users\corne\AppData\Local\Temp\cc0fqrF9.s 			page 28


 484 009e D317     		asrs	r3, r2, #31
 485 00a0 3000     		movs	r0, r6
 486 00a2 3900     		movs	r1, r7
 487 00a4 FFF7FEFF 		bl	__aeabi_lmul
 488              	.LVL57:
 489 00a8 060D     		lsrs	r6, r0, #20
 490              	.LVL58:
 491 00aa 0B03     		lsls	r3, r1, #12
 492 00ac 3343     		orrs	r3, r6
 493 00ae 0203     		lsls	r2, r0, #12
 494 00b0 A418     		adds	r4, r4, r2
 495 00b2 5D41     		adcs	r5, r5, r3
 496              	.LVL59:
1056:bme280.c      **** 	var3 = ((int64_t)1) * 140737488355328;
1057:bme280.c      **** 	var1 = (var3 + var1) * ((int64_t)calib_data->dig_P1) / 8589934592;
 497              		.loc 1 1057 0
 498 00b4 0020     		movs	r0, #0
 499 00b6 8021     		movs	r1, #128
 500 00b8 0902     		lsls	r1, r1, #8
 501 00ba 0019     		adds	r0, r0, r4
 502 00bc 6941     		adcs	r1, r1, r5
 503 00be 4346     		mov	r3, r8
 504 00c0 DA88     		ldrh	r2, [r3, #6]
 505 00c2 0023     		movs	r3, #0
 506 00c4 FFF7FEFF 		bl	__aeabi_lmul
 507              	.LVL60:
 508 00c8 CC17     		asrs	r4, r1, #31
 509              	.LVL61:
 510 00ca 2200     		movs	r2, r4
 511 00cc 0125     		movs	r5, #1
 512 00ce 2C40     		ands	r4, r5
 513 00d0 2300     		movs	r3, r4
 514 00d2 8018     		adds	r0, r0, r2
 515 00d4 5941     		adcs	r1, r1, r3
 516 00d6 4D10     		asrs	r5, r1, #1
 517 00d8 CC17     		asrs	r4, r1, #31
 518              	.LVL62:
1058:bme280.c      **** 
1059:bme280.c      **** 	/* To avoid divide by zero exception */
1060:bme280.c      **** 	if (var1 != 0) {
 519              		.loc 1 1060 0
 520 00da 2B00     		movs	r3, r5
 521 00dc 2343     		orrs	r3, r4
 522 00de 00D1     		bne	.LCB427
 523 00e0 8EE0     		b	.L16	@long jump
 524              	.LCB427:
1061:bme280.c      **** 		var4 = 1048576 - uncomp_data->pressure;
 525              		.loc 1 1061 0
 526 00e2 4B46     		mov	r3, r9
 527 00e4 1A68     		ldr	r2, [r3]
 528 00e6 8023     		movs	r3, #128
 529 00e8 5B03     		lsls	r3, r3, #13
 530 00ea 9B1A     		subs	r3, r3, r2
 531              	.LVL63:
1062:bme280.c      **** 		var4 = (((var4 * (2147483648UL)) - var2) * 3125) / var1;
 532              		.loc 1 1062 0
 533 00ec 5908     		lsrs	r1, r3, #1
ARM GAS  C:\Users\corne\AppData\Local\Temp\cc0fqrF9.s 			page 29


 534 00ee D807     		lsls	r0, r3, #31
 535 00f0 029A     		ldr	r2, [sp, #8]
 536 00f2 039B     		ldr	r3, [sp, #12]
 537 00f4 801A     		subs	r0, r0, r2
 538 00f6 9941     		sbcs	r1, r1, r3
 539 00f8 484A     		ldr	r2, .L19+4
 540 00fa 0023     		movs	r3, #0
 541              	.LVL64:
 542 00fc FFF7FEFF 		bl	__aeabi_lmul
 543              	.LVL65:
 544 0100 2A00     		movs	r2, r5
 545 0102 2300     		movs	r3, r4
 546 0104 FFF7FEFF 		bl	__aeabi_ldivmod
 547              	.LVL66:
 548 0108 0400     		movs	r4, r0
 549              	.LVL67:
 550 010a 0D00     		movs	r5, r1
 551              	.LVL68:
1063:bme280.c      **** 		var1 = (((int64_t)calib_data->dig_P9) * (var4 / 8192) * (var4 / 8192)) / 33554432;
 552              		.loc 1 1063 0
 553 010c 4346     		mov	r3, r8
 554 010e 1620     		movs	r0, #22
 555 0110 185E     		ldrsh	r0, [r3, r0]
 556 0112 C117     		asrs	r1, r0, #31
 557 0114 EE17     		asrs	r6, r5, #31
 558 0116 F604     		lsls	r6, r6, #19
 559 0118 F20C     		lsrs	r2, r6, #19
 560 011a 0023     		movs	r3, #0
 561 011c 1219     		adds	r2, r2, r4
 562 011e 6B41     		adcs	r3, r3, r5
 563 0120 DE04     		lsls	r6, r3, #19
 564 0122 570B     		lsrs	r7, r2, #13
 565 0124 3743     		orrs	r7, r6
 566 0126 5E13     		asrs	r6, r3, #13
 567 0128 3A00     		movs	r2, r7
 568 012a 3300     		movs	r3, r6
 569 012c FFF7FEFF 		bl	__aeabi_lmul
 570              	.LVL69:
 571 0130 0200     		movs	r2, r0
 572 0132 0B00     		movs	r3, r1
 573 0134 3800     		movs	r0, r7
 574 0136 3100     		movs	r1, r6
 575 0138 FFF7FEFF 		bl	__aeabi_lmul
 576              	.LVL70:
 577 013c CE17     		asrs	r6, r1, #31
 578 013e F601     		lsls	r6, r6, #7
 579 0140 F209     		lsrs	r2, r6, #7
 580 0142 0023     		movs	r3, #0
 581 0144 8018     		adds	r0, r0, r2
 582 0146 5941     		adcs	r1, r1, r3
 583 0148 CA01     		lsls	r2, r1, #7
 584 014a 430E     		lsrs	r3, r0, #25
 585 014c 1A43     		orrs	r2, r3
 586 014e 1600     		movs	r6, r2
 587 0150 4F16     		asrs	r7, r1, #25
 588              	.LVL71:
1064:bme280.c      **** 		var2 = (((int64_t)calib_data->dig_P8) * var4) / 524288;
ARM GAS  C:\Users\corne\AppData\Local\Temp\cc0fqrF9.s 			page 30


 589              		.loc 1 1064 0
 590 0152 4346     		mov	r3, r8
 591 0154 1422     		movs	r2, #20
 592 0156 9A5E     		ldrsh	r2, [r3, r2]
 593 0158 D317     		asrs	r3, r2, #31
 594 015a 2000     		movs	r0, r4
 595 015c 2900     		movs	r1, r5
 596 015e FFF7FEFF 		bl	__aeabi_lmul
 597              	.LVL72:
 598 0162 0090     		str	r0, [sp]
 599 0164 0191     		str	r1, [sp, #4]
 600 0166 C917     		asrs	r1, r1, #31
 601 0168 4903     		lsls	r1, r1, #13
 602 016a 8C46     		mov	ip, r1
 603 016c 6346     		mov	r3, ip
 604 016e 580B     		lsrs	r0, r3, #13
 605 0170 0021     		movs	r1, #0
 606 0172 009A     		ldr	r2, [sp]
 607 0174 019B     		ldr	r3, [sp, #4]
 608 0176 1218     		adds	r2, r2, r0
 609 0178 4B41     		adcs	r3, r3, r1
 610 017a 1100     		movs	r1, r2
 611 017c 1A00     		movs	r2, r3
 612 017e 5B03     		lsls	r3, r3, #13
 613 0180 9C46     		mov	ip, r3
 614 0182 0091     		str	r1, [sp]
 615 0184 0192     		str	r2, [sp, #4]
 616 0186 C80C     		lsrs	r0, r1, #19
 617 0188 6146     		mov	r1, ip
 618 018a 0143     		orrs	r1, r0
 619 018c 0A00     		movs	r2, r1
 620 018e 0199     		ldr	r1, [sp, #4]
 621 0190 CB14     		asrs	r3, r1, #19
 622              	.LVL73:
1065:bme280.c      **** 		var4 = ((var4 + var1 + var2) / 256) + (((int64_t)calib_data->dig_P7) * 16);
 623              		.loc 1 1065 0
 624 0192 A419     		adds	r4, r4, r6
 625 0194 7D41     		adcs	r5, r5, r7
 626              	.LVL74:
 627 0196 1219     		adds	r2, r2, r4
 628 0198 6B41     		adcs	r3, r3, r5
 629              	.LVL75:
 630 019a D817     		asrs	r0, r3, #31
 631 019c FF21     		movs	r1, #255
 632 019e 0840     		ands	r0, r1
 633 01a0 0400     		movs	r4, r0
 634 01a2 0025     		movs	r5, #0
 635 01a4 1219     		adds	r2, r2, r4
 636 01a6 6B41     		adcs	r3, r3, r5
 637 01a8 1C06     		lsls	r4, r3, #24
 638 01aa 120A     		lsrs	r2, r2, #8
 639 01ac 1443     		orrs	r4, r2
 640 01ae 2000     		movs	r0, r4
 641 01b0 1912     		asrs	r1, r3, #8
 642 01b2 4346     		mov	r3, r8
 643 01b4 1224     		movs	r4, #18
 644 01b6 1C5F     		ldrsh	r4, [r3, r4]
ARM GAS  C:\Users\corne\AppData\Local\Temp\cc0fqrF9.s 			page 31


 645 01b8 E617     		asrs	r6, r4, #31
 646              	.LVL76:
 647 01ba 250F     		lsrs	r5, r4, #28
 648 01bc 3301     		lsls	r3, r6, #4
 649 01be 2B43     		orrs	r3, r5
 650 01c0 2201     		lsls	r2, r4, #4
 651 01c2 1218     		adds	r2, r2, r0
 652 01c4 4B41     		adcs	r3, r3, r1
 653              	.LVL77:
1066:bme280.c      **** 		pressure = (uint32_t)(((var4 / 2) * 100) / 128);
 654              		.loc 1 1066 0
 655 01c6 D80F     		lsrs	r0, r3, #31
 656 01c8 0021     		movs	r1, #0
 657 01ca 1218     		adds	r2, r2, r0
 658 01cc 4B41     		adcs	r3, r3, r1
 659              	.LVL78:
 660 01ce D907     		lsls	r1, r3, #31
 661 01d0 5008     		lsrs	r0, r2, #1
 662 01d2 0843     		orrs	r0, r1
 663 01d4 5910     		asrs	r1, r3, #1
 664 01d6 6422     		movs	r2, #100
 665 01d8 0023     		movs	r3, #0
 666 01da FFF7FEFF 		bl	__aeabi_lmul
 667              	.LVL79:
 668 01de CD17     		asrs	r5, r1, #31
 669 01e0 7F24     		movs	r4, #127
 670 01e2 2540     		ands	r5, r4
 671 01e4 2A00     		movs	r2, r5
 672 01e6 0023     		movs	r3, #0
 673 01e8 8018     		adds	r0, r0, r2
 674 01ea 5941     		adcs	r1, r1, r3
 675 01ec 4B06     		lsls	r3, r1, #25
 676 01ee C009     		lsrs	r0, r0, #7
 677 01f0 1843     		orrs	r0, r3
 678              	.LVL80:
1067:bme280.c      **** 
1068:bme280.c      **** 		if (pressure < pressure_min)
 679              		.loc 1 1068 0
 680 01f2 0B4B     		ldr	r3, .L19+8
 681 01f4 9842     		cmp	r0, r3
 682 01f6 05D9     		bls	.L17
1069:bme280.c      **** 			pressure = pressure_min;
1070:bme280.c      **** 		else if (pressure > pressure_max)
 683              		.loc 1 1070 0
 684 01f8 0A4B     		ldr	r3, .L19+12
 685 01fa 9842     		cmp	r0, r3
 686 01fc 04D8     		bhi	.L18
 687 01fe 04E0     		b	.L14
 688              	.LVL81:
 689              	.L16:
1071:bme280.c      **** 			pressure = pressure_max;
1072:bme280.c      **** 	} else {
1073:bme280.c      **** 		pressure = pressure_min;
 690              		.loc 1 1073 0
 691 0200 0948     		ldr	r0, .L19+16
 692 0202 02E0     		b	.L14
 693              	.LVL82:
ARM GAS  C:\Users\corne\AppData\Local\Temp\cc0fqrF9.s 			page 32


 694              	.L17:
1069:bme280.c      **** 			pressure = pressure_min;
 695              		.loc 1 1069 0
 696 0204 0848     		ldr	r0, .L19+16
 697              	.LVL83:
 698 0206 00E0     		b	.L14
 699              	.LVL84:
 700              	.L18:
1071:bme280.c      **** 			pressure = pressure_max;
 701              		.loc 1 1071 0
 702 0208 0648     		ldr	r0, .L19+12
 703              	.LVL85:
 704              	.L14:
1074:bme280.c      **** 	}
1075:bme280.c      **** 
1076:bme280.c      **** 	return pressure;
1077:bme280.c      **** }
 705              		.loc 1 1077 0
 706 020a 04B0     		add	sp, sp, #16
 707              		@ sp needed
 708              	.LVL86:
 709              	.LVL87:
 710 020c 1CBC     		pop	{r2, r3, r4}
 711 020e 9046     		mov	r8, r2
 712 0210 9946     		mov	r9, r3
 713 0212 A246     		mov	r10, r4
 714 0214 F0BD     		pop	{r4, r5, r6, r7, pc}
 715              	.L20:
 716 0216 C046     		.align	2
 717              	.L19:
 718 0218 000CFEFF 		.word	-128000
 719 021c 350C0000 		.word	3125
 720 0220 BFC62D00 		.word	2999999
 721 0224 C0D8A700 		.word	11000000
 722 0228 C0C62D00 		.word	3000000
 723              		.cfi_endproc
 724              	.LFE25:
 725              		.size	compensate_pressure, .-compensate_pressure
 726              		.section	.text.compensate_humidity,"ax",%progbits
 727              		.align	2
 728              		.code	16
 729              		.thumb_func
 730              		.type	compensate_humidity, %function
 731              	compensate_humidity:
 732              	.LFB26:
1078:bme280.c      **** #else
1079:bme280.c      **** /*!
1080:bme280.c      ****  * @brief This internal API is used to compensate the raw pressure data and
1081:bme280.c      ****  * return the compensated pressure data in integer data type.
1082:bme280.c      ****  */
1083:bme280.c      **** static uint32_t compensate_pressure(const  bme280_uncomp_data *uncomp_data,
1084:bme280.c      **** 						const  bme280_calib_data *calib_data)
1085:bme280.c      **** {
1086:bme280.c      **** 	int32_t var1;
1087:bme280.c      **** 	int32_t var2;
1088:bme280.c      **** 	int32_t var3;
1089:bme280.c      **** 	int32_t var4;
ARM GAS  C:\Users\corne\AppData\Local\Temp\cc0fqrF9.s 			page 33


1090:bme280.c      **** 	uint32_t var5;
1091:bme280.c      **** 	uint32_t pressure;
1092:bme280.c      **** 	uint32_t pressure_min = 30000;
1093:bme280.c      **** 	uint32_t pressure_max = 110000;
1094:bme280.c      **** 
1095:bme280.c      **** 	var1 = (((int32_t)calib_data->t_fine) / 2) - (int32_t)64000;
1096:bme280.c      **** 	var2 = (((var1 / 4) * (var1 / 4)) / 2048) * ((int32_t)calib_data->dig_P6);
1097:bme280.c      **** 	var2 = var2 + ((var1 * ((int32_t)calib_data->dig_P5)) * 2);
1098:bme280.c      **** 	var2 = (var2 / 4) + (((int32_t)calib_data->dig_P4) * 65536);
1099:bme280.c      **** 	var3 = (calib_data->dig_P3 * (((var1 / 4) * (var1 / 4)) / 8192)) / 8;
1100:bme280.c      **** 	var4 = (((int32_t)calib_data->dig_P2) * var1) / 2;
1101:bme280.c      **** 	var1 = (var3 + var4) / 262144;
1102:bme280.c      **** 	var1 = (((32768 + var1)) * ((int32_t)calib_data->dig_P1)) / 32768;
1103:bme280.c      **** 	 /* avoid exception caused by division by zero */
1104:bme280.c      **** 	if (var1) {
1105:bme280.c      **** 		var5 = (uint32_t)((uint32_t)1048576) - uncomp_data->pressure;
1106:bme280.c      **** 		pressure = ((uint32_t)(var5 - (uint32_t)(var2 / 4096))) * 3125;
1107:bme280.c      **** 		if (pressure < 0x80000000)
1108:bme280.c      **** 			pressure = (pressure << 1) / ((uint32_t)var1);
1109:bme280.c      **** 		else
1110:bme280.c      **** 			pressure = (pressure / (uint32_t)var1) * 2;
1111:bme280.c      **** 
1112:bme280.c      **** 		var1 = (((int32_t)calib_data->dig_P9) * ((int32_t)(((pressure / 8) * (pressure / 8)) / 8192))) / 
1113:bme280.c      **** 		var2 = (((int32_t)(pressure / 4)) * ((int32_t)calib_data->dig_P8)) / 8192;
1114:bme280.c      **** 		pressure = (uint32_t)((int32_t)pressure + ((var1 + var2 + calib_data->dig_P7) / 16));
1115:bme280.c      **** 
1116:bme280.c      **** 		if (pressure < pressure_min)
1117:bme280.c      **** 			pressure = pressure_min;
1118:bme280.c      **** 		else if (pressure > pressure_max)
1119:bme280.c      **** 			pressure = pressure_max;
1120:bme280.c      **** 	} else {
1121:bme280.c      **** 		pressure = pressure_min;
1122:bme280.c      **** 	}
1123:bme280.c      **** 
1124:bme280.c      **** 	return pressure;
1125:bme280.c      **** }
1126:bme280.c      **** #endif
1127:bme280.c      **** 
1128:bme280.c      **** /*!
1129:bme280.c      ****  * @brief This internal API is used to compensate the raw humidity data and
1130:bme280.c      ****  * return the compensated humidity data in integer data type.
1131:bme280.c      ****  */
1132:bme280.c      **** static uint32_t compensate_humidity(const  bme280_uncomp_data *uncomp_data,
1133:bme280.c      **** 						const  bme280_calib_data *calib_data)
1134:bme280.c      **** {
 733              		.loc 1 1134 0
 734              		.cfi_startproc
 735              		@ args = 0, pretend = 0, frame = 0
 736              		@ frame_needed = 0, uses_anonymous_args = 0
 737              	.LVL88:
 738 0000 70B5     		push	{r4, r5, r6, lr}
 739              		.cfi_def_cfa_offset 16
 740              		.cfi_offset 4, -16
 741              		.cfi_offset 5, -12
 742              		.cfi_offset 6, -8
 743              		.cfi_offset 14, -4
 744              	.LVL89:
ARM GAS  C:\Users\corne\AppData\Local\Temp\cc0fqrF9.s 			page 34


1135:bme280.c      **** 	int32_t var1;
1136:bme280.c      **** 	int32_t var2;
1137:bme280.c      **** 	int32_t var3;
1138:bme280.c      **** 	int32_t var4;
1139:bme280.c      **** 	int32_t var5;
1140:bme280.c      **** 	uint32_t humidity;
1141:bme280.c      **** 	uint32_t humidity_max = 100000;
1142:bme280.c      **** 
1143:bme280.c      **** 	var1 = calib_data->t_fine - ((int32_t)76800);
 745              		.loc 1 1143 0
 746 0002 4B6A     		ldr	r3, [r1, #36]
 747 0004 324A     		ldr	r2, .L26
 748 0006 9446     		mov	ip, r2
 749 0008 6344     		add	r3, r3, ip
 750 000a 1E00     		movs	r6, r3
 751              	.LVL90:
1144:bme280.c      **** 	var2 = (int32_t)(uncomp_data->humidity * 16384);
 752              		.loc 1 1144 0
 753 000c 8468     		ldr	r4, [r0, #8]
 754 000e A503     		lsls	r5, r4, #14
 755              	.LVL91:
1145:bme280.c      **** 	var3 = (int32_t)(((int32_t)calib_data->dig_H4) * 1048576);
 756              		.loc 1 1145 0
 757 0010 1E23     		movs	r3, #30
 758 0012 CC5E     		ldrsh	r4, [r1, r3]
 759              	.LVL92:
 760 0014 2405     		lsls	r4, r4, #20
 761              	.LVL93:
1146:bme280.c      **** 	var4 = ((int32_t)calib_data->dig_H5) * var1;
 762              		.loc 1 1146 0
 763 0016 2023     		movs	r3, #32
 764 0018 C85E     		ldrsh	r0, [r1, r3]
 765              	.LVL94:
 766 001a 7043     		muls	r0, r6
 767              	.LVL95:
1147:bme280.c      **** 	var5 = (((var2 - var3) - var4) + (int32_t)16384) / 32768;
 768              		.loc 1 1147 0
 769 001c 2C1B     		subs	r4, r5, r4
 770              	.LVL96:
 771 001e 201A     		subs	r0, r4, r0
 772              	.LVL97:
 773 0020 8023     		movs	r3, #128
 774 0022 DB01     		lsls	r3, r3, #7
 775 0024 9C46     		mov	ip, r3
 776 0026 6044     		add	r0, r0, ip
 777 0028 C317     		asrs	r3, r0, #31
 778 002a 5B04     		lsls	r3, r3, #17
 779 002c 5B0C     		lsrs	r3, r3, #17
 780 002e 1818     		adds	r0, r3, r0
 781 0030 C013     		asrs	r0, r0, #15
 782              	.LVL98:
1148:bme280.c      **** 	var2 = (var1 * ((int32_t)calib_data->dig_H6)) / 1024;
 783              		.loc 1 1148 0
 784 0032 2223     		movs	r3, #34
 785 0034 CC56     		ldrsb	r4, [r1, r3]
 786 0036 7443     		muls	r4, r6
 787 0038 E317     		asrs	r3, r4, #31
ARM GAS  C:\Users\corne\AppData\Local\Temp\cc0fqrF9.s 			page 35


 788 003a 9B05     		lsls	r3, r3, #22
 789 003c 9B0D     		lsrs	r3, r3, #22
 790 003e 1B19     		adds	r3, r3, r4
 791 0040 9B12     		asrs	r3, r3, #10
 792              	.LVL99:
1149:bme280.c      **** 	var3 = (var1 * ((int32_t)calib_data->dig_H3)) / 2048;
 793              		.loc 1 1149 0
 794 0042 0A7F     		ldrb	r2, [r1, #28]
 795 0044 7243     		muls	r2, r6
 796 0046 D417     		asrs	r4, r2, #31
 797 0048 6405     		lsls	r4, r4, #21
 798 004a 640D     		lsrs	r4, r4, #21
 799 004c A218     		adds	r2, r4, r2
 800 004e D212     		asrs	r2, r2, #11
 801              	.LVL100:
1150:bme280.c      **** 	var4 = ((var2 * (var3 + (int32_t)32768)) / 1024) + (int32_t)2097152;
 802              		.loc 1 1150 0
 803 0050 8024     		movs	r4, #128
 804 0052 2402     		lsls	r4, r4, #8
 805 0054 A446     		mov	ip, r4
 806 0056 6244     		add	r2, r2, ip
 807              	.LVL101:
 808 0058 5343     		muls	r3, r2
 809              	.LVL102:
 810 005a DA17     		asrs	r2, r3, #31
 811              	.LVL103:
 812 005c 9205     		lsls	r2, r2, #22
 813 005e 920D     		lsrs	r2, r2, #22
 814 0060 D318     		adds	r3, r2, r3
 815 0062 9B12     		asrs	r3, r3, #10
 816 0064 8022     		movs	r2, #128
 817 0066 9203     		lsls	r2, r2, #14
 818 0068 9446     		mov	ip, r2
 819 006a 6344     		add	r3, r3, ip
 820              	.LVL104:
1151:bme280.c      **** 	var2 = ((var4 * ((int32_t)calib_data->dig_H2)) + 8192) / 16384;
 821              		.loc 1 1151 0
 822 006c 1A22     		movs	r2, #26
 823 006e 8C5E     		ldrsh	r4, [r1, r2]
 824 0070 6343     		muls	r3, r4
 825              	.LVL105:
 826 0072 8022     		movs	r2, #128
 827              	.LVL106:
 828 0074 9201     		lsls	r2, r2, #6
 829              	.LVL107:
 830 0076 9C18     		adds	r4, r3, r2
 831 0078 E317     		asrs	r3, r4, #31
 832 007a 9B04     		lsls	r3, r3, #18
 833 007c 9B0C     		lsrs	r3, r3, #18
 834 007e 1C19     		adds	r4, r3, r4
 835 0080 A413     		asrs	r4, r4, #14
 836              	.LVL108:
1152:bme280.c      **** 	var3 = var5 * var2;
 837              		.loc 1 1152 0
 838 0082 2300     		movs	r3, r4
 839 0084 4343     		muls	r3, r0
 840              	.LVL109:
ARM GAS  C:\Users\corne\AppData\Local\Temp\cc0fqrF9.s 			page 36


1153:bme280.c      **** 	var4 = ((var3 / 32768) * (var3 / 32768)) / 128;
 841              		.loc 1 1153 0
 842 0086 DA17     		asrs	r2, r3, #31
 843 0088 5204     		lsls	r2, r2, #17
 844 008a 520C     		lsrs	r2, r2, #17
 845 008c D218     		adds	r2, r2, r3
 846 008e D213     		asrs	r2, r2, #15
 847 0090 5243     		muls	r2, r2
 848 0092 D017     		asrs	r0, r2, #31
 849              	.LVL110:
 850 0094 7F24     		movs	r4, #127
 851              	.LVL111:
 852 0096 2040     		ands	r0, r4
 853 0098 8218     		adds	r2, r0, r2
 854 009a D211     		asrs	r2, r2, #7
 855              	.LVL112:
1154:bme280.c      **** 	var5 = var3 - ((var4 * ((int32_t)calib_data->dig_H1)) / 16);
 856              		.loc 1 1154 0
 857 009c 097E     		ldrb	r1, [r1, #24]
 858              	.LVL113:
 859 009e 4A43     		muls	r2, r1
 860              	.LVL114:
 861 00a0 D117     		asrs	r1, r2, #31
 862 00a2 0F20     		movs	r0, #15
 863              	.LVL115:
 864 00a4 0840     		ands	r0, r1
 865 00a6 8218     		adds	r2, r0, r2
 866 00a8 1211     		asrs	r2, r2, #4
 867 00aa 9A1A     		subs	r2, r3, r2
 868              	.LVL116:
1155:bme280.c      **** 	var5 = (var5 < 0 ? 0 : var5);
 869              		.loc 1 1155 0
 870 00ac 00D5     		bpl	.L22
 871 00ae 0022     		movs	r2, #0
 872              	.L22:
 873              	.LVL117:
1156:bme280.c      **** 	var5 = (var5 > 419430400 ? 419430400 : var5);
 874              		.loc 1 1156 0
 875 00b0 C823     		movs	r3, #200
 876              	.LVL118:
 877 00b2 5B05     		lsls	r3, r3, #21
 878 00b4 9A42     		cmp	r2, r3
 879 00b6 00DD     		ble	.L23
 880 00b8 1A00     		movs	r2, r3
 881              	.LVL119:
 882              	.L23:
1157:bme280.c      **** 	humidity = (uint32_t)(var5 / 4096);
 883              		.loc 1 1157 0
 884 00ba D017     		asrs	r0, r2, #31
 885 00bc 0005     		lsls	r0, r0, #20
 886 00be 000D     		lsrs	r0, r0, #20
 887 00c0 8018     		adds	r0, r0, r2
 888 00c2 0013     		asrs	r0, r0, #12
 889              	.LVL120:
1158:bme280.c      **** 
1159:bme280.c      **** 	if (humidity > humidity_max)
 890              		.loc 1 1159 0
ARM GAS  C:\Users\corne\AppData\Local\Temp\cc0fqrF9.s 			page 37


 891 00c4 034B     		ldr	r3, .L26+4
 892 00c6 9842     		cmp	r0, r3
 893 00c8 00D9     		bls	.L24
1160:bme280.c      **** 		humidity = humidity_max;
 894              		.loc 1 1160 0
 895 00ca 1800     		movs	r0, r3
 896              	.LVL121:
 897              	.L24:
1161:bme280.c      **** 
1162:bme280.c      **** 	return humidity;
1163:bme280.c      **** }
 898              		.loc 1 1163 0
 899              		@ sp needed
 900              	.LVL122:
 901              	.LVL123:
 902 00cc 70BD     		pop	{r4, r5, r6, pc}
 903              	.L27:
 904 00ce C046     		.align	2
 905              	.L26:
 906 00d0 00D4FEFF 		.word	-76800
 907 00d4 A0860100 		.word	100000
 908              		.cfi_endproc
 909              	.LFE26:
 910              		.size	compensate_humidity, .-compensate_humidity
 911              		.section	.text.compensate_data,"ax",%progbits
 912              		.align	2
 913              		.code	16
 914              		.thumb_func
 915              		.type	compensate_data, %function
 916              	compensate_data:
 917              	.LFB23:
 875:bme280.c      **** 	int8_t rslt = BME280_OK;
 918              		.loc 1 875 0
 919              		.cfi_startproc
 920              		@ args = 0, pretend = 0, frame = 0
 921              		@ frame_needed = 0, uses_anonymous_args = 0
 922              	.LVL124:
 923 0000 F8B5     		push	{r3, r4, r5, r6, r7, lr}
 924              		.cfi_def_cfa_offset 24
 925              		.cfi_offset 3, -24
 926              		.cfi_offset 4, -20
 927              		.cfi_offset 5, -16
 928              		.cfi_offset 6, -12
 929              		.cfi_offset 7, -8
 930              		.cfi_offset 14, -4
 931 0002 0500     		movs	r5, r0
 932 0004 0E00     		movs	r6, r1
 933 0006 1400     		movs	r4, r2
 934 0008 1F00     		movs	r7, r3
 935              	.LVL125:
 878:bme280.c      **** 		/* Initialize to zero */
 936              		.loc 1 878 0
 937 000a 0029     		cmp	r1, #0
 938 000c 1ED0     		beq	.L32
 878:bme280.c      **** 		/* Initialize to zero */
 939              		.loc 1 878 0 is_stmt 0 discriminator 1
 940 000e 002A     		cmp	r2, #0
ARM GAS  C:\Users\corne\AppData\Local\Temp\cc0fqrF9.s 			page 38


 941 0010 1FD0     		beq	.L33
 878:bme280.c      **** 		/* Initialize to zero */
 942              		.loc 1 878 0 discriminator 2
 943 0012 002B     		cmp	r3, #0
 944 0014 20D0     		beq	.L34
 880:bme280.c      **** 		comp_data->pressure = 0;
 945              		.loc 1 880 0 is_stmt 1
 946 0016 0023     		movs	r3, #0
 947              	.LVL126:
 948 0018 5360     		str	r3, [r2, #4]
 881:bme280.c      **** 		comp_data->humidity = 0;
 949              		.loc 1 881 0
 950 001a 1360     		str	r3, [r2]
 882:bme280.c      **** 		/* If pressure or temperature component is selected */
 951              		.loc 1 882 0
 952 001c 9360     		str	r3, [r2, #8]
 884:bme280.c      **** 			/* Compensate the temperature data */
 953              		.loc 1 884 0
 954 001e 4307     		lsls	r3, r0, #29
 955 0020 04D0     		beq	.L30
 886:bme280.c      **** 		}
 956              		.loc 1 886 0
 957 0022 3900     		movs	r1, r7
 958              	.LVL127:
 959 0024 3000     		movs	r0, r6
 960              	.LVL128:
 961 0026 FFF7FEFF 		bl	compensate_temperature
 962              	.LVL129:
 963 002a 6060     		str	r0, [r4, #4]
 964              	.L30:
 888:bme280.c      **** 			/* Compensate the pressure data */
 965              		.loc 1 888 0
 966 002c EB07     		lsls	r3, r5, #31
 967 002e 04D5     		bpl	.L31
 890:bme280.c      **** 		}
 968              		.loc 1 890 0
 969 0030 3900     		movs	r1, r7
 970 0032 3000     		movs	r0, r6
 971 0034 FFF7FEFF 		bl	compensate_pressure
 972              	.LVL130:
 973 0038 2060     		str	r0, [r4]
 974              	.L31:
 892:bme280.c      **** 			/* Compensate the humidity data */
 975              		.loc 1 892 0
 976 003a 6B07     		lsls	r3, r5, #29
 977 003c 0FD5     		bpl	.L35
 894:bme280.c      **** 		}
 978              		.loc 1 894 0
 979 003e 3900     		movs	r1, r7
 980 0040 3000     		movs	r0, r6
 981 0042 FFF7FEFF 		bl	compensate_humidity
 982              	.LVL131:
 983 0046 A060     		str	r0, [r4, #8]
 876:bme280.c      **** 
 984              		.loc 1 876 0
 985 0048 0020     		movs	r0, #0
 986 004a 09E0     		b	.L29
ARM GAS  C:\Users\corne\AppData\Local\Temp\cc0fqrF9.s 			page 39


 987              	.LVL132:
 988              	.L32:
 897:bme280.c      **** 	}
 989              		.loc 1 897 0
 990 004c 0120     		movs	r0, #1
 991              	.LVL133:
 992 004e 4042     		rsbs	r0, r0, #0
 993 0050 06E0     		b	.L29
 994              	.LVL134:
 995              	.L33:
 996 0052 0120     		movs	r0, #1
 997              	.LVL135:
 998 0054 4042     		rsbs	r0, r0, #0
 999 0056 03E0     		b	.L29
 1000              	.LVL136:
 1001              	.L34:
 1002 0058 0120     		movs	r0, #1
 1003              	.LVL137:
 1004 005a 4042     		rsbs	r0, r0, #0
 1005 005c 00E0     		b	.L29
 1006              	.LVL138:
 1007              	.L35:
 876:bme280.c      **** 
 1008              		.loc 1 876 0
 1009 005e 0020     		movs	r0, #0
 1010              	.L29:
 1011              	.LVL139:
 901:bme280.c      **** 
 1012              		.loc 1 901 0
 1013              		@ sp needed
 1014              	.LVL140:
 1015              	.LVL141:
 1016              	.LVL142:
 1017 0060 F8BD     		pop	{r3, r4, r5, r6, r7, pc}
 1018              		.cfi_endproc
 1019              	.LFE23:
 1020              		.size	compensate_data, .-compensate_data
 1021 0062 C046     		.section	.text.interleave_reg_addr,"ax",%progbits
 1022              		.align	2
 1023              		.code	16
 1024              		.thumb_func
 1025              		.type	interleave_reg_addr, %function
 1026              	interleave_reg_addr:
 1027              	.LFB28:
1164:bme280.c      **** #endif
1165:bme280.c      **** 
1166:bme280.c      **** /*!
1167:bme280.c      ****  * @brief This internal API reads the calibration data from the sensor, parse
1168:bme280.c      ****  * it and store in the device structure.
1169:bme280.c      ****  */
1170:bme280.c      **** static int8_t get_calib_data( bme280_dev *dev)
1171:bme280.c      **** {
1172:bme280.c      **** 	int8_t rslt;
1173:bme280.c      **** 	uint8_t reg_addr = BME280_TEMP_PRESS_CALIB_DATA_ADDR;
1174:bme280.c      **** 	/* Array to store calibration data */
1175:bme280.c      **** 	uint8_t calib_data[BME280_TEMP_PRESS_CALIB_DATA_LEN] = {0};
1176:bme280.c      **** 
ARM GAS  C:\Users\corne\AppData\Local\Temp\cc0fqrF9.s 			page 40


1177:bme280.c      **** 	/* Read the calibration data from the sensor */
1178:bme280.c      **** 	rslt = bme280_get_regs(reg_addr, calib_data, BME280_TEMP_PRESS_CALIB_DATA_LEN, dev);
1179:bme280.c      **** 
1180:bme280.c      **** 	if (rslt == BME280_OK) {
1181:bme280.c      **** 		/* Parse temperature and pressure calibration data and store
1182:bme280.c      **** 		   it in device structure */
1183:bme280.c      **** 		parse_temp_press_calib_data(calib_data, dev);
1184:bme280.c      **** 
1185:bme280.c      **** 		reg_addr = BME280_HUMIDITY_CALIB_DATA_ADDR;
1186:bme280.c      **** 		/* Read the humidity calibration data from the sensor */
1187:bme280.c      **** 		rslt = bme280_get_regs(reg_addr, calib_data, BME280_HUMIDITY_CALIB_DATA_LEN, dev);
1188:bme280.c      **** 		if (rslt == BME280_OK) {
1189:bme280.c      **** 			/* Parse humidity calibration data and store it in
1190:bme280.c      **** 			   device structure */
1191:bme280.c      **** 			parse_humidity_calib_data(calib_data, dev);
1192:bme280.c      **** 		}
1193:bme280.c      **** 	}
1194:bme280.c      **** 
1195:bme280.c      **** 	return rslt;
1196:bme280.c      **** }
1197:bme280.c      **** 
1198:bme280.c      **** /*!
1199:bme280.c      ****  * @brief This internal API interleaves the register address between the
1200:bme280.c      ****  * register data buffer for burst write operation.
1201:bme280.c      ****  */
1202:bme280.c      **** static void interleave_reg_addr(const uint8_t *reg_addr, uint8_t *temp_buff, const uint8_t *reg_dat
1203:bme280.c      **** {
 1028              		.loc 1 1203 0
 1029              		.cfi_startproc
 1030              		@ args = 0, pretend = 0, frame = 0
 1031              		@ frame_needed = 0, uses_anonymous_args = 0
 1032              	.LVL143:
 1033 0000 F0B5     		push	{r4, r5, r6, r7, lr}
 1034              		.cfi_def_cfa_offset 20
 1035              		.cfi_offset 4, -20
 1036              		.cfi_offset 5, -16
 1037              		.cfi_offset 6, -12
 1038              		.cfi_offset 7, -8
 1039              		.cfi_offset 14, -4
 1040              	.LVL144:
1204:bme280.c      **** 	uint8_t index;
1205:bme280.c      **** 
1206:bme280.c      **** 	for (index = 1; index < len; index++) {
 1041              		.loc 1 1206 0
 1042 0002 0124     		movs	r4, #1
 1043 0004 07E0     		b	.L37
 1044              	.LVL145:
 1045              	.L38:
1207:bme280.c      **** 		temp_buff[(index * 2) - 1] = reg_addr[index];
 1046              		.loc 1 1207 0 discriminator 3
 1047 0006 6500     		lsls	r5, r4, #1
 1048 0008 6E1E     		subs	r6, r5, #1
 1049 000a 075D     		ldrb	r7, [r0, r4]
 1050 000c 8F55     		strb	r7, [r1, r6]
1208:bme280.c      **** 		temp_buff[index * 2] = reg_data[index];
 1051              		.loc 1 1208 0 discriminator 3
 1052 000e 165D     		ldrb	r6, [r2, r4]
ARM GAS  C:\Users\corne\AppData\Local\Temp\cc0fqrF9.s 			page 41


 1053 0010 4E55     		strb	r6, [r1, r5]
1206:bme280.c      **** 		temp_buff[(index * 2) - 1] = reg_addr[index];
 1054              		.loc 1 1206 0 discriminator 3
 1055 0012 0134     		adds	r4, r4, #1
 1056              	.LVL146:
 1057 0014 E4B2     		uxtb	r4, r4
 1058              	.LVL147:
 1059              	.L37:
1206:bme280.c      **** 		temp_buff[(index * 2) - 1] = reg_addr[index];
 1060              		.loc 1 1206 0 is_stmt 0 discriminator 1
 1061 0016 9C42     		cmp	r4, r3
 1062 0018 F5D3     		bcc	.L38
1209:bme280.c      **** 	}
1210:bme280.c      **** }
 1063              		.loc 1 1210 0 is_stmt 1
 1064              		@ sp needed
 1065              	.LVL148:
 1066 001a F0BD     		pop	{r4, r5, r6, r7, pc}
 1067              		.cfi_endproc
 1068              	.LFE28:
 1069              		.size	interleave_reg_addr, .-interleave_reg_addr
 1070              		.section	.text.parse_temp_press_calib_data,"ax",%progbits
 1071              		.align	2
 1072              		.code	16
 1073              		.thumb_func
 1074              		.type	parse_temp_press_calib_data, %function
 1075              	parse_temp_press_calib_data:
 1076              	.LFB29:
1211:bme280.c      **** 
1212:bme280.c      **** /*!
1213:bme280.c      ****  *  @brief This internal API is used to parse the temperature and
1214:bme280.c      ****  *  pressure calibration data and store it in device structure.
1215:bme280.c      ****  */
1216:bme280.c      **** static void parse_temp_press_calib_data(const uint8_t *reg_data,  bme280_dev *dev)
1217:bme280.c      **** {
 1077              		.loc 1 1217 0
 1078              		.cfi_startproc
 1079              		@ args = 0, pretend = 0, frame = 0
 1080              		@ frame_needed = 0, uses_anonymous_args = 0
 1081              		@ link register save eliminated.
 1082              	.LVL149:
1218:bme280.c      **** 	 bme280_calib_data *calib_data = &dev->calib_data;
1219:bme280.c      **** 
1220:bme280.c      **** 	calib_data->dig_T1 = BME280_CONCAT_BYTES(reg_data[1], reg_data[0]);
 1083              		.loc 1 1220 0
 1084 0000 4378     		ldrb	r3, [r0, #1]
 1085 0002 1B02     		lsls	r3, r3, #8
 1086 0004 0278     		ldrb	r2, [r0]
 1087 0006 1343     		orrs	r3, r2
 1088 0008 0B82     		strh	r3, [r1, #16]
1221:bme280.c      **** 	calib_data->dig_T2 = (int16_t)BME280_CONCAT_BYTES(reg_data[3], reg_data[2]);
 1089              		.loc 1 1221 0
 1090 000a C378     		ldrb	r3, [r0, #3]
 1091 000c 1B02     		lsls	r3, r3, #8
 1092 000e 8278     		ldrb	r2, [r0, #2]
 1093 0010 1343     		orrs	r3, r2
 1094 0012 4B82     		strh	r3, [r1, #18]
ARM GAS  C:\Users\corne\AppData\Local\Temp\cc0fqrF9.s 			page 42


1222:bme280.c      **** 	calib_data->dig_T3 = (int16_t)BME280_CONCAT_BYTES(reg_data[5], reg_data[4]);
 1095              		.loc 1 1222 0
 1096 0014 4379     		ldrb	r3, [r0, #5]
 1097 0016 1B02     		lsls	r3, r3, #8
 1098 0018 0279     		ldrb	r2, [r0, #4]
 1099 001a 1343     		orrs	r3, r2
 1100 001c 8B82     		strh	r3, [r1, #20]
1223:bme280.c      **** 	calib_data->dig_P1 = BME280_CONCAT_BYTES(reg_data[7], reg_data[6]);
 1101              		.loc 1 1223 0
 1102 001e C379     		ldrb	r3, [r0, #7]
 1103 0020 1B02     		lsls	r3, r3, #8
 1104 0022 8279     		ldrb	r2, [r0, #6]
 1105 0024 1343     		orrs	r3, r2
 1106 0026 CB82     		strh	r3, [r1, #22]
1224:bme280.c      **** 	calib_data->dig_P2 = (int16_t)BME280_CONCAT_BYTES(reg_data[9], reg_data[8]);
 1107              		.loc 1 1224 0
 1108 0028 437A     		ldrb	r3, [r0, #9]
 1109 002a 1B02     		lsls	r3, r3, #8
 1110 002c 027A     		ldrb	r2, [r0, #8]
 1111 002e 1343     		orrs	r3, r2
 1112 0030 0B83     		strh	r3, [r1, #24]
1225:bme280.c      **** 	calib_data->dig_P3 = (int16_t)BME280_CONCAT_BYTES(reg_data[11], reg_data[10]);
 1113              		.loc 1 1225 0
 1114 0032 C37A     		ldrb	r3, [r0, #11]
 1115 0034 1B02     		lsls	r3, r3, #8
 1116 0036 827A     		ldrb	r2, [r0, #10]
 1117 0038 1343     		orrs	r3, r2
 1118 003a 4B83     		strh	r3, [r1, #26]
1226:bme280.c      **** 	calib_data->dig_P4 = (int16_t)BME280_CONCAT_BYTES(reg_data[13], reg_data[12]);
 1119              		.loc 1 1226 0
 1120 003c 437B     		ldrb	r3, [r0, #13]
 1121 003e 1B02     		lsls	r3, r3, #8
 1122 0040 027B     		ldrb	r2, [r0, #12]
 1123 0042 1343     		orrs	r3, r2
 1124 0044 8B83     		strh	r3, [r1, #28]
1227:bme280.c      **** 	calib_data->dig_P5 = (int16_t)BME280_CONCAT_BYTES(reg_data[15], reg_data[14]);
 1125              		.loc 1 1227 0
 1126 0046 C37B     		ldrb	r3, [r0, #15]
 1127 0048 1B02     		lsls	r3, r3, #8
 1128 004a 827B     		ldrb	r2, [r0, #14]
 1129 004c 1343     		orrs	r3, r2
 1130 004e CB83     		strh	r3, [r1, #30]
1228:bme280.c      **** 	calib_data->dig_P6 = (int16_t)BME280_CONCAT_BYTES(reg_data[17], reg_data[16]);
 1131              		.loc 1 1228 0
 1132 0050 437C     		ldrb	r3, [r0, #17]
 1133 0052 1B02     		lsls	r3, r3, #8
 1134 0054 027C     		ldrb	r2, [r0, #16]
 1135 0056 1343     		orrs	r3, r2
 1136 0058 0B84     		strh	r3, [r1, #32]
1229:bme280.c      **** 	calib_data->dig_P7 = (int16_t)BME280_CONCAT_BYTES(reg_data[19], reg_data[18]);
 1137              		.loc 1 1229 0
 1138 005a C37C     		ldrb	r3, [r0, #19]
 1139 005c 1B02     		lsls	r3, r3, #8
 1140 005e 827C     		ldrb	r2, [r0, #18]
 1141 0060 1343     		orrs	r3, r2
 1142 0062 4B84     		strh	r3, [r1, #34]
1230:bme280.c      **** 	calib_data->dig_P8 = (int16_t)BME280_CONCAT_BYTES(reg_data[21], reg_data[20]);
ARM GAS  C:\Users\corne\AppData\Local\Temp\cc0fqrF9.s 			page 43


 1143              		.loc 1 1230 0
 1144 0064 437D     		ldrb	r3, [r0, #21]
 1145 0066 1B02     		lsls	r3, r3, #8
 1146 0068 027D     		ldrb	r2, [r0, #20]
 1147 006a 1343     		orrs	r3, r2
 1148 006c 8B84     		strh	r3, [r1, #36]
1231:bme280.c      **** 	calib_data->dig_P9 = (int16_t)BME280_CONCAT_BYTES(reg_data[23], reg_data[22]);
 1149              		.loc 1 1231 0
 1150 006e C37D     		ldrb	r3, [r0, #23]
 1151 0070 1B02     		lsls	r3, r3, #8
 1152 0072 827D     		ldrb	r2, [r0, #22]
 1153 0074 1343     		orrs	r3, r2
 1154 0076 CB84     		strh	r3, [r1, #38]
1232:bme280.c      **** 	calib_data->dig_H1 = reg_data[25];
 1155              		.loc 1 1232 0
 1156 0078 427E     		ldrb	r2, [r0, #25]
 1157 007a 2823     		movs	r3, #40
 1158 007c CA54     		strb	r2, [r1, r3]
1233:bme280.c      **** 
1234:bme280.c      **** }
 1159              		.loc 1 1234 0
 1160              		@ sp needed
 1161 007e 7047     		bx	lr
 1162              		.cfi_endproc
 1163              	.LFE29:
 1164              		.size	parse_temp_press_calib_data, .-parse_temp_press_calib_data
 1165              		.section	.text.parse_humidity_calib_data,"ax",%progbits
 1166              		.align	2
 1167              		.code	16
 1168              		.thumb_func
 1169              		.type	parse_humidity_calib_data, %function
 1170              	parse_humidity_calib_data:
 1171              	.LFB30:
1235:bme280.c      **** 
1236:bme280.c      **** /*!
1237:bme280.c      ****  *  @brief This internal API is used to parse the humidity calibration data
1238:bme280.c      ****  *  and store it in device structure.
1239:bme280.c      ****  */
1240:bme280.c      **** static void parse_humidity_calib_data(const uint8_t *reg_data,  bme280_dev *dev)
1241:bme280.c      **** {
 1172              		.loc 1 1241 0
 1173              		.cfi_startproc
 1174              		@ args = 0, pretend = 0, frame = 0
 1175              		@ frame_needed = 0, uses_anonymous_args = 0
 1176              	.LVL150:
 1177 0000 10B5     		push	{r4, lr}
 1178              		.cfi_def_cfa_offset 8
 1179              		.cfi_offset 4, -8
 1180              		.cfi_offset 14, -4
 1181              	.LVL151:
1242:bme280.c      **** 	 bme280_calib_data *calib_data = &dev->calib_data;
1243:bme280.c      **** 	int16_t dig_H4_lsb;
1244:bme280.c      **** 	int16_t dig_H4_msb;
1245:bme280.c      **** 	int16_t dig_H5_lsb;
1246:bme280.c      **** 	int16_t dig_H5_msb;
1247:bme280.c      **** 
1248:bme280.c      **** 	calib_data->dig_H2 = (int16_t)BME280_CONCAT_BYTES(reg_data[1], reg_data[0]);
ARM GAS  C:\Users\corne\AppData\Local\Temp\cc0fqrF9.s 			page 44


 1182              		.loc 1 1248 0
 1183 0002 4378     		ldrb	r3, [r0, #1]
 1184 0004 1B02     		lsls	r3, r3, #8
 1185 0006 0278     		ldrb	r2, [r0]
 1186 0008 1343     		orrs	r3, r2
 1187 000a 4B85     		strh	r3, [r1, #42]
1249:bme280.c      **** 	calib_data->dig_H3 = reg_data[2];
 1188              		.loc 1 1249 0
 1189 000c 8278     		ldrb	r2, [r0, #2]
 1190 000e 2C23     		movs	r3, #44
 1191 0010 CA54     		strb	r2, [r1, r3]
1250:bme280.c      **** 
1251:bme280.c      **** 	dig_H4_msb = (int16_t)(int8_t)reg_data[3] * 16;
 1192              		.loc 1 1251 0
 1193 0012 0323     		movs	r3, #3
 1194 0014 C356     		ldrsb	r3, [r0, r3]
 1195 0016 1C01     		lsls	r4, r3, #4
 1196              	.LVL152:
1252:bme280.c      **** 	dig_H4_lsb = (int16_t)(reg_data[4] & 0x0F);
 1197              		.loc 1 1252 0
 1198 0018 0279     		ldrb	r2, [r0, #4]
 1199 001a 0F23     		movs	r3, #15
 1200 001c 1340     		ands	r3, r2
 1201              	.LVL153:
1253:bme280.c      **** 	calib_data->dig_H4 = dig_H4_msb | dig_H4_lsb;
 1202              		.loc 1 1253 0
 1203 001e 2343     		orrs	r3, r4
 1204              	.LVL154:
 1205 0020 CB85     		strh	r3, [r1, #46]
1254:bme280.c      **** 
1255:bme280.c      **** 	dig_H5_msb = (int16_t)(int8_t)reg_data[5] * 16;
 1206              		.loc 1 1255 0
 1207 0022 0523     		movs	r3, #5
 1208 0024 C356     		ldrsb	r3, [r0, r3]
 1209 0026 1A01     		lsls	r2, r3, #4
 1210              	.LVL155:
1256:bme280.c      **** 	dig_H5_lsb = (int16_t)(reg_data[4] >> 4);
 1211              		.loc 1 1256 0
 1212 0028 0379     		ldrb	r3, [r0, #4]
 1213 002a 1B09     		lsrs	r3, r3, #4
 1214              	.LVL156:
1257:bme280.c      **** 	calib_data->dig_H5 = dig_H5_msb | dig_H5_lsb;
 1215              		.loc 1 1257 0
 1216 002c 1343     		orrs	r3, r2
 1217              	.LVL157:
 1218 002e 0B86     		strh	r3, [r1, #48]
 1219              	.LVL158:
1258:bme280.c      **** 	calib_data->dig_H6 = (int8_t)reg_data[6];
 1220              		.loc 1 1258 0
 1221 0030 0622     		movs	r2, #6
 1222              	.LVL159:
 1223 0032 8256     		ldrsb	r2, [r0, r2]
 1224 0034 3223     		movs	r3, #50
 1225 0036 CA54     		strb	r2, [r1, r3]
1259:bme280.c      **** }
 1226              		.loc 1 1259 0
 1227              		@ sp needed
ARM GAS  C:\Users\corne\AppData\Local\Temp\cc0fqrF9.s 			page 45


 1228              	.LVL160:
 1229 0038 10BD     		pop	{r4, pc}
 1230              		.cfi_endproc
 1231              	.LFE30:
 1232              		.size	parse_humidity_calib_data, .-parse_humidity_calib_data
 1233 003a C046     		.section	.text.are_settings_changed,"ax",%progbits
 1234              		.align	2
 1235              		.code	16
 1236              		.thumb_func
 1237              		.type	are_settings_changed, %function
 1238              	are_settings_changed:
 1239              	.LFB31:
1260:bme280.c      **** 
1261:bme280.c      **** /*!
1262:bme280.c      ****  * @brief This internal API is used to identify the settings which the user
1263:bme280.c      ****  * wants to modify in the sensor.
1264:bme280.c      ****  */
1265:bme280.c      **** static uint8_t are_settings_changed(uint8_t sub_settings, uint8_t desired_settings)
1266:bme280.c      **** {
 1240              		.loc 1 1266 0
 1241              		.cfi_startproc
 1242              		@ args = 0, pretend = 0, frame = 0
 1243              		@ frame_needed = 0, uses_anonymous_args = 0
 1244              		@ link register save eliminated.
 1245              	.LVL161:
1267:bme280.c      **** 	uint8_t settings_changed = FALSE;
1268:bme280.c      **** 
1269:bme280.c      **** 	if (sub_settings & desired_settings) {
 1246              		.loc 1 1269 0
 1247 0000 0142     		tst	r1, r0
 1248 0002 01D0     		beq	.L43
1270:bme280.c      **** 		/* User wants to modify this particular settings */
1271:bme280.c      **** 		settings_changed = TRUE;
 1249              		.loc 1 1271 0
 1250 0004 0120     		movs	r0, #1
 1251              	.LVL162:
 1252 0006 00E0     		b	.L42
 1253              	.LVL163:
 1254              	.L43:
1272:bme280.c      **** 	} else {
1273:bme280.c      **** 		/* User don't want to modify this particular settings */
1274:bme280.c      **** 		settings_changed = FALSE;
 1255              		.loc 1 1274 0
 1256 0008 0020     		movs	r0, #0
 1257              	.LVL164:
 1258              	.L42:
1275:bme280.c      **** 	}
1276:bme280.c      **** 
1277:bme280.c      **** 	return settings_changed;
1278:bme280.c      **** }
 1259              		.loc 1 1278 0
 1260              		@ sp needed
 1261 000a 7047     		bx	lr
 1262              		.cfi_endproc
 1263              	.LFE31:
 1264              		.size	are_settings_changed, .-are_settings_changed
 1265              		.section	.text.null_ptr_check,"ax",%progbits
ARM GAS  C:\Users\corne\AppData\Local\Temp\cc0fqrF9.s 			page 46


 1266              		.align	2
 1267              		.code	16
 1268              		.thumb_func
 1269              		.type	null_ptr_check, %function
 1270              	null_ptr_check:
 1271              	.LFB32:
1279:bme280.c      **** 
1280:bme280.c      **** /*!
1281:bme280.c      ****  * @brief This internal API is used to validate the device structure pointer for
1282:bme280.c      ****  * null conditions.
1283:bme280.c      ****  */
1284:bme280.c      **** static int8_t null_ptr_check(const  bme280_dev *dev)
1285:bme280.c      **** {
 1272              		.loc 1 1285 0
 1273              		.cfi_startproc
 1274              		@ args = 0, pretend = 0, frame = 0
 1275              		@ frame_needed = 0, uses_anonymous_args = 0
 1276              		@ link register save eliminated.
 1277              	.LVL165:
1286:bme280.c      **** 	int8_t rslt;
1287:bme280.c      **** 
1288:bme280.c      **** 	if ((dev == NULL) || (dev->read == NULL) || (dev->write == NULL) || (dev->delay_ms == NULL)) {
 1278              		.loc 1 1288 0
 1279 0000 0028     		cmp	r0, #0
 1280 0002 0BD0     		beq	.L46
 1281              		.loc 1 1288 0 is_stmt 0 discriminator 1
 1282 0004 4368     		ldr	r3, [r0, #4]
 1283 0006 002B     		cmp	r3, #0
 1284 0008 0BD0     		beq	.L47
 1285              		.loc 1 1288 0 discriminator 2
 1286 000a 8368     		ldr	r3, [r0, #8]
 1287 000c 002B     		cmp	r3, #0
 1288 000e 0BD0     		beq	.L48
 1289              		.loc 1 1288 0 discriminator 3
 1290 0010 C368     		ldr	r3, [r0, #12]
 1291 0012 002B     		cmp	r3, #0
 1292 0014 0BD1     		bne	.L49
1289:bme280.c      **** 		/* Device structure pointer is not valid */
1290:bme280.c      **** 		rslt = BME280_E_NULL_PTR;
 1293              		.loc 1 1290 0 is_stmt 1
 1294 0016 0120     		movs	r0, #1
 1295              	.LVL166:
 1296 0018 4042     		rsbs	r0, r0, #0
 1297 001a 09E0     		b	.L45
 1298              	.LVL167:
 1299              	.L46:
 1300 001c 0120     		movs	r0, #1
 1301              	.LVL168:
 1302 001e 4042     		rsbs	r0, r0, #0
 1303 0020 06E0     		b	.L45
 1304              	.LVL169:
 1305              	.L47:
 1306 0022 0120     		movs	r0, #1
 1307              	.LVL170:
 1308 0024 4042     		rsbs	r0, r0, #0
 1309 0026 03E0     		b	.L45
 1310              	.LVL171:
ARM GAS  C:\Users\corne\AppData\Local\Temp\cc0fqrF9.s 			page 47


 1311              	.L48:
 1312 0028 0120     		movs	r0, #1
 1313              	.LVL172:
 1314 002a 4042     		rsbs	r0, r0, #0
 1315 002c 00E0     		b	.L45
 1316              	.LVL173:
 1317              	.L49:
1291:bme280.c      **** 	} else {
1292:bme280.c      **** 		/* Device structure is fine */
1293:bme280.c      **** 		rslt = BME280_OK;
 1318              		.loc 1 1293 0
 1319 002e 0020     		movs	r0, #0
 1320              	.LVL174:
 1321              	.L45:
1294:bme280.c      **** 	}
1295:bme280.c      **** 
1296:bme280.c      **** 	return rslt;
1297:bme280.c      **** }
 1322              		.loc 1 1297 0
 1323              		@ sp needed
 1324 0030 7047     		bx	lr
 1325              		.cfi_endproc
 1326              	.LFE32:
 1327              		.size	null_ptr_check, .-null_ptr_check
 1328 0032 C046     		.section	.text.bme280_get_regs,"ax",%progbits
 1329              		.align	2
 1330              		.global	bme280_get_regs
 1331              		.code	16
 1332              		.thumb_func
 1333              		.type	bme280_get_regs, %function
 1334              	bme280_get_regs:
 1335              	.LFB2:
 421:bme280.c      **** 	int8_t rslt;
 1336              		.loc 1 421 0
 1337              		.cfi_startproc
 1338              		@ args = 0, pretend = 0, frame = 8
 1339              		@ frame_needed = 0, uses_anonymous_args = 0
 1340              	.LVL175:
 1341 0000 F0B5     		push	{r4, r5, r6, r7, lr}
 1342              		.cfi_def_cfa_offset 20
 1343              		.cfi_offset 4, -20
 1344              		.cfi_offset 5, -16
 1345              		.cfi_offset 6, -12
 1346              		.cfi_offset 7, -8
 1347              		.cfi_offset 14, -4
 1348 0002 83B0     		sub	sp, sp, #12
 1349              		.cfi_def_cfa_offset 32
 1350 0004 0400     		movs	r4, r0
 1351 0006 0191     		str	r1, [sp, #4]
 1352 0008 1600     		movs	r6, r2
 1353 000a 1F00     		movs	r7, r3
 425:bme280.c      **** 	/* Proceed if null check is fine */
 1354              		.loc 1 425 0
 1355 000c 1800     		movs	r0, r3
 1356              	.LVL176:
 1357 000e FFF7FEFF 		bl	null_ptr_check
 1358              	.LVL177:
ARM GAS  C:\Users\corne\AppData\Local\Temp\cc0fqrF9.s 			page 48


 427:bme280.c      **** 		/* If interface selected is SPI */
 1359              		.loc 1 427 0
 1360 0012 0028     		cmp	r0, #0
 1361 0014 10D1     		bne	.L51
 429:bme280.c      **** 			reg_addr = reg_addr | 0x80;
 1362              		.loc 1 429 0
 1363 0016 BB78     		ldrb	r3, [r7, #2]
 1364 0018 012B     		cmp	r3, #1
 1365 001a 03D0     		beq	.L52
 430:bme280.c      **** 		/* Read the data  */
 1366              		.loc 1 430 0
 1367 001c 8023     		movs	r3, #128
 1368 001e 5B42     		rsbs	r3, r3, #0
 1369 0020 1C43     		orrs	r4, r3
 1370 0022 E4B2     		uxtb	r4, r4
 1371              	.LVL178:
 1372              	.L52:
 432:bme280.c      **** 		/* Check for communication error */
 1373              		.loc 1 432 0
 1374 0024 7D68     		ldr	r5, [r7, #4]
 1375 0026 7878     		ldrb	r0, [r7, #1]
 1376              	.LVL179:
 1377 0028 3300     		movs	r3, r6
 1378 002a 019A     		ldr	r2, [sp, #4]
 1379 002c 2100     		movs	r1, r4
 1380 002e A847     		blx	r5
 1381              	.LVL180:
 434:bme280.c      **** 			rslt = BME280_E_COMM_FAIL;
 1382              		.loc 1 434 0
 1383 0030 0028     		cmp	r0, #0
 1384 0032 01D0     		beq	.L51
 435:bme280.c      **** 	}
 1385              		.loc 1 435 0
 1386 0034 0420     		movs	r0, #4
 1387              	.LVL181:
 1388 0036 4042     		rsbs	r0, r0, #0
 1389              	.LVL182:
 1390              	.L51:
 439:bme280.c      **** 
 1391              		.loc 1 439 0
 1392 0038 03B0     		add	sp, sp, #12
 1393              		@ sp needed
 1394              	.LVL183:
 1395 003a F0BD     		pop	{r4, r5, r6, r7, pc}
 1396              		.cfi_endproc
 1397              	.LFE2:
 1398              		.size	bme280_get_regs, .-bme280_get_regs
 1399              		.section	.text.get_calib_data,"ax",%progbits
 1400              		.align	2
 1401              		.code	16
 1402              		.thumb_func
 1403              		.type	get_calib_data, %function
 1404              	get_calib_data:
 1405              	.LFB27:
1171:bme280.c      **** 	int8_t rslt;
 1406              		.loc 1 1171 0
 1407              		.cfi_startproc
ARM GAS  C:\Users\corne\AppData\Local\Temp\cc0fqrF9.s 			page 49


 1408              		@ args = 0, pretend = 0, frame = 32
 1409              		@ frame_needed = 0, uses_anonymous_args = 0
 1410              	.LVL184:
 1411 0000 30B5     		push	{r4, r5, lr}
 1412              		.cfi_def_cfa_offset 12
 1413              		.cfi_offset 4, -12
 1414              		.cfi_offset 5, -8
 1415              		.cfi_offset 14, -4
 1416 0002 89B0     		sub	sp, sp, #36
 1417              		.cfi_def_cfa_offset 48
 1418 0004 0500     		movs	r5, r0
 1419              	.LVL185:
1175:bme280.c      **** 
 1420              		.loc 1 1175 0
 1421 0006 1A22     		movs	r2, #26
 1422 0008 0021     		movs	r1, #0
 1423 000a 01A8     		add	r0, sp, #4
 1424              	.LVL186:
 1425 000c FFF7FEFF 		bl	memset
 1426              	.LVL187:
1178:bme280.c      **** 
 1427              		.loc 1 1178 0
 1428 0010 2B00     		movs	r3, r5
 1429 0012 1A22     		movs	r2, #26
 1430 0014 01A9     		add	r1, sp, #4
 1431 0016 8820     		movs	r0, #136
 1432 0018 FFF7FEFF 		bl	bme280_get_regs
 1433              	.LVL188:
 1434 001c 041E     		subs	r4, r0, #0
 1435              	.LVL189:
1180:bme280.c      **** 		/* Parse temperature and pressure calibration data and store
 1436              		.loc 1 1180 0
 1437 001e 0FD1     		bne	.L55
1183:bme280.c      **** 
 1438              		.loc 1 1183 0
 1439 0020 2900     		movs	r1, r5
 1440 0022 01A8     		add	r0, sp, #4
 1441              	.LVL190:
 1442 0024 FFF7FEFF 		bl	parse_temp_press_calib_data
 1443              	.LVL191:
1187:bme280.c      **** 		if (rslt == BME280_OK) {
 1444              		.loc 1 1187 0
 1445 0028 2B00     		movs	r3, r5
 1446 002a 0722     		movs	r2, #7
 1447 002c 01A9     		add	r1, sp, #4
 1448 002e E120     		movs	r0, #225
 1449 0030 FFF7FEFF 		bl	bme280_get_regs
 1450              	.LVL192:
 1451 0034 041E     		subs	r4, r0, #0
 1452              	.LVL193:
1188:bme280.c      **** 			/* Parse humidity calibration data and store it in
 1453              		.loc 1 1188 0
 1454 0036 03D1     		bne	.L55
1191:bme280.c      **** 		}
 1455              		.loc 1 1191 0
 1456 0038 2900     		movs	r1, r5
 1457 003a 01A8     		add	r0, sp, #4
ARM GAS  C:\Users\corne\AppData\Local\Temp\cc0fqrF9.s 			page 50


 1458              	.LVL194:
 1459 003c FFF7FEFF 		bl	parse_humidity_calib_data
 1460              	.LVL195:
 1461              	.L55:
1196:bme280.c      **** 
 1462              		.loc 1 1196 0
 1463 0040 2000     		movs	r0, r4
 1464 0042 09B0     		add	sp, sp, #36
 1465              		@ sp needed
 1466              	.LVL196:
 1467              	.LVL197:
 1468 0044 30BD     		pop	{r4, r5, pc}
 1469              		.cfi_endproc
 1470              	.LFE27:
 1471              		.size	get_calib_data, .-get_calib_data
 1472 0046 C046     		.section	.text.bme280_set_regs,"ax",%progbits
 1473              		.align	2
 1474              		.global	bme280_set_regs
 1475              		.code	16
 1476              		.thumb_func
 1477              		.type	bme280_set_regs, %function
 1478              	bme280_set_regs:
 1479              	.LFB3:
 446:bme280.c      **** 	int8_t rslt;
 1480              		.loc 1 446 0
 1481              		.cfi_startproc
 1482              		@ args = 0, pretend = 0, frame = 8
 1483              		@ frame_needed = 1, uses_anonymous_args = 0
 1484              	.LVL198:
 1485 0000 F0B5     		push	{r4, r5, r6, r7, lr}
 1486              		.cfi_def_cfa_offset 20
 1487              		.cfi_offset 4, -20
 1488              		.cfi_offset 5, -16
 1489              		.cfi_offset 6, -12
 1490              		.cfi_offset 7, -8
 1491              		.cfi_offset 14, -4
 1492 0002 4F46     		mov	r7, r9
 1493 0004 80B4     		push	{r7}
 1494              		.cfi_def_cfa_offset 24
 1495              		.cfi_offset 9, -24
 1496 0006 82B0     		sub	sp, sp, #8
 1497              		.cfi_def_cfa_offset 32
 1498 0008 00AF     		add	r7, sp, #0
 1499              		.cfi_def_cfa_register 7
 1500 000a 0600     		movs	r6, r0
 1501 000c 8946     		mov	r9, r1
 1502 000e 1500     		movs	r5, r2
 1503 0010 1C00     		movs	r4, r3
 448:bme280.c      **** 	uint16_t temp_len;
 1504              		.loc 1 448 0
 1505 0012 5300     		lsls	r3, r2, #1
 1506              	.LVL199:
 1507 0014 0733     		adds	r3, r3, #7
 1508              	.LVL200:
 1509 0016 DB08     		lsrs	r3, r3, #3
 1510              	.LVL201:
 1511 0018 DB00     		lsls	r3, r3, #3
ARM GAS  C:\Users\corne\AppData\Local\Temp\cc0fqrF9.s 			page 51


 1512 001a 6A46     		mov	r2, sp
 1513              	.LVL202:
 1514 001c D31A     		subs	r3, r2, r3
 1515 001e 9D46     		mov	sp, r3
 1516 0020 7B60     		str	r3, [r7, #4]
 1517              	.LVL203:
 453:bme280.c      **** 	/* Check for arguments validity */
 1518              		.loc 1 453 0
 1519 0022 2000     		movs	r0, r4
 1520              	.LVL204:
 1521 0024 FFF7FEFF 		bl	null_ptr_check
 1522              	.LVL205:
 455:bme280.c      **** 		if (len != 0) {
 1523              		.loc 1 455 0
 1524 0028 0028     		cmp	r0, #0
 1525 002a 2BD1     		bne	.L63
 455:bme280.c      **** 		if (len != 0) {
 1526              		.loc 1 455 0 is_stmt 0 discriminator 1
 1527 002c 002E     		cmp	r6, #0
 1528 002e 2CD0     		beq	.L64
 455:bme280.c      **** 		if (len != 0) {
 1529              		.loc 1 455 0 discriminator 2
 1530 0030 4946     		mov	r1, r9
 1531 0032 0029     		cmp	r1, #0
 1532 0034 2CD0     		beq	.L65
 456:bme280.c      **** 			temp_buff[0] = reg_data[0];
 1533              		.loc 1 456 0 is_stmt 1
 1534 0036 002D     		cmp	r5, #0
 1535 0038 2DD0     		beq	.L66
 457:bme280.c      **** 			/* If interface selected is SPI */
 1536              		.loc 1 457 0
 1537 003a 0B78     		ldrb	r3, [r1]
 1538 003c 7A68     		ldr	r2, [r7, #4]
 1539 003e 1370     		strb	r3, [r2]
 459:bme280.c      **** 				for (reg_addr_cnt = 0; reg_addr_cnt < len; reg_addr_cnt++)
 1540              		.loc 1 459 0
 1541 0040 A378     		ldrb	r3, [r4, #2]
 1542 0042 012B     		cmp	r3, #1
 1543 0044 08D1     		bne	.L67
 1544 0046 0AE0     		b	.L59
 1545              	.LVL206:
 1546              	.L60:
 461:bme280.c      **** 			}
 1547              		.loc 1 461 0 discriminator 3
 1548 0048 B118     		adds	r1, r6, r2
 1549 004a 0B78     		ldrb	r3, [r1]
 1550 004c 7F20     		movs	r0, #127
 1551 004e 0340     		ands	r3, r0
 1552 0050 0B70     		strb	r3, [r1]
 460:bme280.c      **** 					reg_addr[reg_addr_cnt] = reg_addr[reg_addr_cnt] & 0x7F;
 1553              		.loc 1 460 0 discriminator 3
 1554 0052 0132     		adds	r2, r2, #1
 1555              	.LVL207:
 1556 0054 D2B2     		uxtb	r2, r2
 1557              	.LVL208:
 1558 0056 00E0     		b	.L58
 1559              	.LVL209:
ARM GAS  C:\Users\corne\AppData\Local\Temp\cc0fqrF9.s 			page 52


 1560              	.L67:
 1561 0058 0022     		movs	r2, #0
 1562              	.LVL210:
 1563              	.L58:
 460:bme280.c      **** 					reg_addr[reg_addr_cnt] = reg_addr[reg_addr_cnt] & 0x7F;
 1564              		.loc 1 460 0 is_stmt 0 discriminator 1
 1565 005a AA42     		cmp	r2, r5
 1566 005c F4D3     		bcc	.L60
 1567              	.LVL211:
 1568              	.L59:
 464:bme280.c      **** 				/* Interleave register address w.r.t data for
 1569              		.loc 1 464 0 is_stmt 1
 1570 005e 012D     		cmp	r5, #1
 1571 0060 07D9     		bls	.L61
 467:bme280.c      **** 				temp_len = len * 2;
 1572              		.loc 1 467 0
 1573 0062 2B00     		movs	r3, r5
 1574 0064 4A46     		mov	r2, r9
 1575 0066 7968     		ldr	r1, [r7, #4]
 1576 0068 3000     		movs	r0, r6
 1577 006a FFF7FEFF 		bl	interleave_reg_addr
 1578              	.LVL212:
 468:bme280.c      **** 			} else {
 1579              		.loc 1 468 0
 1580 006e 6B00     		lsls	r3, r5, #1
 1581              	.LVL213:
 1582 0070 00E0     		b	.L62
 1583              	.LVL214:
 1584              	.L61:
 470:bme280.c      **** 			}
 1585              		.loc 1 470 0
 1586 0072 ABB2     		uxth	r3, r5
 1587              	.LVL215:
 1588              	.L62:
 472:bme280.c      **** 			/* Check for communication error */
 1589              		.loc 1 472 0
 1590 0074 A568     		ldr	r5, [r4, #8]
 1591              	.LVL216:
 1592 0076 6078     		ldrb	r0, [r4, #1]
 1593 0078 3178     		ldrb	r1, [r6]
 1594 007a 7A68     		ldr	r2, [r7, #4]
 1595 007c A847     		blx	r5
 1596              	.LVL217:
 474:bme280.c      **** 				rslt = BME280_E_COMM_FAIL;
 1597              		.loc 1 474 0
 1598 007e 0028     		cmp	r0, #0
 1599 0080 0ED0     		beq	.L57
 1600 0082 0BE0     		b	.L68
 1601              	.LVL218:
 1602              	.L63:
 480:bme280.c      **** 	}
 1603              		.loc 1 480 0
 1604 0084 0120     		movs	r0, #1
 1605              	.LVL219:
 1606 0086 4042     		rsbs	r0, r0, #0
 1607 0088 0AE0     		b	.L57
 1608              	.LVL220:
ARM GAS  C:\Users\corne\AppData\Local\Temp\cc0fqrF9.s 			page 53


 1609              	.L64:
 1610 008a 0120     		movs	r0, #1
 1611              	.LVL221:
 1612 008c 4042     		rsbs	r0, r0, #0
 1613 008e 07E0     		b	.L57
 1614              	.LVL222:
 1615              	.L65:
 1616 0090 0120     		movs	r0, #1
 1617              	.LVL223:
 1618 0092 4042     		rsbs	r0, r0, #0
 1619 0094 04E0     		b	.L57
 1620              	.LVL224:
 1621              	.L66:
 477:bme280.c      **** 		}
 1622              		.loc 1 477 0
 1623 0096 0320     		movs	r0, #3
 1624              	.LVL225:
 1625 0098 4042     		rsbs	r0, r0, #0
 1626 009a 01E0     		b	.L57
 1627              	.LVL226:
 1628              	.L68:
 475:bme280.c      **** 		} else {
 1629              		.loc 1 475 0
 1630 009c 0420     		movs	r0, #4
 1631              	.LVL227:
 1632 009e 4042     		rsbs	r0, r0, #0
 1633              	.L57:
 1634              	.LVL228:
 485:bme280.c      **** 
 1635              		.loc 1 485 0
 1636 00a0 BD46     		mov	sp, r7
 1637              	.LVL229:
 1638 00a2 02B0     		add	sp, sp, #8
 1639              		@ sp needed
 1640              	.LVL230:
 1641              	.LVL231:
 1642              	.LVL232:
 1643              	.LVL233:
 1644 00a4 04BC     		pop	{r2}
 1645 00a6 9146     		mov	r9, r2
 1646 00a8 F0BD     		pop	{r4, r5, r6, r7, pc}
 1647              		.cfi_endproc
 1648              	.LFE3:
 1649              		.size	bme280_set_regs, .-bme280_set_regs
 1650 00aa C046     		.section	.text.set_osr_humidity_settings,"ax",%progbits
 1651              		.align	2
 1652              		.code	16
 1653              		.thumb_func
 1654              		.type	set_osr_humidity_settings, %function
 1655              	set_osr_humidity_settings:
 1656              	.LFB11:
 662:bme280.c      **** 	int8_t rslt;
 1657              		.loc 1 662 0
 1658              		.cfi_startproc
 1659              		@ args = 0, pretend = 0, frame = 8
 1660              		@ frame_needed = 0, uses_anonymous_args = 0
 1661              	.LVL234:
ARM GAS  C:\Users\corne\AppData\Local\Temp\cc0fqrF9.s 			page 54


 1662 0000 10B5     		push	{r4, lr}
 1663              		.cfi_def_cfa_offset 8
 1664              		.cfi_offset 4, -8
 1665              		.cfi_offset 14, -4
 1666 0002 82B0     		sub	sp, sp, #8
 1667              		.cfi_def_cfa_offset 16
 1668 0004 0300     		movs	r3, r0
 1669 0006 0C00     		movs	r4, r1
 666:bme280.c      **** 
 1670              		.loc 1 666 0
 1671 0008 6A46     		mov	r2, sp
 1672 000a 501D     		adds	r0, r2, #5
 1673              	.LVL235:
 1674 000c F222     		movs	r2, #242
 1675 000e 0270     		strb	r2, [r0]
 668:bme280.c      **** 	/* Write the humidity control value in the register */
 1676              		.loc 1 668 0
 1677 0010 9B78     		ldrb	r3, [r3, #2]
 1678              	.LVL236:
 1679 0012 6A46     		mov	r2, sp
 1680 0014 D11D     		adds	r1, r2, #7
 1681              	.LVL237:
 1682 0016 0722     		movs	r2, #7
 1683 0018 1340     		ands	r3, r2
 1684 001a 0B70     		strb	r3, [r1]
 670:bme280.c      **** 	/* Humidity related changes will be only effective after a
 1685              		.loc 1 670 0
 1686 001c 2300     		movs	r3, r4
 1687 001e 063A     		subs	r2, r2, #6
 1688 0020 FFF7FEFF 		bl	bme280_set_regs
 1689              	.LVL238:
 673:bme280.c      **** 		reg_addr = BME280_CTRL_MEAS_ADDR;
 1690              		.loc 1 673 0
 1691 0024 0028     		cmp	r0, #0
 1692 0026 13D1     		bne	.L70
 674:bme280.c      **** 		rslt = bme280_get_regs(reg_addr, &ctrl_meas, 1, dev);
 1693              		.loc 1 674 0
 1694 0028 F422     		movs	r2, #244
 1695 002a 6B46     		mov	r3, sp
 1696 002c 5A71     		strb	r2, [r3, #5]
 675:bme280.c      **** 		if (rslt == BME280_OK)
 1697              		.loc 1 675 0
 1698 002e 2300     		movs	r3, r4
 1699 0030 F33A     		subs	r2, r2, #243
 1700 0032 6946     		mov	r1, sp
 1701 0034 0631     		adds	r1, r1, #6
 1702 0036 F430     		adds	r0, r0, #244
 1703              	.LVL239:
 1704 0038 FFF7FEFF 		bl	bme280_get_regs
 1705              	.LVL240:
 676:bme280.c      **** 			rslt = bme280_set_regs(&reg_addr, &ctrl_meas, 1, dev);
 1706              		.loc 1 676 0
 1707 003c 0028     		cmp	r0, #0
 1708 003e 07D1     		bne	.L70
 677:bme280.c      **** 	}
 1709              		.loc 1 677 0
 1710 0040 2300     		movs	r3, r4
ARM GAS  C:\Users\corne\AppData\Local\Temp\cc0fqrF9.s 			page 55


 1711 0042 0122     		movs	r2, #1
 1712 0044 6946     		mov	r1, sp
 1713 0046 0631     		adds	r1, r1, #6
 1714 0048 6846     		mov	r0, sp
 1715              	.LVL241:
 1716 004a 0530     		adds	r0, r0, #5
 1717 004c FFF7FEFF 		bl	bme280_set_regs
 1718              	.LVL242:
 1719              	.L70:
 681:bme280.c      **** 
 1720              		.loc 1 681 0
 1721 0050 02B0     		add	sp, sp, #8
 1722              		@ sp needed
 1723              	.LVL243:
 1724 0052 10BD     		pop	{r4, pc}
 1725              		.cfi_endproc
 1726              	.LFE11:
 1727              		.size	set_osr_humidity_settings, .-set_osr_humidity_settings
 1728              		.section	.text.set_osr_press_temp_settings,"ax",%progbits
 1729              		.align	2
 1730              		.code	16
 1731              		.thumb_func
 1732              		.type	set_osr_press_temp_settings, %function
 1733              	set_osr_press_temp_settings:
 1734              	.LFB12:
 689:bme280.c      **** 	int8_t rslt;
 1735              		.loc 1 689 0
 1736              		.cfi_startproc
 1737              		@ args = 0, pretend = 0, frame = 8
 1738              		@ frame_needed = 0, uses_anonymous_args = 0
 1739              	.LVL244:
 1740 0000 70B5     		push	{r4, r5, r6, lr}
 1741              		.cfi_def_cfa_offset 16
 1742              		.cfi_offset 4, -16
 1743              		.cfi_offset 5, -12
 1744              		.cfi_offset 6, -8
 1745              		.cfi_offset 14, -4
 1746 0002 82B0     		sub	sp, sp, #8
 1747              		.cfi_def_cfa_offset 24
 1748 0004 0600     		movs	r6, r0
 1749 0006 0D00     		movs	r5, r1
 1750 0008 1400     		movs	r4, r2
 691:bme280.c      **** 	uint8_t reg_data;
 1751              		.loc 1 691 0
 1752 000a F422     		movs	r2, #244
 1753              	.LVL245:
 1754 000c 6B46     		mov	r3, sp
 1755 000e DA71     		strb	r2, [r3, #7]
 694:bme280.c      **** 
 1756              		.loc 1 694 0
 1757 0010 2300     		movs	r3, r4
 1758 0012 F33A     		subs	r2, r2, #243
 1759 0014 6946     		mov	r1, sp
 1760              	.LVL246:
 1761 0016 0631     		adds	r1, r1, #6
 1762 0018 F420     		movs	r0, #244
 1763              	.LVL247:
ARM GAS  C:\Users\corne\AppData\Local\Temp\cc0fqrF9.s 			page 56


 1764 001a FFF7FEFF 		bl	bme280_get_regs
 1765              	.LVL248:
 696:bme280.c      **** 		if (desired_settings & BME280_OSR_PRESS_SEL)
 1766              		.loc 1 696 0
 1767 001e 0028     		cmp	r0, #0
 1768 0020 15D1     		bne	.L72
 697:bme280.c      **** 			fill_osr_press_settings(&reg_data, settings);
 1769              		.loc 1 697 0
 1770 0022 F307     		lsls	r3, r6, #31
 1771 0024 04D5     		bpl	.L73
 698:bme280.c      **** 		if (desired_settings & BME280_OSR_TEMP_SEL)
 1772              		.loc 1 698 0
 1773 0026 2900     		movs	r1, r5
 1774 0028 6B46     		mov	r3, sp
 1775 002a 981D     		adds	r0, r3, #6
 1776              	.LVL249:
 1777 002c FFF7FEFF 		bl	fill_osr_press_settings
 1778              	.LVL250:
 1779              	.L73:
 699:bme280.c      **** 			fill_osr_temp_settings(&reg_data, settings);
 1780              		.loc 1 699 0
 1781 0030 B307     		lsls	r3, r6, #30
 1782 0032 04D5     		bpl	.L74
 700:bme280.c      **** 		/* Write the oversampling settings in the register */
 1783              		.loc 1 700 0
 1784 0034 2900     		movs	r1, r5
 1785 0036 6B46     		mov	r3, sp
 1786 0038 981D     		adds	r0, r3, #6
 1787 003a FFF7FEFF 		bl	fill_osr_temp_settings
 1788              	.LVL251:
 1789              	.L74:
 702:bme280.c      **** 	}
 1790              		.loc 1 702 0
 1791 003e 2300     		movs	r3, r4
 1792 0040 0122     		movs	r2, #1
 1793 0042 6946     		mov	r1, sp
 1794 0044 0631     		adds	r1, r1, #6
 1795 0046 6846     		mov	r0, sp
 1796 0048 0730     		adds	r0, r0, #7
 1797 004a FFF7FEFF 		bl	bme280_set_regs
 1798              	.LVL252:
 1799              	.L72:
 706:bme280.c      **** 
 1800              		.loc 1 706 0
 1801 004e 02B0     		add	sp, sp, #8
 1802              		@ sp needed
 1803              	.LVL253:
 1804              	.LVL254:
 1805 0050 70BD     		pop	{r4, r5, r6, pc}
 1806              		.cfi_endproc
 1807              	.LFE12:
 1808              		.size	set_osr_press_temp_settings, .-set_osr_press_temp_settings
 1809 0052 C046     		.section	.text.set_osr_settings,"ax",%progbits
 1810              		.align	2
 1811              		.code	16
 1812              		.thumb_func
 1813              		.type	set_osr_settings, %function
ARM GAS  C:\Users\corne\AppData\Local\Temp\cc0fqrF9.s 			page 57


 1814              	set_osr_settings:
 1815              	.LFB10:
 647:bme280.c      **** 	int8_t rslt = BME280_W_INVALID_OSR_MACRO;
 1816              		.loc 1 647 0
 1817              		.cfi_startproc
 1818              		@ args = 0, pretend = 0, frame = 0
 1819              		@ frame_needed = 0, uses_anonymous_args = 0
 1820              	.LVL255:
 1821 0000 70B5     		push	{r4, r5, r6, lr}
 1822              		.cfi_def_cfa_offset 16
 1823              		.cfi_offset 4, -16
 1824              		.cfi_offset 5, -12
 1825              		.cfi_offset 6, -8
 1826              		.cfi_offset 14, -4
 1827 0002 0600     		movs	r6, r0
 1828 0004 0C00     		movs	r4, r1
 1829 0006 1500     		movs	r5, r2
 1830              	.LVL256:
 650:bme280.c      **** 		rslt = set_osr_humidity_settings(settings, dev);
 1831              		.loc 1 650 0
 1832 0008 4307     		lsls	r3, r0, #29
 1833 000a 04D5     		bpl	.L78
 651:bme280.c      **** 	if (desired_settings & (BME280_OSR_PRESS_SEL | BME280_OSR_TEMP_SEL))
 1834              		.loc 1 651 0
 1835 000c 1100     		movs	r1, r2
 1836              	.LVL257:
 1837 000e 2000     		movs	r0, r4
 1838              	.LVL258:
 1839 0010 FFF7FEFF 		bl	set_osr_humidity_settings
 1840              	.LVL259:
 1841 0014 00E0     		b	.L76
 1842              	.LVL260:
 1843              	.L78:
 648:bme280.c      **** 
 1844              		.loc 1 648 0
 1845 0016 0120     		movs	r0, #1
 1846              	.LVL261:
 1847              	.L76:
 652:bme280.c      **** 		rslt = set_osr_press_temp_settings(desired_settings, settings, dev);
 1848              		.loc 1 652 0
 1849 0018 B307     		lsls	r3, r6, #30
 1850 001a 04D0     		beq	.L77
 653:bme280.c      **** 
 1851              		.loc 1 653 0
 1852 001c 2A00     		movs	r2, r5
 1853 001e 2100     		movs	r1, r4
 1854 0020 3000     		movs	r0, r6
 1855              	.LVL262:
 1856 0022 FFF7FEFF 		bl	set_osr_press_temp_settings
 1857              	.LVL263:
 1858              	.L77:
 656:bme280.c      **** 
 1859              		.loc 1 656 0
 1860              		@ sp needed
 1861              	.LVL264:
 1862              	.LVL265:
 1863 0026 70BD     		pop	{r4, r5, r6, pc}
ARM GAS  C:\Users\corne\AppData\Local\Temp\cc0fqrF9.s 			page 58


 1864              		.cfi_endproc
 1865              	.LFE10:
 1866              		.size	set_osr_settings, .-set_osr_settings
 1867              		.section	.text.set_filter_standby_settings,"ax",%progbits
 1868              		.align	2
 1869              		.code	16
 1870              		.thumb_func
 1871              		.type	set_filter_standby_settings, %function
 1872              	set_filter_standby_settings:
 1873              	.LFB13:
 714:bme280.c      **** 	int8_t rslt;
 1874              		.loc 1 714 0
 1875              		.cfi_startproc
 1876              		@ args = 0, pretend = 0, frame = 8
 1877              		@ frame_needed = 0, uses_anonymous_args = 0
 1878              	.LVL266:
 1879 0000 70B5     		push	{r4, r5, r6, lr}
 1880              		.cfi_def_cfa_offset 16
 1881              		.cfi_offset 4, -16
 1882              		.cfi_offset 5, -12
 1883              		.cfi_offset 6, -8
 1884              		.cfi_offset 14, -4
 1885 0002 82B0     		sub	sp, sp, #8
 1886              		.cfi_def_cfa_offset 24
 1887 0004 0600     		movs	r6, r0
 1888 0006 0D00     		movs	r5, r1
 1889 0008 1400     		movs	r4, r2
 716:bme280.c      **** 	uint8_t reg_data;
 1890              		.loc 1 716 0
 1891 000a F522     		movs	r2, #245
 1892              	.LVL267:
 1893 000c 6B46     		mov	r3, sp
 1894 000e DA71     		strb	r2, [r3, #7]
 719:bme280.c      **** 
 1895              		.loc 1 719 0
 1896 0010 2300     		movs	r3, r4
 1897 0012 F43A     		subs	r2, r2, #244
 1898 0014 6946     		mov	r1, sp
 1899              	.LVL268:
 1900 0016 0631     		adds	r1, r1, #6
 1901 0018 F520     		movs	r0, #245
 1902              	.LVL269:
 1903 001a FFF7FEFF 		bl	bme280_get_regs
 1904              	.LVL270:
 721:bme280.c      **** 		if (desired_settings & BME280_FILTER_SEL)
 1905              		.loc 1 721 0
 1906 001e 0028     		cmp	r0, #0
 1907 0020 15D1     		bne	.L80
 722:bme280.c      **** 			fill_filter_settings(&reg_data, settings);
 1908              		.loc 1 722 0
 1909 0022 3307     		lsls	r3, r6, #28
 1910 0024 04D5     		bpl	.L81
 723:bme280.c      **** 		if (desired_settings & BME280_STANDBY_SEL)
 1911              		.loc 1 723 0
 1912 0026 2900     		movs	r1, r5
 1913 0028 6B46     		mov	r3, sp
 1914 002a 981D     		adds	r0, r3, #6
ARM GAS  C:\Users\corne\AppData\Local\Temp\cc0fqrF9.s 			page 59


 1915              	.LVL271:
 1916 002c FFF7FEFF 		bl	fill_filter_settings
 1917              	.LVL272:
 1918              	.L81:
 724:bme280.c      **** 			fill_standby_settings(&reg_data, settings);
 1919              		.loc 1 724 0
 1920 0030 F306     		lsls	r3, r6, #27
 1921 0032 04D5     		bpl	.L82
 725:bme280.c      **** 		/* Write the oversampling settings in the register */
 1922              		.loc 1 725 0
 1923 0034 2900     		movs	r1, r5
 1924 0036 6B46     		mov	r3, sp
 1925 0038 981D     		adds	r0, r3, #6
 1926 003a FFF7FEFF 		bl	fill_standby_settings
 1927              	.LVL273:
 1928              	.L82:
 727:bme280.c      **** 	}
 1929              		.loc 1 727 0
 1930 003e 2300     		movs	r3, r4
 1931 0040 0122     		movs	r2, #1
 1932 0042 6946     		mov	r1, sp
 1933 0044 0631     		adds	r1, r1, #6
 1934 0046 6846     		mov	r0, sp
 1935 0048 0730     		adds	r0, r0, #7
 1936 004a FFF7FEFF 		bl	bme280_set_regs
 1937              	.LVL274:
 1938              	.L80:
 731:bme280.c      **** 
 1939              		.loc 1 731 0
 1940 004e 02B0     		add	sp, sp, #8
 1941              		@ sp needed
 1942              	.LVL275:
 1943              	.LVL276:
 1944 0050 70BD     		pop	{r4, r5, r6, pc}
 1945              		.cfi_endproc
 1946              	.LFE13:
 1947              		.size	set_filter_standby_settings, .-set_filter_standby_settings
 1948 0052 C046     		.section	.text.reload_device_settings,"ax",%progbits
 1949              		.align	2
 1950              		.code	16
 1951              		.thumb_func
 1952              		.type	reload_device_settings, %function
 1953              	reload_device_settings:
 1954              	.LFB21:
 829:bme280.c      **** 	int8_t rslt;
 1955              		.loc 1 829 0
 1956              		.cfi_startproc
 1957              		@ args = 0, pretend = 0, frame = 0
 1958              		@ frame_needed = 0, uses_anonymous_args = 0
 1959              	.LVL277:
 1960 0000 70B5     		push	{r4, r5, r6, lr}
 1961              		.cfi_def_cfa_offset 16
 1962              		.cfi_offset 4, -16
 1963              		.cfi_offset 5, -12
 1964              		.cfi_offset 6, -8
 1965              		.cfi_offset 14, -4
 1966 0002 0400     		movs	r4, r0
ARM GAS  C:\Users\corne\AppData\Local\Temp\cc0fqrF9.s 			page 60


 1967 0004 0D00     		movs	r5, r1
 832:bme280.c      **** 	if (rslt == BME280_OK)
 1968              		.loc 1 832 0
 1969 0006 0A00     		movs	r2, r1
 1970 0008 0100     		movs	r1, r0
 1971              	.LVL278:
 1972 000a 1F20     		movs	r0, #31
 1973              	.LVL279:
 1974 000c FFF7FEFF 		bl	set_osr_settings
 1975              	.LVL280:
 833:bme280.c      **** 		rslt = set_filter_standby_settings(BME280_ALL_SETTINGS_SEL, settings, dev);
 1976              		.loc 1 833 0
 1977 0010 0028     		cmp	r0, #0
 1978 0012 04D1     		bne	.L84
 834:bme280.c      **** 
 1979              		.loc 1 834 0
 1980 0014 2A00     		movs	r2, r5
 1981 0016 2100     		movs	r1, r4
 1982 0018 1F30     		adds	r0, r0, #31
 1983              	.LVL281:
 1984 001a FFF7FEFF 		bl	set_filter_standby_settings
 1985              	.LVL282:
 1986              	.L84:
 837:bme280.c      **** 
 1987              		.loc 1 837 0
 1988              		@ sp needed
 1989              	.LVL283:
 1990              	.LVL284:
 1991 001e 70BD     		pop	{r4, r5, r6, pc}
 1992              		.cfi_endproc
 1993              	.LFE21:
 1994              		.size	reload_device_settings, .-reload_device_settings
 1995              		.section	.text.write_power_mode,"ax",%progbits
 1996              		.align	2
 1997              		.code	16
 1998              		.thumb_func
 1999              		.type	write_power_mode, %function
 2000              	write_power_mode:
 2001              	.LFB19:
 786:bme280.c      **** 	int8_t rslt;
 2002              		.loc 1 786 0
 2003              		.cfi_startproc
 2004              		@ args = 0, pretend = 0, frame = 8
 2005              		@ frame_needed = 0, uses_anonymous_args = 0
 2006              	.LVL285:
 2007 0000 30B5     		push	{r4, r5, lr}
 2008              		.cfi_def_cfa_offset 12
 2009              		.cfi_offset 4, -12
 2010              		.cfi_offset 5, -8
 2011              		.cfi_offset 14, -4
 2012 0002 83B0     		sub	sp, sp, #12
 2013              		.cfi_def_cfa_offset 24
 2014 0004 0400     		movs	r4, r0
 2015 0006 0D00     		movs	r5, r1
 788:bme280.c      **** 	/* Variable to store the value read from power mode register */
 2016              		.loc 1 788 0
 2017 0008 F422     		movs	r2, #244
ARM GAS  C:\Users\corne\AppData\Local\Temp\cc0fqrF9.s 			page 61


 2018 000a 6B46     		mov	r3, sp
 2019 000c DA71     		strb	r2, [r3, #7]
 793:bme280.c      **** 	/* Set the power mode */
 2020              		.loc 1 793 0
 2021 000e 0B00     		movs	r3, r1
 2022 0010 F33A     		subs	r2, r2, #243
 2023 0012 6946     		mov	r1, sp
 2024              	.LVL286:
 2025 0014 0631     		adds	r1, r1, #6
 2026 0016 F420     		movs	r0, #244
 2027              	.LVL287:
 2028 0018 FFF7FEFF 		bl	bme280_get_regs
 2029              	.LVL288:
 795:bme280.c      **** 		sensor_mode_reg_val = BME280_SET_BITS_POS_0(sensor_mode_reg_val, BME280_SENSOR_MODE, sensor_mode)
 2030              		.loc 1 795 0
 2031 001c 0028     		cmp	r0, #0
 2032 001e 0DD1     		bne	.L86
 796:bme280.c      **** 		/* Write the power mode in the register */
 2033              		.loc 1 796 0
 2034 0020 6B46     		mov	r3, sp
 2035 0022 991D     		adds	r1, r3, #6
 2036 0024 0B78     		ldrb	r3, [r1]
 2037 0026 0322     		movs	r2, #3
 2038 0028 9343     		bics	r3, r2
 2039 002a 1440     		ands	r4, r2
 2040 002c 1C43     		orrs	r4, r3
 2041 002e 0C70     		strb	r4, [r1]
 798:bme280.c      **** 	}
 2042              		.loc 1 798 0
 2043 0030 2B00     		movs	r3, r5
 2044 0032 023A     		subs	r2, r2, #2
 2045 0034 6846     		mov	r0, sp
 2046              	.LVL289:
 2047 0036 0730     		adds	r0, r0, #7
 2048 0038 FFF7FEFF 		bl	bme280_set_regs
 2049              	.LVL290:
 2050              	.L86:
 802:bme280.c      **** 
 2051              		.loc 1 802 0
 2052 003c 03B0     		add	sp, sp, #12
 2053              		@ sp needed
 2054              	.LVL291:
 2055 003e 30BD     		pop	{r4, r5, pc}
 2056              		.cfi_endproc
 2057              	.LFE19:
 2058              		.size	write_power_mode, .-write_power_mode
 2059              		.section	.text.bme280_get_sensor_settings,"ax",%progbits
 2060              		.align	2
 2061              		.global	bme280_get_sensor_settings
 2062              		.code	16
 2063              		.thumb_func
 2064              		.type	bme280_get_sensor_settings, %function
 2065              	bme280_get_sensor_settings:
 2066              	.LFB5:
 523:bme280.c      **** 	int8_t rslt;
 2067              		.loc 1 523 0
 2068              		.cfi_startproc
ARM GAS  C:\Users\corne\AppData\Local\Temp\cc0fqrF9.s 			page 62


 2069              		@ args = 0, pretend = 0, frame = 8
 2070              		@ frame_needed = 0, uses_anonymous_args = 0
 2071              	.LVL292:
 2072 0000 30B5     		push	{r4, r5, lr}
 2073              		.cfi_def_cfa_offset 12
 2074              		.cfi_offset 4, -12
 2075              		.cfi_offset 5, -8
 2076              		.cfi_offset 14, -4
 2077 0002 83B0     		sub	sp, sp, #12
 2078              		.cfi_def_cfa_offset 24
 2079 0004 0500     		movs	r5, r0
 528:bme280.c      **** 	/* Proceed if null check is fine */
 2080              		.loc 1 528 0
 2081 0006 FFF7FEFF 		bl	null_ptr_check
 2082              	.LVL293:
 2083 000a 041E     		subs	r4, r0, #0
 2084              	.LVL294:
 530:bme280.c      **** 		rslt = bme280_get_regs(BME280_CTRL_HUM_ADDR, reg_data, 4, dev);
 2085              		.loc 1 530 0
 2086 000c 0CD1     		bne	.L88
 531:bme280.c      **** 		if (rslt == BME280_OK)
 2087              		.loc 1 531 0
 2088 000e 2B00     		movs	r3, r5
 2089 0010 0422     		movs	r2, #4
 2090 0012 01A9     		add	r1, sp, #4
 2091 0014 F220     		movs	r0, #242
 2092              	.LVL295:
 2093 0016 FFF7FEFF 		bl	bme280_get_regs
 2094              	.LVL296:
 2095 001a 041E     		subs	r4, r0, #0
 2096              	.LVL297:
 532:bme280.c      **** 			parse_device_settings(reg_data, &dev->settings);
 2097              		.loc 1 532 0
 2098 001c 04D1     		bne	.L88
 533:bme280.c      **** 	}
 2099              		.loc 1 533 0
 2100 001e 2900     		movs	r1, r5
 2101 0020 3831     		adds	r1, r1, #56
 2102 0022 01A8     		add	r0, sp, #4
 2103              	.LVL298:
 2104 0024 FFF7FEFF 		bl	parse_device_settings
 2105              	.LVL299:
 2106              	.L88:
 537:bme280.c      **** 
 2107              		.loc 1 537 0
 2108 0028 2000     		movs	r0, r4
 2109 002a 03B0     		add	sp, sp, #12
 2110              		@ sp needed
 2111              	.LVL300:
 2112              	.LVL301:
 2113 002c 30BD     		pop	{r4, r5, pc}
 2114              		.cfi_endproc
 2115              	.LFE5:
 2116              		.size	bme280_get_sensor_settings, .-bme280_get_sensor_settings
 2117 002e C046     		.section	.text.bme280_get_sensor_mode,"ax",%progbits
 2118              		.align	2
 2119              		.global	bme280_get_sensor_mode
ARM GAS  C:\Users\corne\AppData\Local\Temp\cc0fqrF9.s 			page 63


 2120              		.code	16
 2121              		.thumb_func
 2122              		.type	bme280_get_sensor_mode, %function
 2123              	bme280_get_sensor_mode:
 2124              	.LFB7:
 568:bme280.c      **** 	int8_t rslt;
 2125              		.loc 1 568 0
 2126              		.cfi_startproc
 2127              		@ args = 0, pretend = 0, frame = 0
 2128              		@ frame_needed = 0, uses_anonymous_args = 0
 2129              	.LVL302:
 2130 0000 70B5     		push	{r4, r5, r6, lr}
 2131              		.cfi_def_cfa_offset 16
 2132              		.cfi_offset 4, -16
 2133              		.cfi_offset 5, -12
 2134              		.cfi_offset 6, -8
 2135              		.cfi_offset 14, -4
 2136 0002 0400     		movs	r4, r0
 2137 0004 0D00     		movs	r5, r1
 572:bme280.c      **** 
 2138              		.loc 1 572 0
 2139 0006 0800     		movs	r0, r1
 2140              	.LVL303:
 2141 0008 FFF7FEFF 		bl	null_ptr_check
 2142              	.LVL304:
 574:bme280.c      **** 		/* Read the power mode register */
 2143              		.loc 1 574 0
 2144 000c 0028     		cmp	r0, #0
 2145 000e 09D1     		bne	.L90
 576:bme280.c      **** 		/* Assign the power mode in the device structure */
 2146              		.loc 1 576 0
 2147 0010 2B00     		movs	r3, r5
 2148 0012 0122     		movs	r2, #1
 2149 0014 2100     		movs	r1, r4
 2150 0016 F430     		adds	r0, r0, #244
 2151              	.LVL305:
 2152 0018 FFF7FEFF 		bl	bme280_get_regs
 2153              	.LVL306:
 578:bme280.c      **** 	}
 2154              		.loc 1 578 0
 2155 001c 2378     		ldrb	r3, [r4]
 2156 001e 0322     		movs	r2, #3
 2157 0020 1340     		ands	r3, r2
 2158 0022 2370     		strb	r3, [r4]
 2159              	.LVL307:
 2160              	.L90:
 582:bme280.c      **** 
 2161              		.loc 1 582 0
 2162              		@ sp needed
 2163              	.LVL308:
 2164              	.LVL309:
 2165 0024 70BD     		pop	{r4, r5, r6, pc}
 2166              		.cfi_endproc
 2167              	.LFE7:
 2168              		.size	bme280_get_sensor_mode, .-bme280_get_sensor_mode
 2169 0026 C046     		.section	.text.bme280_soft_reset,"ax",%progbits
 2170              		.align	2
ARM GAS  C:\Users\corne\AppData\Local\Temp\cc0fqrF9.s 			page 64


 2171              		.global	bme280_soft_reset
 2172              		.code	16
 2173              		.thumb_func
 2174              		.type	bme280_soft_reset, %function
 2175              	bme280_soft_reset:
 2176              	.LFB8:
 588:bme280.c      **** 	int8_t rslt;
 2177              		.loc 1 588 0
 2178              		.cfi_startproc
 2179              		@ args = 0, pretend = 0, frame = 8
 2180              		@ frame_needed = 0, uses_anonymous_args = 0
 2181              	.LVL310:
 2182 0000 30B5     		push	{r4, r5, lr}
 2183              		.cfi_def_cfa_offset 12
 2184              		.cfi_offset 4, -12
 2185              		.cfi_offset 5, -8
 2186              		.cfi_offset 14, -4
 2187 0002 83B0     		sub	sp, sp, #12
 2188              		.cfi_def_cfa_offset 24
 2189 0004 0500     		movs	r5, r0
 590:bme280.c      **** 	/* 0xB6 is the soft reset command */
 2190              		.loc 1 590 0
 2191 0006 E022     		movs	r2, #224
 2192 0008 6B46     		mov	r3, sp
 2193 000a DA71     		strb	r2, [r3, #7]
 592:bme280.c      **** 
 2194              		.loc 1 592 0
 2195 000c 2A3A     		subs	r2, r2, #42
 2196 000e 6B46     		mov	r3, sp
 2197 0010 9A71     		strb	r2, [r3, #6]
 595:bme280.c      **** 	/* Proceed if null check is fine */
 2198              		.loc 1 595 0
 2199 0012 FFF7FEFF 		bl	null_ptr_check
 2200              	.LVL311:
 2201 0016 041E     		subs	r4, r0, #0
 2202              	.LVL312:
 597:bme280.c      **** 		/* Write the soft reset command in the sensor */
 2203              		.loc 1 597 0
 2204 0018 0BD1     		bne	.L92
 599:bme280.c      **** 		/* As per data sheet, startup time is 2 ms. */
 2205              		.loc 1 599 0
 2206 001a 2B00     		movs	r3, r5
 2207 001c 0122     		movs	r2, #1
 2208 001e 6946     		mov	r1, sp
 2209 0020 0631     		adds	r1, r1, #6
 2210 0022 6846     		mov	r0, sp
 2211              	.LVL313:
 2212 0024 0730     		adds	r0, r0, #7
 2213 0026 FFF7FEFF 		bl	bme280_set_regs
 2214              	.LVL314:
 2215 002a 0400     		movs	r4, r0
 2216              	.LVL315:
 601:bme280.c      **** 	}
 2217              		.loc 1 601 0
 2218 002c EB68     		ldr	r3, [r5, #12]
 2219 002e 0220     		movs	r0, #2
 2220              	.LVL316:
ARM GAS  C:\Users\corne\AppData\Local\Temp\cc0fqrF9.s 			page 65


 2221 0030 9847     		blx	r3
 2222              	.LVL317:
 2223              	.L92:
 605:bme280.c      **** 
 2224              		.loc 1 605 0
 2225 0032 2000     		movs	r0, r4
 2226 0034 03B0     		add	sp, sp, #12
 2227              		@ sp needed
 2228              	.LVL318:
 2229              	.LVL319:
 2230 0036 30BD     		pop	{r4, r5, pc}
 2231              		.cfi_endproc
 2232              	.LFE8:
 2233              		.size	bme280_soft_reset, .-bme280_soft_reset
 2234              		.section	.text.bme280_init,"ax",%progbits
 2235              		.align	2
 2236              		.global	bme280_init
 2237              		.code	16
 2238              		.thumb_func
 2239              		.type	bme280_init, %function
 2240              	bme280_init:
 2241              	.LFB1:
 381:bme280.c      **** 	int8_t rslt;
 2242              		.loc 1 381 0
 2243              		.cfi_startproc
 2244              		@ args = 0, pretend = 0, frame = 8
 2245              		@ frame_needed = 0, uses_anonymous_args = 0
 2246              	.LVL320:
 2247 0000 70B5     		push	{r4, r5, r6, lr}
 2248              		.cfi_def_cfa_offset 16
 2249              		.cfi_offset 4, -16
 2250              		.cfi_offset 5, -12
 2251              		.cfi_offset 6, -8
 2252              		.cfi_offset 14, -4
 2253 0002 82B0     		sub	sp, sp, #8
 2254              		.cfi_def_cfa_offset 24
 2255 0004 0600     		movs	r6, r0
 2256              	.LVL321:
 385:bme280.c      **** 
 2257              		.loc 1 385 0
 2258 0006 0022     		movs	r2, #0
 2259 0008 6B46     		mov	r3, sp
 2260 000a DA71     		strb	r2, [r3, #7]
 388:bme280.c      **** 	/* Proceed if null check is fine */
 2261              		.loc 1 388 0
 2262 000c FFF7FEFF 		bl	null_ptr_check
 2263              	.LVL322:
 2264 0010 041E     		subs	r4, r0, #0
 2265              	.LVL323:
 390:bme280.c      **** 		while (try_count) {
 2266              		.loc 1 390 0
 2267 0012 1FD0     		beq	.L99
 2268 0014 25E0     		b	.L95
 2269              	.LVL324:
 2270              	.L98:
 393:bme280.c      **** 			/* Check for chip id validity */
 2271              		.loc 1 393 0
ARM GAS  C:\Users\corne\AppData\Local\Temp\cc0fqrF9.s 			page 66


 2272 0016 3300     		movs	r3, r6
 2273 0018 0122     		movs	r2, #1
 2274 001a 6946     		mov	r1, sp
 2275 001c 0731     		adds	r1, r1, #7
 2276 001e D020     		movs	r0, #208
 2277 0020 FFF7FEFF 		bl	bme280_get_regs
 2278              	.LVL325:
 2279 0024 041E     		subs	r4, r0, #0
 2280              	.LVL326:
 395:bme280.c      **** 				dev->chip_id = chip_id;
 2281              		.loc 1 395 0
 2282 0026 0FD1     		bne	.L96
 395:bme280.c      **** 				dev->chip_id = chip_id;
 2283              		.loc 1 395 0 is_stmt 0 discriminator 1
 2284 0028 6B46     		mov	r3, sp
 2285 002a 0733     		adds	r3, r3, #7
 2286 002c 1B78     		ldrb	r3, [r3]
 2287 002e 602B     		cmp	r3, #96
 2288 0030 0AD1     		bne	.L96
 396:bme280.c      **** 				/* Reset the sensor */
 2289              		.loc 1 396 0 is_stmt 1
 2290 0032 3370     		strb	r3, [r6]
 398:bme280.c      **** 				if (rslt == BME280_OK) {
 2291              		.loc 1 398 0
 2292 0034 3000     		movs	r0, r6
 2293              	.LVL327:
 2294 0036 FFF7FEFF 		bl	bme280_soft_reset
 2295              	.LVL328:
 2296 003a 041E     		subs	r4, r0, #0
 2297              	.LVL329:
 399:bme280.c      **** 					/* Read the calibration data */
 2298              		.loc 1 399 0
 2299 003c 0DD1     		bne	.L97
 401:bme280.c      **** 				}
 2300              		.loc 1 401 0
 2301 003e 3000     		movs	r0, r6
 2302              	.LVL330:
 2303 0040 FFF7FEFF 		bl	get_calib_data
 2304              	.LVL331:
 2305 0044 0400     		movs	r4, r0
 2306              	.LVL332:
 2307 0046 08E0     		b	.L97
 2308              	.L96:
 406:bme280.c      **** 			--try_count;
 2309              		.loc 1 406 0
 2310 0048 0120     		movs	r0, #1
 2311              	.LVL333:
 2312 004a F368     		ldr	r3, [r6, #12]
 2313 004c 9847     		blx	r3
 2314              	.LVL334:
 407:bme280.c      **** 		}
 2315              		.loc 1 407 0
 2316 004e 013D     		subs	r5, r5, #1
 2317              	.LVL335:
 2318 0050 EDB2     		uxtb	r5, r5
 2319              	.LVL336:
 2320 0052 00E0     		b	.L94
ARM GAS  C:\Users\corne\AppData\Local\Temp\cc0fqrF9.s 			page 67


 2321              	.LVL337:
 2322              	.L99:
 2323 0054 0525     		movs	r5, #5
 2324              	.LVL338:
 2325              	.L94:
 391:bme280.c      **** 			/* Read the chip-id of bme280 sensor */
 2326              		.loc 1 391 0
 2327 0056 002D     		cmp	r5, #0
 2328 0058 DDD1     		bne	.L98
 2329              	.LVL339:
 2330              	.L97:
 410:bme280.c      **** 			rslt = BME280_E_DEV_NOT_FOUND;
 2331              		.loc 1 410 0
 2332 005a 002D     		cmp	r5, #0
 2333 005c 01D1     		bne	.L95
 411:bme280.c      **** 	}
 2334              		.loc 1 411 0
 2335 005e 0224     		movs	r4, #2
 2336              	.LVL340:
 2337 0060 6442     		rsbs	r4, r4, #0
 2338              	.LVL341:
 2339              	.L95:
 415:bme280.c      **** 
 2340              		.loc 1 415 0
 2341 0062 2000     		movs	r0, r4
 2342 0064 02B0     		add	sp, sp, #8
 2343              		@ sp needed
 2344              	.LVL342:
 2345              	.LVL343:
 2346 0066 70BD     		pop	{r4, r5, r6, pc}
 2347              		.cfi_endproc
 2348              	.LFE1:
 2349              		.size	bme280_init, .-bme280_init
 2350              		.section	.text.put_device_to_sleep,"ax",%progbits
 2351              		.align	2
 2352              		.code	16
 2353              		.thumb_func
 2354              		.type	put_device_to_sleep, %function
 2355              	put_device_to_sleep:
 2356              	.LFB20:
 808:bme280.c      **** 	int8_t rslt;
 2357              		.loc 1 808 0
 2358              		.cfi_startproc
 2359              		@ args = 0, pretend = 0, frame = 16
 2360              		@ frame_needed = 0, uses_anonymous_args = 0
 2361              	.LVL344:
 2362 0000 10B5     		push	{r4, lr}
 2363              		.cfi_def_cfa_offset 8
 2364              		.cfi_offset 4, -8
 2365              		.cfi_offset 14, -4
 2366 0002 84B0     		sub	sp, sp, #16
 2367              		.cfi_def_cfa_offset 24
 2368 0004 0400     		movs	r4, r0
 813:bme280.c      **** 	if (rslt == BME280_OK) {
 2369              		.loc 1 813 0
 2370 0006 0300     		movs	r3, r0
 2371 0008 0422     		movs	r2, #4
ARM GAS  C:\Users\corne\AppData\Local\Temp\cc0fqrF9.s 			page 68


 2372 000a 03A9     		add	r1, sp, #12
 2373 000c F220     		movs	r0, #242
 2374              	.LVL345:
 2375 000e FFF7FEFF 		bl	bme280_get_regs
 2376              	.LVL346:
 814:bme280.c      **** 		parse_device_settings(reg_data, &settings);
 2377              		.loc 1 814 0
 2378 0012 0028     		cmp	r0, #0
 2379 0014 0CD1     		bne	.L102
 815:bme280.c      **** 		rslt = bme280_soft_reset(dev);
 2380              		.loc 1 815 0
 2381 0016 01A9     		add	r1, sp, #4
 2382 0018 03A8     		add	r0, sp, #12
 2383              	.LVL347:
 2384 001a FFF7FEFF 		bl	parse_device_settings
 2385              	.LVL348:
 816:bme280.c      **** 		if (rslt == BME280_OK)
 2386              		.loc 1 816 0
 2387 001e 2000     		movs	r0, r4
 2388 0020 FFF7FEFF 		bl	bme280_soft_reset
 2389              	.LVL349:
 817:bme280.c      **** 			rslt = reload_device_settings(&settings, dev);
 2390              		.loc 1 817 0
 2391 0024 0028     		cmp	r0, #0
 2392 0026 03D1     		bne	.L102
 818:bme280.c      **** 	}
 2393              		.loc 1 818 0
 2394 0028 2100     		movs	r1, r4
 2395 002a 01A8     		add	r0, sp, #4
 2396              	.LVL350:
 2397 002c FFF7FEFF 		bl	reload_device_settings
 2398              	.LVL351:
 2399              	.L102:
 822:bme280.c      **** 
 2400              		.loc 1 822 0
 2401 0030 04B0     		add	sp, sp, #16
 2402              		@ sp needed
 2403              	.LVL352:
 2404 0032 10BD     		pop	{r4, pc}
 2405              		.cfi_endproc
 2406              	.LFE20:
 2407              		.size	put_device_to_sleep, .-put_device_to_sleep
 2408              		.section	.text.bme280_set_sensor_settings,"ax",%progbits
 2409              		.align	2
 2410              		.global	bme280_set_sensor_settings
 2411              		.code	16
 2412              		.thumb_func
 2413              		.type	bme280_set_sensor_settings, %function
 2414              	bme280_set_sensor_settings:
 2415              	.LFB4:
 492:bme280.c      **** 	int8_t rslt;
 2416              		.loc 1 492 0
 2417              		.cfi_startproc
 2418              		@ args = 0, pretend = 0, frame = 8
 2419              		@ frame_needed = 0, uses_anonymous_args = 0
 2420              	.LVL353:
 2421 0000 70B5     		push	{r4, r5, r6, lr}
ARM GAS  C:\Users\corne\AppData\Local\Temp\cc0fqrF9.s 			page 69


 2422              		.cfi_def_cfa_offset 16
 2423              		.cfi_offset 4, -16
 2424              		.cfi_offset 5, -12
 2425              		.cfi_offset 6, -8
 2426              		.cfi_offset 14, -4
 2427 0002 82B0     		sub	sp, sp, #8
 2428              		.cfi_def_cfa_offset 24
 2429 0004 0600     		movs	r6, r0
 2430 0006 0D00     		movs	r5, r1
 497:bme280.c      **** 	/* Proceed if null check is fine */
 2431              		.loc 1 497 0
 2432 0008 0800     		movs	r0, r1
 2433              	.LVL354:
 2434 000a FFF7FEFF 		bl	null_ptr_check
 2435              	.LVL355:
 2436 000e 041E     		subs	r4, r0, #0
 2437              	.LVL356:
 499:bme280.c      **** 		rslt = bme280_get_sensor_mode(&sensor_mode, dev);
 2438              		.loc 1 499 0
 2439 0010 2DD1     		bne	.L104
 500:bme280.c      **** 		if ((rslt == BME280_OK) && (sensor_mode != BME280_SLEEP_MODE))
 2440              		.loc 1 500 0
 2441 0012 2900     		movs	r1, r5
 2442 0014 6B46     		mov	r3, sp
 2443 0016 D81D     		adds	r0, r3, #7
 2444              	.LVL357:
 2445 0018 FFF7FEFF 		bl	bme280_get_sensor_mode
 2446              	.LVL358:
 2447 001c 041E     		subs	r4, r0, #0
 2448              	.LVL359:
 501:bme280.c      **** 			rslt = put_device_to_sleep(dev);
 2449              		.loc 1 501 0
 2450 001e 08D1     		bne	.L105
 501:bme280.c      **** 			rslt = put_device_to_sleep(dev);
 2451              		.loc 1 501 0 is_stmt 0 discriminator 1
 2452 0020 6B46     		mov	r3, sp
 2453 0022 0733     		adds	r3, r3, #7
 2454 0024 1B78     		ldrb	r3, [r3]
 2455 0026 002B     		cmp	r3, #0
 2456 0028 03D0     		beq	.L105
 502:bme280.c      **** 		if (rslt == BME280_OK) {
 2457              		.loc 1 502 0 is_stmt 1
 2458 002a 2800     		movs	r0, r5
 2459              	.LVL360:
 2460 002c FFF7FEFF 		bl	put_device_to_sleep
 2461              	.LVL361:
 2462 0030 0400     		movs	r4, r0
 2463              	.LVL362:
 2464              	.L105:
 503:bme280.c      **** 			/* Check if user wants to change oversampling
 2465              		.loc 1 503 0
 2466 0032 002C     		cmp	r4, #0
 2467 0034 1BD1     		bne	.L104
 506:bme280.c      **** 				rslt = set_osr_settings(desired_settings, &dev->settings, dev);
 2468              		.loc 1 506 0
 2469 0036 3100     		movs	r1, r6
 2470 0038 0720     		movs	r0, #7
ARM GAS  C:\Users\corne\AppData\Local\Temp\cc0fqrF9.s 			page 70


 2471 003a FFF7FEFF 		bl	are_settings_changed
 2472              	.LVL363:
 2473 003e 0028     		cmp	r0, #0
 2474 0040 06D0     		beq	.L106
 507:bme280.c      **** 			/* Check if user wants to change filter and/or
 2475              		.loc 1 507 0
 2476 0042 2900     		movs	r1, r5
 2477 0044 3831     		adds	r1, r1, #56
 2478 0046 2A00     		movs	r2, r5
 2479 0048 3000     		movs	r0, r6
 2480 004a FFF7FEFF 		bl	set_osr_settings
 2481              	.LVL364:
 2482 004e 0400     		movs	r4, r0
 2483              	.LVL365:
 2484              	.L106:
 510:bme280.c      **** 				rslt = set_filter_standby_settings(desired_settings, &dev->settings, dev);
 2485              		.loc 1 510 0
 2486 0050 002C     		cmp	r4, #0
 2487 0052 0CD1     		bne	.L104
 510:bme280.c      **** 				rslt = set_filter_standby_settings(desired_settings, &dev->settings, dev);
 2488              		.loc 1 510 0 is_stmt 0 discriminator 1
 2489 0054 3100     		movs	r1, r6
 2490 0056 1820     		movs	r0, #24
 2491 0058 FFF7FEFF 		bl	are_settings_changed
 2492              	.LVL366:
 2493 005c 0028     		cmp	r0, #0
 2494 005e 06D0     		beq	.L104
 511:bme280.c      **** 		}
 2495              		.loc 1 511 0 is_stmt 1
 2496 0060 2900     		movs	r1, r5
 2497 0062 3831     		adds	r1, r1, #56
 2498 0064 2A00     		movs	r2, r5
 2499 0066 3000     		movs	r0, r6
 2500 0068 FFF7FEFF 		bl	set_filter_standby_settings
 2501              	.LVL367:
 2502 006c 0400     		movs	r4, r0
 2503              	.LVL368:
 2504              	.L104:
 516:bme280.c      **** 
 2505              		.loc 1 516 0
 2506 006e 2000     		movs	r0, r4
 2507 0070 02B0     		add	sp, sp, #8
 2508              		@ sp needed
 2509              	.LVL369:
 2510              	.LVL370:
 2511 0072 70BD     		pop	{r4, r5, r6, pc}
 2512              		.cfi_endproc
 2513              	.LFE4:
 2514              		.size	bme280_set_sensor_settings, .-bme280_set_sensor_settings
 2515              		.section	.text.bme280_set_sensor_mode,"ax",%progbits
 2516              		.align	2
 2517              		.global	bme280_set_sensor_mode
 2518              		.code	16
 2519              		.thumb_func
 2520              		.type	bme280_set_sensor_mode, %function
 2521              	bme280_set_sensor_mode:
 2522              	.LFB6:
ARM GAS  C:\Users\corne\AppData\Local\Temp\cc0fqrF9.s 			page 71


 543:bme280.c      **** 	int8_t rslt;
 2523              		.loc 1 543 0
 2524              		.cfi_startproc
 2525              		@ args = 0, pretend = 0, frame = 8
 2526              		@ frame_needed = 0, uses_anonymous_args = 0
 2527              	.LVL371:
 2528 0000 30B5     		push	{r4, r5, lr}
 2529              		.cfi_def_cfa_offset 12
 2530              		.cfi_offset 4, -12
 2531              		.cfi_offset 5, -8
 2532              		.cfi_offset 14, -4
 2533 0002 83B0     		sub	sp, sp, #12
 2534              		.cfi_def_cfa_offset 24
 2535 0004 0500     		movs	r5, r0
 2536 0006 0C00     		movs	r4, r1
 548:bme280.c      **** 
 2537              		.loc 1 548 0
 2538 0008 0800     		movs	r0, r1
 2539              	.LVL372:
 2540 000a FFF7FEFF 		bl	null_ptr_check
 2541              	.LVL373:
 550:bme280.c      **** 		rslt = bme280_get_sensor_mode(&last_set_mode, dev);
 2542              		.loc 1 550 0
 2543 000e 0028     		cmp	r0, #0
 2544 0010 14D1     		bne	.L108
 551:bme280.c      **** 		/* If the sensor is not in sleep mode put the device to sleep
 2545              		.loc 1 551 0
 2546 0012 2100     		movs	r1, r4
 2547 0014 6B46     		mov	r3, sp
 2548 0016 D81D     		adds	r0, r3, #7
 2549              	.LVL374:
 2550 0018 FFF7FEFF 		bl	bme280_get_sensor_mode
 2551              	.LVL375:
 554:bme280.c      **** 			rslt = put_device_to_sleep(dev);
 2552              		.loc 1 554 0
 2553 001c 0028     		cmp	r0, #0
 2554 001e 07D1     		bne	.L109
 554:bme280.c      **** 			rslt = put_device_to_sleep(dev);
 2555              		.loc 1 554 0 is_stmt 0 discriminator 1
 2556 0020 6B46     		mov	r3, sp
 2557 0022 0733     		adds	r3, r3, #7
 2558 0024 1B78     		ldrb	r3, [r3]
 2559 0026 002B     		cmp	r3, #0
 2560 0028 02D0     		beq	.L109
 555:bme280.c      **** 		/* Set the power mode */
 2561              		.loc 1 555 0 is_stmt 1
 2562 002a 2000     		movs	r0, r4
 2563              	.LVL376:
 2564 002c FFF7FEFF 		bl	put_device_to_sleep
 2565              	.LVL377:
 2566              	.L109:
 557:bme280.c      **** 			rslt = write_power_mode(sensor_mode, dev);
 2567              		.loc 1 557 0
 2568 0030 0028     		cmp	r0, #0
 2569 0032 03D1     		bne	.L108
 558:bme280.c      **** 	}
 2570              		.loc 1 558 0
ARM GAS  C:\Users\corne\AppData\Local\Temp\cc0fqrF9.s 			page 72


 2571 0034 2100     		movs	r1, r4
 2572 0036 2800     		movs	r0, r5
 2573              	.LVL378:
 2574 0038 FFF7FEFF 		bl	write_power_mode
 2575              	.LVL379:
 2576              	.L108:
 562:bme280.c      **** 
 2577              		.loc 1 562 0
 2578 003c 03B0     		add	sp, sp, #12
 2579              		@ sp needed
 2580              	.LVL380:
 2581 003e 30BD     		pop	{r4, r5, pc}
 2582              		.cfi_endproc
 2583              	.LFE6:
 2584              		.size	bme280_set_sensor_mode, .-bme280_set_sensor_mode
 2585              		.section	.text.bme280_get_sensor_data,"ax",%progbits
 2586              		.align	2
 2587              		.global	bme280_get_sensor_data
 2588              		.code	16
 2589              		.thumb_func
 2590              		.type	bme280_get_sensor_data, %function
 2591              	bme280_get_sensor_data:
 2592              	.LFB9:
 613:bme280.c      **** 	int8_t rslt;
 2593              		.loc 1 613 0
 2594              		.cfi_startproc
 2595              		@ args = 0, pretend = 0, frame = 24
 2596              		@ frame_needed = 0, uses_anonymous_args = 0
 2597              	.LVL381:
 2598 0000 70B5     		push	{r4, r5, r6, lr}
 2599              		.cfi_def_cfa_offset 16
 2600              		.cfi_offset 4, -16
 2601              		.cfi_offset 5, -12
 2602              		.cfi_offset 6, -8
 2603              		.cfi_offset 14, -4
 2604 0002 86B0     		sub	sp, sp, #24
 2605              		.cfi_def_cfa_offset 40
 2606 0004 0600     		movs	r6, r0
 2607 0006 0D00     		movs	r5, r1
 2608 0008 1400     		movs	r4, r2
 617:bme280.c      **** 	 bme280_uncomp_data uncomp_data = {0};
 2609              		.loc 1 617 0
 2610 000a 0822     		movs	r2, #8
 2611              	.LVL382:
 2612 000c 0021     		movs	r1, #0
 2613              	.LVL383:
 2614 000e 04A8     		add	r0, sp, #16
 2615              	.LVL384:
 2616 0010 FFF7FEFF 		bl	memset
 2617              	.LVL385:
 618:bme280.c      **** 
 2618              		.loc 1 618 0
 2619 0014 0C22     		movs	r2, #12
 2620 0016 0021     		movs	r1, #0
 2621 0018 01A8     		add	r0, sp, #4
 2622 001a FFF7FEFF 		bl	memset
 2623              	.LVL386:
ARM GAS  C:\Users\corne\AppData\Local\Temp\cc0fqrF9.s 			page 73


 621:bme280.c      **** 
 2624              		.loc 1 621 0
 2625 001e 2000     		movs	r0, r4
 2626 0020 FFF7FEFF 		bl	null_ptr_check
 2627              	.LVL387:
 623:bme280.c      **** 		/* Read the pressure and temperature data from the sensor */
 2628              		.loc 1 623 0
 2629 0024 0028     		cmp	r0, #0
 2630 0026 15D1     		bne	.L112
 623:bme280.c      **** 		/* Read the pressure and temperature data from the sensor */
 2631              		.loc 1 623 0 is_stmt 0 discriminator 1
 2632 0028 002D     		cmp	r5, #0
 2633 002a 16D0     		beq	.L113
 625:bme280.c      **** 
 2634              		.loc 1 625 0 is_stmt 1
 2635 002c 2300     		movs	r3, r4
 2636 002e 0822     		movs	r2, #8
 2637 0030 04A9     		add	r1, sp, #16
 2638 0032 F730     		adds	r0, r0, #247
 2639              	.LVL388:
 2640 0034 FFF7FEFF 		bl	bme280_get_regs
 2641              	.LVL389:
 627:bme280.c      **** 			/* Parse the read data from the sensor */
 2642              		.loc 1 627 0
 2643 0038 0028     		cmp	r0, #0
 2644 003a 10D1     		bne	.L111
 629:bme280.c      **** 			/* Compensate the pressure and/or temperature and/or
 2645              		.loc 1 629 0
 2646 003c 01A9     		add	r1, sp, #4
 2647 003e 04A8     		add	r0, sp, #16
 2648              	.LVL390:
 2649 0040 FFF7FEFF 		bl	parse_sensor_data
 2650              	.LVL391:
 632:bme280.c      **** 		}
 2651              		.loc 1 632 0
 2652 0044 2300     		movs	r3, r4
 2653 0046 1033     		adds	r3, r3, #16
 2654 0048 2A00     		movs	r2, r5
 2655 004a 01A9     		add	r1, sp, #4
 2656 004c 3000     		movs	r0, r6
 2657 004e FFF7FEFF 		bl	compensate_data
 2658              	.LVL392:
 2659 0052 04E0     		b	.L111
 2660              	.L112:
 635:bme280.c      **** 	}
 2661              		.loc 1 635 0
 2662 0054 0120     		movs	r0, #1
 2663              	.LVL393:
 2664 0056 4042     		rsbs	r0, r0, #0
 2665 0058 01E0     		b	.L111
 2666              	.LVL394:
 2667              	.L113:
 2668 005a 0120     		movs	r0, #1
 2669              	.LVL395:
 2670 005c 4042     		rsbs	r0, r0, #0
 2671              	.L111:
 2672              	.LVL396:
ARM GAS  C:\Users\corne\AppData\Local\Temp\cc0fqrF9.s 			page 74


 639:bme280.c      **** 
 2673              		.loc 1 639 0
 2674 005e 06B0     		add	sp, sp, #24
 2675              		@ sp needed
 2676              	.LVL397:
 2677              	.LVL398:
 2678 0060 70BD     		pop	{r4, r5, r6, pc}
 2679              		.cfi_endproc
 2680              	.LFE9:
 2681              		.size	bme280_get_sensor_data, .-bme280_get_sensor_data
 2682 0062 C046     		.text
 2683              	.Letext0:
 2684              		.file 2 "c:\\program files (x86)\\cypress\\psoc creator\\4.1\\psoc creator\\import\\gnu\\arm\\5.4.
 2685              		.file 3 "c:\\program files (x86)\\cypress\\psoc creator\\4.1\\psoc creator\\import\\gnu\\arm\\5.4.
 2686              		.file 4 "bme280_defs.h"
 2687              		.section	.debug_info,"",%progbits
 2688              	.Ldebug_info0:
 2689 0000 50170000 		.4byte	0x1750
 2690 0004 0400     		.2byte	0x4
 2691 0006 00000000 		.4byte	.Ldebug_abbrev0
 2692 000a 04       		.byte	0x4
 2693 000b 01       		.uleb128 0x1
 2694 000c C9010000 		.4byte	.LASF140
 2695 0010 0C       		.byte	0xc
 2696 0011 5C000000 		.4byte	.LASF141
 2697 0015 8B030000 		.4byte	.LASF142
 2698 0019 00000000 		.4byte	.Ldebug_ranges0+0
 2699 001d 00000000 		.4byte	0
 2700 0021 00000000 		.4byte	.Ldebug_line0
 2701 0025 02       		.uleb128 0x2
 2702 0026 88040000 		.4byte	.LASF0
 2703 002a 02       		.byte	0x2
 2704 002b 1B       		.byte	0x1b
 2705 002c 30000000 		.4byte	0x30
 2706 0030 03       		.uleb128 0x3
 2707 0031 01       		.byte	0x1
 2708 0032 06       		.byte	0x6
 2709 0033 34070000 		.4byte	.LASF2
 2710 0037 02       		.uleb128 0x2
 2711 0038 C4050000 		.4byte	.LASF1
 2712 003c 02       		.byte	0x2
 2713 003d 1D       		.byte	0x1d
 2714 003e 42000000 		.4byte	0x42
 2715 0042 03       		.uleb128 0x3
 2716 0043 01       		.byte	0x1
 2717 0044 08       		.byte	0x8
 2718 0045 6C060000 		.4byte	.LASF3
 2719 0049 02       		.uleb128 0x2
 2720 004a 40040000 		.4byte	.LASF4
 2721 004e 02       		.byte	0x2
 2722 004f 29       		.byte	0x29
 2723 0050 54000000 		.4byte	0x54
 2724 0054 03       		.uleb128 0x3
 2725 0055 02       		.byte	0x2
 2726 0056 05       		.byte	0x5
 2727 0057 40050000 		.4byte	.LASF5
 2728 005b 02       		.uleb128 0x2
ARM GAS  C:\Users\corne\AppData\Local\Temp\cc0fqrF9.s 			page 75


 2729 005c A4010000 		.4byte	.LASF6
 2730 0060 02       		.byte	0x2
 2731 0061 2B       		.byte	0x2b
 2732 0062 66000000 		.4byte	0x66
 2733 0066 03       		.uleb128 0x3
 2734 0067 02       		.byte	0x2
 2735 0068 07       		.byte	0x7
 2736 0069 51070000 		.4byte	.LASF7
 2737 006d 02       		.uleb128 0x2
 2738 006e 65000000 		.4byte	.LASF8
 2739 0072 02       		.byte	0x2
 2740 0073 3F       		.byte	0x3f
 2741 0074 78000000 		.4byte	0x78
 2742 0078 03       		.uleb128 0x3
 2743 0079 04       		.byte	0x4
 2744 007a 05       		.byte	0x5
 2745 007b 53050000 		.4byte	.LASF9
 2746 007f 02       		.uleb128 0x2
 2747 0080 7A060000 		.4byte	.LASF10
 2748 0084 02       		.byte	0x2
 2749 0085 41       		.byte	0x41
 2750 0086 8A000000 		.4byte	0x8a
 2751 008a 03       		.uleb128 0x3
 2752 008b 04       		.byte	0x4
 2753 008c 07       		.byte	0x7
 2754 008d 13060000 		.4byte	.LASF11
 2755 0091 02       		.uleb128 0x2
 2756 0092 91040000 		.4byte	.LASF12
 2757 0096 02       		.byte	0x2
 2758 0097 59       		.byte	0x59
 2759 0098 9C000000 		.4byte	0x9c
 2760 009c 03       		.uleb128 0x3
 2761 009d 08       		.byte	0x8
 2762 009e 05       		.byte	0x5
 2763 009f 77030000 		.4byte	.LASF13
 2764 00a3 03       		.uleb128 0x3
 2765 00a4 08       		.byte	0x8
 2766 00a5 07       		.byte	0x7
 2767 00a6 7A010000 		.4byte	.LASF14
 2768 00aa 04       		.uleb128 0x4
 2769 00ab 04       		.byte	0x4
 2770 00ac 05       		.byte	0x5
 2771 00ad 696E7400 		.ascii	"int\000"
 2772 00b1 03       		.uleb128 0x3
 2773 00b2 04       		.byte	0x4
 2774 00b3 07       		.byte	0x7
 2775 00b4 4F000000 		.4byte	.LASF15
 2776 00b8 02       		.uleb128 0x2
 2777 00b9 4A010000 		.4byte	.LASF16
 2778 00bd 03       		.byte	0x3
 2779 00be 14       		.byte	0x14
 2780 00bf 25000000 		.4byte	0x25
 2781 00c3 02       		.uleb128 0x2
 2782 00c4 68030000 		.4byte	.LASF17
 2783 00c8 03       		.byte	0x3
 2784 00c9 18       		.byte	0x18
 2785 00ca 37000000 		.4byte	0x37
ARM GAS  C:\Users\corne\AppData\Local\Temp\cc0fqrF9.s 			page 76


 2786 00ce 02       		.uleb128 0x2
 2787 00cf 72010000 		.4byte	.LASF18
 2788 00d3 03       		.byte	0x3
 2789 00d4 20       		.byte	0x20
 2790 00d5 49000000 		.4byte	0x49
 2791 00d9 02       		.uleb128 0x2
 2792 00da CA040000 		.4byte	.LASF19
 2793 00de 03       		.byte	0x3
 2794 00df 24       		.byte	0x24
 2795 00e0 5B000000 		.4byte	0x5b
 2796 00e4 02       		.uleb128 0x2
 2797 00e5 25060000 		.4byte	.LASF20
 2798 00e9 03       		.byte	0x3
 2799 00ea 2C       		.byte	0x2c
 2800 00eb 6D000000 		.4byte	0x6d
 2801 00ef 02       		.uleb128 0x2
 2802 00f0 41010000 		.4byte	.LASF21
 2803 00f4 03       		.byte	0x3
 2804 00f5 30       		.byte	0x30
 2805 00f6 7F000000 		.4byte	0x7f
 2806 00fa 02       		.uleb128 0x2
 2807 00fb 78020000 		.4byte	.LASF22
 2808 00ff 03       		.byte	0x3
 2809 0100 38       		.byte	0x38
 2810 0101 91000000 		.4byte	0x91
 2811 0105 03       		.uleb128 0x3
 2812 0106 08       		.byte	0x8
 2813 0107 04       		.byte	0x4
 2814 0108 9B040000 		.4byte	.LASF23
 2815 010c 03       		.uleb128 0x3
 2816 010d 04       		.byte	0x4
 2817 010e 07       		.byte	0x7
 2818 010f 0A060000 		.4byte	.LASF24
 2819 0113 03       		.uleb128 0x3
 2820 0114 01       		.byte	0x1
 2821 0115 08       		.byte	0x8
 2822 0116 48030000 		.4byte	.LASF25
 2823 011a 05       		.uleb128 0x5
 2824 011b 6F070000 		.4byte	.LASF143
 2825 011f 01       		.byte	0x1
 2826 0120 42000000 		.4byte	0x42
 2827 0124 04       		.byte	0x4
 2828 0125 F9       		.byte	0xf9
 2829 0126 37010000 		.4byte	0x137
 2830 012a 06       		.uleb128 0x6
 2831 012b 5C060000 		.4byte	.LASF26
 2832 012f 00       		.byte	0
 2833 0130 06       		.uleb128 0x6
 2834 0131 85060000 		.4byte	.LASF27
 2835 0135 01       		.byte	0x1
 2836 0136 00       		.byte	0
 2837 0137 07       		.uleb128 0x7
 2838 0138 F6030000 		.4byte	.LASF28
 2839 013c 04       		.byte	0x4
 2840 013d 0301     		.2byte	0x103
 2841 013f 43010000 		.4byte	0x143
 2842 0143 08       		.uleb128 0x8
ARM GAS  C:\Users\corne\AppData\Local\Temp\cc0fqrF9.s 			page 77


 2843 0144 04       		.byte	0x4
 2844 0145 49010000 		.4byte	0x149
 2845 0149 09       		.uleb128 0x9
 2846 014a B8000000 		.4byte	0xb8
 2847 014e 67010000 		.4byte	0x167
 2848 0152 0A       		.uleb128 0xa
 2849 0153 C3000000 		.4byte	0xc3
 2850 0157 0A       		.uleb128 0xa
 2851 0158 C3000000 		.4byte	0xc3
 2852 015c 0A       		.uleb128 0xa
 2853 015d 67010000 		.4byte	0x167
 2854 0161 0A       		.uleb128 0xa
 2855 0162 D9000000 		.4byte	0xd9
 2856 0166 00       		.byte	0
 2857 0167 08       		.uleb128 0x8
 2858 0168 04       		.byte	0x4
 2859 0169 C3000000 		.4byte	0xc3
 2860 016d 07       		.uleb128 0x7
 2861 016e EB020000 		.4byte	.LASF29
 2862 0172 04       		.byte	0x4
 2863 0173 0601     		.2byte	0x106
 2864 0175 79010000 		.4byte	0x179
 2865 0179 08       		.uleb128 0x8
 2866 017a 04       		.byte	0x4
 2867 017b 7F010000 		.4byte	0x17f
 2868 017f 0B       		.uleb128 0xb
 2869 0180 8A010000 		.4byte	0x18a
 2870 0184 0A       		.uleb128 0xa
 2871 0185 EF000000 		.4byte	0xef
 2872 0189 00       		.byte	0
 2873 018a 0C       		.uleb128 0xc
 2874 018b 28       		.byte	0x28
 2875 018c 04       		.byte	0x4
 2876 018d 0B01     		.2byte	0x10b
 2877 018f 8B020000 		.4byte	0x28b
 2878 0193 0D       		.uleb128 0xd
 2879 0194 9D000000 		.4byte	.LASF30
 2880 0198 04       		.byte	0x4
 2881 0199 1001     		.2byte	0x110
 2882 019b D9000000 		.4byte	0xd9
 2883 019f 00       		.byte	0
 2884 01a0 0D       		.uleb128 0xd
 2885 01a1 A4000000 		.4byte	.LASF31
 2886 01a5 04       		.byte	0x4
 2887 01a6 1101     		.2byte	0x111
 2888 01a8 CE000000 		.4byte	0xce
 2889 01ac 02       		.byte	0x2
 2890 01ad 0D       		.uleb128 0xd
 2891 01ae AB000000 		.4byte	.LASF32
 2892 01b2 04       		.byte	0x4
 2893 01b3 1201     		.2byte	0x112
 2894 01b5 CE000000 		.4byte	0xce
 2895 01b9 04       		.byte	0x4
 2896 01ba 0D       		.uleb128 0xd
 2897 01bb E6060000 		.4byte	.LASF33
 2898 01bf 04       		.byte	0x4
 2899 01c0 1301     		.2byte	0x113
ARM GAS  C:\Users\corne\AppData\Local\Temp\cc0fqrF9.s 			page 78


 2900 01c2 D9000000 		.4byte	0xd9
 2901 01c6 06       		.byte	0x6
 2902 01c7 0D       		.uleb128 0xd
 2903 01c8 ED060000 		.4byte	.LASF34
 2904 01cc 04       		.byte	0x4
 2905 01cd 1401     		.2byte	0x114
 2906 01cf CE000000 		.4byte	0xce
 2907 01d3 08       		.byte	0x8
 2908 01d4 0D       		.uleb128 0xd
 2909 01d5 F4060000 		.4byte	.LASF35
 2910 01d9 04       		.byte	0x4
 2911 01da 1501     		.2byte	0x115
 2912 01dc CE000000 		.4byte	0xce
 2913 01e0 0A       		.byte	0xa
 2914 01e1 0D       		.uleb128 0xd
 2915 01e2 FB060000 		.4byte	.LASF36
 2916 01e6 04       		.byte	0x4
 2917 01e7 1601     		.2byte	0x116
 2918 01e9 CE000000 		.4byte	0xce
 2919 01ed 0C       		.byte	0xc
 2920 01ee 0D       		.uleb128 0xd
 2921 01ef 02070000 		.4byte	.LASF37
 2922 01f3 04       		.byte	0x4
 2923 01f4 1701     		.2byte	0x117
 2924 01f6 CE000000 		.4byte	0xce
 2925 01fa 0E       		.byte	0xe
 2926 01fb 0D       		.uleb128 0xd
 2927 01fc 09070000 		.4byte	.LASF38
 2928 0200 04       		.byte	0x4
 2929 0201 1801     		.2byte	0x118
 2930 0203 CE000000 		.4byte	0xce
 2931 0207 10       		.byte	0x10
 2932 0208 0D       		.uleb128 0xd
 2933 0209 10070000 		.4byte	.LASF39
 2934 020d 04       		.byte	0x4
 2935 020e 1901     		.2byte	0x119
 2936 0210 CE000000 		.4byte	0xce
 2937 0214 12       		.byte	0x12
 2938 0215 0D       		.uleb128 0xd
 2939 0216 17070000 		.4byte	.LASF40
 2940 021a 04       		.byte	0x4
 2941 021b 1A01     		.2byte	0x11a
 2942 021d CE000000 		.4byte	0xce
 2943 0221 14       		.byte	0x14
 2944 0222 0D       		.uleb128 0xd
 2945 0223 1E070000 		.4byte	.LASF41
 2946 0227 04       		.byte	0x4
 2947 0228 1B01     		.2byte	0x11b
 2948 022a CE000000 		.4byte	0xce
 2949 022e 16       		.byte	0x16
 2950 022f 0D       		.uleb128 0xd
 2951 0230 C1020000 		.4byte	.LASF42
 2952 0234 04       		.byte	0x4
 2953 0235 1C01     		.2byte	0x11c
 2954 0237 C3000000 		.4byte	0xc3
 2955 023b 18       		.byte	0x18
 2956 023c 0D       		.uleb128 0xd
ARM GAS  C:\Users\corne\AppData\Local\Temp\cc0fqrF9.s 			page 79


 2957 023d C8020000 		.4byte	.LASF43
 2958 0241 04       		.byte	0x4
 2959 0242 1D01     		.2byte	0x11d
 2960 0244 CE000000 		.4byte	0xce
 2961 0248 1A       		.byte	0x1a
 2962 0249 0D       		.uleb128 0xd
 2963 024a CF020000 		.4byte	.LASF44
 2964 024e 04       		.byte	0x4
 2965 024f 1E01     		.2byte	0x11e
 2966 0251 C3000000 		.4byte	0xc3
 2967 0255 1C       		.byte	0x1c
 2968 0256 0D       		.uleb128 0xd
 2969 0257 D6020000 		.4byte	.LASF45
 2970 025b 04       		.byte	0x4
 2971 025c 1F01     		.2byte	0x11f
 2972 025e CE000000 		.4byte	0xce
 2973 0262 1E       		.byte	0x1e
 2974 0263 0D       		.uleb128 0xd
 2975 0264 DD020000 		.4byte	.LASF46
 2976 0268 04       		.byte	0x4
 2977 0269 2001     		.2byte	0x120
 2978 026b CE000000 		.4byte	0xce
 2979 026f 20       		.byte	0x20
 2980 0270 0D       		.uleb128 0xd
 2981 0271 E4020000 		.4byte	.LASF47
 2982 0275 04       		.byte	0x4
 2983 0276 2101     		.2byte	0x121
 2984 0278 B8000000 		.4byte	0xb8
 2985 027c 22       		.byte	0x22
 2986 027d 0D       		.uleb128 0xd
 2987 027e 70030000 		.4byte	.LASF48
 2988 0282 04       		.byte	0x4
 2989 0283 2201     		.2byte	0x122
 2990 0285 E4000000 		.4byte	0xe4
 2991 0289 24       		.byte	0x24
 2992 028a 00       		.byte	0
 2993 028b 07       		.uleb128 0x7
 2994 028c A7040000 		.4byte	.LASF49
 2995 0290 04       		.byte	0x4
 2996 0291 2401     		.2byte	0x124
 2997 0293 8A010000 		.4byte	0x18a
 2998 0297 0C       		.uleb128 0xc
 2999 0298 0C       		.byte	0xc
 3000 0299 04       		.byte	0x4
 3001 029a 3401     		.2byte	0x134
 3002 029c C8020000 		.4byte	0x2c8
 3003 02a0 0D       		.uleb128 0xd
 3004 02a1 32000000 		.4byte	.LASF50
 3005 02a5 04       		.byte	0x4
 3006 02a6 3601     		.2byte	0x136
 3007 02a8 EF000000 		.4byte	0xef
 3008 02ac 00       		.byte	0
 3009 02ad 0D       		.uleb128 0xd
 3010 02ae 21000000 		.4byte	.LASF51
 3011 02b2 04       		.byte	0x4
 3012 02b3 3801     		.2byte	0x138
 3013 02b5 E4000000 		.4byte	0xe4
ARM GAS  C:\Users\corne\AppData\Local\Temp\cc0fqrF9.s 			page 80


 3014 02b9 04       		.byte	0x4
 3015 02ba 0D       		.uleb128 0xd
 3016 02bb D1070000 		.4byte	.LASF52
 3017 02bf 04       		.byte	0x4
 3018 02c0 3A01     		.2byte	0x13a
 3019 02c2 EF000000 		.4byte	0xef
 3020 02c6 08       		.byte	0x8
 3021 02c7 00       		.byte	0
 3022 02c8 07       		.uleb128 0x7
 3023 02c9 02010000 		.4byte	.LASF53
 3024 02cd 04       		.byte	0x4
 3025 02ce 3B01     		.2byte	0x13b
 3026 02d0 97020000 		.4byte	0x297
 3027 02d4 0C       		.uleb128 0xc
 3028 02d5 0C       		.byte	0xc
 3029 02d6 04       		.byte	0x4
 3030 02d7 4201     		.2byte	0x142
 3031 02d9 05030000 		.4byte	0x305
 3032 02dd 0D       		.uleb128 0xd
 3033 02de 32000000 		.4byte	.LASF50
 3034 02e2 04       		.byte	0x4
 3035 02e3 4401     		.2byte	0x144
 3036 02e5 EF000000 		.4byte	0xef
 3037 02e9 00       		.byte	0
 3038 02ea 0D       		.uleb128 0xd
 3039 02eb 21000000 		.4byte	.LASF51
 3040 02ef 04       		.byte	0x4
 3041 02f0 4601     		.2byte	0x146
 3042 02f2 EF000000 		.4byte	0xef
 3043 02f6 04       		.byte	0x4
 3044 02f7 0D       		.uleb128 0xd
 3045 02f8 D1070000 		.4byte	.LASF52
 3046 02fc 04       		.byte	0x4
 3047 02fd 4801     		.2byte	0x148
 3048 02ff EF000000 		.4byte	0xef
 3049 0303 08       		.byte	0x8
 3050 0304 00       		.byte	0
 3051 0305 07       		.uleb128 0x7
 3052 0306 2D060000 		.4byte	.LASF54
 3053 030a 04       		.byte	0x4
 3054 030b 4901     		.2byte	0x149
 3055 030d D4020000 		.4byte	0x2d4
 3056 0311 0C       		.uleb128 0xc
 3057 0312 05       		.byte	0x5
 3058 0313 04       		.byte	0x4
 3059 0314 4F01     		.2byte	0x14f
 3060 0316 5C030000 		.4byte	0x35c
 3061 031a 0D       		.uleb128 0xd
 3062 031b FC000000 		.4byte	.LASF55
 3063 031f 04       		.byte	0x4
 3064 0320 5101     		.2byte	0x151
 3065 0322 C3000000 		.4byte	0xc3
 3066 0326 00       		.byte	0
 3067 0327 0D       		.uleb128 0xd
 3068 0328 0E010000 		.4byte	.LASF56
 3069 032c 04       		.byte	0x4
 3070 032d 5301     		.2byte	0x153
ARM GAS  C:\Users\corne\AppData\Local\Temp\cc0fqrF9.s 			page 81


 3071 032f C3000000 		.4byte	0xc3
 3072 0333 01       		.byte	0x1
 3073 0334 0D       		.uleb128 0xd
 3074 0335 DA000000 		.4byte	.LASF57
 3075 0339 04       		.byte	0x4
 3076 033a 5501     		.2byte	0x155
 3077 033c C3000000 		.4byte	0xc3
 3078 0340 02       		.byte	0x2
 3079 0341 0D       		.uleb128 0xd
 3080 0342 AD050000 		.4byte	.LASF58
 3081 0346 04       		.byte	0x4
 3082 0347 5701     		.2byte	0x157
 3083 0349 C3000000 		.4byte	0xc3
 3084 034d 03       		.byte	0x3
 3085 034e 0D       		.uleb128 0xd
 3086 034f C4070000 		.4byte	.LASF59
 3087 0353 04       		.byte	0x4
 3088 0354 5901     		.2byte	0x159
 3089 0356 C3000000 		.4byte	0xc3
 3090 035a 04       		.byte	0x4
 3091 035b 00       		.byte	0
 3092 035c 07       		.uleb128 0x7
 3093 035d 84050000 		.4byte	.LASF60
 3094 0361 04       		.byte	0x4
 3095 0362 5A01     		.2byte	0x15a
 3096 0364 11030000 		.4byte	0x311
 3097 0368 0C       		.uleb128 0xc
 3098 0369 40       		.byte	0x40
 3099 036a 04       		.byte	0x4
 3100 036b 5F01     		.2byte	0x15f
 3101 036d D9030000 		.4byte	0x3d9
 3102 0371 0D       		.uleb128 0xd
 3103 0372 57020000 		.4byte	.LASF61
 3104 0376 04       		.byte	0x4
 3105 0377 6101     		.2byte	0x161
 3106 0379 C3000000 		.4byte	0xc3
 3107 037d 00       		.byte	0
 3108 037e 0E       		.uleb128 0xe
 3109 037f 696400   		.ascii	"id\000"
 3110 0382 04       		.byte	0x4
 3111 0383 6301     		.2byte	0x163
 3112 0385 C3000000 		.4byte	0xc3
 3113 0389 01       		.byte	0x1
 3114 038a 0D       		.uleb128 0xd
 3115 038b 45000000 		.4byte	.LASF62
 3116 038f 04       		.byte	0x4
 3117 0390 6501     		.2byte	0x165
 3118 0392 1A010000 		.4byte	0x11a
 3119 0396 02       		.byte	0x2
 3120 0397 0D       		.uleb128 0xd
 3121 0398 CE050000 		.4byte	.LASF63
 3122 039c 04       		.byte	0x4
 3123 039d 6701     		.2byte	0x167
 3124 039f 37010000 		.4byte	0x137
 3125 03a3 04       		.byte	0x4
 3126 03a4 0D       		.uleb128 0xd
 3127 03a5 85030000 		.4byte	.LASF64
ARM GAS  C:\Users\corne\AppData\Local\Temp\cc0fqrF9.s 			page 82


 3128 03a9 04       		.byte	0x4
 3129 03aa 6901     		.2byte	0x169
 3130 03ac 37010000 		.4byte	0x137
 3131 03b0 08       		.byte	0x8
 3132 03b1 0D       		.uleb128 0xd
 3133 03b2 FF020000 		.4byte	.LASF65
 3134 03b6 04       		.byte	0x4
 3135 03b7 6B01     		.2byte	0x16b
 3136 03b9 6D010000 		.4byte	0x16d
 3137 03bd 0C       		.byte	0xc
 3138 03be 0D       		.uleb128 0xd
 3139 03bf 11030000 		.4byte	.LASF66
 3140 03c3 04       		.byte	0x4
 3141 03c4 6D01     		.2byte	0x16d
 3142 03c6 8B020000 		.4byte	0x28b
 3143 03ca 10       		.byte	0x10
 3144 03cb 0D       		.uleb128 0xd
 3145 03cc 08030000 		.4byte	.LASF67
 3146 03d0 04       		.byte	0x4
 3147 03d1 6F01     		.2byte	0x16f
 3148 03d3 5C030000 		.4byte	0x35c
 3149 03d7 38       		.byte	0x38
 3150 03d8 00       		.byte	0
 3151 03d9 07       		.uleb128 0x7
 3152 03da F2050000 		.4byte	.LASF68
 3153 03de 04       		.byte	0x4
 3154 03df 7001     		.2byte	0x170
 3155 03e1 68030000 		.4byte	0x368
 3156 03e5 03       		.uleb128 0x3
 3157 03e6 04       		.byte	0x4
 3158 03e7 04       		.byte	0x4
 3159 03e8 5A010000 		.4byte	.LASF69
 3160 03ec 03       		.uleb128 0x3
 3161 03ed 08       		.byte	0x8
 3162 03ee 04       		.byte	0x4
 3163 03ef AA070000 		.4byte	.LASF70
 3164 03f3 0F       		.uleb128 0xf
 3165 03f4 1E040000 		.4byte	.LASF72
 3166 03f8 01       		.byte	0x1
 3167 03f9 E102     		.2byte	0x2e1
 3168 03fb 00000000 		.4byte	.LFB14
 3169 03ff 16000000 		.4byte	.LFE14-.LFB14
 3170 0403 01       		.uleb128 0x1
 3171 0404 9C       		.byte	0x9c
 3172 0405 28040000 		.4byte	0x428
 3173 0409 10       		.uleb128 0x10
 3174 040a 91010000 		.4byte	.LASF71
 3175 040e 01       		.byte	0x1
 3176 040f E102     		.2byte	0x2e1
 3177 0411 67010000 		.4byte	0x167
 3178 0415 01       		.uleb128 0x1
 3179 0416 50       		.byte	0x50
 3180 0417 11       		.uleb128 0x11
 3181 0418 08030000 		.4byte	.LASF67
 3182 041c 01       		.byte	0x1
 3183 041d E102     		.2byte	0x2e1
 3184 041f 28040000 		.4byte	0x428
ARM GAS  C:\Users\corne\AppData\Local\Temp\cc0fqrF9.s 			page 83


 3185 0423 00000000 		.4byte	.LLST0
 3186 0427 00       		.byte	0
 3187 0428 08       		.uleb128 0x8
 3188 0429 04       		.byte	0x4
 3189 042a 2E040000 		.4byte	0x42e
 3190 042e 12       		.uleb128 0x12
 3191 042f 5C030000 		.4byte	0x35c
 3192 0433 0F       		.uleb128 0xf
 3193 0434 08040000 		.4byte	.LASF73
 3194 0438 01       		.byte	0x1
 3195 0439 EA02     		.2byte	0x2ea
 3196 043b 00000000 		.4byte	.LFB15
 3197 043f 10000000 		.4byte	.LFE15-.LFB15
 3198 0443 01       		.uleb128 0x1
 3199 0444 9C       		.byte	0x9c
 3200 0445 68040000 		.4byte	0x468
 3201 0449 10       		.uleb128 0x10
 3202 044a 91010000 		.4byte	.LASF71
 3203 044e 01       		.byte	0x1
 3204 044f EA02     		.2byte	0x2ea
 3205 0451 67010000 		.4byte	0x167
 3206 0455 01       		.uleb128 0x1
 3207 0456 50       		.byte	0x50
 3208 0457 11       		.uleb128 0x11
 3209 0458 08030000 		.4byte	.LASF67
 3210 045c 01       		.byte	0x1
 3211 045d EA02     		.2byte	0x2ea
 3212 045f 28040000 		.4byte	0x428
 3213 0463 21000000 		.4byte	.LLST1
 3214 0467 00       		.byte	0
 3215 0468 0F       		.uleb128 0xf
 3216 0469 6C050000 		.4byte	.LASF74
 3217 046d 01       		.byte	0x1
 3218 046e F302     		.2byte	0x2f3
 3219 0470 00000000 		.4byte	.LFB16
 3220 0474 16000000 		.4byte	.LFE16-.LFB16
 3221 0478 01       		.uleb128 0x1
 3222 0479 9C       		.byte	0x9c
 3223 047a 9D040000 		.4byte	0x49d
 3224 047e 10       		.uleb128 0x10
 3225 047f 91010000 		.4byte	.LASF71
 3226 0483 01       		.byte	0x1
 3227 0484 F302     		.2byte	0x2f3
 3228 0486 67010000 		.4byte	0x167
 3229 048a 01       		.uleb128 0x1
 3230 048b 50       		.byte	0x50
 3231 048c 11       		.uleb128 0x11
 3232 048d 08030000 		.4byte	.LASF67
 3233 0491 01       		.byte	0x1
 3234 0492 F302     		.2byte	0x2f3
 3235 0494 28040000 		.4byte	0x428
 3236 0498 42000000 		.4byte	.LLST2
 3237 049c 00       		.byte	0
 3238 049d 0F       		.uleb128 0xf
 3239 049e 0A000000 		.4byte	.LASF75
 3240 04a2 01       		.byte	0x1
 3241 04a3 FC02     		.2byte	0x2fc
ARM GAS  C:\Users\corne\AppData\Local\Temp\cc0fqrF9.s 			page 84


 3242 04a5 00000000 		.4byte	.LFB17
 3243 04a9 10000000 		.4byte	.LFE17-.LFB17
 3244 04ad 01       		.uleb128 0x1
 3245 04ae 9C       		.byte	0x9c
 3246 04af D2040000 		.4byte	0x4d2
 3247 04b3 10       		.uleb128 0x10
 3248 04b4 91010000 		.4byte	.LASF71
 3249 04b8 01       		.byte	0x1
 3250 04b9 FC02     		.2byte	0x2fc
 3251 04bb 67010000 		.4byte	0x167
 3252 04bf 01       		.uleb128 0x1
 3253 04c0 50       		.byte	0x50
 3254 04c1 11       		.uleb128 0x11
 3255 04c2 08030000 		.4byte	.LASF67
 3256 04c6 01       		.byte	0x1
 3257 04c7 FC02     		.2byte	0x2fc
 3258 04c9 28040000 		.4byte	0x428
 3259 04cd 63000000 		.4byte	.LLST3
 3260 04d1 00       		.byte	0
 3261 04d2 0F       		.uleb128 0xf
 3262 04d3 2B010000 		.4byte	.LASF76
 3263 04d7 01       		.byte	0x1
 3264 04d8 0603     		.2byte	0x306
 3265 04da 00000000 		.4byte	.LFB18
 3266 04de 28000000 		.4byte	.LFE18-.LFB18
 3267 04e2 01       		.uleb128 0x1
 3268 04e3 9C       		.byte	0x9c
 3269 04e4 05050000 		.4byte	0x505
 3270 04e8 10       		.uleb128 0x10
 3271 04e9 91010000 		.4byte	.LASF71
 3272 04ed 01       		.byte	0x1
 3273 04ee 0603     		.2byte	0x306
 3274 04f0 05050000 		.4byte	0x505
 3275 04f4 01       		.uleb128 0x1
 3276 04f5 50       		.byte	0x50
 3277 04f6 10       		.uleb128 0x10
 3278 04f7 08030000 		.4byte	.LASF67
 3279 04fb 01       		.byte	0x1
 3280 04fc 0603     		.2byte	0x306
 3281 04fe 10050000 		.4byte	0x510
 3282 0502 01       		.uleb128 0x1
 3283 0503 51       		.byte	0x51
 3284 0504 00       		.byte	0
 3285 0505 08       		.uleb128 0x8
 3286 0506 04       		.byte	0x4
 3287 0507 0B050000 		.4byte	0x50b
 3288 050b 12       		.uleb128 0x12
 3289 050c C3000000 		.4byte	0xc3
 3290 0510 08       		.uleb128 0x8
 3291 0511 04       		.byte	0x4
 3292 0512 5C030000 		.4byte	0x35c
 3293 0516 0F       		.uleb128 0xf
 3294 0517 1C030000 		.4byte	.LASF77
 3295 051b 01       		.byte	0x1
 3296 051c 4B03     		.2byte	0x34b
 3297 051e 00000000 		.4byte	.LFB22
 3298 0522 32000000 		.4byte	.LFE22-.LFB22
ARM GAS  C:\Users\corne\AppData\Local\Temp\cc0fqrF9.s 			page 85


 3299 0526 01       		.uleb128 0x1
 3300 0527 9C       		.byte	0x9c
 3301 0528 79050000 		.4byte	0x579
 3302 052c 10       		.uleb128 0x10
 3303 052d 91010000 		.4byte	.LASF71
 3304 0531 01       		.byte	0x1
 3305 0532 4B03     		.2byte	0x34b
 3306 0534 05050000 		.4byte	0x505
 3307 0538 01       		.uleb128 0x1
 3308 0539 50       		.byte	0x50
 3309 053a 10       		.uleb128 0x10
 3310 053b A1050000 		.4byte	.LASF78
 3311 053f 01       		.byte	0x1
 3312 0540 4B03     		.2byte	0x34b
 3313 0542 79050000 		.4byte	0x579
 3314 0546 01       		.uleb128 0x1
 3315 0547 51       		.byte	0x51
 3316 0548 13       		.uleb128 0x13
 3317 0549 B1070000 		.4byte	.LASF79
 3318 054d 01       		.byte	0x1
 3319 054e 4E03     		.2byte	0x34e
 3320 0550 EF000000 		.4byte	0xef
 3321 0554 84000000 		.4byte	.LLST4
 3322 0558 13       		.uleb128 0x13
 3323 0559 63040000 		.4byte	.LASF80
 3324 055d 01       		.byte	0x1
 3325 055e 4F03     		.2byte	0x34f
 3326 0560 EF000000 		.4byte	0xef
 3327 0564 97000000 		.4byte	.LLST5
 3328 0568 13       		.uleb128 0x13
 3329 0569 BB070000 		.4byte	.LASF81
 3330 056d 01       		.byte	0x1
 3331 056e 5003     		.2byte	0x350
 3332 0570 EF000000 		.4byte	0xef
 3333 0574 FC000000 		.4byte	.LLST6
 3334 0578 00       		.byte	0
 3335 0579 08       		.uleb128 0x8
 3336 057a 04       		.byte	0x4
 3337 057b 05030000 		.4byte	0x305
 3338 057f 14       		.uleb128 0x14
 3339 0580 AA020000 		.4byte	.LASF86
 3340 0584 01       		.byte	0x1
 3341 0585 F303     		.2byte	0x3f3
 3342 0587 E4000000 		.4byte	0xe4
 3343 058b 00000000 		.4byte	.LFB24
 3344 058f 70000000 		.4byte	.LFE24-.LFB24
 3345 0593 01       		.uleb128 0x1
 3346 0594 9C       		.byte	0x9c
 3347 0595 04060000 		.4byte	0x604
 3348 0599 11       		.uleb128 0x11
 3349 059a A1050000 		.4byte	.LASF78
 3350 059e 01       		.byte	0x1
 3351 059f F303     		.2byte	0x3f3
 3352 05a1 04060000 		.4byte	0x604
 3353 05a5 1A010000 		.4byte	.LLST7
 3354 05a9 10       		.uleb128 0x10
 3355 05aa 11030000 		.4byte	.LASF66
ARM GAS  C:\Users\corne\AppData\Local\Temp\cc0fqrF9.s 			page 86


 3356 05ae 01       		.byte	0x1
 3357 05af F403     		.2byte	0x3f4
 3358 05b1 0F060000 		.4byte	0x60f
 3359 05b5 01       		.uleb128 0x1
 3360 05b6 51       		.byte	0x51
 3361 05b7 13       		.uleb128 0x13
 3362 05b8 4A040000 		.4byte	.LASF82
 3363 05bc 01       		.byte	0x1
 3364 05bd F603     		.2byte	0x3f6
 3365 05bf E4000000 		.4byte	0xe4
 3366 05c3 3B010000 		.4byte	.LLST8
 3367 05c7 13       		.uleb128 0x13
 3368 05c8 4F040000 		.4byte	.LASF83
 3369 05cc 01       		.byte	0x1
 3370 05cd F703     		.2byte	0x3f7
 3371 05cf E4000000 		.4byte	0xe4
 3372 05d3 B9010000 		.4byte	.LLST9
 3373 05d7 13       		.uleb128 0x13
 3374 05d8 21000000 		.4byte	.LASF51
 3375 05dc 01       		.byte	0x1
 3376 05dd F803     		.2byte	0x3f8
 3377 05df E4000000 		.4byte	0xe4
 3378 05e3 09020000 		.4byte	.LLST10
 3379 05e7 15       		.uleb128 0x15
 3380 05e8 6F000000 		.4byte	.LASF84
 3381 05ec 01       		.byte	0x1
 3382 05ed F903     		.2byte	0x3f9
 3383 05ef E4000000 		.4byte	0xe4
 3384 05f3 E060     		.sleb128 -4000
 3385 05f5 16       		.uleb128 0x16
 3386 05f6 6C040000 		.4byte	.LASF85
 3387 05fa 01       		.byte	0x1
 3388 05fb FA03     		.2byte	0x3fa
 3389 05fd E4000000 		.4byte	0xe4
 3390 0601 3421     		.2byte	0x2134
 3391 0603 00       		.byte	0
 3392 0604 08       		.uleb128 0x8
 3393 0605 04       		.byte	0x4
 3394 0606 0A060000 		.4byte	0x60a
 3395 060a 12       		.uleb128 0x12
 3396 060b 05030000 		.4byte	0x305
 3397 060f 08       		.uleb128 0x8
 3398 0610 04       		.byte	0x4
 3399 0611 8B020000 		.4byte	0x28b
 3400 0615 17       		.uleb128 0x17
 3401 0616 9F060000 		.4byte	.LASF87
 3402 061a 01       		.byte	0x1
 3403 061b 1004     		.2byte	0x410
 3404 061d EF000000 		.4byte	0xef
 3405 0621 00000000 		.4byte	.LFB25
 3406 0625 2C020000 		.4byte	.LFE25-.LFB25
 3407 0629 01       		.uleb128 0x1
 3408 062a 9C       		.byte	0x9c
 3409 062b C4060000 		.4byte	0x6c4
 3410 062f 11       		.uleb128 0x11
 3411 0630 A1050000 		.4byte	.LASF78
 3412 0634 01       		.byte	0x1
ARM GAS  C:\Users\corne\AppData\Local\Temp\cc0fqrF9.s 			page 87


 3413 0635 1004     		.2byte	0x410
 3414 0637 04060000 		.4byte	0x604
 3415 063b 46020000 		.4byte	.LLST11
 3416 063f 11       		.uleb128 0x11
 3417 0640 11030000 		.4byte	.LASF66
 3418 0644 01       		.byte	0x1
 3419 0645 1104     		.2byte	0x411
 3420 0647 C4060000 		.4byte	0x6c4
 3421 064b 72020000 		.4byte	.LLST12
 3422 064f 13       		.uleb128 0x13
 3423 0650 4A040000 		.4byte	.LASF82
 3424 0654 01       		.byte	0x1
 3425 0655 1304     		.2byte	0x413
 3426 0657 FA000000 		.4byte	0xfa
 3427 065b 9E020000 		.4byte	.LLST13
 3428 065f 13       		.uleb128 0x13
 3429 0660 4F040000 		.4byte	.LASF83
 3430 0664 01       		.byte	0x1
 3431 0665 1404     		.2byte	0x414
 3432 0667 FA000000 		.4byte	0xfa
 3433 066b F6020000 		.4byte	.LLST14
 3434 066f 18       		.uleb128 0x18
 3435 0670 54040000 		.4byte	.LASF88
 3436 0674 01       		.byte	0x1
 3437 0675 1504     		.2byte	0x415
 3438 0677 FA000000 		.4byte	0xfa
 3439 067b 00000000 		.8byte	0x800000000000
 3439      00800000 
 3440 0683 13       		.uleb128 0x13
 3441 0684 59040000 		.4byte	.LASF89
 3442 0688 01       		.byte	0x1
 3443 0689 1604     		.2byte	0x416
 3444 068b FA000000 		.4byte	0xfa
 3445 068f 46030000 		.4byte	.LLST15
 3446 0693 13       		.uleb128 0x13
 3447 0694 32000000 		.4byte	.LASF50
 3448 0698 01       		.byte	0x1
 3449 0699 1704     		.2byte	0x417
 3450 069b EF000000 		.4byte	0xef
 3451 069f 6E030000 		.4byte	.LLST16
 3452 06a3 19       		.uleb128 0x19
 3453 06a4 FC070000 		.4byte	.LASF90
 3454 06a8 01       		.byte	0x1
 3455 06a9 1804     		.2byte	0x418
 3456 06ab EF000000 		.4byte	0xef
 3457 06af C0C62D00 		.4byte	0x2dc6c0
 3458 06b3 19       		.uleb128 0x19
 3459 06b4 EF070000 		.4byte	.LASF91
 3460 06b8 01       		.byte	0x1
 3461 06b9 1904     		.2byte	0x419
 3462 06bb EF000000 		.4byte	0xef
 3463 06bf C0D8A700 		.4byte	0xa7d8c0
 3464 06c3 00       		.byte	0
 3465 06c4 08       		.uleb128 0x8
 3466 06c5 04       		.byte	0x4
 3467 06c6 CA060000 		.4byte	0x6ca
 3468 06ca 12       		.uleb128 0x12
ARM GAS  C:\Users\corne\AppData\Local\Temp\cc0fqrF9.s 			page 88


 3469 06cb 8B020000 		.4byte	0x28b
 3470 06cf 14       		.uleb128 0x14
 3471 06d0 2C050000 		.4byte	.LASF92
 3472 06d4 01       		.byte	0x1
 3473 06d5 6C04     		.2byte	0x46c
 3474 06d7 EF000000 		.4byte	0xef
 3475 06db 00000000 		.4byte	.LFB26
 3476 06df D8000000 		.4byte	.LFE26-.LFB26
 3477 06e3 01       		.uleb128 0x1
 3478 06e4 9C       		.byte	0x9c
 3479 06e5 78070000 		.4byte	0x778
 3480 06e9 11       		.uleb128 0x11
 3481 06ea A1050000 		.4byte	.LASF78
 3482 06ee 01       		.byte	0x1
 3483 06ef 6C04     		.2byte	0x46c
 3484 06f1 04060000 		.4byte	0x604
 3485 06f5 97030000 		.4byte	.LLST17
 3486 06f9 11       		.uleb128 0x11
 3487 06fa 11030000 		.4byte	.LASF66
 3488 06fe 01       		.byte	0x1
 3489 06ff 6D04     		.2byte	0x46d
 3490 0701 C4060000 		.4byte	0x6c4
 3491 0705 B8030000 		.4byte	.LLST18
 3492 0709 13       		.uleb128 0x13
 3493 070a 4A040000 		.4byte	.LASF82
 3494 070e 01       		.byte	0x1
 3495 070f 6F04     		.2byte	0x46f
 3496 0711 E4000000 		.4byte	0xe4
 3497 0715 D9030000 		.4byte	.LLST19
 3498 0719 13       		.uleb128 0x13
 3499 071a 4F040000 		.4byte	.LASF83
 3500 071e 01       		.byte	0x1
 3501 071f 7004     		.2byte	0x470
 3502 0721 E4000000 		.4byte	0xe4
 3503 0725 0D040000 		.4byte	.LLST20
 3504 0729 13       		.uleb128 0x13
 3505 072a 54040000 		.4byte	.LASF88
 3506 072e 01       		.byte	0x1
 3507 072f 7104     		.2byte	0x471
 3508 0731 E4000000 		.4byte	0xe4
 3509 0735 34090000 		.4byte	.LLST21
 3510 0739 13       		.uleb128 0x13
 3511 073a 59040000 		.4byte	.LASF89
 3512 073e 01       		.byte	0x1
 3513 073f 7204     		.2byte	0x472
 3514 0741 E4000000 		.4byte	0xe4
 3515 0745 CD0F0000 		.4byte	.LLST22
 3516 0749 13       		.uleb128 0x13
 3517 074a 5E040000 		.4byte	.LASF93
 3518 074e 01       		.byte	0x1
 3519 074f 7304     		.2byte	0x473
 3520 0751 E4000000 		.4byte	0xe4
 3521 0755 4D120000 		.4byte	.LLST23
 3522 0759 1A       		.uleb128 0x1a
 3523 075a D1070000 		.4byte	.LASF52
 3524 075e 01       		.byte	0x1
 3525 075f 7404     		.2byte	0x474
ARM GAS  C:\Users\corne\AppData\Local\Temp\cc0fqrF9.s 			page 89


 3526 0761 EF000000 		.4byte	0xef
 3527 0765 01       		.uleb128 0x1
 3528 0766 50       		.byte	0x50
 3529 0767 19       		.uleb128 0x19
 3530 0768 FD050000 		.4byte	.LASF94
 3531 076c 01       		.byte	0x1
 3532 076d 7504     		.2byte	0x475
 3533 076f EF000000 		.4byte	0xef
 3534 0773 A0860100 		.4byte	0x186a0
 3535 0777 00       		.byte	0
 3536 0778 14       		.uleb128 0x14
 3537 0779 B4050000 		.4byte	.LASF95
 3538 077d 01       		.byte	0x1
 3539 077e 6903     		.2byte	0x369
 3540 0780 B8000000 		.4byte	0xb8
 3541 0784 00000000 		.4byte	.LFB23
 3542 0788 62000000 		.4byte	.LFE23-.LFB23
 3543 078c 01       		.uleb128 0x1
 3544 078d 9C       		.byte	0x9c
 3545 078e 2D080000 		.4byte	0x82d
 3546 0792 11       		.uleb128 0x11
 3547 0793 4D030000 		.4byte	.LASF96
 3548 0797 01       		.byte	0x1
 3549 0798 6903     		.2byte	0x369
 3550 079a C3000000 		.4byte	0xc3
 3551 079e 13130000 		.4byte	.LLST24
 3552 07a2 11       		.uleb128 0x11
 3553 07a3 A1050000 		.4byte	.LASF78
 3554 07a7 01       		.byte	0x1
 3555 07a8 6903     		.2byte	0x369
 3556 07aa 04060000 		.4byte	0x604
 3557 07ae 7F130000 		.4byte	.LLST25
 3558 07b2 11       		.uleb128 0x11
 3559 07b3 3B000000 		.4byte	.LASF97
 3560 07b7 01       		.byte	0x1
 3561 07b8 6A03     		.2byte	0x36a
 3562 07ba 2D080000 		.4byte	0x82d
 3563 07be C1130000 		.4byte	.LLST26
 3564 07c2 11       		.uleb128 0x11
 3565 07c3 11030000 		.4byte	.LASF66
 3566 07c7 01       		.byte	0x1
 3567 07c8 6A03     		.2byte	0x36a
 3568 07ca 0F060000 		.4byte	0x60f
 3569 07ce 03140000 		.4byte	.LLST27
 3570 07d2 13       		.uleb128 0x13
 3571 07d3 2D000000 		.4byte	.LASF98
 3572 07d7 01       		.byte	0x1
 3573 07d8 6C03     		.2byte	0x36c
 3574 07da B8000000 		.4byte	0xb8
 3575 07de 45140000 		.4byte	.LLST28
 3576 07e2 1B       		.uleb128 0x1b
 3577 07e3 2A000000 		.4byte	.LVL129
 3578 07e7 7F050000 		.4byte	0x57f
 3579 07eb FC070000 		.4byte	0x7fc
 3580 07ef 1C       		.uleb128 0x1c
 3581 07f0 01       		.uleb128 0x1
 3582 07f1 50       		.byte	0x50
ARM GAS  C:\Users\corne\AppData\Local\Temp\cc0fqrF9.s 			page 90


 3583 07f2 02       		.uleb128 0x2
 3584 07f3 76       		.byte	0x76
 3585 07f4 00       		.sleb128 0
 3586 07f5 1C       		.uleb128 0x1c
 3587 07f6 01       		.uleb128 0x1
 3588 07f7 51       		.byte	0x51
 3589 07f8 02       		.uleb128 0x2
 3590 07f9 77       		.byte	0x77
 3591 07fa 00       		.sleb128 0
 3592 07fb 00       		.byte	0
 3593 07fc 1B       		.uleb128 0x1b
 3594 07fd 38000000 		.4byte	.LVL130
 3595 0801 15060000 		.4byte	0x615
 3596 0805 16080000 		.4byte	0x816
 3597 0809 1C       		.uleb128 0x1c
 3598 080a 01       		.uleb128 0x1
 3599 080b 50       		.byte	0x50
 3600 080c 02       		.uleb128 0x2
 3601 080d 76       		.byte	0x76
 3602 080e 00       		.sleb128 0
 3603 080f 1C       		.uleb128 0x1c
 3604 0810 01       		.uleb128 0x1
 3605 0811 51       		.byte	0x51
 3606 0812 02       		.uleb128 0x2
 3607 0813 77       		.byte	0x77
 3608 0814 00       		.sleb128 0
 3609 0815 00       		.byte	0
 3610 0816 1D       		.uleb128 0x1d
 3611 0817 46000000 		.4byte	.LVL131
 3612 081b CF060000 		.4byte	0x6cf
 3613 081f 1C       		.uleb128 0x1c
 3614 0820 01       		.uleb128 0x1
 3615 0821 50       		.byte	0x50
 3616 0822 02       		.uleb128 0x2
 3617 0823 76       		.byte	0x76
 3618 0824 00       		.sleb128 0
 3619 0825 1C       		.uleb128 0x1c
 3620 0826 01       		.uleb128 0x1
 3621 0827 51       		.byte	0x51
 3622 0828 02       		.uleb128 0x2
 3623 0829 77       		.byte	0x77
 3624 082a 00       		.sleb128 0
 3625 082b 00       		.byte	0
 3626 082c 00       		.byte	0
 3627 082d 08       		.uleb128 0x8
 3628 082e 04       		.byte	0x4
 3629 082f C8020000 		.4byte	0x2c8
 3630 0833 0F       		.uleb128 0xf
 3631 0834 96070000 		.4byte	.LASF99
 3632 0838 01       		.byte	0x1
 3633 0839 B204     		.2byte	0x4b2
 3634 083b 00000000 		.4byte	.LFB28
 3635 083f 1C000000 		.4byte	.LFE28-.LFB28
 3636 0843 01       		.uleb128 0x1
 3637 0844 9C       		.byte	0x9c
 3638 0845 92080000 		.4byte	0x892
 3639 0849 10       		.uleb128 0x10
ARM GAS  C:\Users\corne\AppData\Local\Temp\cc0fqrF9.s 			page 91


 3640 084a 4A050000 		.4byte	.LASF100
 3641 084e 01       		.byte	0x1
 3642 084f B204     		.2byte	0x4b2
 3643 0851 05050000 		.4byte	0x505
 3644 0855 01       		.uleb128 0x1
 3645 0856 50       		.byte	0x50
 3646 0857 10       		.uleb128 0x10
 3647 0858 9A010000 		.4byte	.LASF101
 3648 085c 01       		.byte	0x1
 3649 085d B204     		.2byte	0x4b2
 3650 085f 67010000 		.4byte	0x167
 3651 0863 01       		.uleb128 0x1
 3652 0864 51       		.byte	0x51
 3653 0865 10       		.uleb128 0x10
 3654 0866 91010000 		.4byte	.LASF71
 3655 086a 01       		.byte	0x1
 3656 086b B204     		.2byte	0x4b2
 3657 086d 05050000 		.4byte	0x505
 3658 0871 01       		.uleb128 0x1
 3659 0872 52       		.byte	0x52
 3660 0873 1E       		.uleb128 0x1e
 3661 0874 6C656E00 		.ascii	"len\000"
 3662 0878 01       		.byte	0x1
 3663 0879 B204     		.2byte	0x4b2
 3664 087b C3000000 		.4byte	0xc3
 3665 087f 01       		.uleb128 0x1
 3666 0880 53       		.byte	0x53
 3667 0881 13       		.uleb128 0x13
 3668 0882 6C010000 		.4byte	.LASF102
 3669 0886 01       		.byte	0x1
 3670 0887 B404     		.2byte	0x4b4
 3671 0889 C3000000 		.4byte	0xc3
 3672 088d 64140000 		.4byte	.LLST29
 3673 0891 00       		.byte	0
 3674 0892 0F       		.uleb128 0xf
 3675 0893 40060000 		.4byte	.LASF103
 3676 0897 01       		.byte	0x1
 3677 0898 C004     		.2byte	0x4c0
 3678 089a 00000000 		.4byte	.LFB29
 3679 089e 80000000 		.4byte	.LFE29-.LFB29
 3680 08a2 01       		.uleb128 0x1
 3681 08a3 9C       		.byte	0x9c
 3682 08a4 D5080000 		.4byte	0x8d5
 3683 08a8 10       		.uleb128 0x10
 3684 08a9 91010000 		.4byte	.LASF71
 3685 08ad 01       		.byte	0x1
 3686 08ae C004     		.2byte	0x4c0
 3687 08b0 05050000 		.4byte	0x505
 3688 08b4 01       		.uleb128 0x1
 3689 08b5 50       		.byte	0x50
 3690 08b6 1E       		.uleb128 0x1e
 3691 08b7 64657600 		.ascii	"dev\000"
 3692 08bb 01       		.byte	0x1
 3693 08bc C004     		.2byte	0x4c0
 3694 08be D5080000 		.4byte	0x8d5
 3695 08c2 01       		.uleb128 0x1
 3696 08c3 51       		.byte	0x51
ARM GAS  C:\Users\corne\AppData\Local\Temp\cc0fqrF9.s 			page 92


 3697 08c4 1A       		.uleb128 0x1a
 3698 08c5 11030000 		.4byte	.LASF66
 3699 08c9 01       		.byte	0x1
 3700 08ca C204     		.2byte	0x4c2
 3701 08cc 0F060000 		.4byte	0x60f
 3702 08d0 03       		.uleb128 0x3
 3703 08d1 71       		.byte	0x71
 3704 08d2 10       		.sleb128 16
 3705 08d3 9F       		.byte	0x9f
 3706 08d4 00       		.byte	0
 3707 08d5 08       		.uleb128 0x8
 3708 08d6 04       		.byte	0x4
 3709 08d7 D9030000 		.4byte	0x3d9
 3710 08db 0F       		.uleb128 0xf
 3711 08dc 2E030000 		.4byte	.LASF104
 3712 08e0 01       		.byte	0x1
 3713 08e1 D804     		.2byte	0x4d8
 3714 08e3 00000000 		.4byte	.LFB30
 3715 08e7 3A000000 		.4byte	.LFE30-.LFB30
 3716 08eb 01       		.uleb128 0x1
 3717 08ec 9C       		.byte	0x9c
 3718 08ed 5E090000 		.4byte	0x95e
 3719 08f1 10       		.uleb128 0x10
 3720 08f2 91010000 		.4byte	.LASF71
 3721 08f6 01       		.byte	0x1
 3722 08f7 D804     		.2byte	0x4d8
 3723 08f9 05050000 		.4byte	0x505
 3724 08fd 01       		.uleb128 0x1
 3725 08fe 50       		.byte	0x50
 3726 08ff 1E       		.uleb128 0x1e
 3727 0900 64657600 		.ascii	"dev\000"
 3728 0904 01       		.byte	0x1
 3729 0905 D804     		.2byte	0x4d8
 3730 0907 D5080000 		.4byte	0x8d5
 3731 090b 01       		.uleb128 0x1
 3732 090c 51       		.byte	0x51
 3733 090d 1A       		.uleb128 0x1a
 3734 090e 11030000 		.4byte	.LASF66
 3735 0912 01       		.byte	0x1
 3736 0913 DA04     		.2byte	0x4da
 3737 0915 0F060000 		.4byte	0x60f
 3738 0919 03       		.uleb128 0x3
 3739 091a 71       		.byte	0x71
 3740 091b 10       		.sleb128 16
 3741 091c 9F       		.byte	0x9f
 3742 091d 13       		.uleb128 0x13
 3743 091e E7050000 		.4byte	.LASF105
 3744 0922 01       		.byte	0x1
 3745 0923 DB04     		.2byte	0x4db
 3746 0925 CE000000 		.4byte	0xce
 3747 0929 8E140000 		.4byte	.LLST30
 3748 092d 13       		.uleb128 0x13
 3749 092e 21050000 		.4byte	.LASF106
 3750 0932 01       		.byte	0x1
 3751 0933 DC04     		.2byte	0x4dc
 3752 0935 CE000000 		.4byte	0xce
 3753 0939 B0140000 		.4byte	.LLST31
ARM GAS  C:\Users\corne\AppData\Local\Temp\cc0fqrF9.s 			page 93


 3754 093d 13       		.uleb128 0x13
 3755 093e 64070000 		.4byte	.LASF107
 3756 0942 01       		.byte	0x1
 3757 0943 DD04     		.2byte	0x4dd
 3758 0945 CE000000 		.4byte	0xce
 3759 0949 C3140000 		.4byte	.LLST32
 3760 094d 13       		.uleb128 0x13
 3761 094e 6D020000 		.4byte	.LASF108
 3762 0952 01       		.byte	0x1
 3763 0953 DE04     		.2byte	0x4de
 3764 0955 CE000000 		.4byte	0xce
 3765 0959 EA140000 		.4byte	.LLST33
 3766 095d 00       		.byte	0
 3767 095e 14       		.uleb128 0x14
 3768 095f DA070000 		.4byte	.LASF109
 3769 0963 01       		.byte	0x1
 3770 0964 F104     		.2byte	0x4f1
 3771 0966 C3000000 		.4byte	0xc3
 3772 096a 00000000 		.4byte	.LFB31
 3773 096e 0C000000 		.4byte	.LFE31-.LFB31
 3774 0972 01       		.uleb128 0x1
 3775 0973 9C       		.byte	0x9c
 3776 0974 A7090000 		.4byte	0x9a7
 3777 0978 11       		.uleb128 0x11
 3778 0979 94050000 		.4byte	.LASF110
 3779 097d 01       		.byte	0x1
 3780 097e F104     		.2byte	0x4f1
 3781 0980 C3000000 		.4byte	0xc3
 3782 0984 FD140000 		.4byte	.LLST34
 3783 0988 10       		.uleb128 0x10
 3784 0989 B2000000 		.4byte	.LASF111
 3785 098d 01       		.byte	0x1
 3786 098e F104     		.2byte	0x4f1
 3787 0990 C3000000 		.4byte	0xc3
 3788 0994 01       		.uleb128 0x1
 3789 0995 51       		.byte	0x51
 3790 0996 13       		.uleb128 0x13
 3791 0997 40070000 		.4byte	.LASF112
 3792 099b 01       		.byte	0x1
 3793 099c F304     		.2byte	0x4f3
 3794 099e C3000000 		.4byte	0xc3
 3795 09a2 37150000 		.4byte	.LLST35
 3796 09a6 00       		.byte	0
 3797 09a7 14       		.uleb128 0x14
 3798 09a8 59030000 		.4byte	.LASF113
 3799 09ac 01       		.byte	0x1
 3800 09ad 0405     		.2byte	0x504
 3801 09af B8000000 		.4byte	0xb8
 3802 09b3 00000000 		.4byte	.LFB32
 3803 09b7 32000000 		.4byte	.LFE32-.LFB32
 3804 09bb 01       		.uleb128 0x1
 3805 09bc 9C       		.byte	0x9c
 3806 09bd E0090000 		.4byte	0x9e0
 3807 09c1 1F       		.uleb128 0x1f
 3808 09c2 64657600 		.ascii	"dev\000"
 3809 09c6 01       		.byte	0x1
 3810 09c7 0405     		.2byte	0x504
ARM GAS  C:\Users\corne\AppData\Local\Temp\cc0fqrF9.s 			page 94


 3811 09c9 E0090000 		.4byte	0x9e0
 3812 09cd 56150000 		.4byte	.LLST36
 3813 09d1 1A       		.uleb128 0x1a
 3814 09d2 2D000000 		.4byte	.LASF98
 3815 09d6 01       		.byte	0x1
 3816 09d7 0605     		.2byte	0x506
 3817 09d9 B8000000 		.4byte	0xb8
 3818 09dd 01       		.uleb128 0x1
 3819 09de 50       		.byte	0x50
 3820 09df 00       		.byte	0
 3821 09e0 08       		.uleb128 0x8
 3822 09e1 04       		.byte	0x4
 3823 09e2 E6090000 		.4byte	0x9e6
 3824 09e6 12       		.uleb128 0x12
 3825 09e7 D9030000 		.4byte	0x3d9
 3826 09eb 20       		.uleb128 0x20
 3827 09ec 5C050000 		.4byte	.LASF115
 3828 09f0 01       		.byte	0x1
 3829 09f1 A401     		.2byte	0x1a4
 3830 09f3 B8000000 		.4byte	0xb8
 3831 09f7 00000000 		.4byte	.LFB2
 3832 09fb 3C000000 		.4byte	.LFE2-.LFB2
 3833 09ff 01       		.uleb128 0x1
 3834 0a00 9C       		.byte	0x9c
 3835 0a01 860A0000 		.4byte	0xa86
 3836 0a05 11       		.uleb128 0x11
 3837 0a06 4A050000 		.4byte	.LASF100
 3838 0a0a 01       		.byte	0x1
 3839 0a0b A401     		.2byte	0x1a4
 3840 0a0d C3000000 		.4byte	0xc3
 3841 0a11 DB150000 		.4byte	.LLST37
 3842 0a15 11       		.uleb128 0x11
 3843 0a16 91010000 		.4byte	.LASF71
 3844 0a1a 01       		.byte	0x1
 3845 0a1b A401     		.2byte	0x1a4
 3846 0a1d 67010000 		.4byte	0x167
 3847 0a21 07160000 		.4byte	.LLST38
 3848 0a25 1F       		.uleb128 0x1f
 3849 0a26 6C656E00 		.ascii	"len\000"
 3850 0a2a 01       		.byte	0x1
 3851 0a2b A401     		.2byte	0x1a4
 3852 0a2d D9000000 		.4byte	0xd9
 3853 0a31 26160000 		.4byte	.LLST39
 3854 0a35 1F       		.uleb128 0x1f
 3855 0a36 64657600 		.ascii	"dev\000"
 3856 0a3a 01       		.byte	0x1
 3857 0a3b A401     		.2byte	0x1a4
 3858 0a3d E0090000 		.4byte	0x9e0
 3859 0a41 47160000 		.4byte	.LLST40
 3860 0a45 13       		.uleb128 0x13
 3861 0a46 2D000000 		.4byte	.LASF98
 3862 0a4a 01       		.byte	0x1
 3863 0a4b A601     		.2byte	0x1a6
 3864 0a4d B8000000 		.4byte	0xb8
 3865 0a51 73160000 		.4byte	.LLST41
 3866 0a55 1B       		.uleb128 0x1b
 3867 0a56 12000000 		.4byte	.LVL177
ARM GAS  C:\Users\corne\AppData\Local\Temp\cc0fqrF9.s 			page 95


 3868 0a5a A7090000 		.4byte	0x9a7
 3869 0a5e 690A0000 		.4byte	0xa69
 3870 0a62 1C       		.uleb128 0x1c
 3871 0a63 01       		.uleb128 0x1
 3872 0a64 50       		.byte	0x50
 3873 0a65 02       		.uleb128 0x2
 3874 0a66 77       		.byte	0x77
 3875 0a67 00       		.sleb128 0
 3876 0a68 00       		.byte	0
 3877 0a69 21       		.uleb128 0x21
 3878 0a6a 30000000 		.4byte	.LVL180
 3879 0a6e 02       		.uleb128 0x2
 3880 0a6f 75       		.byte	0x75
 3881 0a70 00       		.sleb128 0
 3882 0a71 1C       		.uleb128 0x1c
 3883 0a72 01       		.uleb128 0x1
 3884 0a73 51       		.byte	0x51
 3885 0a74 02       		.uleb128 0x2
 3886 0a75 74       		.byte	0x74
 3887 0a76 00       		.sleb128 0
 3888 0a77 1C       		.uleb128 0x1c
 3889 0a78 01       		.uleb128 0x1
 3890 0a79 52       		.byte	0x52
 3891 0a7a 03       		.uleb128 0x3
 3892 0a7b 91       		.byte	0x91
 3893 0a7c 64       		.sleb128 -28
 3894 0a7d 06       		.byte	0x6
 3895 0a7e 1C       		.uleb128 0x1c
 3896 0a7f 01       		.uleb128 0x1
 3897 0a80 53       		.byte	0x53
 3898 0a81 02       		.uleb128 0x2
 3899 0a82 76       		.byte	0x76
 3900 0a83 00       		.sleb128 0
 3901 0a84 00       		.byte	0
 3902 0a85 00       		.byte	0
 3903 0a86 14       		.uleb128 0x14
 3904 0a87 25070000 		.4byte	.LASF114
 3905 0a8b 01       		.byte	0x1
 3906 0a8c 9204     		.2byte	0x492
 3907 0a8e B8000000 		.4byte	0xb8
 3908 0a92 00000000 		.4byte	.LFB27
 3909 0a96 46000000 		.4byte	.LFE27-.LFB27
 3910 0a9a 01       		.uleb128 0x1
 3911 0a9b 9C       		.byte	0x9c
 3912 0a9c 780B0000 		.4byte	0xb78
 3913 0aa0 1F       		.uleb128 0x1f
 3914 0aa1 64657600 		.ascii	"dev\000"
 3915 0aa5 01       		.byte	0x1
 3916 0aa6 9204     		.2byte	0x492
 3917 0aa8 D5080000 		.4byte	0x8d5
 3918 0aac 9C160000 		.4byte	.LLST42
 3919 0ab0 13       		.uleb128 0x13
 3920 0ab1 2D000000 		.4byte	.LASF98
 3921 0ab5 01       		.byte	0x1
 3922 0ab6 9404     		.2byte	0x494
 3923 0ab8 B8000000 		.4byte	0xb8
 3924 0abc C8160000 		.4byte	.LLST43
ARM GAS  C:\Users\corne\AppData\Local\Temp\cc0fqrF9.s 			page 96


 3925 0ac0 13       		.uleb128 0x13
 3926 0ac1 4A050000 		.4byte	.LASF100
 3927 0ac5 01       		.byte	0x1
 3928 0ac6 9504     		.2byte	0x495
 3929 0ac8 C3000000 		.4byte	0xc3
 3930 0acc FC160000 		.4byte	.LLST44
 3931 0ad0 1A       		.uleb128 0x1a
 3932 0ad1 11030000 		.4byte	.LASF66
 3933 0ad5 01       		.byte	0x1
 3934 0ad6 9704     		.2byte	0x497
 3935 0ad8 780B0000 		.4byte	0xb78
 3936 0adc 02       		.uleb128 0x2
 3937 0add 91       		.byte	0x91
 3938 0ade 54       		.sleb128 -44
 3939 0adf 1B       		.uleb128 0x1b
 3940 0ae0 10000000 		.4byte	.LVL187
 3941 0ae4 4A170000 		.4byte	0x174a
 3942 0ae8 FD0A0000 		.4byte	0xafd
 3943 0aec 1C       		.uleb128 0x1c
 3944 0aed 01       		.uleb128 0x1
 3945 0aee 50       		.byte	0x50
 3946 0aef 02       		.uleb128 0x2
 3947 0af0 91       		.byte	0x91
 3948 0af1 54       		.sleb128 -44
 3949 0af2 1C       		.uleb128 0x1c
 3950 0af3 01       		.uleb128 0x1
 3951 0af4 51       		.byte	0x51
 3952 0af5 01       		.uleb128 0x1
 3953 0af6 30       		.byte	0x30
 3954 0af7 1C       		.uleb128 0x1c
 3955 0af8 01       		.uleb128 0x1
 3956 0af9 52       		.byte	0x52
 3957 0afa 01       		.uleb128 0x1
 3958 0afb 4A       		.byte	0x4a
 3959 0afc 00       		.byte	0
 3960 0afd 1B       		.uleb128 0x1b
 3961 0afe 1C000000 		.4byte	.LVL188
 3962 0b02 EB090000 		.4byte	0x9eb
 3963 0b06 220B0000 		.4byte	0xb22
 3964 0b0a 1C       		.uleb128 0x1c
 3965 0b0b 01       		.uleb128 0x1
 3966 0b0c 50       		.byte	0x50
 3967 0b0d 02       		.uleb128 0x2
 3968 0b0e 09       		.byte	0x9
 3969 0b0f 88       		.byte	0x88
 3970 0b10 1C       		.uleb128 0x1c
 3971 0b11 01       		.uleb128 0x1
 3972 0b12 51       		.byte	0x51
 3973 0b13 02       		.uleb128 0x2
 3974 0b14 91       		.byte	0x91
 3975 0b15 54       		.sleb128 -44
 3976 0b16 1C       		.uleb128 0x1c
 3977 0b17 01       		.uleb128 0x1
 3978 0b18 52       		.byte	0x52
 3979 0b19 01       		.uleb128 0x1
 3980 0b1a 4A       		.byte	0x4a
 3981 0b1b 1C       		.uleb128 0x1c
ARM GAS  C:\Users\corne\AppData\Local\Temp\cc0fqrF9.s 			page 97


 3982 0b1c 01       		.uleb128 0x1
 3983 0b1d 53       		.byte	0x53
 3984 0b1e 02       		.uleb128 0x2
 3985 0b1f 75       		.byte	0x75
 3986 0b20 00       		.sleb128 0
 3987 0b21 00       		.byte	0
 3988 0b22 1B       		.uleb128 0x1b
 3989 0b23 28000000 		.4byte	.LVL191
 3990 0b27 92080000 		.4byte	0x892
 3991 0b2b 3C0B0000 		.4byte	0xb3c
 3992 0b2f 1C       		.uleb128 0x1c
 3993 0b30 01       		.uleb128 0x1
 3994 0b31 50       		.byte	0x50
 3995 0b32 02       		.uleb128 0x2
 3996 0b33 91       		.byte	0x91
 3997 0b34 54       		.sleb128 -44
 3998 0b35 1C       		.uleb128 0x1c
 3999 0b36 01       		.uleb128 0x1
 4000 0b37 51       		.byte	0x51
 4001 0b38 02       		.uleb128 0x2
 4002 0b39 75       		.byte	0x75
 4003 0b3a 00       		.sleb128 0
 4004 0b3b 00       		.byte	0
 4005 0b3c 1B       		.uleb128 0x1b
 4006 0b3d 34000000 		.4byte	.LVL192
 4007 0b41 EB090000 		.4byte	0x9eb
 4008 0b45 610B0000 		.4byte	0xb61
 4009 0b49 1C       		.uleb128 0x1c
 4010 0b4a 01       		.uleb128 0x1
 4011 0b4b 50       		.byte	0x50
 4012 0b4c 02       		.uleb128 0x2
 4013 0b4d 09       		.byte	0x9
 4014 0b4e E1       		.byte	0xe1
 4015 0b4f 1C       		.uleb128 0x1c
 4016 0b50 01       		.uleb128 0x1
 4017 0b51 51       		.byte	0x51
 4018 0b52 02       		.uleb128 0x2
 4019 0b53 91       		.byte	0x91
 4020 0b54 54       		.sleb128 -44
 4021 0b55 1C       		.uleb128 0x1c
 4022 0b56 01       		.uleb128 0x1
 4023 0b57 52       		.byte	0x52
 4024 0b58 01       		.uleb128 0x1
 4025 0b59 37       		.byte	0x37
 4026 0b5a 1C       		.uleb128 0x1c
 4027 0b5b 01       		.uleb128 0x1
 4028 0b5c 53       		.byte	0x53
 4029 0b5d 02       		.uleb128 0x2
 4030 0b5e 75       		.byte	0x75
 4031 0b5f 00       		.sleb128 0
 4032 0b60 00       		.byte	0
 4033 0b61 1D       		.uleb128 0x1d
 4034 0b62 40000000 		.4byte	.LVL195
 4035 0b66 DB080000 		.4byte	0x8db
 4036 0b6a 1C       		.uleb128 0x1c
 4037 0b6b 01       		.uleb128 0x1
 4038 0b6c 50       		.byte	0x50
ARM GAS  C:\Users\corne\AppData\Local\Temp\cc0fqrF9.s 			page 98


 4039 0b6d 02       		.uleb128 0x2
 4040 0b6e 91       		.byte	0x91
 4041 0b6f 54       		.sleb128 -44
 4042 0b70 1C       		.uleb128 0x1c
 4043 0b71 01       		.uleb128 0x1
 4044 0b72 51       		.byte	0x51
 4045 0b73 02       		.uleb128 0x2
 4046 0b74 75       		.byte	0x75
 4047 0b75 00       		.sleb128 0
 4048 0b76 00       		.byte	0
 4049 0b77 00       		.byte	0
 4050 0b78 22       		.uleb128 0x22
 4051 0b79 C3000000 		.4byte	0xc3
 4052 0b7d 880B0000 		.4byte	0xb88
 4053 0b81 23       		.uleb128 0x23
 4054 0b82 0C010000 		.4byte	0x10c
 4055 0b86 19       		.byte	0x19
 4056 0b87 00       		.byte	0
 4057 0b88 20       		.uleb128 0x20
 4058 0b89 D3040000 		.4byte	.LASF116
 4059 0b8d 01       		.byte	0x1
 4060 0b8e BD01     		.2byte	0x1bd
 4061 0b90 B8000000 		.4byte	0xb8
 4062 0b94 00000000 		.4byte	.LFB3
 4063 0b98 AA000000 		.4byte	.LFE3-.LFB3
 4064 0b9c 01       		.uleb128 0x1
 4065 0b9d 9C       		.byte	0x9c
 4066 0b9e 770C0000 		.4byte	0xc77
 4067 0ba2 11       		.uleb128 0x11
 4068 0ba3 4A050000 		.4byte	.LASF100
 4069 0ba7 01       		.byte	0x1
 4070 0ba8 BD01     		.2byte	0x1bd
 4071 0baa 67010000 		.4byte	0x167
 4072 0bae 1E170000 		.4byte	.LLST45
 4073 0bb2 11       		.uleb128 0x11
 4074 0bb3 91010000 		.4byte	.LASF71
 4075 0bb7 01       		.byte	0x1
 4076 0bb8 BD01     		.2byte	0x1bd
 4077 0bba 05050000 		.4byte	0x505
 4078 0bbe 4A170000 		.4byte	.LLST46
 4079 0bc2 1F       		.uleb128 0x1f
 4080 0bc3 6C656E00 		.ascii	"len\000"
 4081 0bc7 01       		.byte	0x1
 4082 0bc8 BD01     		.2byte	0x1bd
 4083 0bca C3000000 		.4byte	0xc3
 4084 0bce A2170000 		.4byte	.LLST47
 4085 0bd2 1F       		.uleb128 0x1f
 4086 0bd3 64657600 		.ascii	"dev\000"
 4087 0bd7 01       		.byte	0x1
 4088 0bd8 BD01     		.2byte	0x1bd
 4089 0bda E0090000 		.4byte	0x9e0
 4090 0bde C3170000 		.4byte	.LLST48
 4091 0be2 13       		.uleb128 0x13
 4092 0be3 2D000000 		.4byte	.LASF98
 4093 0be7 01       		.byte	0x1
 4094 0be8 BF01     		.2byte	0x1bf
 4095 0bea B8000000 		.4byte	0xb8
ARM GAS  C:\Users\corne\AppData\Local\Temp\cc0fqrF9.s 			page 99


 4096 0bee EF170000 		.4byte	.LLST49
 4097 0bf2 24       		.uleb128 0x24
 4098 0bf3 8A0C0000 		.4byte	0xc8a
 4099 0bf7 4F180000 		.4byte	.LLST50
 4100 0bfb 13       		.uleb128 0x13
 4101 0bfc 9A010000 		.4byte	.LASF101
 4102 0c00 01       		.byte	0x1
 4103 0c01 C001     		.2byte	0x1c0
 4104 0c03 770C0000 		.4byte	0xc77
 4105 0c07 A4180000 		.4byte	.LLST51
 4106 0c0b 13       		.uleb128 0x13
 4107 0c0c 51010000 		.4byte	.LASF117
 4108 0c10 01       		.byte	0x1
 4109 0c11 C101     		.2byte	0x1c1
 4110 0c13 D9000000 		.4byte	0xd9
 4111 0c17 F6180000 		.4byte	.LLST52
 4112 0c1b 13       		.uleb128 0x13
 4113 0c1c 33040000 		.4byte	.LASF118
 4114 0c20 01       		.byte	0x1
 4115 0c21 C201     		.2byte	0x1c2
 4116 0c23 C3000000 		.4byte	0xc3
 4117 0c27 14190000 		.4byte	.LLST53
 4118 0c2b 1B       		.uleb128 0x1b
 4119 0c2c 28000000 		.4byte	.LVL205
 4120 0c30 A7090000 		.4byte	0x9a7
 4121 0c34 3F0C0000 		.4byte	0xc3f
 4122 0c38 1C       		.uleb128 0x1c
 4123 0c39 01       		.uleb128 0x1
 4124 0c3a 50       		.byte	0x50
 4125 0c3b 02       		.uleb128 0x2
 4126 0c3c 74       		.byte	0x74
 4127 0c3d 00       		.sleb128 0
 4128 0c3e 00       		.byte	0
 4129 0c3f 1B       		.uleb128 0x1b
 4130 0c40 6E000000 		.4byte	.LVL212
 4131 0c44 33080000 		.4byte	0x833
 4132 0c48 660C0000 		.4byte	0xc66
 4133 0c4c 1C       		.uleb128 0x1c
 4134 0c4d 01       		.uleb128 0x1
 4135 0c4e 50       		.byte	0x50
 4136 0c4f 02       		.uleb128 0x2
 4137 0c50 76       		.byte	0x76
 4138 0c51 00       		.sleb128 0
 4139 0c52 1C       		.uleb128 0x1c
 4140 0c53 01       		.uleb128 0x1
 4141 0c54 51       		.byte	0x51
 4142 0c55 03       		.uleb128 0x3
 4143 0c56 77       		.byte	0x77
 4144 0c57 1C       		.sleb128 28
 4145 0c58 06       		.byte	0x6
 4146 0c59 1C       		.uleb128 0x1c
 4147 0c5a 01       		.uleb128 0x1
 4148 0c5b 52       		.byte	0x52
 4149 0c5c 02       		.uleb128 0x2
 4150 0c5d 79       		.byte	0x79
 4151 0c5e 00       		.sleb128 0
 4152 0c5f 1C       		.uleb128 0x1c
ARM GAS  C:\Users\corne\AppData\Local\Temp\cc0fqrF9.s 			page 100


 4153 0c60 01       		.uleb128 0x1
 4154 0c61 53       		.byte	0x53
 4155 0c62 02       		.uleb128 0x2
 4156 0c63 75       		.byte	0x75
 4157 0c64 00       		.sleb128 0
 4158 0c65 00       		.byte	0
 4159 0c66 21       		.uleb128 0x21
 4160 0c67 7E000000 		.4byte	.LVL217
 4161 0c6b 02       		.uleb128 0x2
 4162 0c6c 75       		.byte	0x75
 4163 0c6d 00       		.sleb128 0
 4164 0c6e 1C       		.uleb128 0x1c
 4165 0c6f 01       		.uleb128 0x1
 4166 0c70 52       		.byte	0x52
 4167 0c71 03       		.uleb128 0x3
 4168 0c72 77       		.byte	0x77
 4169 0c73 1C       		.sleb128 28
 4170 0c74 06       		.byte	0x6
 4171 0c75 00       		.byte	0
 4172 0c76 00       		.byte	0
 4173 0c77 22       		.uleb128 0x22
 4174 0c78 C3000000 		.4byte	0xc3
 4175 0c7c 8A0C0000 		.4byte	0xc8a
 4176 0c80 25       		.uleb128 0x25
 4177 0c81 0C010000 		.4byte	0x10c
 4178 0c85 F20B0000 		.4byte	0xbf2
 4179 0c89 00       		.byte	0
 4180 0c8a 12       		.uleb128 0x12
 4181 0c8b 0C010000 		.4byte	0x10c
 4182 0c8f 14       		.uleb128 0x14
 4183 0c90 AF010000 		.4byte	.LASF119
 4184 0c94 01       		.byte	0x1
 4185 0c95 9502     		.2byte	0x295
 4186 0c97 B8000000 		.4byte	0xb8
 4187 0c9b 00000000 		.4byte	.LFB11
 4188 0c9f 54000000 		.4byte	.LFE11-.LFB11
 4189 0ca3 01       		.uleb128 0x1
 4190 0ca4 9C       		.byte	0x9c
 4191 0ca5 6C0D0000 		.4byte	0xd6c
 4192 0ca9 11       		.uleb128 0x11
 4193 0caa 08030000 		.4byte	.LASF67
 4194 0cae 01       		.byte	0x1
 4195 0caf 9502     		.2byte	0x295
 4196 0cb1 28040000 		.4byte	0x428
 4197 0cb5 3D190000 		.4byte	.LLST54
 4198 0cb9 1F       		.uleb128 0x1f
 4199 0cba 64657600 		.ascii	"dev\000"
 4200 0cbe 01       		.byte	0x1
 4201 0cbf 9502     		.2byte	0x295
 4202 0cc1 E0090000 		.4byte	0x9e0
 4203 0cc5 69190000 		.4byte	.LLST55
 4204 0cc9 13       		.uleb128 0x13
 4205 0cca 2D000000 		.4byte	.LASF98
 4206 0cce 01       		.byte	0x1
 4207 0ccf 9702     		.2byte	0x297
 4208 0cd1 B8000000 		.4byte	0xb8
 4209 0cd5 95190000 		.4byte	.LLST56
ARM GAS  C:\Users\corne\AppData\Local\Temp\cc0fqrF9.s 			page 101


 4210 0cd9 1A       		.uleb128 0x1a
 4211 0cda 94020000 		.4byte	.LASF120
 4212 0cde 01       		.byte	0x1
 4213 0cdf 9802     		.2byte	0x298
 4214 0ce1 C3000000 		.4byte	0xc3
 4215 0ce5 02       		.uleb128 0x2
 4216 0ce6 91       		.byte	0x91
 4217 0ce7 77       		.sleb128 -9
 4218 0ce8 1A       		.uleb128 0x1a
 4219 0ce9 95060000 		.4byte	.LASF121
 4220 0ced 01       		.byte	0x1
 4221 0cee 9902     		.2byte	0x299
 4222 0cf0 C3000000 		.4byte	0xc3
 4223 0cf4 02       		.uleb128 0x2
 4224 0cf5 91       		.byte	0x91
 4225 0cf6 76       		.sleb128 -10
 4226 0cf7 1A       		.uleb128 0x1a
 4227 0cf8 4A050000 		.4byte	.LASF100
 4228 0cfc 01       		.byte	0x1
 4229 0cfd 9A02     		.2byte	0x29a
 4230 0cff C3000000 		.4byte	0xc3
 4231 0d03 02       		.uleb128 0x2
 4232 0d04 91       		.byte	0x91
 4233 0d05 75       		.sleb128 -11
 4234 0d06 1B       		.uleb128 0x1b
 4235 0d07 24000000 		.4byte	.LVL238
 4236 0d0b 880B0000 		.4byte	0xb88
 4237 0d0f 2B0D0000 		.4byte	0xd2b
 4238 0d13 1C       		.uleb128 0x1c
 4239 0d14 01       		.uleb128 0x1
 4240 0d15 50       		.byte	0x50
 4241 0d16 02       		.uleb128 0x2
 4242 0d17 7D       		.byte	0x7d
 4243 0d18 05       		.sleb128 5
 4244 0d19 1C       		.uleb128 0x1c
 4245 0d1a 01       		.uleb128 0x1
 4246 0d1b 51       		.byte	0x51
 4247 0d1c 02       		.uleb128 0x2
 4248 0d1d 7D       		.byte	0x7d
 4249 0d1e 07       		.sleb128 7
 4250 0d1f 1C       		.uleb128 0x1c
 4251 0d20 01       		.uleb128 0x1
 4252 0d21 52       		.byte	0x52
 4253 0d22 01       		.uleb128 0x1
 4254 0d23 31       		.byte	0x31
 4255 0d24 1C       		.uleb128 0x1c
 4256 0d25 01       		.uleb128 0x1
 4257 0d26 53       		.byte	0x53
 4258 0d27 02       		.uleb128 0x2
 4259 0d28 74       		.byte	0x74
 4260 0d29 00       		.sleb128 0
 4261 0d2a 00       		.byte	0
 4262 0d2b 1B       		.uleb128 0x1b
 4263 0d2c 3C000000 		.4byte	.LVL240
 4264 0d30 EB090000 		.4byte	0x9eb
 4265 0d34 4A0D0000 		.4byte	0xd4a
 4266 0d38 1C       		.uleb128 0x1c
ARM GAS  C:\Users\corne\AppData\Local\Temp\cc0fqrF9.s 			page 102


 4267 0d39 01       		.uleb128 0x1
 4268 0d3a 51       		.byte	0x51
 4269 0d3b 02       		.uleb128 0x2
 4270 0d3c 7D       		.byte	0x7d
 4271 0d3d 06       		.sleb128 6
 4272 0d3e 1C       		.uleb128 0x1c
 4273 0d3f 01       		.uleb128 0x1
 4274 0d40 52       		.byte	0x52
 4275 0d41 01       		.uleb128 0x1
 4276 0d42 31       		.byte	0x31
 4277 0d43 1C       		.uleb128 0x1c
 4278 0d44 01       		.uleb128 0x1
 4279 0d45 53       		.byte	0x53
 4280 0d46 02       		.uleb128 0x2
 4281 0d47 74       		.byte	0x74
 4282 0d48 00       		.sleb128 0
 4283 0d49 00       		.byte	0
 4284 0d4a 1D       		.uleb128 0x1d
 4285 0d4b 50000000 		.4byte	.LVL242
 4286 0d4f 880B0000 		.4byte	0xb88
 4287 0d53 1C       		.uleb128 0x1c
 4288 0d54 01       		.uleb128 0x1
 4289 0d55 50       		.byte	0x50
 4290 0d56 02       		.uleb128 0x2
 4291 0d57 7D       		.byte	0x7d
 4292 0d58 05       		.sleb128 5
 4293 0d59 1C       		.uleb128 0x1c
 4294 0d5a 01       		.uleb128 0x1
 4295 0d5b 51       		.byte	0x51
 4296 0d5c 02       		.uleb128 0x2
 4297 0d5d 7D       		.byte	0x7d
 4298 0d5e 06       		.sleb128 6
 4299 0d5f 1C       		.uleb128 0x1c
 4300 0d60 01       		.uleb128 0x1
 4301 0d61 52       		.byte	0x52
 4302 0d62 01       		.uleb128 0x1
 4303 0d63 31       		.byte	0x31
 4304 0d64 1C       		.uleb128 0x1c
 4305 0d65 01       		.uleb128 0x1
 4306 0d66 53       		.byte	0x53
 4307 0d67 02       		.uleb128 0x2
 4308 0d68 74       		.byte	0x74
 4309 0d69 00       		.sleb128 0
 4310 0d6a 00       		.byte	0
 4311 0d6b 00       		.byte	0
 4312 0d6c 14       		.uleb128 0x14
 4313 0d6d B3060000 		.4byte	.LASF122
 4314 0d71 01       		.byte	0x1
 4315 0d72 AF02     		.2byte	0x2af
 4316 0d74 B8000000 		.4byte	0xb8
 4317 0d78 00000000 		.4byte	.LFB12
 4318 0d7c 52000000 		.4byte	.LFE12-.LFB12
 4319 0d80 01       		.uleb128 0x1
 4320 0d81 9C       		.byte	0x9c
 4321 0d82 5F0E0000 		.4byte	0xe5f
 4322 0d86 11       		.uleb128 0x11
 4323 0d87 B2000000 		.4byte	.LASF111
ARM GAS  C:\Users\corne\AppData\Local\Temp\cc0fqrF9.s 			page 103


 4324 0d8b 01       		.byte	0x1
 4325 0d8c AF02     		.2byte	0x2af
 4326 0d8e C3000000 		.4byte	0xc3
 4327 0d92 CC190000 		.4byte	.LLST57
 4328 0d96 11       		.uleb128 0x11
 4329 0d97 08030000 		.4byte	.LASF67
 4330 0d9b 01       		.byte	0x1
 4331 0d9c AF02     		.2byte	0x2af
 4332 0d9e 28040000 		.4byte	0x428
 4333 0da2 ED190000 		.4byte	.LLST58
 4334 0da6 1F       		.uleb128 0x1f
 4335 0da7 64657600 		.ascii	"dev\000"
 4336 0dab 01       		.byte	0x1
 4337 0dac B002     		.2byte	0x2b0
 4338 0dae E0090000 		.4byte	0x9e0
 4339 0db2 191A0000 		.4byte	.LLST59
 4340 0db6 13       		.uleb128 0x13
 4341 0db7 2D000000 		.4byte	.LASF98
 4342 0dbb 01       		.byte	0x1
 4343 0dbc B202     		.2byte	0x2b2
 4344 0dbe B8000000 		.4byte	0xb8
 4345 0dc2 451A0000 		.4byte	.LLST60
 4346 0dc6 1A       		.uleb128 0x1a
 4347 0dc7 4A050000 		.4byte	.LASF100
 4348 0dcb 01       		.byte	0x1
 4349 0dcc B302     		.2byte	0x2b3
 4350 0dce C3000000 		.4byte	0xc3
 4351 0dd2 02       		.uleb128 0x2
 4352 0dd3 91       		.byte	0x91
 4353 0dd4 6F       		.sleb128 -17
 4354 0dd5 1A       		.uleb128 0x1a
 4355 0dd6 91010000 		.4byte	.LASF71
 4356 0dda 01       		.byte	0x1
 4357 0ddb B402     		.2byte	0x2b4
 4358 0ddd C3000000 		.4byte	0xc3
 4359 0de1 02       		.uleb128 0x2
 4360 0de2 91       		.byte	0x91
 4361 0de3 6E       		.sleb128 -18
 4362 0de4 1B       		.uleb128 0x1b
 4363 0de5 1E000000 		.4byte	.LVL248
 4364 0de9 EB090000 		.4byte	0x9eb
 4365 0ded 090E0000 		.4byte	0xe09
 4366 0df1 1C       		.uleb128 0x1c
 4367 0df2 01       		.uleb128 0x1
 4368 0df3 50       		.byte	0x50
 4369 0df4 02       		.uleb128 0x2
 4370 0df5 09       		.byte	0x9
 4371 0df6 F4       		.byte	0xf4
 4372 0df7 1C       		.uleb128 0x1c
 4373 0df8 01       		.uleb128 0x1
 4374 0df9 51       		.byte	0x51
 4375 0dfa 02       		.uleb128 0x2
 4376 0dfb 7D       		.byte	0x7d
 4377 0dfc 06       		.sleb128 6
 4378 0dfd 1C       		.uleb128 0x1c
 4379 0dfe 01       		.uleb128 0x1
 4380 0dff 52       		.byte	0x52
ARM GAS  C:\Users\corne\AppData\Local\Temp\cc0fqrF9.s 			page 104


 4381 0e00 01       		.uleb128 0x1
 4382 0e01 31       		.byte	0x31
 4383 0e02 1C       		.uleb128 0x1c
 4384 0e03 01       		.uleb128 0x1
 4385 0e04 53       		.byte	0x53
 4386 0e05 02       		.uleb128 0x2
 4387 0e06 74       		.byte	0x74
 4388 0e07 00       		.sleb128 0
 4389 0e08 00       		.byte	0
 4390 0e09 1B       		.uleb128 0x1b
 4391 0e0a 30000000 		.4byte	.LVL250
 4392 0e0e 68040000 		.4byte	0x468
 4393 0e12 230E0000 		.4byte	0xe23
 4394 0e16 1C       		.uleb128 0x1c
 4395 0e17 01       		.uleb128 0x1
 4396 0e18 50       		.byte	0x50
 4397 0e19 02       		.uleb128 0x2
 4398 0e1a 7D       		.byte	0x7d
 4399 0e1b 06       		.sleb128 6
 4400 0e1c 1C       		.uleb128 0x1c
 4401 0e1d 01       		.uleb128 0x1
 4402 0e1e 51       		.byte	0x51
 4403 0e1f 02       		.uleb128 0x2
 4404 0e20 75       		.byte	0x75
 4405 0e21 00       		.sleb128 0
 4406 0e22 00       		.byte	0
 4407 0e23 1B       		.uleb128 0x1b
 4408 0e24 3E000000 		.4byte	.LVL251
 4409 0e28 9D040000 		.4byte	0x49d
 4410 0e2c 3D0E0000 		.4byte	0xe3d
 4411 0e30 1C       		.uleb128 0x1c
 4412 0e31 01       		.uleb128 0x1
 4413 0e32 50       		.byte	0x50
 4414 0e33 02       		.uleb128 0x2
 4415 0e34 7D       		.byte	0x7d
 4416 0e35 06       		.sleb128 6
 4417 0e36 1C       		.uleb128 0x1c
 4418 0e37 01       		.uleb128 0x1
 4419 0e38 51       		.byte	0x51
 4420 0e39 02       		.uleb128 0x2
 4421 0e3a 75       		.byte	0x75
 4422 0e3b 00       		.sleb128 0
 4423 0e3c 00       		.byte	0
 4424 0e3d 1D       		.uleb128 0x1d
 4425 0e3e 4E000000 		.4byte	.LVL252
 4426 0e42 880B0000 		.4byte	0xb88
 4427 0e46 1C       		.uleb128 0x1c
 4428 0e47 01       		.uleb128 0x1
 4429 0e48 50       		.byte	0x50
 4430 0e49 02       		.uleb128 0x2
 4431 0e4a 7D       		.byte	0x7d
 4432 0e4b 07       		.sleb128 7
 4433 0e4c 1C       		.uleb128 0x1c
 4434 0e4d 01       		.uleb128 0x1
 4435 0e4e 51       		.byte	0x51
 4436 0e4f 02       		.uleb128 0x2
 4437 0e50 7D       		.byte	0x7d
ARM GAS  C:\Users\corne\AppData\Local\Temp\cc0fqrF9.s 			page 105


 4438 0e51 06       		.sleb128 6
 4439 0e52 1C       		.uleb128 0x1c
 4440 0e53 01       		.uleb128 0x1
 4441 0e54 52       		.byte	0x52
 4442 0e55 01       		.uleb128 0x1
 4443 0e56 31       		.byte	0x31
 4444 0e57 1C       		.uleb128 0x1c
 4445 0e58 01       		.uleb128 0x1
 4446 0e59 53       		.byte	0x53
 4447 0e5a 02       		.uleb128 0x2
 4448 0e5b 74       		.byte	0x74
 4449 0e5c 00       		.sleb128 0
 4450 0e5d 00       		.byte	0
 4451 0e5e 00       		.byte	0
 4452 0e5f 14       		.uleb128 0x14
 4453 0e60 FE040000 		.4byte	.LASF123
 4454 0e64 01       		.byte	0x1
 4455 0e65 8502     		.2byte	0x285
 4456 0e67 B8000000 		.4byte	0xb8
 4457 0e6b 00000000 		.4byte	.LFB10
 4458 0e6f 28000000 		.4byte	.LFE10-.LFB10
 4459 0e73 01       		.uleb128 0x1
 4460 0e74 9C       		.byte	0x9c
 4461 0e75 F00E0000 		.4byte	0xef0
 4462 0e79 11       		.uleb128 0x11
 4463 0e7a B2000000 		.4byte	.LASF111
 4464 0e7e 01       		.byte	0x1
 4465 0e7f 8502     		.2byte	0x285
 4466 0e81 C3000000 		.4byte	0xc3
 4467 0e85 631A0000 		.4byte	.LLST61
 4468 0e89 11       		.uleb128 0x11
 4469 0e8a 08030000 		.4byte	.LASF67
 4470 0e8e 01       		.byte	0x1
 4471 0e8f 8502     		.2byte	0x285
 4472 0e91 28040000 		.4byte	0x428
 4473 0e95 9D1A0000 		.4byte	.LLST62
 4474 0e99 1F       		.uleb128 0x1f
 4475 0e9a 64657600 		.ascii	"dev\000"
 4476 0e9e 01       		.byte	0x1
 4477 0e9f 8602     		.2byte	0x286
 4478 0ea1 E0090000 		.4byte	0x9e0
 4479 0ea5 DF1A0000 		.4byte	.LLST63
 4480 0ea9 13       		.uleb128 0x13
 4481 0eaa 2D000000 		.4byte	.LASF98
 4482 0eae 01       		.byte	0x1
 4483 0eaf 8802     		.2byte	0x288
 4484 0eb1 B8000000 		.4byte	0xb8
 4485 0eb5 211B0000 		.4byte	.LLST64
 4486 0eb9 1B       		.uleb128 0x1b
 4487 0eba 14000000 		.4byte	.LVL259
 4488 0ebe 8F0C0000 		.4byte	0xc8f
 4489 0ec2 D30E0000 		.4byte	0xed3
 4490 0ec6 1C       		.uleb128 0x1c
 4491 0ec7 01       		.uleb128 0x1
 4492 0ec8 50       		.byte	0x50
 4493 0ec9 02       		.uleb128 0x2
 4494 0eca 74       		.byte	0x74
ARM GAS  C:\Users\corne\AppData\Local\Temp\cc0fqrF9.s 			page 106


 4495 0ecb 00       		.sleb128 0
 4496 0ecc 1C       		.uleb128 0x1c
 4497 0ecd 01       		.uleb128 0x1
 4498 0ece 51       		.byte	0x51
 4499 0ecf 02       		.uleb128 0x2
 4500 0ed0 75       		.byte	0x75
 4501 0ed1 00       		.sleb128 0
 4502 0ed2 00       		.byte	0
 4503 0ed3 1D       		.uleb128 0x1d
 4504 0ed4 26000000 		.4byte	.LVL263
 4505 0ed8 6C0D0000 		.4byte	0xd6c
 4506 0edc 1C       		.uleb128 0x1c
 4507 0edd 01       		.uleb128 0x1
 4508 0ede 50       		.byte	0x50
 4509 0edf 02       		.uleb128 0x2
 4510 0ee0 76       		.byte	0x76
 4511 0ee1 00       		.sleb128 0
 4512 0ee2 1C       		.uleb128 0x1c
 4513 0ee3 01       		.uleb128 0x1
 4514 0ee4 51       		.byte	0x51
 4515 0ee5 02       		.uleb128 0x2
 4516 0ee6 74       		.byte	0x74
 4517 0ee7 00       		.sleb128 0
 4518 0ee8 1C       		.uleb128 0x1c
 4519 0ee9 01       		.uleb128 0x1
 4520 0eea 52       		.byte	0x52
 4521 0eeb 02       		.uleb128 0x2
 4522 0eec 75       		.byte	0x75
 4523 0eed 00       		.sleb128 0
 4524 0eee 00       		.byte	0
 4525 0eef 00       		.byte	0
 4526 0ef0 14       		.uleb128 0x14
 4527 0ef1 E0000000 		.4byte	.LASF124
 4528 0ef5 01       		.byte	0x1
 4529 0ef6 C802     		.2byte	0x2c8
 4530 0ef8 B8000000 		.4byte	0xb8
 4531 0efc 00000000 		.4byte	.LFB13
 4532 0f00 52000000 		.4byte	.LFE13-.LFB13
 4533 0f04 01       		.uleb128 0x1
 4534 0f05 9C       		.byte	0x9c
 4535 0f06 E30F0000 		.4byte	0xfe3
 4536 0f0a 11       		.uleb128 0x11
 4537 0f0b B2000000 		.4byte	.LASF111
 4538 0f0f 01       		.byte	0x1
 4539 0f10 C802     		.2byte	0x2c8
 4540 0f12 C3000000 		.4byte	0xc3
 4541 0f16 621B0000 		.4byte	.LLST65
 4542 0f1a 11       		.uleb128 0x11
 4543 0f1b 08030000 		.4byte	.LASF67
 4544 0f1f 01       		.byte	0x1
 4545 0f20 C802     		.2byte	0x2c8
 4546 0f22 28040000 		.4byte	0x428
 4547 0f26 831B0000 		.4byte	.LLST66
 4548 0f2a 1F       		.uleb128 0x1f
 4549 0f2b 64657600 		.ascii	"dev\000"
 4550 0f2f 01       		.byte	0x1
 4551 0f30 C902     		.2byte	0x2c9
ARM GAS  C:\Users\corne\AppData\Local\Temp\cc0fqrF9.s 			page 107


 4552 0f32 E0090000 		.4byte	0x9e0
 4553 0f36 AF1B0000 		.4byte	.LLST67
 4554 0f3a 13       		.uleb128 0x13
 4555 0f3b 2D000000 		.4byte	.LASF98
 4556 0f3f 01       		.byte	0x1
 4557 0f40 CB02     		.2byte	0x2cb
 4558 0f42 B8000000 		.4byte	0xb8
 4559 0f46 DB1B0000 		.4byte	.LLST68
 4560 0f4a 1A       		.uleb128 0x1a
 4561 0f4b 4A050000 		.4byte	.LASF100
 4562 0f4f 01       		.byte	0x1
 4563 0f50 CC02     		.2byte	0x2cc
 4564 0f52 C3000000 		.4byte	0xc3
 4565 0f56 02       		.uleb128 0x2
 4566 0f57 91       		.byte	0x91
 4567 0f58 6F       		.sleb128 -17
 4568 0f59 1A       		.uleb128 0x1a
 4569 0f5a 91010000 		.4byte	.LASF71
 4570 0f5e 01       		.byte	0x1
 4571 0f5f CD02     		.2byte	0x2cd
 4572 0f61 C3000000 		.4byte	0xc3
 4573 0f65 02       		.uleb128 0x2
 4574 0f66 91       		.byte	0x91
 4575 0f67 6E       		.sleb128 -18
 4576 0f68 1B       		.uleb128 0x1b
 4577 0f69 1E000000 		.4byte	.LVL270
 4578 0f6d EB090000 		.4byte	0x9eb
 4579 0f71 8D0F0000 		.4byte	0xf8d
 4580 0f75 1C       		.uleb128 0x1c
 4581 0f76 01       		.uleb128 0x1
 4582 0f77 50       		.byte	0x50
 4583 0f78 02       		.uleb128 0x2
 4584 0f79 09       		.byte	0x9
 4585 0f7a F5       		.byte	0xf5
 4586 0f7b 1C       		.uleb128 0x1c
 4587 0f7c 01       		.uleb128 0x1
 4588 0f7d 51       		.byte	0x51
 4589 0f7e 02       		.uleb128 0x2
 4590 0f7f 7D       		.byte	0x7d
 4591 0f80 06       		.sleb128 6
 4592 0f81 1C       		.uleb128 0x1c
 4593 0f82 01       		.uleb128 0x1
 4594 0f83 52       		.byte	0x52
 4595 0f84 01       		.uleb128 0x1
 4596 0f85 31       		.byte	0x31
 4597 0f86 1C       		.uleb128 0x1c
 4598 0f87 01       		.uleb128 0x1
 4599 0f88 53       		.byte	0x53
 4600 0f89 02       		.uleb128 0x2
 4601 0f8a 74       		.byte	0x74
 4602 0f8b 00       		.sleb128 0
 4603 0f8c 00       		.byte	0
 4604 0f8d 1B       		.uleb128 0x1b
 4605 0f8e 30000000 		.4byte	.LVL272
 4606 0f92 F3030000 		.4byte	0x3f3
 4607 0f96 A70F0000 		.4byte	0xfa7
 4608 0f9a 1C       		.uleb128 0x1c
ARM GAS  C:\Users\corne\AppData\Local\Temp\cc0fqrF9.s 			page 108


 4609 0f9b 01       		.uleb128 0x1
 4610 0f9c 50       		.byte	0x50
 4611 0f9d 02       		.uleb128 0x2
 4612 0f9e 7D       		.byte	0x7d
 4613 0f9f 06       		.sleb128 6
 4614 0fa0 1C       		.uleb128 0x1c
 4615 0fa1 01       		.uleb128 0x1
 4616 0fa2 51       		.byte	0x51
 4617 0fa3 02       		.uleb128 0x2
 4618 0fa4 75       		.byte	0x75
 4619 0fa5 00       		.sleb128 0
 4620 0fa6 00       		.byte	0
 4621 0fa7 1B       		.uleb128 0x1b
 4622 0fa8 3E000000 		.4byte	.LVL273
 4623 0fac 33040000 		.4byte	0x433
 4624 0fb0 C10F0000 		.4byte	0xfc1
 4625 0fb4 1C       		.uleb128 0x1c
 4626 0fb5 01       		.uleb128 0x1
 4627 0fb6 50       		.byte	0x50
 4628 0fb7 02       		.uleb128 0x2
 4629 0fb8 7D       		.byte	0x7d
 4630 0fb9 06       		.sleb128 6
 4631 0fba 1C       		.uleb128 0x1c
 4632 0fbb 01       		.uleb128 0x1
 4633 0fbc 51       		.byte	0x51
 4634 0fbd 02       		.uleb128 0x2
 4635 0fbe 75       		.byte	0x75
 4636 0fbf 00       		.sleb128 0
 4637 0fc0 00       		.byte	0
 4638 0fc1 1D       		.uleb128 0x1d
 4639 0fc2 4E000000 		.4byte	.LVL274
 4640 0fc6 880B0000 		.4byte	0xb88
 4641 0fca 1C       		.uleb128 0x1c
 4642 0fcb 01       		.uleb128 0x1
 4643 0fcc 50       		.byte	0x50
 4644 0fcd 02       		.uleb128 0x2
 4645 0fce 7D       		.byte	0x7d
 4646 0fcf 07       		.sleb128 7
 4647 0fd0 1C       		.uleb128 0x1c
 4648 0fd1 01       		.uleb128 0x1
 4649 0fd2 51       		.byte	0x51
 4650 0fd3 02       		.uleb128 0x2
 4651 0fd4 7D       		.byte	0x7d
 4652 0fd5 06       		.sleb128 6
 4653 0fd6 1C       		.uleb128 0x1c
 4654 0fd7 01       		.uleb128 0x1
 4655 0fd8 52       		.byte	0x52
 4656 0fd9 01       		.uleb128 0x1
 4657 0fda 31       		.byte	0x31
 4658 0fdb 1C       		.uleb128 0x1c
 4659 0fdc 01       		.uleb128 0x1
 4660 0fdd 53       		.byte	0x53
 4661 0fde 02       		.uleb128 0x2
 4662 0fdf 74       		.byte	0x74
 4663 0fe0 00       		.sleb128 0
 4664 0fe1 00       		.byte	0
 4665 0fe2 00       		.byte	0
ARM GAS  C:\Users\corne\AppData\Local\Temp\cc0fqrF9.s 			page 109


 4666 0fe3 14       		.uleb128 0x14
 4667 0fe4 86000000 		.4byte	.LASF125
 4668 0fe8 01       		.byte	0x1
 4669 0fe9 3C03     		.2byte	0x33c
 4670 0feb B8000000 		.4byte	0xb8
 4671 0fef 00000000 		.4byte	.LFB21
 4672 0ff3 20000000 		.4byte	.LFE21-.LFB21
 4673 0ff7 01       		.uleb128 0x1
 4674 0ff8 9C       		.byte	0x9c
 4675 0ff9 63100000 		.4byte	0x1063
 4676 0ffd 11       		.uleb128 0x11
 4677 0ffe 08030000 		.4byte	.LASF67
 4678 1002 01       		.byte	0x1
 4679 1003 3C03     		.2byte	0x33c
 4680 1005 28040000 		.4byte	0x428
 4681 1009 F91B0000 		.4byte	.LLST69
 4682 100d 1F       		.uleb128 0x1f
 4683 100e 64657600 		.ascii	"dev\000"
 4684 1012 01       		.byte	0x1
 4685 1013 3C03     		.2byte	0x33c
 4686 1015 E0090000 		.4byte	0x9e0
 4687 1019 301C0000 		.4byte	.LLST70
 4688 101d 13       		.uleb128 0x13
 4689 101e 2D000000 		.4byte	.LASF98
 4690 1022 01       		.byte	0x1
 4691 1023 3E03     		.2byte	0x33e
 4692 1025 B8000000 		.4byte	0xb8
 4693 1029 671C0000 		.4byte	.LLST71
 4694 102d 1B       		.uleb128 0x1b
 4695 102e 10000000 		.4byte	.LVL280
 4696 1032 5F0E0000 		.4byte	0xe5f
 4697 1036 4C100000 		.4byte	0x104c
 4698 103a 1C       		.uleb128 0x1c
 4699 103b 01       		.uleb128 0x1
 4700 103c 50       		.byte	0x50
 4701 103d 01       		.uleb128 0x1
 4702 103e 4F       		.byte	0x4f
 4703 103f 1C       		.uleb128 0x1c
 4704 1040 01       		.uleb128 0x1
 4705 1041 51       		.byte	0x51
 4706 1042 02       		.uleb128 0x2
 4707 1043 74       		.byte	0x74
 4708 1044 00       		.sleb128 0
 4709 1045 1C       		.uleb128 0x1c
 4710 1046 01       		.uleb128 0x1
 4711 1047 52       		.byte	0x52
 4712 1048 02       		.uleb128 0x2
 4713 1049 75       		.byte	0x75
 4714 104a 00       		.sleb128 0
 4715 104b 00       		.byte	0
 4716 104c 1D       		.uleb128 0x1d
 4717 104d 1E000000 		.4byte	.LVL282
 4718 1051 F00E0000 		.4byte	0xef0
 4719 1055 1C       		.uleb128 0x1c
 4720 1056 01       		.uleb128 0x1
 4721 1057 51       		.byte	0x51
 4722 1058 02       		.uleb128 0x2
ARM GAS  C:\Users\corne\AppData\Local\Temp\cc0fqrF9.s 			page 110


 4723 1059 74       		.byte	0x74
 4724 105a 00       		.sleb128 0
 4725 105b 1C       		.uleb128 0x1c
 4726 105c 01       		.uleb128 0x1
 4727 105d 52       		.byte	0x52
 4728 105e 02       		.uleb128 0x2
 4729 105f 75       		.byte	0x75
 4730 1060 00       		.sleb128 0
 4731 1061 00       		.byte	0
 4732 1062 00       		.byte	0
 4733 1063 14       		.uleb128 0x14
 4734 1064 B9040000 		.4byte	.LASF126
 4735 1068 01       		.byte	0x1
 4736 1069 1103     		.2byte	0x311
 4737 106b B8000000 		.4byte	0xb8
 4738 106f 00000000 		.4byte	.LFB19
 4739 1073 40000000 		.4byte	.LFE19-.LFB19
 4740 1077 01       		.uleb128 0x1
 4741 1078 9C       		.byte	0x9c
 4742 1079 12110000 		.4byte	0x1112
 4743 107d 11       		.uleb128 0x11
 4744 107e 7C040000 		.4byte	.LASF127
 4745 1082 01       		.byte	0x1
 4746 1083 1103     		.2byte	0x311
 4747 1085 C3000000 		.4byte	0xc3
 4748 1089 921C0000 		.4byte	.LLST72
 4749 108d 1F       		.uleb128 0x1f
 4750 108e 64657600 		.ascii	"dev\000"
 4751 1092 01       		.byte	0x1
 4752 1093 1103     		.2byte	0x311
 4753 1095 E0090000 		.4byte	0x9e0
 4754 1099 B31C0000 		.4byte	.LLST73
 4755 109d 13       		.uleb128 0x13
 4756 109e 2D000000 		.4byte	.LASF98
 4757 10a2 01       		.byte	0x1
 4758 10a3 1303     		.2byte	0x313
 4759 10a5 B8000000 		.4byte	0xb8
 4760 10a9 EA1C0000 		.4byte	.LLST74
 4761 10ad 1A       		.uleb128 0x1a
 4762 10ae 4A050000 		.4byte	.LASF100
 4763 10b2 01       		.byte	0x1
 4764 10b3 1403     		.2byte	0x314
 4765 10b5 C3000000 		.4byte	0xc3
 4766 10b9 02       		.uleb128 0x2
 4767 10ba 91       		.byte	0x91
 4768 10bb 6F       		.sleb128 -17
 4769 10bc 1A       		.uleb128 0x1a
 4770 10bd 80020000 		.4byte	.LASF128
 4771 10c1 01       		.byte	0x1
 4772 10c2 1603     		.2byte	0x316
 4773 10c4 C3000000 		.4byte	0xc3
 4774 10c8 02       		.uleb128 0x2
 4775 10c9 91       		.byte	0x91
 4776 10ca 6E       		.sleb128 -18
 4777 10cb 1B       		.uleb128 0x1b
 4778 10cc 1C000000 		.4byte	.LVL288
 4779 10d0 EB090000 		.4byte	0x9eb
ARM GAS  C:\Users\corne\AppData\Local\Temp\cc0fqrF9.s 			page 111


 4780 10d4 F0100000 		.4byte	0x10f0
 4781 10d8 1C       		.uleb128 0x1c
 4782 10d9 01       		.uleb128 0x1
 4783 10da 50       		.byte	0x50
 4784 10db 02       		.uleb128 0x2
 4785 10dc 09       		.byte	0x9
 4786 10dd F4       		.byte	0xf4
 4787 10de 1C       		.uleb128 0x1c
 4788 10df 01       		.uleb128 0x1
 4789 10e0 51       		.byte	0x51
 4790 10e1 02       		.uleb128 0x2
 4791 10e2 7D       		.byte	0x7d
 4792 10e3 06       		.sleb128 6
 4793 10e4 1C       		.uleb128 0x1c
 4794 10e5 01       		.uleb128 0x1
 4795 10e6 52       		.byte	0x52
 4796 10e7 01       		.uleb128 0x1
 4797 10e8 31       		.byte	0x31
 4798 10e9 1C       		.uleb128 0x1c
 4799 10ea 01       		.uleb128 0x1
 4800 10eb 53       		.byte	0x53
 4801 10ec 02       		.uleb128 0x2
 4802 10ed 75       		.byte	0x75
 4803 10ee 00       		.sleb128 0
 4804 10ef 00       		.byte	0
 4805 10f0 1D       		.uleb128 0x1d
 4806 10f1 3C000000 		.4byte	.LVL290
 4807 10f5 880B0000 		.4byte	0xb88
 4808 10f9 1C       		.uleb128 0x1c
 4809 10fa 01       		.uleb128 0x1
 4810 10fb 50       		.byte	0x50
 4811 10fc 02       		.uleb128 0x2
 4812 10fd 7D       		.byte	0x7d
 4813 10fe 07       		.sleb128 7
 4814 10ff 1C       		.uleb128 0x1c
 4815 1100 01       		.uleb128 0x1
 4816 1101 51       		.byte	0x51
 4817 1102 02       		.uleb128 0x2
 4818 1103 7D       		.byte	0x7d
 4819 1104 06       		.sleb128 6
 4820 1105 1C       		.uleb128 0x1c
 4821 1106 01       		.uleb128 0x1
 4822 1107 52       		.byte	0x52
 4823 1108 01       		.uleb128 0x1
 4824 1109 31       		.byte	0x31
 4825 110a 1C       		.uleb128 0x1c
 4826 110b 01       		.uleb128 0x1
 4827 110c 53       		.byte	0x53
 4828 110d 02       		.uleb128 0x2
 4829 110e 75       		.byte	0x75
 4830 110f 00       		.sleb128 0
 4831 1110 00       		.byte	0
 4832 1111 00       		.byte	0
 4833 1112 20       		.uleb128 0x20
 4834 1113 E3040000 		.4byte	.LASF129
 4835 1117 01       		.byte	0x1
 4836 1118 0A02     		.2byte	0x20a
ARM GAS  C:\Users\corne\AppData\Local\Temp\cc0fqrF9.s 			page 112


 4837 111a B8000000 		.4byte	0xb8
 4838 111e 00000000 		.4byte	.LFB5
 4839 1122 2E000000 		.4byte	.LFE5-.LFB5
 4840 1126 01       		.uleb128 0x1
 4841 1127 9C       		.byte	0x9c
 4842 1128 AB110000 		.4byte	0x11ab
 4843 112c 1F       		.uleb128 0x1f
 4844 112d 64657600 		.ascii	"dev\000"
 4845 1131 01       		.byte	0x1
 4846 1132 0A02     		.2byte	0x20a
 4847 1134 D5080000 		.4byte	0x8d5
 4848 1138 081D0000 		.4byte	.LLST75
 4849 113c 13       		.uleb128 0x13
 4850 113d 2D000000 		.4byte	.LASF98
 4851 1141 01       		.byte	0x1
 4852 1142 0C02     		.2byte	0x20c
 4853 1144 B8000000 		.4byte	0xb8
 4854 1148 341D0000 		.4byte	.LLST76
 4855 114c 1A       		.uleb128 0x1a
 4856 114d 91010000 		.4byte	.LASF71
 4857 1151 01       		.byte	0x1
 4858 1152 0D02     		.2byte	0x20d
 4859 1154 AB110000 		.4byte	0x11ab
 4860 1158 02       		.uleb128 0x2
 4861 1159 91       		.byte	0x91
 4862 115a 6C       		.sleb128 -20
 4863 115b 1B       		.uleb128 0x1b
 4864 115c 0A000000 		.4byte	.LVL293
 4865 1160 A7090000 		.4byte	0x9a7
 4866 1164 6F110000 		.4byte	0x116f
 4867 1168 1C       		.uleb128 0x1c
 4868 1169 01       		.uleb128 0x1
 4869 116a 50       		.byte	0x50
 4870 116b 02       		.uleb128 0x2
 4871 116c 75       		.byte	0x75
 4872 116d 00       		.sleb128 0
 4873 116e 00       		.byte	0
 4874 116f 1B       		.uleb128 0x1b
 4875 1170 1A000000 		.4byte	.LVL296
 4876 1174 EB090000 		.4byte	0x9eb
 4877 1178 94110000 		.4byte	0x1194
 4878 117c 1C       		.uleb128 0x1c
 4879 117d 01       		.uleb128 0x1
 4880 117e 50       		.byte	0x50
 4881 117f 02       		.uleb128 0x2
 4882 1180 09       		.byte	0x9
 4883 1181 F2       		.byte	0xf2
 4884 1182 1C       		.uleb128 0x1c
 4885 1183 01       		.uleb128 0x1
 4886 1184 51       		.byte	0x51
 4887 1185 02       		.uleb128 0x2
 4888 1186 91       		.byte	0x91
 4889 1187 6C       		.sleb128 -20
 4890 1188 1C       		.uleb128 0x1c
 4891 1189 01       		.uleb128 0x1
 4892 118a 52       		.byte	0x52
 4893 118b 01       		.uleb128 0x1
ARM GAS  C:\Users\corne\AppData\Local\Temp\cc0fqrF9.s 			page 113


 4894 118c 34       		.byte	0x34
 4895 118d 1C       		.uleb128 0x1c
 4896 118e 01       		.uleb128 0x1
 4897 118f 53       		.byte	0x53
 4898 1190 02       		.uleb128 0x2
 4899 1191 75       		.byte	0x75
 4900 1192 00       		.sleb128 0
 4901 1193 00       		.byte	0
 4902 1194 1D       		.uleb128 0x1d
 4903 1195 28000000 		.4byte	.LVL299
 4904 1199 D2040000 		.4byte	0x4d2
 4905 119d 1C       		.uleb128 0x1c
 4906 119e 01       		.uleb128 0x1
 4907 119f 50       		.byte	0x50
 4908 11a0 02       		.uleb128 0x2
 4909 11a1 91       		.byte	0x91
 4910 11a2 6C       		.sleb128 -20
 4911 11a3 1C       		.uleb128 0x1c
 4912 11a4 01       		.uleb128 0x1
 4913 11a5 51       		.byte	0x51
 4914 11a6 02       		.uleb128 0x2
 4915 11a7 75       		.byte	0x75
 4916 11a8 38       		.sleb128 56
 4917 11a9 00       		.byte	0
 4918 11aa 00       		.byte	0
 4919 11ab 22       		.uleb128 0x22
 4920 11ac C3000000 		.4byte	0xc3
 4921 11b0 BB110000 		.4byte	0x11bb
 4922 11b4 23       		.uleb128 0x23
 4923 11b5 0C010000 		.4byte	0x10c
 4924 11b9 03       		.byte	0x3
 4925 11ba 00       		.byte	0
 4926 11bb 20       		.uleb128 0x20
 4927 11bc CF060000 		.4byte	.LASF130
 4928 11c0 01       		.byte	0x1
 4929 11c1 3702     		.2byte	0x237
 4930 11c3 B8000000 		.4byte	0xb8
 4931 11c7 00000000 		.4byte	.LFB7
 4932 11cb 26000000 		.4byte	.LFE7-.LFB7
 4933 11cf 01       		.uleb128 0x1
 4934 11d0 9C       		.byte	0x9c
 4935 11d1 35120000 		.4byte	0x1235
 4936 11d5 11       		.uleb128 0x11
 4937 11d6 7C040000 		.4byte	.LASF127
 4938 11da 01       		.byte	0x1
 4939 11db 3702     		.2byte	0x237
 4940 11dd 67010000 		.4byte	0x167
 4941 11e1 681D0000 		.4byte	.LLST77
 4942 11e5 1F       		.uleb128 0x1f
 4943 11e6 64657600 		.ascii	"dev\000"
 4944 11ea 01       		.byte	0x1
 4945 11eb 3702     		.2byte	0x237
 4946 11ed E0090000 		.4byte	0x9e0
 4947 11f1 941D0000 		.4byte	.LLST78
 4948 11f5 13       		.uleb128 0x13
 4949 11f6 2D000000 		.4byte	.LASF98
 4950 11fa 01       		.byte	0x1
ARM GAS  C:\Users\corne\AppData\Local\Temp\cc0fqrF9.s 			page 114


 4951 11fb 3902     		.2byte	0x239
 4952 11fd B8000000 		.4byte	0xb8
 4953 1201 C01D0000 		.4byte	.LLST79
 4954 1205 1B       		.uleb128 0x1b
 4955 1206 0C000000 		.4byte	.LVL304
 4956 120a A7090000 		.4byte	0x9a7
 4957 120e 19120000 		.4byte	0x1219
 4958 1212 1C       		.uleb128 0x1c
 4959 1213 01       		.uleb128 0x1
 4960 1214 50       		.byte	0x50
 4961 1215 02       		.uleb128 0x2
 4962 1216 75       		.byte	0x75
 4963 1217 00       		.sleb128 0
 4964 1218 00       		.byte	0
 4965 1219 1D       		.uleb128 0x1d
 4966 121a 1C000000 		.4byte	.LVL306
 4967 121e EB090000 		.4byte	0x9eb
 4968 1222 1C       		.uleb128 0x1c
 4969 1223 01       		.uleb128 0x1
 4970 1224 51       		.byte	0x51
 4971 1225 02       		.uleb128 0x2
 4972 1226 74       		.byte	0x74
 4973 1227 00       		.sleb128 0
 4974 1228 1C       		.uleb128 0x1c
 4975 1229 01       		.uleb128 0x1
 4976 122a 52       		.byte	0x52
 4977 122b 01       		.uleb128 0x1
 4978 122c 31       		.byte	0x31
 4979 122d 1C       		.uleb128 0x1c
 4980 122e 01       		.uleb128 0x1
 4981 122f 53       		.byte	0x53
 4982 1230 02       		.uleb128 0x2
 4983 1231 75       		.byte	0x75
 4984 1232 00       		.sleb128 0
 4985 1233 00       		.byte	0
 4986 1234 00       		.byte	0
 4987 1235 20       		.uleb128 0x20
 4988 1236 0F050000 		.4byte	.LASF131
 4989 123a 01       		.byte	0x1
 4990 123b 4B02     		.2byte	0x24b
 4991 123d B8000000 		.4byte	0xb8
 4992 1241 00000000 		.4byte	.LFB8
 4993 1245 38000000 		.4byte	.LFE8-.LFB8
 4994 1249 01       		.uleb128 0x1
 4995 124a 9C       		.byte	0x9c
 4996 124b D2120000 		.4byte	0x12d2
 4997 124f 1F       		.uleb128 0x1f
 4998 1250 64657600 		.ascii	"dev\000"
 4999 1254 01       		.byte	0x1
 5000 1255 4B02     		.2byte	0x24b
 5001 1257 E0090000 		.4byte	0x9e0
 5002 125b EC1D0000 		.4byte	.LLST80
 5003 125f 13       		.uleb128 0x13
 5004 1260 2D000000 		.4byte	.LASF98
 5005 1264 01       		.byte	0x1
 5006 1265 4D02     		.2byte	0x24d
 5007 1267 B8000000 		.4byte	0xb8
ARM GAS  C:\Users\corne\AppData\Local\Temp\cc0fqrF9.s 			page 115


 5008 126b 181E0000 		.4byte	.LLST81
 5009 126f 1A       		.uleb128 0x1a
 5010 1270 4A050000 		.4byte	.LASF100
 5011 1274 01       		.byte	0x1
 5012 1275 4E02     		.2byte	0x24e
 5013 1277 C3000000 		.4byte	0xc3
 5014 127b 02       		.uleb128 0x2
 5015 127c 91       		.byte	0x91
 5016 127d 6F       		.sleb128 -17
 5017 127e 1A       		.uleb128 0x1a
 5018 127f 9D020000 		.4byte	.LASF132
 5019 1283 01       		.byte	0x1
 5020 1284 5002     		.2byte	0x250
 5021 1286 C3000000 		.4byte	0xc3
 5022 128a 02       		.uleb128 0x2
 5023 128b 91       		.byte	0x91
 5024 128c 6E       		.sleb128 -18
 5025 128d 1B       		.uleb128 0x1b
 5026 128e 16000000 		.4byte	.LVL311
 5027 1292 A7090000 		.4byte	0x9a7
 5028 1296 A1120000 		.4byte	0x12a1
 5029 129a 1C       		.uleb128 0x1c
 5030 129b 01       		.uleb128 0x1
 5031 129c 50       		.byte	0x50
 5032 129d 02       		.uleb128 0x2
 5033 129e 75       		.byte	0x75
 5034 129f 00       		.sleb128 0
 5035 12a0 00       		.byte	0
 5036 12a1 1B       		.uleb128 0x1b
 5037 12a2 2A000000 		.4byte	.LVL314
 5038 12a6 880B0000 		.4byte	0xb88
 5039 12aa C6120000 		.4byte	0x12c6
 5040 12ae 1C       		.uleb128 0x1c
 5041 12af 01       		.uleb128 0x1
 5042 12b0 50       		.byte	0x50
 5043 12b1 02       		.uleb128 0x2
 5044 12b2 7D       		.byte	0x7d
 5045 12b3 07       		.sleb128 7
 5046 12b4 1C       		.uleb128 0x1c
 5047 12b5 01       		.uleb128 0x1
 5048 12b6 51       		.byte	0x51
 5049 12b7 02       		.uleb128 0x2
 5050 12b8 7D       		.byte	0x7d
 5051 12b9 06       		.sleb128 6
 5052 12ba 1C       		.uleb128 0x1c
 5053 12bb 01       		.uleb128 0x1
 5054 12bc 52       		.byte	0x52
 5055 12bd 01       		.uleb128 0x1
 5056 12be 31       		.byte	0x31
 5057 12bf 1C       		.uleb128 0x1c
 5058 12c0 01       		.uleb128 0x1
 5059 12c1 53       		.byte	0x53
 5060 12c2 02       		.uleb128 0x2
 5061 12c3 75       		.byte	0x75
 5062 12c4 00       		.sleb128 0
 5063 12c5 00       		.byte	0
 5064 12c6 26       		.uleb128 0x26
ARM GAS  C:\Users\corne\AppData\Local\Temp\cc0fqrF9.s 			page 116


 5065 12c7 32000000 		.4byte	.LVL317
 5066 12cb 1C       		.uleb128 0x1c
 5067 12cc 01       		.uleb128 0x1
 5068 12cd 50       		.byte	0x50
 5069 12ce 01       		.uleb128 0x1
 5070 12cf 32       		.byte	0x32
 5071 12d0 00       		.byte	0
 5072 12d1 00       		.byte	0
 5073 12d2 20       		.uleb128 0x20
 5074 12d3 60010000 		.4byte	.LASF133
 5075 12d7 01       		.byte	0x1
 5076 12d8 7C01     		.2byte	0x17c
 5077 12da B8000000 		.4byte	0xb8
 5078 12de 00000000 		.4byte	.LFB1
 5079 12e2 68000000 		.4byte	.LFE1-.LFB1
 5080 12e6 01       		.uleb128 0x1
 5081 12e7 9C       		.byte	0x9c
 5082 12e8 98130000 		.4byte	0x1398
 5083 12ec 1F       		.uleb128 0x1f
 5084 12ed 64657600 		.ascii	"dev\000"
 5085 12f1 01       		.byte	0x1
 5086 12f2 7C01     		.2byte	0x17c
 5087 12f4 D5080000 		.4byte	0x8d5
 5088 12f8 4C1E0000 		.4byte	.LLST82
 5089 12fc 13       		.uleb128 0x13
 5090 12fd 2D000000 		.4byte	.LASF98
 5091 1301 01       		.byte	0x1
 5092 1302 7E01     		.2byte	0x17e
 5093 1304 B8000000 		.4byte	0xb8
 5094 1308 781E0000 		.4byte	.LLST83
 5095 130c 13       		.uleb128 0x13
 5096 130d 00000000 		.4byte	.LASF134
 5097 1311 01       		.byte	0x1
 5098 1312 8001     		.2byte	0x180
 5099 1314 C3000000 		.4byte	0xc3
 5100 1318 F91E0000 		.4byte	.LLST84
 5101 131c 1A       		.uleb128 0x1a
 5102 131d 57020000 		.4byte	.LASF61
 5103 1321 01       		.byte	0x1
 5104 1322 8101     		.2byte	0x181
 5105 1324 C3000000 		.4byte	0xc3
 5106 1328 02       		.uleb128 0x2
 5107 1329 91       		.byte	0x91
 5108 132a 6F       		.sleb128 -17
 5109 132b 1B       		.uleb128 0x1b
 5110 132c 10000000 		.4byte	.LVL322
 5111 1330 A7090000 		.4byte	0x9a7
 5112 1334 3F130000 		.4byte	0x133f
 5113 1338 1C       		.uleb128 0x1c
 5114 1339 01       		.uleb128 0x1
 5115 133a 50       		.byte	0x50
 5116 133b 02       		.uleb128 0x2
 5117 133c 76       		.byte	0x76
 5118 133d 00       		.sleb128 0
 5119 133e 00       		.byte	0
 5120 133f 1B       		.uleb128 0x1b
 5121 1340 24000000 		.4byte	.LVL325
ARM GAS  C:\Users\corne\AppData\Local\Temp\cc0fqrF9.s 			page 117


 5122 1344 EB090000 		.4byte	0x9eb
 5123 1348 64130000 		.4byte	0x1364
 5124 134c 1C       		.uleb128 0x1c
 5125 134d 01       		.uleb128 0x1
 5126 134e 50       		.byte	0x50
 5127 134f 02       		.uleb128 0x2
 5128 1350 09       		.byte	0x9
 5129 1351 D0       		.byte	0xd0
 5130 1352 1C       		.uleb128 0x1c
 5131 1353 01       		.uleb128 0x1
 5132 1354 51       		.byte	0x51
 5133 1355 02       		.uleb128 0x2
 5134 1356 7D       		.byte	0x7d
 5135 1357 07       		.sleb128 7
 5136 1358 1C       		.uleb128 0x1c
 5137 1359 01       		.uleb128 0x1
 5138 135a 52       		.byte	0x52
 5139 135b 01       		.uleb128 0x1
 5140 135c 31       		.byte	0x31
 5141 135d 1C       		.uleb128 0x1c
 5142 135e 01       		.uleb128 0x1
 5143 135f 53       		.byte	0x53
 5144 1360 02       		.uleb128 0x2
 5145 1361 76       		.byte	0x76
 5146 1362 00       		.sleb128 0
 5147 1363 00       		.byte	0
 5148 1364 1B       		.uleb128 0x1b
 5149 1365 3A000000 		.4byte	.LVL328
 5150 1369 35120000 		.4byte	0x1235
 5151 136d 78130000 		.4byte	0x1378
 5152 1371 1C       		.uleb128 0x1c
 5153 1372 01       		.uleb128 0x1
 5154 1373 50       		.byte	0x50
 5155 1374 02       		.uleb128 0x2
 5156 1375 76       		.byte	0x76
 5157 1376 00       		.sleb128 0
 5158 1377 00       		.byte	0
 5159 1378 1B       		.uleb128 0x1b
 5160 1379 44000000 		.4byte	.LVL331
 5161 137d 860A0000 		.4byte	0xa86
 5162 1381 8C130000 		.4byte	0x138c
 5163 1385 1C       		.uleb128 0x1c
 5164 1386 01       		.uleb128 0x1
 5165 1387 50       		.byte	0x50
 5166 1388 02       		.uleb128 0x2
 5167 1389 76       		.byte	0x76
 5168 138a 00       		.sleb128 0
 5169 138b 00       		.byte	0
 5170 138c 26       		.uleb128 0x26
 5171 138d 4E000000 		.4byte	.LVL334
 5172 1391 1C       		.uleb128 0x1c
 5173 1392 01       		.uleb128 0x1
 5174 1393 50       		.byte	0x50
 5175 1394 01       		.uleb128 0x1
 5176 1395 31       		.byte	0x31
 5177 1396 00       		.byte	0
 5178 1397 00       		.byte	0
ARM GAS  C:\Users\corne\AppData\Local\Temp\cc0fqrF9.s 			page 118


 5179 1398 14       		.uleb128 0x14
 5180 1399 D3050000 		.4byte	.LASF135
 5181 139d 01       		.byte	0x1
 5182 139e 2703     		.2byte	0x327
 5183 13a0 B8000000 		.4byte	0xb8
 5184 13a4 00000000 		.4byte	.LFB20
 5185 13a8 34000000 		.4byte	.LFE20-.LFB20
 5186 13ac 01       		.uleb128 0x1
 5187 13ad 9C       		.byte	0x9c
 5188 13ae 5A140000 		.4byte	0x145a
 5189 13b2 1F       		.uleb128 0x1f
 5190 13b3 64657600 		.ascii	"dev\000"
 5191 13b7 01       		.byte	0x1
 5192 13b8 2703     		.2byte	0x327
 5193 13ba E0090000 		.4byte	0x9e0
 5194 13be 3A1F0000 		.4byte	.LLST85
 5195 13c2 13       		.uleb128 0x13
 5196 13c3 2D000000 		.4byte	.LASF98
 5197 13c7 01       		.byte	0x1
 5198 13c8 2903     		.2byte	0x329
 5199 13ca B8000000 		.4byte	0xb8
 5200 13ce 711F0000 		.4byte	.LLST86
 5201 13d2 1A       		.uleb128 0x1a
 5202 13d3 91010000 		.4byte	.LASF71
 5203 13d7 01       		.byte	0x1
 5204 13d8 2A03     		.2byte	0x32a
 5205 13da AB110000 		.4byte	0x11ab
 5206 13de 02       		.uleb128 0x2
 5207 13df 91       		.byte	0x91
 5208 13e0 74       		.sleb128 -12
 5209 13e1 1A       		.uleb128 0x1a
 5210 13e2 08030000 		.4byte	.LASF67
 5211 13e6 01       		.byte	0x1
 5212 13e7 2B03     		.2byte	0x32b
 5213 13e9 5C030000 		.4byte	0x35c
 5214 13ed 02       		.uleb128 0x2
 5215 13ee 91       		.byte	0x91
 5216 13ef 6C       		.sleb128 -20
 5217 13f0 1B       		.uleb128 0x1b
 5218 13f1 12000000 		.4byte	.LVL346
 5219 13f5 EB090000 		.4byte	0x9eb
 5220 13f9 15140000 		.4byte	0x1415
 5221 13fd 1C       		.uleb128 0x1c
 5222 13fe 01       		.uleb128 0x1
 5223 13ff 50       		.byte	0x50
 5224 1400 02       		.uleb128 0x2
 5225 1401 09       		.byte	0x9
 5226 1402 F2       		.byte	0xf2
 5227 1403 1C       		.uleb128 0x1c
 5228 1404 01       		.uleb128 0x1
 5229 1405 51       		.byte	0x51
 5230 1406 02       		.uleb128 0x2
 5231 1407 91       		.byte	0x91
 5232 1408 74       		.sleb128 -12
 5233 1409 1C       		.uleb128 0x1c
 5234 140a 01       		.uleb128 0x1
 5235 140b 52       		.byte	0x52
ARM GAS  C:\Users\corne\AppData\Local\Temp\cc0fqrF9.s 			page 119


 5236 140c 01       		.uleb128 0x1
 5237 140d 34       		.byte	0x34
 5238 140e 1C       		.uleb128 0x1c
 5239 140f 01       		.uleb128 0x1
 5240 1410 53       		.byte	0x53
 5241 1411 02       		.uleb128 0x2
 5242 1412 74       		.byte	0x74
 5243 1413 00       		.sleb128 0
 5244 1414 00       		.byte	0
 5245 1415 1B       		.uleb128 0x1b
 5246 1416 1E000000 		.4byte	.LVL348
 5247 141a D2040000 		.4byte	0x4d2
 5248 141e 2F140000 		.4byte	0x142f
 5249 1422 1C       		.uleb128 0x1c
 5250 1423 01       		.uleb128 0x1
 5251 1424 50       		.byte	0x50
 5252 1425 02       		.uleb128 0x2
 5253 1426 91       		.byte	0x91
 5254 1427 74       		.sleb128 -12
 5255 1428 1C       		.uleb128 0x1c
 5256 1429 01       		.uleb128 0x1
 5257 142a 51       		.byte	0x51
 5258 142b 02       		.uleb128 0x2
 5259 142c 91       		.byte	0x91
 5260 142d 6C       		.sleb128 -20
 5261 142e 00       		.byte	0
 5262 142f 1B       		.uleb128 0x1b
 5263 1430 24000000 		.4byte	.LVL349
 5264 1434 35120000 		.4byte	0x1235
 5265 1438 43140000 		.4byte	0x1443
 5266 143c 1C       		.uleb128 0x1c
 5267 143d 01       		.uleb128 0x1
 5268 143e 50       		.byte	0x50
 5269 143f 02       		.uleb128 0x2
 5270 1440 74       		.byte	0x74
 5271 1441 00       		.sleb128 0
 5272 1442 00       		.byte	0
 5273 1443 1D       		.uleb128 0x1d
 5274 1444 30000000 		.4byte	.LVL351
 5275 1448 E30F0000 		.4byte	0xfe3
 5276 144c 1C       		.uleb128 0x1c
 5277 144d 01       		.uleb128 0x1
 5278 144e 50       		.byte	0x50
 5279 144f 02       		.uleb128 0x2
 5280 1450 91       		.byte	0x91
 5281 1451 6C       		.sleb128 -20
 5282 1452 1C       		.uleb128 0x1c
 5283 1453 01       		.uleb128 0x1
 5284 1454 51       		.byte	0x51
 5285 1455 02       		.uleb128 0x2
 5286 1456 74       		.byte	0x74
 5287 1457 00       		.sleb128 0
 5288 1458 00       		.byte	0
 5289 1459 00       		.byte	0
 5290 145a 20       		.uleb128 0x20
 5291 145b 7B070000 		.4byte	.LASF136
 5292 145f 01       		.byte	0x1
ARM GAS  C:\Users\corne\AppData\Local\Temp\cc0fqrF9.s 			page 120


 5293 1460 EB01     		.2byte	0x1eb
 5294 1462 B8000000 		.4byte	0xb8
 5295 1466 00000000 		.4byte	.LFB4
 5296 146a 74000000 		.4byte	.LFE4-.LFB4
 5297 146e 01       		.uleb128 0x1
 5298 146f 9C       		.byte	0x9c
 5299 1470 64150000 		.4byte	0x1564
 5300 1474 11       		.uleb128 0x11
 5301 1475 B2000000 		.4byte	.LASF111
 5302 1479 01       		.byte	0x1
 5303 147a EB01     		.2byte	0x1eb
 5304 147c C3000000 		.4byte	0xc3
 5305 1480 9A1F0000 		.4byte	.LLST87
 5306 1484 1F       		.uleb128 0x1f
 5307 1485 64657600 		.ascii	"dev\000"
 5308 1489 01       		.byte	0x1
 5309 148a EB01     		.2byte	0x1eb
 5310 148c E0090000 		.4byte	0x9e0
 5311 1490 BB1F0000 		.4byte	.LLST88
 5312 1494 13       		.uleb128 0x13
 5313 1495 2D000000 		.4byte	.LASF98
 5314 1499 01       		.byte	0x1
 5315 149a ED01     		.2byte	0x1ed
 5316 149c B8000000 		.4byte	0xb8
 5317 14a0 E71F0000 		.4byte	.LLST89
 5318 14a4 1A       		.uleb128 0x1a
 5319 14a5 7C040000 		.4byte	.LASF127
 5320 14a9 01       		.byte	0x1
 5321 14aa EE01     		.2byte	0x1ee
 5322 14ac C3000000 		.4byte	0xc3
 5323 14b0 02       		.uleb128 0x2
 5324 14b1 91       		.byte	0x91
 5325 14b2 6F       		.sleb128 -17
 5326 14b3 1B       		.uleb128 0x1b
 5327 14b4 0E000000 		.4byte	.LVL355
 5328 14b8 A7090000 		.4byte	0x9a7
 5329 14bc C7140000 		.4byte	0x14c7
 5330 14c0 1C       		.uleb128 0x1c
 5331 14c1 01       		.uleb128 0x1
 5332 14c2 50       		.byte	0x50
 5333 14c3 02       		.uleb128 0x2
 5334 14c4 75       		.byte	0x75
 5335 14c5 00       		.sleb128 0
 5336 14c6 00       		.byte	0
 5337 14c7 1B       		.uleb128 0x1b
 5338 14c8 1C000000 		.4byte	.LVL358
 5339 14cc BB110000 		.4byte	0x11bb
 5340 14d0 E1140000 		.4byte	0x14e1
 5341 14d4 1C       		.uleb128 0x1c
 5342 14d5 01       		.uleb128 0x1
 5343 14d6 50       		.byte	0x50
 5344 14d7 02       		.uleb128 0x2
 5345 14d8 7D       		.byte	0x7d
 5346 14d9 07       		.sleb128 7
 5347 14da 1C       		.uleb128 0x1c
 5348 14db 01       		.uleb128 0x1
 5349 14dc 51       		.byte	0x51
ARM GAS  C:\Users\corne\AppData\Local\Temp\cc0fqrF9.s 			page 121


 5350 14dd 02       		.uleb128 0x2
 5351 14de 75       		.byte	0x75
 5352 14df 00       		.sleb128 0
 5353 14e0 00       		.byte	0
 5354 14e1 1B       		.uleb128 0x1b
 5355 14e2 30000000 		.4byte	.LVL361
 5356 14e6 98130000 		.4byte	0x1398
 5357 14ea F5140000 		.4byte	0x14f5
 5358 14ee 1C       		.uleb128 0x1c
 5359 14ef 01       		.uleb128 0x1
 5360 14f0 50       		.byte	0x50
 5361 14f1 02       		.uleb128 0x2
 5362 14f2 75       		.byte	0x75
 5363 14f3 00       		.sleb128 0
 5364 14f4 00       		.byte	0
 5365 14f5 1B       		.uleb128 0x1b
 5366 14f6 3E000000 		.4byte	.LVL363
 5367 14fa 5E090000 		.4byte	0x95e
 5368 14fe 0E150000 		.4byte	0x150e
 5369 1502 1C       		.uleb128 0x1c
 5370 1503 01       		.uleb128 0x1
 5371 1504 50       		.byte	0x50
 5372 1505 01       		.uleb128 0x1
 5373 1506 37       		.byte	0x37
 5374 1507 1C       		.uleb128 0x1c
 5375 1508 01       		.uleb128 0x1
 5376 1509 51       		.byte	0x51
 5377 150a 02       		.uleb128 0x2
 5378 150b 76       		.byte	0x76
 5379 150c 00       		.sleb128 0
 5380 150d 00       		.byte	0
 5381 150e 1B       		.uleb128 0x1b
 5382 150f 4E000000 		.4byte	.LVL364
 5383 1513 5F0E0000 		.4byte	0xe5f
 5384 1517 2E150000 		.4byte	0x152e
 5385 151b 1C       		.uleb128 0x1c
 5386 151c 01       		.uleb128 0x1
 5387 151d 50       		.byte	0x50
 5388 151e 02       		.uleb128 0x2
 5389 151f 76       		.byte	0x76
 5390 1520 00       		.sleb128 0
 5391 1521 1C       		.uleb128 0x1c
 5392 1522 01       		.uleb128 0x1
 5393 1523 51       		.byte	0x51
 5394 1524 02       		.uleb128 0x2
 5395 1525 75       		.byte	0x75
 5396 1526 38       		.sleb128 56
 5397 1527 1C       		.uleb128 0x1c
 5398 1528 01       		.uleb128 0x1
 5399 1529 52       		.byte	0x52
 5400 152a 02       		.uleb128 0x2
 5401 152b 75       		.byte	0x75
 5402 152c 00       		.sleb128 0
 5403 152d 00       		.byte	0
 5404 152e 1B       		.uleb128 0x1b
 5405 152f 5C000000 		.4byte	.LVL366
 5406 1533 5E090000 		.4byte	0x95e
ARM GAS  C:\Users\corne\AppData\Local\Temp\cc0fqrF9.s 			page 122


 5407 1537 47150000 		.4byte	0x1547
 5408 153b 1C       		.uleb128 0x1c
 5409 153c 01       		.uleb128 0x1
 5410 153d 50       		.byte	0x50
 5411 153e 01       		.uleb128 0x1
 5412 153f 48       		.byte	0x48
 5413 1540 1C       		.uleb128 0x1c
 5414 1541 01       		.uleb128 0x1
 5415 1542 51       		.byte	0x51
 5416 1543 02       		.uleb128 0x2
 5417 1544 76       		.byte	0x76
 5418 1545 00       		.sleb128 0
 5419 1546 00       		.byte	0
 5420 1547 1D       		.uleb128 0x1d
 5421 1548 6C000000 		.4byte	.LVL367
 5422 154c F00E0000 		.4byte	0xef0
 5423 1550 1C       		.uleb128 0x1c
 5424 1551 01       		.uleb128 0x1
 5425 1552 50       		.byte	0x50
 5426 1553 02       		.uleb128 0x2
 5427 1554 76       		.byte	0x76
 5428 1555 00       		.sleb128 0
 5429 1556 1C       		.uleb128 0x1c
 5430 1557 01       		.uleb128 0x1
 5431 1558 51       		.byte	0x51
 5432 1559 02       		.uleb128 0x2
 5433 155a 75       		.byte	0x75
 5434 155b 38       		.sleb128 56
 5435 155c 1C       		.uleb128 0x1c
 5436 155d 01       		.uleb128 0x1
 5437 155e 52       		.byte	0x52
 5438 155f 02       		.uleb128 0x2
 5439 1560 75       		.byte	0x75
 5440 1561 00       		.sleb128 0
 5441 1562 00       		.byte	0
 5442 1563 00       		.byte	0
 5443 1564 20       		.uleb128 0x20
 5444 1565 C3000000 		.4byte	.LASF137
 5445 1569 01       		.byte	0x1
 5446 156a 1E02     		.2byte	0x21e
 5447 156c B8000000 		.4byte	0xb8
 5448 1570 00000000 		.4byte	.LFB6
 5449 1574 40000000 		.4byte	.LFE6-.LFB6
 5450 1578 01       		.uleb128 0x1
 5451 1579 9C       		.byte	0x9c
 5452 157a 16160000 		.4byte	0x1616
 5453 157e 11       		.uleb128 0x11
 5454 157f 7C040000 		.4byte	.LASF127
 5455 1583 01       		.byte	0x1
 5456 1584 1E02     		.2byte	0x21e
 5457 1586 C3000000 		.4byte	0xc3
 5458 158a 1B200000 		.4byte	.LLST90
 5459 158e 1F       		.uleb128 0x1f
 5460 158f 64657600 		.ascii	"dev\000"
 5461 1593 01       		.byte	0x1
 5462 1594 1E02     		.2byte	0x21e
 5463 1596 E0090000 		.4byte	0x9e0
ARM GAS  C:\Users\corne\AppData\Local\Temp\cc0fqrF9.s 			page 123


 5464 159a 3C200000 		.4byte	.LLST91
 5465 159e 13       		.uleb128 0x13
 5466 159f 2D000000 		.4byte	.LASF98
 5467 15a3 01       		.byte	0x1
 5468 15a4 2002     		.2byte	0x220
 5469 15a6 B8000000 		.4byte	0xb8
 5470 15aa 68200000 		.4byte	.LLST92
 5471 15ae 1A       		.uleb128 0x1a
 5472 15af 5F020000 		.4byte	.LASF138
 5473 15b3 01       		.byte	0x1
 5474 15b4 2102     		.2byte	0x221
 5475 15b6 C3000000 		.4byte	0xc3
 5476 15ba 02       		.uleb128 0x2
 5477 15bb 91       		.byte	0x91
 5478 15bc 6F       		.sleb128 -17
 5479 15bd 1B       		.uleb128 0x1b
 5480 15be 0E000000 		.4byte	.LVL373
 5481 15c2 A7090000 		.4byte	0x9a7
 5482 15c6 D1150000 		.4byte	0x15d1
 5483 15ca 1C       		.uleb128 0x1c
 5484 15cb 01       		.uleb128 0x1
 5485 15cc 50       		.byte	0x50
 5486 15cd 02       		.uleb128 0x2
 5487 15ce 74       		.byte	0x74
 5488 15cf 00       		.sleb128 0
 5489 15d0 00       		.byte	0
 5490 15d1 1B       		.uleb128 0x1b
 5491 15d2 1C000000 		.4byte	.LVL375
 5492 15d6 BB110000 		.4byte	0x11bb
 5493 15da EB150000 		.4byte	0x15eb
 5494 15de 1C       		.uleb128 0x1c
 5495 15df 01       		.uleb128 0x1
 5496 15e0 50       		.byte	0x50
 5497 15e1 02       		.uleb128 0x2
 5498 15e2 7D       		.byte	0x7d
 5499 15e3 07       		.sleb128 7
 5500 15e4 1C       		.uleb128 0x1c
 5501 15e5 01       		.uleb128 0x1
 5502 15e6 51       		.byte	0x51
 5503 15e7 02       		.uleb128 0x2
 5504 15e8 74       		.byte	0x74
 5505 15e9 00       		.sleb128 0
 5506 15ea 00       		.byte	0
 5507 15eb 1B       		.uleb128 0x1b
 5508 15ec 30000000 		.4byte	.LVL377
 5509 15f0 98130000 		.4byte	0x1398
 5510 15f4 FF150000 		.4byte	0x15ff
 5511 15f8 1C       		.uleb128 0x1c
 5512 15f9 01       		.uleb128 0x1
 5513 15fa 50       		.byte	0x50
 5514 15fb 02       		.uleb128 0x2
 5515 15fc 74       		.byte	0x74
 5516 15fd 00       		.sleb128 0
 5517 15fe 00       		.byte	0
 5518 15ff 1D       		.uleb128 0x1d
 5519 1600 3C000000 		.4byte	.LVL379
 5520 1604 63100000 		.4byte	0x1063
ARM GAS  C:\Users\corne\AppData\Local\Temp\cc0fqrF9.s 			page 124


 5521 1608 1C       		.uleb128 0x1c
 5522 1609 01       		.uleb128 0x1
 5523 160a 50       		.byte	0x50
 5524 160b 02       		.uleb128 0x2
 5525 160c 75       		.byte	0x75
 5526 160d 00       		.sleb128 0
 5527 160e 1C       		.uleb128 0x1c
 5528 160f 01       		.uleb128 0x1
 5529 1610 51       		.byte	0x51
 5530 1611 02       		.uleb128 0x2
 5531 1612 74       		.byte	0x74
 5532 1613 00       		.sleb128 0
 5533 1614 00       		.byte	0
 5534 1615 00       		.byte	0
 5535 1616 20       		.uleb128 0x20
 5536 1617 14010000 		.4byte	.LASF139
 5537 161b 01       		.byte	0x1
 5538 161c 6402     		.2byte	0x264
 5539 161e B8000000 		.4byte	0xb8
 5540 1622 00000000 		.4byte	.LFB9
 5541 1626 62000000 		.4byte	.LFE9-.LFB9
 5542 162a 01       		.uleb128 0x1
 5543 162b 9C       		.byte	0x9c
 5544 162c 3A170000 		.4byte	0x173a
 5545 1630 11       		.uleb128 0x11
 5546 1631 4D030000 		.4byte	.LASF96
 5547 1635 01       		.byte	0x1
 5548 1636 6402     		.2byte	0x264
 5549 1638 C3000000 		.4byte	0xc3
 5550 163c 9C200000 		.4byte	.LLST93
 5551 1640 11       		.uleb128 0x11
 5552 1641 3B000000 		.4byte	.LASF97
 5553 1645 01       		.byte	0x1
 5554 1646 6402     		.2byte	0x264
 5555 1648 2D080000 		.4byte	0x82d
 5556 164c BD200000 		.4byte	.LLST94
 5557 1650 1F       		.uleb128 0x1f
 5558 1651 64657600 		.ascii	"dev\000"
 5559 1655 01       		.byte	0x1
 5560 1656 6402     		.2byte	0x264
 5561 1658 D5080000 		.4byte	0x8d5
 5562 165c E9200000 		.4byte	.LLST95
 5563 1660 13       		.uleb128 0x13
 5564 1661 2D000000 		.4byte	.LASF98
 5565 1665 01       		.byte	0x1
 5566 1666 6602     		.2byte	0x266
 5567 1668 B8000000 		.4byte	0xb8
 5568 166c 15210000 		.4byte	.LLST96
 5569 1670 1A       		.uleb128 0x1a
 5570 1671 91010000 		.4byte	.LASF71
 5571 1675 01       		.byte	0x1
 5572 1676 6902     		.2byte	0x269
 5573 1678 3A170000 		.4byte	0x173a
 5574 167c 02       		.uleb128 0x2
 5575 167d 91       		.byte	0x91
 5576 167e 68       		.sleb128 -24
 5577 167f 1A       		.uleb128 0x1a
ARM GAS  C:\Users\corne\AppData\Local\Temp\cc0fqrF9.s 			page 125


 5578 1680 A1050000 		.4byte	.LASF78
 5579 1684 01       		.byte	0x1
 5580 1685 6A02     		.2byte	0x26a
 5581 1687 05030000 		.4byte	0x305
 5582 168b 02       		.uleb128 0x2
 5583 168c 91       		.byte	0x91
 5584 168d 5C       		.sleb128 -36
 5585 168e 1B       		.uleb128 0x1b
 5586 168f 14000000 		.4byte	.LVL385
 5587 1693 4A170000 		.4byte	0x174a
 5588 1697 AC160000 		.4byte	0x16ac
 5589 169b 1C       		.uleb128 0x1c
 5590 169c 01       		.uleb128 0x1
 5591 169d 50       		.byte	0x50
 5592 169e 02       		.uleb128 0x2
 5593 169f 91       		.byte	0x91
 5594 16a0 68       		.sleb128 -24
 5595 16a1 1C       		.uleb128 0x1c
 5596 16a2 01       		.uleb128 0x1
 5597 16a3 51       		.byte	0x51
 5598 16a4 01       		.uleb128 0x1
 5599 16a5 30       		.byte	0x30
 5600 16a6 1C       		.uleb128 0x1c
 5601 16a7 01       		.uleb128 0x1
 5602 16a8 52       		.byte	0x52
 5603 16a9 01       		.uleb128 0x1
 5604 16aa 38       		.byte	0x38
 5605 16ab 00       		.byte	0
 5606 16ac 1B       		.uleb128 0x1b
 5607 16ad 1E000000 		.4byte	.LVL386
 5608 16b1 4A170000 		.4byte	0x174a
 5609 16b5 CA160000 		.4byte	0x16ca
 5610 16b9 1C       		.uleb128 0x1c
 5611 16ba 01       		.uleb128 0x1
 5612 16bb 50       		.byte	0x50
 5613 16bc 02       		.uleb128 0x2
 5614 16bd 91       		.byte	0x91
 5615 16be 5C       		.sleb128 -36
 5616 16bf 1C       		.uleb128 0x1c
 5617 16c0 01       		.uleb128 0x1
 5618 16c1 51       		.byte	0x51
 5619 16c2 01       		.uleb128 0x1
 5620 16c3 30       		.byte	0x30
 5621 16c4 1C       		.uleb128 0x1c
 5622 16c5 01       		.uleb128 0x1
 5623 16c6 52       		.byte	0x52
 5624 16c7 01       		.uleb128 0x1
 5625 16c8 3C       		.byte	0x3c
 5626 16c9 00       		.byte	0
 5627 16ca 1B       		.uleb128 0x1b
 5628 16cb 24000000 		.4byte	.LVL387
 5629 16cf A7090000 		.4byte	0x9a7
 5630 16d3 DE160000 		.4byte	0x16de
 5631 16d7 1C       		.uleb128 0x1c
 5632 16d8 01       		.uleb128 0x1
 5633 16d9 50       		.byte	0x50
 5634 16da 02       		.uleb128 0x2
ARM GAS  C:\Users\corne\AppData\Local\Temp\cc0fqrF9.s 			page 126


 5635 16db 74       		.byte	0x74
 5636 16dc 00       		.sleb128 0
 5637 16dd 00       		.byte	0
 5638 16de 1B       		.uleb128 0x1b
 5639 16df 38000000 		.4byte	.LVL389
 5640 16e3 EB090000 		.4byte	0x9eb
 5641 16e7 FD160000 		.4byte	0x16fd
 5642 16eb 1C       		.uleb128 0x1c
 5643 16ec 01       		.uleb128 0x1
 5644 16ed 51       		.byte	0x51
 5645 16ee 02       		.uleb128 0x2
 5646 16ef 91       		.byte	0x91
 5647 16f0 68       		.sleb128 -24
 5648 16f1 1C       		.uleb128 0x1c
 5649 16f2 01       		.uleb128 0x1
 5650 16f3 52       		.byte	0x52
 5651 16f4 01       		.uleb128 0x1
 5652 16f5 38       		.byte	0x38
 5653 16f6 1C       		.uleb128 0x1c
 5654 16f7 01       		.uleb128 0x1
 5655 16f8 53       		.byte	0x53
 5656 16f9 02       		.uleb128 0x2
 5657 16fa 74       		.byte	0x74
 5658 16fb 00       		.sleb128 0
 5659 16fc 00       		.byte	0
 5660 16fd 1B       		.uleb128 0x1b
 5661 16fe 44000000 		.4byte	.LVL391
 5662 1702 16050000 		.4byte	0x516
 5663 1706 17170000 		.4byte	0x1717
 5664 170a 1C       		.uleb128 0x1c
 5665 170b 01       		.uleb128 0x1
 5666 170c 50       		.byte	0x50
 5667 170d 02       		.uleb128 0x2
 5668 170e 91       		.byte	0x91
 5669 170f 68       		.sleb128 -24
 5670 1710 1C       		.uleb128 0x1c
 5671 1711 01       		.uleb128 0x1
 5672 1712 51       		.byte	0x51
 5673 1713 02       		.uleb128 0x2
 5674 1714 91       		.byte	0x91
 5675 1715 5C       		.sleb128 -36
 5676 1716 00       		.byte	0
 5677 1717 1D       		.uleb128 0x1d
 5678 1718 52000000 		.4byte	.LVL392
 5679 171c 78070000 		.4byte	0x778
 5680 1720 1C       		.uleb128 0x1c
 5681 1721 01       		.uleb128 0x1
 5682 1722 50       		.byte	0x50
 5683 1723 02       		.uleb128 0x2
 5684 1724 76       		.byte	0x76
 5685 1725 00       		.sleb128 0
 5686 1726 1C       		.uleb128 0x1c
 5687 1727 01       		.uleb128 0x1
 5688 1728 51       		.byte	0x51
 5689 1729 02       		.uleb128 0x2
 5690 172a 91       		.byte	0x91
 5691 172b 5C       		.sleb128 -36
ARM GAS  C:\Users\corne\AppData\Local\Temp\cc0fqrF9.s 			page 127


 5692 172c 1C       		.uleb128 0x1c
 5693 172d 01       		.uleb128 0x1
 5694 172e 52       		.byte	0x52
 5695 172f 02       		.uleb128 0x2
 5696 1730 75       		.byte	0x75
 5697 1731 00       		.sleb128 0
 5698 1732 1C       		.uleb128 0x1c
 5699 1733 01       		.uleb128 0x1
 5700 1734 53       		.byte	0x53
 5701 1735 02       		.uleb128 0x2
 5702 1736 74       		.byte	0x74
 5703 1737 10       		.sleb128 16
 5704 1738 00       		.byte	0
 5705 1739 00       		.byte	0
 5706 173a 22       		.uleb128 0x22
 5707 173b C3000000 		.4byte	0xc3
 5708 173f 4A170000 		.4byte	0x174a
 5709 1743 23       		.uleb128 0x23
 5710 1744 0C010000 		.4byte	0x10c
 5711 1748 07       		.byte	0x7
 5712 1749 00       		.byte	0
 5713 174a 27       		.uleb128 0x27
 5714 174b 7F000000 		.4byte	.LASF144
 5715 174f 7F000000 		.4byte	.LASF144
 5716 1753 00       		.byte	0
 5717              		.section	.debug_abbrev,"",%progbits
 5718              	.Ldebug_abbrev0:
 5719 0000 01       		.uleb128 0x1
 5720 0001 11       		.uleb128 0x11
 5721 0002 01       		.byte	0x1
 5722 0003 25       		.uleb128 0x25
 5723 0004 0E       		.uleb128 0xe
 5724 0005 13       		.uleb128 0x13
 5725 0006 0B       		.uleb128 0xb
 5726 0007 03       		.uleb128 0x3
 5727 0008 0E       		.uleb128 0xe
 5728 0009 1B       		.uleb128 0x1b
 5729 000a 0E       		.uleb128 0xe
 5730 000b 55       		.uleb128 0x55
 5731 000c 17       		.uleb128 0x17
 5732 000d 11       		.uleb128 0x11
 5733 000e 01       		.uleb128 0x1
 5734 000f 10       		.uleb128 0x10
 5735 0010 17       		.uleb128 0x17
 5736 0011 00       		.byte	0
 5737 0012 00       		.byte	0
 5738 0013 02       		.uleb128 0x2
 5739 0014 16       		.uleb128 0x16
 5740 0015 00       		.byte	0
 5741 0016 03       		.uleb128 0x3
 5742 0017 0E       		.uleb128 0xe
 5743 0018 3A       		.uleb128 0x3a
 5744 0019 0B       		.uleb128 0xb
 5745 001a 3B       		.uleb128 0x3b
 5746 001b 0B       		.uleb128 0xb
 5747 001c 49       		.uleb128 0x49
 5748 001d 13       		.uleb128 0x13
ARM GAS  C:\Users\corne\AppData\Local\Temp\cc0fqrF9.s 			page 128


 5749 001e 00       		.byte	0
 5750 001f 00       		.byte	0
 5751 0020 03       		.uleb128 0x3
 5752 0021 24       		.uleb128 0x24
 5753 0022 00       		.byte	0
 5754 0023 0B       		.uleb128 0xb
 5755 0024 0B       		.uleb128 0xb
 5756 0025 3E       		.uleb128 0x3e
 5757 0026 0B       		.uleb128 0xb
 5758 0027 03       		.uleb128 0x3
 5759 0028 0E       		.uleb128 0xe
 5760 0029 00       		.byte	0
 5761 002a 00       		.byte	0
 5762 002b 04       		.uleb128 0x4
 5763 002c 24       		.uleb128 0x24
 5764 002d 00       		.byte	0
 5765 002e 0B       		.uleb128 0xb
 5766 002f 0B       		.uleb128 0xb
 5767 0030 3E       		.uleb128 0x3e
 5768 0031 0B       		.uleb128 0xb
 5769 0032 03       		.uleb128 0x3
 5770 0033 08       		.uleb128 0x8
 5771 0034 00       		.byte	0
 5772 0035 00       		.byte	0
 5773 0036 05       		.uleb128 0x5
 5774 0037 04       		.uleb128 0x4
 5775 0038 01       		.byte	0x1
 5776 0039 03       		.uleb128 0x3
 5777 003a 0E       		.uleb128 0xe
 5778 003b 0B       		.uleb128 0xb
 5779 003c 0B       		.uleb128 0xb
 5780 003d 49       		.uleb128 0x49
 5781 003e 13       		.uleb128 0x13
 5782 003f 3A       		.uleb128 0x3a
 5783 0040 0B       		.uleb128 0xb
 5784 0041 3B       		.uleb128 0x3b
 5785 0042 0B       		.uleb128 0xb
 5786 0043 01       		.uleb128 0x1
 5787 0044 13       		.uleb128 0x13
 5788 0045 00       		.byte	0
 5789 0046 00       		.byte	0
 5790 0047 06       		.uleb128 0x6
 5791 0048 28       		.uleb128 0x28
 5792 0049 00       		.byte	0
 5793 004a 03       		.uleb128 0x3
 5794 004b 0E       		.uleb128 0xe
 5795 004c 1C       		.uleb128 0x1c
 5796 004d 0B       		.uleb128 0xb
 5797 004e 00       		.byte	0
 5798 004f 00       		.byte	0
 5799 0050 07       		.uleb128 0x7
 5800 0051 16       		.uleb128 0x16
 5801 0052 00       		.byte	0
 5802 0053 03       		.uleb128 0x3
 5803 0054 0E       		.uleb128 0xe
 5804 0055 3A       		.uleb128 0x3a
 5805 0056 0B       		.uleb128 0xb
ARM GAS  C:\Users\corne\AppData\Local\Temp\cc0fqrF9.s 			page 129


 5806 0057 3B       		.uleb128 0x3b
 5807 0058 05       		.uleb128 0x5
 5808 0059 49       		.uleb128 0x49
 5809 005a 13       		.uleb128 0x13
 5810 005b 00       		.byte	0
 5811 005c 00       		.byte	0
 5812 005d 08       		.uleb128 0x8
 5813 005e 0F       		.uleb128 0xf
 5814 005f 00       		.byte	0
 5815 0060 0B       		.uleb128 0xb
 5816 0061 0B       		.uleb128 0xb
 5817 0062 49       		.uleb128 0x49
 5818 0063 13       		.uleb128 0x13
 5819 0064 00       		.byte	0
 5820 0065 00       		.byte	0
 5821 0066 09       		.uleb128 0x9
 5822 0067 15       		.uleb128 0x15
 5823 0068 01       		.byte	0x1
 5824 0069 27       		.uleb128 0x27
 5825 006a 19       		.uleb128 0x19
 5826 006b 49       		.uleb128 0x49
 5827 006c 13       		.uleb128 0x13
 5828 006d 01       		.uleb128 0x1
 5829 006e 13       		.uleb128 0x13
 5830 006f 00       		.byte	0
 5831 0070 00       		.byte	0
 5832 0071 0A       		.uleb128 0xa
 5833 0072 05       		.uleb128 0x5
 5834 0073 00       		.byte	0
 5835 0074 49       		.uleb128 0x49
 5836 0075 13       		.uleb128 0x13
 5837 0076 00       		.byte	0
 5838 0077 00       		.byte	0
 5839 0078 0B       		.uleb128 0xb
 5840 0079 15       		.uleb128 0x15
 5841 007a 01       		.byte	0x1
 5842 007b 27       		.uleb128 0x27
 5843 007c 19       		.uleb128 0x19
 5844 007d 01       		.uleb128 0x1
 5845 007e 13       		.uleb128 0x13
 5846 007f 00       		.byte	0
 5847 0080 00       		.byte	0
 5848 0081 0C       		.uleb128 0xc
 5849 0082 13       		.uleb128 0x13
 5850 0083 01       		.byte	0x1
 5851 0084 0B       		.uleb128 0xb
 5852 0085 0B       		.uleb128 0xb
 5853 0086 3A       		.uleb128 0x3a
 5854 0087 0B       		.uleb128 0xb
 5855 0088 3B       		.uleb128 0x3b
 5856 0089 05       		.uleb128 0x5
 5857 008a 01       		.uleb128 0x1
 5858 008b 13       		.uleb128 0x13
 5859 008c 00       		.byte	0
 5860 008d 00       		.byte	0
 5861 008e 0D       		.uleb128 0xd
 5862 008f 0D       		.uleb128 0xd
ARM GAS  C:\Users\corne\AppData\Local\Temp\cc0fqrF9.s 			page 130


 5863 0090 00       		.byte	0
 5864 0091 03       		.uleb128 0x3
 5865 0092 0E       		.uleb128 0xe
 5866 0093 3A       		.uleb128 0x3a
 5867 0094 0B       		.uleb128 0xb
 5868 0095 3B       		.uleb128 0x3b
 5869 0096 05       		.uleb128 0x5
 5870 0097 49       		.uleb128 0x49
 5871 0098 13       		.uleb128 0x13
 5872 0099 38       		.uleb128 0x38
 5873 009a 0B       		.uleb128 0xb
 5874 009b 00       		.byte	0
 5875 009c 00       		.byte	0
 5876 009d 0E       		.uleb128 0xe
 5877 009e 0D       		.uleb128 0xd
 5878 009f 00       		.byte	0
 5879 00a0 03       		.uleb128 0x3
 5880 00a1 08       		.uleb128 0x8
 5881 00a2 3A       		.uleb128 0x3a
 5882 00a3 0B       		.uleb128 0xb
 5883 00a4 3B       		.uleb128 0x3b
 5884 00a5 05       		.uleb128 0x5
 5885 00a6 49       		.uleb128 0x49
 5886 00a7 13       		.uleb128 0x13
 5887 00a8 38       		.uleb128 0x38
 5888 00a9 0B       		.uleb128 0xb
 5889 00aa 00       		.byte	0
 5890 00ab 00       		.byte	0
 5891 00ac 0F       		.uleb128 0xf
 5892 00ad 2E       		.uleb128 0x2e
 5893 00ae 01       		.byte	0x1
 5894 00af 03       		.uleb128 0x3
 5895 00b0 0E       		.uleb128 0xe
 5896 00b1 3A       		.uleb128 0x3a
 5897 00b2 0B       		.uleb128 0xb
 5898 00b3 3B       		.uleb128 0x3b
 5899 00b4 05       		.uleb128 0x5
 5900 00b5 27       		.uleb128 0x27
 5901 00b6 19       		.uleb128 0x19
 5902 00b7 11       		.uleb128 0x11
 5903 00b8 01       		.uleb128 0x1
 5904 00b9 12       		.uleb128 0x12
 5905 00ba 06       		.uleb128 0x6
 5906 00bb 40       		.uleb128 0x40
 5907 00bc 18       		.uleb128 0x18
 5908 00bd 9742     		.uleb128 0x2117
 5909 00bf 19       		.uleb128 0x19
 5910 00c0 01       		.uleb128 0x1
 5911 00c1 13       		.uleb128 0x13
 5912 00c2 00       		.byte	0
 5913 00c3 00       		.byte	0
 5914 00c4 10       		.uleb128 0x10
 5915 00c5 05       		.uleb128 0x5
 5916 00c6 00       		.byte	0
 5917 00c7 03       		.uleb128 0x3
 5918 00c8 0E       		.uleb128 0xe
 5919 00c9 3A       		.uleb128 0x3a
ARM GAS  C:\Users\corne\AppData\Local\Temp\cc0fqrF9.s 			page 131


 5920 00ca 0B       		.uleb128 0xb
 5921 00cb 3B       		.uleb128 0x3b
 5922 00cc 05       		.uleb128 0x5
 5923 00cd 49       		.uleb128 0x49
 5924 00ce 13       		.uleb128 0x13
 5925 00cf 02       		.uleb128 0x2
 5926 00d0 18       		.uleb128 0x18
 5927 00d1 00       		.byte	0
 5928 00d2 00       		.byte	0
 5929 00d3 11       		.uleb128 0x11
 5930 00d4 05       		.uleb128 0x5
 5931 00d5 00       		.byte	0
 5932 00d6 03       		.uleb128 0x3
 5933 00d7 0E       		.uleb128 0xe
 5934 00d8 3A       		.uleb128 0x3a
 5935 00d9 0B       		.uleb128 0xb
 5936 00da 3B       		.uleb128 0x3b
 5937 00db 05       		.uleb128 0x5
 5938 00dc 49       		.uleb128 0x49
 5939 00dd 13       		.uleb128 0x13
 5940 00de 02       		.uleb128 0x2
 5941 00df 17       		.uleb128 0x17
 5942 00e0 00       		.byte	0
 5943 00e1 00       		.byte	0
 5944 00e2 12       		.uleb128 0x12
 5945 00e3 26       		.uleb128 0x26
 5946 00e4 00       		.byte	0
 5947 00e5 49       		.uleb128 0x49
 5948 00e6 13       		.uleb128 0x13
 5949 00e7 00       		.byte	0
 5950 00e8 00       		.byte	0
 5951 00e9 13       		.uleb128 0x13
 5952 00ea 34       		.uleb128 0x34
 5953 00eb 00       		.byte	0
 5954 00ec 03       		.uleb128 0x3
 5955 00ed 0E       		.uleb128 0xe
 5956 00ee 3A       		.uleb128 0x3a
 5957 00ef 0B       		.uleb128 0xb
 5958 00f0 3B       		.uleb128 0x3b
 5959 00f1 05       		.uleb128 0x5
 5960 00f2 49       		.uleb128 0x49
 5961 00f3 13       		.uleb128 0x13
 5962 00f4 02       		.uleb128 0x2
 5963 00f5 17       		.uleb128 0x17
 5964 00f6 00       		.byte	0
 5965 00f7 00       		.byte	0
 5966 00f8 14       		.uleb128 0x14
 5967 00f9 2E       		.uleb128 0x2e
 5968 00fa 01       		.byte	0x1
 5969 00fb 03       		.uleb128 0x3
 5970 00fc 0E       		.uleb128 0xe
 5971 00fd 3A       		.uleb128 0x3a
 5972 00fe 0B       		.uleb128 0xb
 5973 00ff 3B       		.uleb128 0x3b
 5974 0100 05       		.uleb128 0x5
 5975 0101 27       		.uleb128 0x27
 5976 0102 19       		.uleb128 0x19
ARM GAS  C:\Users\corne\AppData\Local\Temp\cc0fqrF9.s 			page 132


 5977 0103 49       		.uleb128 0x49
 5978 0104 13       		.uleb128 0x13
 5979 0105 11       		.uleb128 0x11
 5980 0106 01       		.uleb128 0x1
 5981 0107 12       		.uleb128 0x12
 5982 0108 06       		.uleb128 0x6
 5983 0109 40       		.uleb128 0x40
 5984 010a 18       		.uleb128 0x18
 5985 010b 9742     		.uleb128 0x2117
 5986 010d 19       		.uleb128 0x19
 5987 010e 01       		.uleb128 0x1
 5988 010f 13       		.uleb128 0x13
 5989 0110 00       		.byte	0
 5990 0111 00       		.byte	0
 5991 0112 15       		.uleb128 0x15
 5992 0113 34       		.uleb128 0x34
 5993 0114 00       		.byte	0
 5994 0115 03       		.uleb128 0x3
 5995 0116 0E       		.uleb128 0xe
 5996 0117 3A       		.uleb128 0x3a
 5997 0118 0B       		.uleb128 0xb
 5998 0119 3B       		.uleb128 0x3b
 5999 011a 05       		.uleb128 0x5
 6000 011b 49       		.uleb128 0x49
 6001 011c 13       		.uleb128 0x13
 6002 011d 1C       		.uleb128 0x1c
 6003 011e 0D       		.uleb128 0xd
 6004 011f 00       		.byte	0
 6005 0120 00       		.byte	0
 6006 0121 16       		.uleb128 0x16
 6007 0122 34       		.uleb128 0x34
 6008 0123 00       		.byte	0
 6009 0124 03       		.uleb128 0x3
 6010 0125 0E       		.uleb128 0xe
 6011 0126 3A       		.uleb128 0x3a
 6012 0127 0B       		.uleb128 0xb
 6013 0128 3B       		.uleb128 0x3b
 6014 0129 05       		.uleb128 0x5
 6015 012a 49       		.uleb128 0x49
 6016 012b 13       		.uleb128 0x13
 6017 012c 1C       		.uleb128 0x1c
 6018 012d 05       		.uleb128 0x5
 6019 012e 00       		.byte	0
 6020 012f 00       		.byte	0
 6021 0130 17       		.uleb128 0x17
 6022 0131 2E       		.uleb128 0x2e
 6023 0132 01       		.byte	0x1
 6024 0133 03       		.uleb128 0x3
 6025 0134 0E       		.uleb128 0xe
 6026 0135 3A       		.uleb128 0x3a
 6027 0136 0B       		.uleb128 0xb
 6028 0137 3B       		.uleb128 0x3b
 6029 0138 05       		.uleb128 0x5
 6030 0139 27       		.uleb128 0x27
 6031 013a 19       		.uleb128 0x19
 6032 013b 49       		.uleb128 0x49
 6033 013c 13       		.uleb128 0x13
ARM GAS  C:\Users\corne\AppData\Local\Temp\cc0fqrF9.s 			page 133


 6034 013d 11       		.uleb128 0x11
 6035 013e 01       		.uleb128 0x1
 6036 013f 12       		.uleb128 0x12
 6037 0140 06       		.uleb128 0x6
 6038 0141 40       		.uleb128 0x40
 6039 0142 18       		.uleb128 0x18
 6040 0143 9642     		.uleb128 0x2116
 6041 0145 19       		.uleb128 0x19
 6042 0146 01       		.uleb128 0x1
 6043 0147 13       		.uleb128 0x13
 6044 0148 00       		.byte	0
 6045 0149 00       		.byte	0
 6046 014a 18       		.uleb128 0x18
 6047 014b 34       		.uleb128 0x34
 6048 014c 00       		.byte	0
 6049 014d 03       		.uleb128 0x3
 6050 014e 0E       		.uleb128 0xe
 6051 014f 3A       		.uleb128 0x3a
 6052 0150 0B       		.uleb128 0xb
 6053 0151 3B       		.uleb128 0x3b
 6054 0152 05       		.uleb128 0x5
 6055 0153 49       		.uleb128 0x49
 6056 0154 13       		.uleb128 0x13
 6057 0155 1C       		.uleb128 0x1c
 6058 0156 07       		.uleb128 0x7
 6059 0157 00       		.byte	0
 6060 0158 00       		.byte	0
 6061 0159 19       		.uleb128 0x19
 6062 015a 34       		.uleb128 0x34
 6063 015b 00       		.byte	0
 6064 015c 03       		.uleb128 0x3
 6065 015d 0E       		.uleb128 0xe
 6066 015e 3A       		.uleb128 0x3a
 6067 015f 0B       		.uleb128 0xb
 6068 0160 3B       		.uleb128 0x3b
 6069 0161 05       		.uleb128 0x5
 6070 0162 49       		.uleb128 0x49
 6071 0163 13       		.uleb128 0x13
 6072 0164 1C       		.uleb128 0x1c
 6073 0165 06       		.uleb128 0x6
 6074 0166 00       		.byte	0
 6075 0167 00       		.byte	0
 6076 0168 1A       		.uleb128 0x1a
 6077 0169 34       		.uleb128 0x34
 6078 016a 00       		.byte	0
 6079 016b 03       		.uleb128 0x3
 6080 016c 0E       		.uleb128 0xe
 6081 016d 3A       		.uleb128 0x3a
 6082 016e 0B       		.uleb128 0xb
 6083 016f 3B       		.uleb128 0x3b
 6084 0170 05       		.uleb128 0x5
 6085 0171 49       		.uleb128 0x49
 6086 0172 13       		.uleb128 0x13
 6087 0173 02       		.uleb128 0x2
 6088 0174 18       		.uleb128 0x18
 6089 0175 00       		.byte	0
 6090 0176 00       		.byte	0
ARM GAS  C:\Users\corne\AppData\Local\Temp\cc0fqrF9.s 			page 134


 6091 0177 1B       		.uleb128 0x1b
 6092 0178 898201   		.uleb128 0x4109
 6093 017b 01       		.byte	0x1
 6094 017c 11       		.uleb128 0x11
 6095 017d 01       		.uleb128 0x1
 6096 017e 31       		.uleb128 0x31
 6097 017f 13       		.uleb128 0x13
 6098 0180 01       		.uleb128 0x1
 6099 0181 13       		.uleb128 0x13
 6100 0182 00       		.byte	0
 6101 0183 00       		.byte	0
 6102 0184 1C       		.uleb128 0x1c
 6103 0185 8A8201   		.uleb128 0x410a
 6104 0188 00       		.byte	0
 6105 0189 02       		.uleb128 0x2
 6106 018a 18       		.uleb128 0x18
 6107 018b 9142     		.uleb128 0x2111
 6108 018d 18       		.uleb128 0x18
 6109 018e 00       		.byte	0
 6110 018f 00       		.byte	0
 6111 0190 1D       		.uleb128 0x1d
 6112 0191 898201   		.uleb128 0x4109
 6113 0194 01       		.byte	0x1
 6114 0195 11       		.uleb128 0x11
 6115 0196 01       		.uleb128 0x1
 6116 0197 31       		.uleb128 0x31
 6117 0198 13       		.uleb128 0x13
 6118 0199 00       		.byte	0
 6119 019a 00       		.byte	0
 6120 019b 1E       		.uleb128 0x1e
 6121 019c 05       		.uleb128 0x5
 6122 019d 00       		.byte	0
 6123 019e 03       		.uleb128 0x3
 6124 019f 08       		.uleb128 0x8
 6125 01a0 3A       		.uleb128 0x3a
 6126 01a1 0B       		.uleb128 0xb
 6127 01a2 3B       		.uleb128 0x3b
 6128 01a3 05       		.uleb128 0x5
 6129 01a4 49       		.uleb128 0x49
 6130 01a5 13       		.uleb128 0x13
 6131 01a6 02       		.uleb128 0x2
 6132 01a7 18       		.uleb128 0x18
 6133 01a8 00       		.byte	0
 6134 01a9 00       		.byte	0
 6135 01aa 1F       		.uleb128 0x1f
 6136 01ab 05       		.uleb128 0x5
 6137 01ac 00       		.byte	0
 6138 01ad 03       		.uleb128 0x3
 6139 01ae 08       		.uleb128 0x8
 6140 01af 3A       		.uleb128 0x3a
 6141 01b0 0B       		.uleb128 0xb
 6142 01b1 3B       		.uleb128 0x3b
 6143 01b2 05       		.uleb128 0x5
 6144 01b3 49       		.uleb128 0x49
 6145 01b4 13       		.uleb128 0x13
 6146 01b5 02       		.uleb128 0x2
 6147 01b6 17       		.uleb128 0x17
ARM GAS  C:\Users\corne\AppData\Local\Temp\cc0fqrF9.s 			page 135


 6148 01b7 00       		.byte	0
 6149 01b8 00       		.byte	0
 6150 01b9 20       		.uleb128 0x20
 6151 01ba 2E       		.uleb128 0x2e
 6152 01bb 01       		.byte	0x1
 6153 01bc 3F       		.uleb128 0x3f
 6154 01bd 19       		.uleb128 0x19
 6155 01be 03       		.uleb128 0x3
 6156 01bf 0E       		.uleb128 0xe
 6157 01c0 3A       		.uleb128 0x3a
 6158 01c1 0B       		.uleb128 0xb
 6159 01c2 3B       		.uleb128 0x3b
 6160 01c3 05       		.uleb128 0x5
 6161 01c4 27       		.uleb128 0x27
 6162 01c5 19       		.uleb128 0x19
 6163 01c6 49       		.uleb128 0x49
 6164 01c7 13       		.uleb128 0x13
 6165 01c8 11       		.uleb128 0x11
 6166 01c9 01       		.uleb128 0x1
 6167 01ca 12       		.uleb128 0x12
 6168 01cb 06       		.uleb128 0x6
 6169 01cc 40       		.uleb128 0x40
 6170 01cd 18       		.uleb128 0x18
 6171 01ce 9742     		.uleb128 0x2117
 6172 01d0 19       		.uleb128 0x19
 6173 01d1 01       		.uleb128 0x1
 6174 01d2 13       		.uleb128 0x13
 6175 01d3 00       		.byte	0
 6176 01d4 00       		.byte	0
 6177 01d5 21       		.uleb128 0x21
 6178 01d6 898201   		.uleb128 0x4109
 6179 01d9 01       		.byte	0x1
 6180 01da 11       		.uleb128 0x11
 6181 01db 01       		.uleb128 0x1
 6182 01dc 9342     		.uleb128 0x2113
 6183 01de 18       		.uleb128 0x18
 6184 01df 00       		.byte	0
 6185 01e0 00       		.byte	0
 6186 01e1 22       		.uleb128 0x22
 6187 01e2 01       		.uleb128 0x1
 6188 01e3 01       		.byte	0x1
 6189 01e4 49       		.uleb128 0x49
 6190 01e5 13       		.uleb128 0x13
 6191 01e6 01       		.uleb128 0x1
 6192 01e7 13       		.uleb128 0x13
 6193 01e8 00       		.byte	0
 6194 01e9 00       		.byte	0
 6195 01ea 23       		.uleb128 0x23
 6196 01eb 21       		.uleb128 0x21
 6197 01ec 00       		.byte	0
 6198 01ed 49       		.uleb128 0x49
 6199 01ee 13       		.uleb128 0x13
 6200 01ef 2F       		.uleb128 0x2f
 6201 01f0 0B       		.uleb128 0xb
 6202 01f1 00       		.byte	0
 6203 01f2 00       		.byte	0
 6204 01f3 24       		.uleb128 0x24
ARM GAS  C:\Users\corne\AppData\Local\Temp\cc0fqrF9.s 			page 136


 6205 01f4 34       		.uleb128 0x34
 6206 01f5 00       		.byte	0
 6207 01f6 34       		.uleb128 0x34
 6208 01f7 19       		.uleb128 0x19
 6209 01f8 49       		.uleb128 0x49
 6210 01f9 13       		.uleb128 0x13
 6211 01fa 02       		.uleb128 0x2
 6212 01fb 17       		.uleb128 0x17
 6213 01fc 00       		.byte	0
 6214 01fd 00       		.byte	0
 6215 01fe 25       		.uleb128 0x25
 6216 01ff 21       		.uleb128 0x21
 6217 0200 00       		.byte	0
 6218 0201 49       		.uleb128 0x49
 6219 0202 13       		.uleb128 0x13
 6220 0203 2F       		.uleb128 0x2f
 6221 0204 13       		.uleb128 0x13
 6222 0205 00       		.byte	0
 6223 0206 00       		.byte	0
 6224 0207 26       		.uleb128 0x26
 6225 0208 898201   		.uleb128 0x4109
 6226 020b 01       		.byte	0x1
 6227 020c 11       		.uleb128 0x11
 6228 020d 01       		.uleb128 0x1
 6229 020e 00       		.byte	0
 6230 020f 00       		.byte	0
 6231 0210 27       		.uleb128 0x27
 6232 0211 2E       		.uleb128 0x2e
 6233 0212 00       		.byte	0
 6234 0213 3F       		.uleb128 0x3f
 6235 0214 19       		.uleb128 0x19
 6236 0215 3C       		.uleb128 0x3c
 6237 0216 19       		.uleb128 0x19
 6238 0217 6E       		.uleb128 0x6e
 6239 0218 0E       		.uleb128 0xe
 6240 0219 03       		.uleb128 0x3
 6241 021a 0E       		.uleb128 0xe
 6242 021b 00       		.byte	0
 6243 021c 00       		.byte	0
 6244 021d 00       		.byte	0
 6245              		.section	.debug_loc,"",%progbits
 6246              	.Ldebug_loc0:
 6247              	.LLST0:
 6248 0000 00000000 		.4byte	.LVL0
 6249 0004 0C000000 		.4byte	.LVL1
 6250 0008 0100     		.2byte	0x1
 6251 000a 51       		.byte	0x51
 6252 000b 0C000000 		.4byte	.LVL1
 6253 000f 16000000 		.4byte	.LFE14
 6254 0013 0400     		.2byte	0x4
 6255 0015 F3       		.byte	0xf3
 6256 0016 01       		.uleb128 0x1
 6257 0017 51       		.byte	0x51
 6258 0018 9F       		.byte	0x9f
 6259 0019 00000000 		.4byte	0
 6260 001d 00000000 		.4byte	0
 6261              	.LLST1:
ARM GAS  C:\Users\corne\AppData\Local\Temp\cc0fqrF9.s 			page 137


 6262 0021 00000000 		.4byte	.LVL2
 6263 0025 08000000 		.4byte	.LVL3
 6264 0029 0100     		.2byte	0x1
 6265 002b 51       		.byte	0x51
 6266 002c 08000000 		.4byte	.LVL3
 6267 0030 10000000 		.4byte	.LFE15
 6268 0034 0400     		.2byte	0x4
 6269 0036 F3       		.byte	0xf3
 6270 0037 01       		.uleb128 0x1
 6271 0038 51       		.byte	0x51
 6272 0039 9F       		.byte	0x9f
 6273 003a 00000000 		.4byte	0
 6274 003e 00000000 		.4byte	0
 6275              	.LLST2:
 6276 0042 00000000 		.4byte	.LVL4
 6277 0046 0C000000 		.4byte	.LVL5
 6278 004a 0100     		.2byte	0x1
 6279 004c 51       		.byte	0x51
 6280 004d 0C000000 		.4byte	.LVL5
 6281 0051 16000000 		.4byte	.LFE16
 6282 0055 0400     		.2byte	0x4
 6283 0057 F3       		.byte	0xf3
 6284 0058 01       		.uleb128 0x1
 6285 0059 51       		.byte	0x51
 6286 005a 9F       		.byte	0x9f
 6287 005b 00000000 		.4byte	0
 6288 005f 00000000 		.4byte	0
 6289              	.LLST3:
 6290 0063 00000000 		.4byte	.LVL6
 6291 0067 08000000 		.4byte	.LVL7
 6292 006b 0100     		.2byte	0x1
 6293 006d 51       		.byte	0x51
 6294 006e 08000000 		.4byte	.LVL7
 6295 0072 10000000 		.4byte	.LFE17
 6296 0076 0400     		.2byte	0x4
 6297 0078 F3       		.byte	0xf3
 6298 0079 01       		.uleb128 0x1
 6299 007a 51       		.byte	0x51
 6300 007b 9F       		.byte	0x9f
 6301 007c 00000000 		.4byte	0
 6302 0080 00000000 		.4byte	0
 6303              	.LLST4:
 6304 0084 06000000 		.4byte	.LVL10
 6305 0088 30000000 		.4byte	.LVL25
 6306 008c 0100     		.2byte	0x1
 6307 008e 54       		.byte	0x54
 6308 008f 00000000 		.4byte	0
 6309 0093 00000000 		.4byte	0
 6310              	.LLST5:
 6311 0097 0A000000 		.4byte	.LVL11
 6312 009b 10000000 		.4byte	.LVL13
 6313 009f 0100     		.2byte	0x1
 6314 00a1 53       		.byte	0x53
 6315 00a2 10000000 		.4byte	.LVL13
 6316 00a6 14000000 		.4byte	.LVL14
 6317 00aa 0A00     		.2byte	0xa
 6318 00ac 70       		.byte	0x70
ARM GAS  C:\Users\corne\AppData\Local\Temp\cc0fqrF9.s 			page 138


 6319 00ad 01       		.sleb128 1
 6320 00ae 94       		.byte	0x94
 6321 00af 01       		.byte	0x1
 6322 00b0 08       		.byte	0x8
 6323 00b1 FF       		.byte	0xff
 6324 00b2 1A       		.byte	0x1a
 6325 00b3 34       		.byte	0x34
 6326 00b4 24       		.byte	0x24
 6327 00b5 9F       		.byte	0x9f
 6328 00b6 1C000000 		.4byte	.LVL16
 6329 00ba 22000000 		.4byte	.LVL19
 6330 00be 0100     		.2byte	0x1
 6331 00c0 53       		.byte	0x53
 6332 00c1 22000000 		.4byte	.LVL19
 6333 00c5 26000000 		.4byte	.LVL20
 6334 00c9 0A00     		.2byte	0xa
 6335 00cb 70       		.byte	0x70
 6336 00cc 04       		.sleb128 4
 6337 00cd 94       		.byte	0x94
 6338 00ce 01       		.byte	0x1
 6339 00cf 08       		.byte	0x8
 6340 00d0 FF       		.byte	0xff
 6341 00d1 1A       		.byte	0x1a
 6342 00d2 34       		.byte	0x34
 6343 00d3 24       		.byte	0x24
 6344 00d4 9F       		.byte	0x9f
 6345 00d5 2A000000 		.4byte	.LVL21
 6346 00d9 2E000000 		.4byte	.LVL23
 6347 00dd 0100     		.2byte	0x1
 6348 00df 53       		.byte	0x53
 6349 00e0 2E000000 		.4byte	.LVL23
 6350 00e4 30000000 		.4byte	.LVL24
 6351 00e8 0A00     		.2byte	0xa
 6352 00ea 70       		.byte	0x70
 6353 00eb 06       		.sleb128 6
 6354 00ec 94       		.byte	0x94
 6355 00ed 01       		.byte	0x1
 6356 00ee 08       		.byte	0x8
 6357 00ef FF       		.byte	0xff
 6358 00f0 1A       		.byte	0x1a
 6359 00f1 38       		.byte	0x38
 6360 00f2 24       		.byte	0x24
 6361 00f3 9F       		.byte	0x9f
 6362 00f4 00000000 		.4byte	0
 6363 00f8 00000000 		.4byte	0
 6364              	.LLST6:
 6365 00fc 0E000000 		.4byte	.LVL12
 6366 0100 1E000000 		.4byte	.LVL17
 6367 0104 0100     		.2byte	0x1
 6368 0106 52       		.byte	0x52
 6369 0107 20000000 		.4byte	.LVL18
 6370 010b 32000000 		.4byte	.LFE22
 6371 010f 0100     		.2byte	0x1
 6372 0111 52       		.byte	0x52
 6373 0112 00000000 		.4byte	0
 6374 0116 00000000 		.4byte	0
 6375              	.LLST7:
ARM GAS  C:\Users\corne\AppData\Local\Temp\cc0fqrF9.s 			page 139


 6376 011a 00000000 		.4byte	.LVL26
 6377 011e 06000000 		.4byte	.LVL28
 6378 0122 0100     		.2byte	0x1
 6379 0124 50       		.byte	0x50
 6380 0125 06000000 		.4byte	.LVL28
 6381 0129 70000000 		.4byte	.LFE24
 6382 012d 0400     		.2byte	0x4
 6383 012f F3       		.byte	0xf3
 6384 0130 01       		.uleb128 0x1
 6385 0131 50       		.byte	0x50
 6386 0132 9F       		.byte	0x9f
 6387 0133 00000000 		.4byte	0
 6388 0137 00000000 		.4byte	0
 6389              	.LLST8:
 6390 013b 0C000000 		.4byte	.LVL29
 6391 013f 12000000 		.4byte	.LVL30
 6392 0143 0100     		.2byte	0x1
 6393 0145 54       		.byte	0x54
 6394 0146 12000000 		.4byte	.LVL30
 6395 014a 1C000000 		.4byte	.LVL31
 6396 014e 0A00     		.2byte	0xa
 6397 0150 72       		.byte	0x72
 6398 0151 00       		.sleb128 0
 6399 0152 33       		.byte	0x33
 6400 0153 25       		.byte	0x25
 6401 0154 73       		.byte	0x73
 6402 0155 00       		.sleb128 0
 6403 0156 31       		.byte	0x31
 6404 0157 24       		.byte	0x24
 6405 0158 1C       		.byte	0x1c
 6406 0159 9F       		.byte	0x9f
 6407 015a 1C000000 		.4byte	.LVL31
 6408 015e 3E000000 		.4byte	.LVL36
 6409 0162 0100     		.2byte	0x1
 6410 0164 50       		.byte	0x50
 6411 0165 3E000000 		.4byte	.LVL36
 6412 0169 40000000 		.4byte	.LVL37
 6413 016d 4200     		.2byte	0x42
 6414 016f F3       		.byte	0xf3
 6415 0170 01       		.uleb128 0x1
 6416 0171 50       		.byte	0x50
 6417 0172 23       		.byte	0x23
 6418 0173 04       		.uleb128 0x4
 6419 0174 06       		.byte	0x6
 6420 0175 33       		.byte	0x33
 6421 0176 25       		.byte	0x25
 6422 0177 71       		.byte	0x71
 6423 0178 00       		.sleb128 0
 6424 0179 94       		.byte	0x94
 6425 017a 02       		.byte	0x2
 6426 017b 0A       		.byte	0xa
 6427 017c FFFF     		.2byte	0xffff
 6428 017e 1A       		.byte	0x1a
 6429 017f 31       		.byte	0x31
 6430 0180 24       		.byte	0x24
 6431 0181 1C       		.byte	0x1c
 6432 0182 71       		.byte	0x71
ARM GAS  C:\Users\corne\AppData\Local\Temp\cc0fqrF9.s 			page 140


 6433 0183 02       		.sleb128 2
 6434 0184 94       		.byte	0x94
 6435 0185 02       		.byte	0x2
 6436 0186 40       		.byte	0x40
 6437 0187 24       		.byte	0x24
 6438 0188 40       		.byte	0x40
 6439 0189 26       		.byte	0x26
 6440 018a 1E       		.byte	0x1e
 6441 018b F3       		.byte	0xf3
 6442 018c 01       		.uleb128 0x1
 6443 018d 50       		.byte	0x50
 6444 018e 23       		.byte	0x23
 6445 018f 04       		.uleb128 0x4
 6446 0190 06       		.byte	0x6
 6447 0191 33       		.byte	0x33
 6448 0192 25       		.byte	0x25
 6449 0193 71       		.byte	0x71
 6450 0194 00       		.sleb128 0
 6451 0195 94       		.byte	0x94
 6452 0196 02       		.byte	0x2
 6453 0197 0A       		.byte	0xa
 6454 0198 FFFF     		.2byte	0xffff
 6455 019a 1A       		.byte	0x1a
 6456 019b 31       		.byte	0x31
 6457 019c 24       		.byte	0x24
 6458 019d 1C       		.byte	0x1c
 6459 019e 71       		.byte	0x71
 6460 019f 02       		.sleb128 2
 6461 01a0 94       		.byte	0x94
 6462 01a1 02       		.byte	0x2
 6463 01a2 40       		.byte	0x40
 6464 01a3 24       		.byte	0x24
 6465 01a4 40       		.byte	0x40
 6466 01a5 26       		.byte	0x26
 6467 01a6 1E       		.byte	0x1e
 6468 01a7 4F       		.byte	0x4f
 6469 01a8 26       		.byte	0x26
 6470 01a9 45       		.byte	0x45
 6471 01aa 24       		.byte	0x24
 6472 01ab 45       		.byte	0x45
 6473 01ac 25       		.byte	0x25
 6474 01ad 22       		.byte	0x22
 6475 01ae 3B       		.byte	0x3b
 6476 01af 26       		.byte	0x26
 6477 01b0 9F       		.byte	0x9f
 6478 01b1 00000000 		.4byte	0
 6479 01b5 00000000 		.4byte	0
 6480              	.LLST9:
 6481 01b9 20000000 		.4byte	.LVL32
 6482 01bd 22000000 		.4byte	.LVL33
 6483 01c1 0100     		.2byte	0x1
 6484 01c3 52       		.byte	0x52
 6485 01c4 22000000 		.4byte	.LVL33
 6486 01c8 24000000 		.4byte	.LVL34
 6487 01cc 0C00     		.2byte	0xc
 6488 01ce F3       		.byte	0xf3
 6489 01cf 01       		.uleb128 0x1
ARM GAS  C:\Users\corne\AppData\Local\Temp\cc0fqrF9.s 			page 141


 6490 01d0 50       		.byte	0x50
 6491 01d1 23       		.byte	0x23
 6492 01d2 04       		.uleb128 0x4
 6493 01d3 06       		.byte	0x6
 6494 01d4 34       		.byte	0x34
 6495 01d5 25       		.byte	0x25
 6496 01d6 73       		.byte	0x73
 6497 01d7 00       		.sleb128 0
 6498 01d8 1C       		.byte	0x1c
 6499 01d9 9F       		.byte	0x9f
 6500 01da 24000000 		.4byte	.LVL34
 6501 01de 3C000000 		.4byte	.LVL35
 6502 01e2 1200     		.2byte	0x12
 6503 01e4 F3       		.byte	0xf3
 6504 01e5 01       		.uleb128 0x1
 6505 01e6 50       		.byte	0x50
 6506 01e7 23       		.byte	0x23
 6507 01e8 04       		.uleb128 0x4
 6508 01e9 06       		.byte	0x6
 6509 01ea 34       		.byte	0x34
 6510 01eb 25       		.byte	0x25
 6511 01ec 71       		.byte	0x71
 6512 01ed 00       		.sleb128 0
 6513 01ee 94       		.byte	0x94
 6514 01ef 02       		.byte	0x2
 6515 01f0 0A       		.byte	0xa
 6516 01f1 FFFF     		.2byte	0xffff
 6517 01f3 1A       		.byte	0x1a
 6518 01f4 1C       		.byte	0x1c
 6519 01f5 9F       		.byte	0x9f
 6520 01f6 3C000000 		.4byte	.LVL35
 6521 01fa 42000000 		.4byte	.LVL38
 6522 01fe 0100     		.2byte	0x1
 6523 0200 53       		.byte	0x53
 6524 0201 00000000 		.4byte	0
 6525 0205 00000000 		.4byte	0
 6526              	.LLST10:
 6527 0209 52000000 		.4byte	.LVL39
 6528 020d 62000000 		.4byte	.LVL40
 6529 0211 0100     		.2byte	0x1
 6530 0213 50       		.byte	0x50
 6531 0214 62000000 		.4byte	.LVL40
 6532 0218 64000000 		.4byte	.LVL41
 6533 021c 1500     		.2byte	0x15
 6534 021e 72       		.byte	0x72
 6535 021f 00       		.sleb128 0
 6536 0220 08       		.byte	0x8
 6537 0221 FF       		.byte	0xff
 6538 0222 1A       		.byte	0x1a
 6539 0223 71       		.byte	0x71
 6540 0224 24       		.sleb128 36
 6541 0225 06       		.byte	0x6
 6542 0226 32       		.byte	0x32
 6543 0227 24       		.byte	0x24
 6544 0228 22       		.byte	0x22
 6545 0229 71       		.byte	0x71
 6546 022a 24       		.sleb128 36
ARM GAS  C:\Users\corne\AppData\Local\Temp\cc0fqrF9.s 			page 142


 6547 022b 06       		.byte	0x6
 6548 022c 22       		.byte	0x22
 6549 022d 23       		.byte	0x23
 6550 022e 8001     		.uleb128 0x80
 6551 0230 38       		.byte	0x38
 6552 0231 26       		.byte	0x26
 6553 0232 9F       		.byte	0x9f
 6554 0233 64000000 		.4byte	.LVL41
 6555 0237 70000000 		.4byte	.LFE24
 6556 023b 0100     		.2byte	0x1
 6557 023d 50       		.byte	0x50
 6558 023e 00000000 		.4byte	0
 6559 0242 00000000 		.4byte	0
 6560              	.LLST11:
 6561 0246 00000000 		.4byte	.LVL43
 6562 024a 24000000 		.4byte	.LVL46
 6563 024e 0100     		.2byte	0x1
 6564 0250 50       		.byte	0x50
 6565 0251 24000000 		.4byte	.LVL46
 6566 0255 0C020000 		.4byte	.LVL87
 6567 0259 0100     		.2byte	0x1
 6568 025b 59       		.byte	0x59
 6569 025c 0C020000 		.4byte	.LVL87
 6570 0260 2C020000 		.4byte	.LFE25
 6571 0264 0400     		.2byte	0x4
 6572 0266 F3       		.byte	0xf3
 6573 0267 01       		.uleb128 0x1
 6574 0268 50       		.byte	0x50
 6575 0269 9F       		.byte	0x9f
 6576 026a 00000000 		.4byte	0
 6577 026e 00000000 		.4byte	0
 6578              	.LLST12:
 6579 0272 00000000 		.4byte	.LVL43
 6580 0276 26000000 		.4byte	.LVL47
 6581 027a 0100     		.2byte	0x1
 6582 027c 51       		.byte	0x51
 6583 027d 26000000 		.4byte	.LVL47
 6584 0281 0C020000 		.4byte	.LVL86
 6585 0285 0100     		.2byte	0x1
 6586 0287 58       		.byte	0x58
 6587 0288 0C020000 		.4byte	.LVL86
 6588 028c 2C020000 		.4byte	.LFE25
 6589 0290 0400     		.2byte	0x4
 6590 0292 F3       		.byte	0xf3
 6591 0293 01       		.uleb128 0x1
 6592 0294 51       		.byte	0x51
 6593 0295 9F       		.byte	0x9f
 6594 0296 00000000 		.4byte	0
 6595 029a 00000000 		.4byte	0
 6596              	.LLST13:
 6597 029e 1E000000 		.4byte	.LVL45
 6598 02a2 AA000000 		.4byte	.LVL58
 6599 02a6 0600     		.2byte	0x6
 6600 02a8 56       		.byte	0x56
 6601 02a9 93       		.byte	0x93
 6602 02aa 04       		.uleb128 0x4
 6603 02ab 57       		.byte	0x57
ARM GAS  C:\Users\corne\AppData\Local\Temp\cc0fqrF9.s 			page 143


 6604 02ac 93       		.byte	0x93
 6605 02ad 04       		.uleb128 0x4
 6606 02ae B4000000 		.4byte	.LVL59
 6607 02b2 CA000000 		.4byte	.LVL61
 6608 02b6 0600     		.2byte	0x6
 6609 02b8 54       		.byte	0x54
 6610 02b9 93       		.byte	0x93
 6611 02ba 04       		.uleb128 0x4
 6612 02bb 55       		.byte	0x55
 6613 02bc 93       		.byte	0x93
 6614 02bd 04       		.uleb128 0x4
 6615 02be DA000000 		.4byte	.LVL62
 6616 02c2 0A010000 		.4byte	.LVL67
 6617 02c6 0600     		.2byte	0x6
 6618 02c8 55       		.byte	0x55
 6619 02c9 93       		.byte	0x93
 6620 02ca 04       		.uleb128 0x4
 6621 02cb 54       		.byte	0x54
 6622 02cc 93       		.byte	0x93
 6623 02cd 04       		.uleb128 0x4
 6624 02ce 52010000 		.4byte	.LVL71
 6625 02d2 BA010000 		.4byte	.LVL76
 6626 02d6 0600     		.2byte	0x6
 6627 02d8 56       		.byte	0x56
 6628 02d9 93       		.byte	0x93
 6629 02da 04       		.uleb128 0x4
 6630 02db 57       		.byte	0x57
 6631 02dc 93       		.byte	0x93
 6632 02dd 04       		.uleb128 0x4
 6633 02de 00020000 		.4byte	.LVL81
 6634 02e2 04020000 		.4byte	.LVL82
 6635 02e6 0600     		.2byte	0x6
 6636 02e8 55       		.byte	0x55
 6637 02e9 93       		.byte	0x93
 6638 02ea 04       		.uleb128 0x4
 6639 02eb 54       		.byte	0x54
 6640 02ec 93       		.byte	0x93
 6641 02ed 04       		.uleb128 0x4
 6642 02ee 00000000 		.4byte	0
 6643 02f2 00000000 		.4byte	0
 6644              	.LLST14:
 6645 02f6 3E000000 		.4byte	.LVL50
 6646 02fa 6C000000 		.4byte	.LVL53
 6647 02fe 0600     		.2byte	0x6
 6648 0300 54       		.byte	0x54
 6649 0301 93       		.byte	0x93
 6650 0302 04       		.uleb128 0x4
 6651 0303 55       		.byte	0x55
 6652 0304 93       		.byte	0x93
 6653 0305 04       		.uleb128 0x4
 6654 0306 70000000 		.4byte	.LVL54
 6655 030a 84000000 		.4byte	.LVL56
 6656 030e 0600     		.2byte	0x6
 6657 0310 54       		.byte	0x54
 6658 0311 93       		.byte	0x93
 6659 0312 04       		.uleb128 0x4
 6660 0313 55       		.byte	0x55
ARM GAS  C:\Users\corne\AppData\Local\Temp\cc0fqrF9.s 			page 144


 6661 0314 93       		.byte	0x93
 6662 0315 04       		.uleb128 0x4
 6663 0316 84000000 		.4byte	.LVL56
 6664 031a 92010000 		.4byte	.LVL73
 6665 031e 0200     		.2byte	0x2
 6666 0320 91       		.byte	0x91
 6667 0321 58       		.sleb128 -40
 6668 0322 92010000 		.4byte	.LVL73
 6669 0326 9A010000 		.4byte	.LVL75
 6670 032a 0600     		.2byte	0x6
 6671 032c 52       		.byte	0x52
 6672 032d 93       		.byte	0x93
 6673 032e 04       		.uleb128 0x4
 6674 032f 53       		.byte	0x53
 6675 0330 93       		.byte	0x93
 6676 0331 04       		.uleb128 0x4
 6677 0332 00020000 		.4byte	.LVL81
 6678 0336 04020000 		.4byte	.LVL82
 6679 033a 0200     		.2byte	0x2
 6680 033c 91       		.byte	0x91
 6681 033d 58       		.sleb128 -40
 6682 033e 00000000 		.4byte	0
 6683 0342 00000000 		.4byte	0
 6684              	.LLST15:
 6685 0346 0C010000 		.4byte	.LVL68
 6686 034a 96010000 		.4byte	.LVL74
 6687 034e 0600     		.2byte	0x6
 6688 0350 54       		.byte	0x54
 6689 0351 93       		.byte	0x93
 6690 0352 04       		.uleb128 0x4
 6691 0353 55       		.byte	0x55
 6692 0354 93       		.byte	0x93
 6693 0355 04       		.uleb128 0x4
 6694 0356 C6010000 		.4byte	.LVL77
 6695 035a CE010000 		.4byte	.LVL78
 6696 035e 0600     		.2byte	0x6
 6697 0360 52       		.byte	0x52
 6698 0361 93       		.byte	0x93
 6699 0362 04       		.uleb128 0x4
 6700 0363 53       		.byte	0x53
 6701 0364 93       		.byte	0x93
 6702 0365 04       		.uleb128 0x4
 6703 0366 00000000 		.4byte	0
 6704 036a 00000000 		.4byte	0
 6705              	.LLST16:
 6706 036e F2010000 		.4byte	.LVL80
 6707 0372 00020000 		.4byte	.LVL81
 6708 0376 0100     		.2byte	0x1
 6709 0378 50       		.byte	0x50
 6710 0379 04020000 		.4byte	.LVL82
 6711 037d 06020000 		.4byte	.LVL83
 6712 0381 0100     		.2byte	0x1
 6713 0383 50       		.byte	0x50
 6714 0384 08020000 		.4byte	.LVL84
 6715 0388 2C020000 		.4byte	.LFE25
 6716 038c 0100     		.2byte	0x1
 6717 038e 50       		.byte	0x50
ARM GAS  C:\Users\corne\AppData\Local\Temp\cc0fqrF9.s 			page 145


 6718 038f 00000000 		.4byte	0
 6719 0393 00000000 		.4byte	0
 6720              	.LLST17:
 6721 0397 00000000 		.4byte	.LVL88
 6722 039b 1A000000 		.4byte	.LVL94
 6723 039f 0100     		.2byte	0x1
 6724 03a1 50       		.byte	0x50
 6725 03a2 1A000000 		.4byte	.LVL94
 6726 03a6 D8000000 		.4byte	.LFE26
 6727 03aa 0400     		.2byte	0x4
 6728 03ac F3       		.byte	0xf3
 6729 03ad 01       		.uleb128 0x1
 6730 03ae 50       		.byte	0x50
 6731 03af 9F       		.byte	0x9f
 6732 03b0 00000000 		.4byte	0
 6733 03b4 00000000 		.4byte	0
 6734              	.LLST18:
 6735 03b8 00000000 		.4byte	.LVL88
 6736 03bc 9E000000 		.4byte	.LVL113
 6737 03c0 0100     		.2byte	0x1
 6738 03c2 51       		.byte	0x51
 6739 03c3 9E000000 		.4byte	.LVL113
 6740 03c7 D8000000 		.4byte	.LFE26
 6741 03cb 0400     		.2byte	0x4
 6742 03cd F3       		.byte	0xf3
 6743 03ce 01       		.uleb128 0x1
 6744 03cf 51       		.byte	0x51
 6745 03d0 9F       		.byte	0x9f
 6746 03d1 00000000 		.4byte	0
 6747 03d5 00000000 		.4byte	0
 6748              	.LLST19:
 6749 03d9 0C000000 		.4byte	.LVL90
 6750 03dd 14000000 		.4byte	.LVL92
 6751 03e1 0100     		.2byte	0x1
 6752 03e3 53       		.byte	0x53
 6753 03e4 14000000 		.4byte	.LVL92
 6754 03e8 CC000000 		.4byte	.LVL123
 6755 03ec 0100     		.2byte	0x1
 6756 03ee 56       		.byte	0x56
 6757 03ef CC000000 		.4byte	.LVL123
 6758 03f3 D8000000 		.4byte	.LFE26
 6759 03f7 0C00     		.2byte	0xc
 6760 03f9 F3       		.byte	0xf3
 6761 03fa 01       		.uleb128 0x1
 6762 03fb 51       		.byte	0x51
 6763 03fc 23       		.byte	0x23
 6764 03fd 24       		.uleb128 0x24
 6765 03fe 06       		.byte	0x6
 6766 03ff 08       		.byte	0x8
 6767 0400 96       		.byte	0x96
 6768 0401 39       		.byte	0x39
 6769 0402 24       		.byte	0x24
 6770 0403 1C       		.byte	0x1c
 6771 0404 9F       		.byte	0x9f
 6772 0405 00000000 		.4byte	0
 6773 0409 00000000 		.4byte	0
 6774              	.LLST20:
ARM GAS  C:\Users\corne\AppData\Local\Temp\cc0fqrF9.s 			page 146


 6775 040d 10000000 		.4byte	.LVL91
 6776 0411 42000000 		.4byte	.LVL99
 6777 0415 0100     		.2byte	0x1
 6778 0417 55       		.byte	0x55
 6779 0418 42000000 		.4byte	.LVL99
 6780 041c 5A000000 		.4byte	.LVL102
 6781 0420 0100     		.2byte	0x1
 6782 0422 53       		.byte	0x53
 6783 0423 5A000000 		.4byte	.LVL102
 6784 0427 82000000 		.4byte	.LVL108
 6785 042b 2000     		.2byte	0x20
 6786 042d 71       		.byte	0x71
 6787 042e 22       		.sleb128 34
 6788 042f 94       		.byte	0x94
 6789 0430 01       		.byte	0x1
 6790 0431 48       		.byte	0x48
 6791 0432 24       		.byte	0x24
 6792 0433 48       		.byte	0x48
 6793 0434 26       		.byte	0x26
 6794 0435 76       		.byte	0x76
 6795 0436 00       		.sleb128 0
 6796 0437 1E       		.byte	0x1e
 6797 0438 71       		.byte	0x71
 6798 0439 22       		.sleb128 34
 6799 043a 94       		.byte	0x94
 6800 043b 01       		.byte	0x1
 6801 043c 48       		.byte	0x48
 6802 043d 24       		.byte	0x24
 6803 043e 48       		.byte	0x48
 6804 043f 26       		.byte	0x26
 6805 0440 76       		.byte	0x76
 6806 0441 00       		.sleb128 0
 6807 0442 1E       		.byte	0x1e
 6808 0443 4F       		.byte	0x4f
 6809 0444 26       		.byte	0x26
 6810 0445 46       		.byte	0x46
 6811 0446 24       		.byte	0x24
 6812 0447 46       		.byte	0x46
 6813 0448 25       		.byte	0x25
 6814 0449 22       		.byte	0x22
 6815 044a 3A       		.byte	0x3a
 6816 044b 26       		.byte	0x26
 6817 044c 9F       		.byte	0x9f
 6818 044d 82000000 		.4byte	.LVL108
 6819 0451 96000000 		.4byte	.LVL111
 6820 0455 0100     		.2byte	0x1
 6821 0457 54       		.byte	0x54
 6822 0458 96000000 		.4byte	.LVL111
 6823 045c 9E000000 		.4byte	.LVL113
 6824 0460 3E01     		.2byte	0x13e
 6825 0462 71       		.byte	0x71
 6826 0463 1C       		.sleb128 28
 6827 0464 94       		.byte	0x94
 6828 0465 01       		.byte	0x1
 6829 0466 08       		.byte	0x8
 6830 0467 FF       		.byte	0xff
 6831 0468 1A       		.byte	0x1a
ARM GAS  C:\Users\corne\AppData\Local\Temp\cc0fqrF9.s 			page 147


 6832 0469 76       		.byte	0x76
 6833 046a 00       		.sleb128 0
 6834 046b 1E       		.byte	0x1e
 6835 046c 71       		.byte	0x71
 6836 046d 1C       		.sleb128 28
 6837 046e 94       		.byte	0x94
 6838 046f 01       		.byte	0x1
 6839 0470 08       		.byte	0x8
 6840 0471 FF       		.byte	0xff
 6841 0472 1A       		.byte	0x1a
 6842 0473 76       		.byte	0x76
 6843 0474 00       		.sleb128 0
 6844 0475 1E       		.byte	0x1e
 6845 0476 4F       		.byte	0x4f
 6846 0477 26       		.byte	0x26
 6847 0478 45       		.byte	0x45
 6848 0479 24       		.byte	0x24
 6849 047a 45       		.byte	0x45
 6850 047b 25       		.byte	0x25
 6851 047c 22       		.byte	0x22
 6852 047d 3B       		.byte	0x3b
 6853 047e 26       		.byte	0x26
 6854 047f 23       		.byte	0x23
 6855 0480 808002   		.uleb128 0x8000
 6856 0483 71       		.byte	0x71
 6857 0484 22       		.sleb128 34
 6858 0485 94       		.byte	0x94
 6859 0486 01       		.byte	0x1
 6860 0487 48       		.byte	0x48
 6861 0488 24       		.byte	0x24
 6862 0489 48       		.byte	0x48
 6863 048a 26       		.byte	0x26
 6864 048b 76       		.byte	0x76
 6865 048c 00       		.sleb128 0
 6866 048d 1E       		.byte	0x1e
 6867 048e 71       		.byte	0x71
 6868 048f 22       		.sleb128 34
 6869 0490 94       		.byte	0x94
 6870 0491 01       		.byte	0x1
 6871 0492 48       		.byte	0x48
 6872 0493 24       		.byte	0x24
 6873 0494 48       		.byte	0x48
 6874 0495 26       		.byte	0x26
 6875 0496 76       		.byte	0x76
 6876 0497 00       		.sleb128 0
 6877 0498 1E       		.byte	0x1e
 6878 0499 4F       		.byte	0x4f
 6879 049a 26       		.byte	0x26
 6880 049b 46       		.byte	0x46
 6881 049c 24       		.byte	0x24
 6882 049d 46       		.byte	0x46
 6883 049e 25       		.byte	0x25
 6884 049f 22       		.byte	0x22
 6885 04a0 3A       		.byte	0x3a
 6886 04a1 26       		.byte	0x26
 6887 04a2 1E       		.byte	0x1e
 6888 04a3 71       		.byte	0x71
ARM GAS  C:\Users\corne\AppData\Local\Temp\cc0fqrF9.s 			page 148


 6889 04a4 1C       		.sleb128 28
 6890 04a5 94       		.byte	0x94
 6891 04a6 01       		.byte	0x1
 6892 04a7 08       		.byte	0x8
 6893 04a8 FF       		.byte	0xff
 6894 04a9 1A       		.byte	0x1a
 6895 04aa 76       		.byte	0x76
 6896 04ab 00       		.sleb128 0
 6897 04ac 1E       		.byte	0x1e
 6898 04ad 71       		.byte	0x71
 6899 04ae 1C       		.sleb128 28
 6900 04af 94       		.byte	0x94
 6901 04b0 01       		.byte	0x1
 6902 04b1 08       		.byte	0x8
 6903 04b2 FF       		.byte	0xff
 6904 04b3 1A       		.byte	0x1a
 6905 04b4 76       		.byte	0x76
 6906 04b5 00       		.sleb128 0
 6907 04b6 1E       		.byte	0x1e
 6908 04b7 4F       		.byte	0x4f
 6909 04b8 26       		.byte	0x26
 6910 04b9 45       		.byte	0x45
 6911 04ba 24       		.byte	0x24
 6912 04bb 45       		.byte	0x45
 6913 04bc 25       		.byte	0x25
 6914 04bd 22       		.byte	0x22
 6915 04be 3B       		.byte	0x3b
 6916 04bf 26       		.byte	0x26
 6917 04c0 23       		.byte	0x23
 6918 04c1 808002   		.uleb128 0x8000
 6919 04c4 71       		.byte	0x71
 6920 04c5 22       		.sleb128 34
 6921 04c6 94       		.byte	0x94
 6922 04c7 01       		.byte	0x1
 6923 04c8 48       		.byte	0x48
 6924 04c9 24       		.byte	0x24
 6925 04ca 48       		.byte	0x48
 6926 04cb 26       		.byte	0x26
 6927 04cc 76       		.byte	0x76
 6928 04cd 00       		.sleb128 0
 6929 04ce 1E       		.byte	0x1e
 6930 04cf 71       		.byte	0x71
 6931 04d0 22       		.sleb128 34
 6932 04d1 94       		.byte	0x94
 6933 04d2 01       		.byte	0x1
 6934 04d3 48       		.byte	0x48
 6935 04d4 24       		.byte	0x24
 6936 04d5 48       		.byte	0x48
 6937 04d6 26       		.byte	0x26
 6938 04d7 76       		.byte	0x76
 6939 04d8 00       		.sleb128 0
 6940 04d9 1E       		.byte	0x1e
 6941 04da 4F       		.byte	0x4f
 6942 04db 26       		.byte	0x26
 6943 04dc 46       		.byte	0x46
 6944 04dd 24       		.byte	0x24
 6945 04de 46       		.byte	0x46
ARM GAS  C:\Users\corne\AppData\Local\Temp\cc0fqrF9.s 			page 149


 6946 04df 25       		.byte	0x25
 6947 04e0 22       		.byte	0x22
 6948 04e1 3A       		.byte	0x3a
 6949 04e2 26       		.byte	0x26
 6950 04e3 1E       		.byte	0x1e
 6951 04e4 4F       		.byte	0x4f
 6952 04e5 26       		.byte	0x26
 6953 04e6 46       		.byte	0x46
 6954 04e7 24       		.byte	0x24
 6955 04e8 46       		.byte	0x46
 6956 04e9 25       		.byte	0x25
 6957 04ea 22       		.byte	0x22
 6958 04eb 3A       		.byte	0x3a
 6959 04ec 26       		.byte	0x26
 6960 04ed 7C       		.byte	0x7c
 6961 04ee 00       		.sleb128 0
 6962 04ef 22       		.byte	0x22
 6963 04f0 71       		.byte	0x71
 6964 04f1 1A       		.sleb128 26
 6965 04f2 94       		.byte	0x94
 6966 04f3 02       		.byte	0x2
 6967 04f4 40       		.byte	0x40
 6968 04f5 24       		.byte	0x24
 6969 04f6 40       		.byte	0x40
 6970 04f7 26       		.byte	0x26
 6971 04f8 1E       		.byte	0x1e
 6972 04f9 71       		.byte	0x71
 6973 04fa 1C       		.sleb128 28
 6974 04fb 94       		.byte	0x94
 6975 04fc 01       		.byte	0x1
 6976 04fd 08       		.byte	0x8
 6977 04fe FF       		.byte	0xff
 6978 04ff 1A       		.byte	0x1a
 6979 0500 76       		.byte	0x76
 6980 0501 00       		.sleb128 0
 6981 0502 1E       		.byte	0x1e
 6982 0503 71       		.byte	0x71
 6983 0504 1C       		.sleb128 28
 6984 0505 94       		.byte	0x94
 6985 0506 01       		.byte	0x1
 6986 0507 08       		.byte	0x8
 6987 0508 FF       		.byte	0xff
 6988 0509 1A       		.byte	0x1a
 6989 050a 76       		.byte	0x76
 6990 050b 00       		.sleb128 0
 6991 050c 1E       		.byte	0x1e
 6992 050d 4F       		.byte	0x4f
 6993 050e 26       		.byte	0x26
 6994 050f 45       		.byte	0x45
 6995 0510 24       		.byte	0x24
 6996 0511 45       		.byte	0x45
 6997 0512 25       		.byte	0x25
 6998 0513 22       		.byte	0x22
 6999 0514 3B       		.byte	0x3b
 7000 0515 26       		.byte	0x26
 7001 0516 23       		.byte	0x23
 7002 0517 808002   		.uleb128 0x8000
ARM GAS  C:\Users\corne\AppData\Local\Temp\cc0fqrF9.s 			page 150


 7003 051a 71       		.byte	0x71
 7004 051b 22       		.sleb128 34
 7005 051c 94       		.byte	0x94
 7006 051d 01       		.byte	0x1
 7007 051e 48       		.byte	0x48
 7008 051f 24       		.byte	0x24
 7009 0520 48       		.byte	0x48
 7010 0521 26       		.byte	0x26
 7011 0522 76       		.byte	0x76
 7012 0523 00       		.sleb128 0
 7013 0524 1E       		.byte	0x1e
 7014 0525 71       		.byte	0x71
 7015 0526 22       		.sleb128 34
 7016 0527 94       		.byte	0x94
 7017 0528 01       		.byte	0x1
 7018 0529 48       		.byte	0x48
 7019 052a 24       		.byte	0x24
 7020 052b 48       		.byte	0x48
 7021 052c 26       		.byte	0x26
 7022 052d 76       		.byte	0x76
 7023 052e 00       		.sleb128 0
 7024 052f 1E       		.byte	0x1e
 7025 0530 4F       		.byte	0x4f
 7026 0531 26       		.byte	0x26
 7027 0532 46       		.byte	0x46
 7028 0533 24       		.byte	0x24
 7029 0534 46       		.byte	0x46
 7030 0535 25       		.byte	0x25
 7031 0536 22       		.byte	0x22
 7032 0537 3A       		.byte	0x3a
 7033 0538 26       		.byte	0x26
 7034 0539 1E       		.byte	0x1e
 7035 053a 71       		.byte	0x71
 7036 053b 1C       		.sleb128 28
 7037 053c 94       		.byte	0x94
 7038 053d 01       		.byte	0x1
 7039 053e 08       		.byte	0x8
 7040 053f FF       		.byte	0xff
 7041 0540 1A       		.byte	0x1a
 7042 0541 76       		.byte	0x76
 7043 0542 00       		.sleb128 0
 7044 0543 1E       		.byte	0x1e
 7045 0544 71       		.byte	0x71
 7046 0545 1C       		.sleb128 28
 7047 0546 94       		.byte	0x94
 7048 0547 01       		.byte	0x1
 7049 0548 08       		.byte	0x8
 7050 0549 FF       		.byte	0xff
 7051 054a 1A       		.byte	0x1a
 7052 054b 76       		.byte	0x76
 7053 054c 00       		.sleb128 0
 7054 054d 1E       		.byte	0x1e
 7055 054e 4F       		.byte	0x4f
 7056 054f 26       		.byte	0x26
 7057 0550 45       		.byte	0x45
 7058 0551 24       		.byte	0x24
 7059 0552 45       		.byte	0x45
ARM GAS  C:\Users\corne\AppData\Local\Temp\cc0fqrF9.s 			page 151


 7060 0553 25       		.byte	0x25
 7061 0554 22       		.byte	0x22
 7062 0555 3B       		.byte	0x3b
 7063 0556 26       		.byte	0x26
 7064 0557 23       		.byte	0x23
 7065 0558 808002   		.uleb128 0x8000
 7066 055b 71       		.byte	0x71
 7067 055c 22       		.sleb128 34
 7068 055d 94       		.byte	0x94
 7069 055e 01       		.byte	0x1
 7070 055f 48       		.byte	0x48
 7071 0560 24       		.byte	0x24
 7072 0561 48       		.byte	0x48
 7073 0562 26       		.byte	0x26
 7074 0563 76       		.byte	0x76
 7075 0564 00       		.sleb128 0
 7076 0565 1E       		.byte	0x1e
 7077 0566 71       		.byte	0x71
 7078 0567 22       		.sleb128 34
 7079 0568 94       		.byte	0x94
 7080 0569 01       		.byte	0x1
 7081 056a 48       		.byte	0x48
 7082 056b 24       		.byte	0x24
 7083 056c 48       		.byte	0x48
 7084 056d 26       		.byte	0x26
 7085 056e 76       		.byte	0x76
 7086 056f 00       		.sleb128 0
 7087 0570 1E       		.byte	0x1e
 7088 0571 4F       		.byte	0x4f
 7089 0572 26       		.byte	0x26
 7090 0573 46       		.byte	0x46
 7091 0574 24       		.byte	0x24
 7092 0575 46       		.byte	0x46
 7093 0576 25       		.byte	0x25
 7094 0577 22       		.byte	0x22
 7095 0578 3A       		.byte	0x3a
 7096 0579 26       		.byte	0x26
 7097 057a 1E       		.byte	0x1e
 7098 057b 4F       		.byte	0x4f
 7099 057c 26       		.byte	0x26
 7100 057d 46       		.byte	0x46
 7101 057e 24       		.byte	0x24
 7102 057f 46       		.byte	0x46
 7103 0580 25       		.byte	0x25
 7104 0581 22       		.byte	0x22
 7105 0582 3A       		.byte	0x3a
 7106 0583 26       		.byte	0x26
 7107 0584 7C       		.byte	0x7c
 7108 0585 00       		.sleb128 0
 7109 0586 22       		.byte	0x22
 7110 0587 71       		.byte	0x71
 7111 0588 1A       		.sleb128 26
 7112 0589 94       		.byte	0x94
 7113 058a 02       		.byte	0x2
 7114 058b 40       		.byte	0x40
 7115 058c 24       		.byte	0x24
 7116 058d 40       		.byte	0x40
ARM GAS  C:\Users\corne\AppData\Local\Temp\cc0fqrF9.s 			page 152


 7117 058e 26       		.byte	0x26
 7118 058f 1E       		.byte	0x1e
 7119 0590 23       		.byte	0x23
 7120 0591 8040     		.uleb128 0x2000
 7121 0593 4F       		.byte	0x4f
 7122 0594 26       		.byte	0x26
 7123 0595 42       		.byte	0x42
 7124 0596 24       		.byte	0x24
 7125 0597 42       		.byte	0x42
 7126 0598 25       		.byte	0x25
 7127 0599 22       		.byte	0x22
 7128 059a 23       		.byte	0x23
 7129 059b 8040     		.uleb128 0x2000
 7130 059d 3E       		.byte	0x3e
 7131 059e 26       		.byte	0x26
 7132 059f 9F       		.byte	0x9f
 7133 05a0 9E000000 		.4byte	.LVL113
 7134 05a4 CC000000 		.4byte	.LVL123
 7135 05a8 7401     		.2byte	0x174
 7136 05aa F3       		.byte	0xf3
 7137 05ab 01       		.uleb128 0x1
 7138 05ac 51       		.byte	0x51
 7139 05ad 23       		.byte	0x23
 7140 05ae 1C       		.uleb128 0x1c
 7141 05af 94       		.byte	0x94
 7142 05b0 01       		.byte	0x1
 7143 05b1 08       		.byte	0x8
 7144 05b2 FF       		.byte	0xff
 7145 05b3 1A       		.byte	0x1a
 7146 05b4 76       		.byte	0x76
 7147 05b5 00       		.sleb128 0
 7148 05b6 1E       		.byte	0x1e
 7149 05b7 F3       		.byte	0xf3
 7150 05b8 01       		.uleb128 0x1
 7151 05b9 51       		.byte	0x51
 7152 05ba 23       		.byte	0x23
 7153 05bb 1C       		.uleb128 0x1c
 7154 05bc 94       		.byte	0x94
 7155 05bd 01       		.byte	0x1
 7156 05be 08       		.byte	0x8
 7157 05bf FF       		.byte	0xff
 7158 05c0 1A       		.byte	0x1a
 7159 05c1 76       		.byte	0x76
 7160 05c2 00       		.sleb128 0
 7161 05c3 1E       		.byte	0x1e
 7162 05c4 4F       		.byte	0x4f
 7163 05c5 26       		.byte	0x26
 7164 05c6 45       		.byte	0x45
 7165 05c7 24       		.byte	0x24
 7166 05c8 45       		.byte	0x45
 7167 05c9 25       		.byte	0x25
 7168 05ca 22       		.byte	0x22
 7169 05cb 3B       		.byte	0x3b
 7170 05cc 26       		.byte	0x26
 7171 05cd 23       		.byte	0x23
 7172 05ce 808002   		.uleb128 0x8000
 7173 05d1 F3       		.byte	0xf3
ARM GAS  C:\Users\corne\AppData\Local\Temp\cc0fqrF9.s 			page 153


 7174 05d2 01       		.uleb128 0x1
 7175 05d3 51       		.byte	0x51
 7176 05d4 23       		.byte	0x23
 7177 05d5 22       		.uleb128 0x22
 7178 05d6 94       		.byte	0x94
 7179 05d7 01       		.byte	0x1
 7180 05d8 48       		.byte	0x48
 7181 05d9 24       		.byte	0x24
 7182 05da 48       		.byte	0x48
 7183 05db 26       		.byte	0x26
 7184 05dc 76       		.byte	0x76
 7185 05dd 00       		.sleb128 0
 7186 05de 1E       		.byte	0x1e
 7187 05df F3       		.byte	0xf3
 7188 05e0 01       		.uleb128 0x1
 7189 05e1 51       		.byte	0x51
 7190 05e2 23       		.byte	0x23
 7191 05e3 22       		.uleb128 0x22
 7192 05e4 94       		.byte	0x94
 7193 05e5 01       		.byte	0x1
 7194 05e6 48       		.byte	0x48
 7195 05e7 24       		.byte	0x24
 7196 05e8 48       		.byte	0x48
 7197 05e9 26       		.byte	0x26
 7198 05ea 76       		.byte	0x76
 7199 05eb 00       		.sleb128 0
 7200 05ec 1E       		.byte	0x1e
 7201 05ed 4F       		.byte	0x4f
 7202 05ee 26       		.byte	0x26
 7203 05ef 46       		.byte	0x46
 7204 05f0 24       		.byte	0x24
 7205 05f1 46       		.byte	0x46
 7206 05f2 25       		.byte	0x25
 7207 05f3 22       		.byte	0x22
 7208 05f4 3A       		.byte	0x3a
 7209 05f5 26       		.byte	0x26
 7210 05f6 1E       		.byte	0x1e
 7211 05f7 F3       		.byte	0xf3
 7212 05f8 01       		.uleb128 0x1
 7213 05f9 51       		.byte	0x51
 7214 05fa 23       		.byte	0x23
 7215 05fb 1C       		.uleb128 0x1c
 7216 05fc 94       		.byte	0x94
 7217 05fd 01       		.byte	0x1
 7218 05fe 08       		.byte	0x8
 7219 05ff FF       		.byte	0xff
 7220 0600 1A       		.byte	0x1a
 7221 0601 76       		.byte	0x76
 7222 0602 00       		.sleb128 0
 7223 0603 1E       		.byte	0x1e
 7224 0604 F3       		.byte	0xf3
 7225 0605 01       		.uleb128 0x1
 7226 0606 51       		.byte	0x51
 7227 0607 23       		.byte	0x23
 7228 0608 1C       		.uleb128 0x1c
 7229 0609 94       		.byte	0x94
 7230 060a 01       		.byte	0x1
ARM GAS  C:\Users\corne\AppData\Local\Temp\cc0fqrF9.s 			page 154


 7231 060b 08       		.byte	0x8
 7232 060c FF       		.byte	0xff
 7233 060d 1A       		.byte	0x1a
 7234 060e 76       		.byte	0x76
 7235 060f 00       		.sleb128 0
 7236 0610 1E       		.byte	0x1e
 7237 0611 4F       		.byte	0x4f
 7238 0612 26       		.byte	0x26
 7239 0613 45       		.byte	0x45
 7240 0614 24       		.byte	0x24
 7241 0615 45       		.byte	0x45
 7242 0616 25       		.byte	0x25
 7243 0617 22       		.byte	0x22
 7244 0618 3B       		.byte	0x3b
 7245 0619 26       		.byte	0x26
 7246 061a 23       		.byte	0x23
 7247 061b 808002   		.uleb128 0x8000
 7248 061e F3       		.byte	0xf3
 7249 061f 01       		.uleb128 0x1
 7250 0620 51       		.byte	0x51
 7251 0621 23       		.byte	0x23
 7252 0622 22       		.uleb128 0x22
 7253 0623 94       		.byte	0x94
 7254 0624 01       		.byte	0x1
 7255 0625 48       		.byte	0x48
 7256 0626 24       		.byte	0x24
 7257 0627 48       		.byte	0x48
 7258 0628 26       		.byte	0x26
 7259 0629 76       		.byte	0x76
 7260 062a 00       		.sleb128 0
 7261 062b 1E       		.byte	0x1e
 7262 062c F3       		.byte	0xf3
 7263 062d 01       		.uleb128 0x1
 7264 062e 51       		.byte	0x51
 7265 062f 23       		.byte	0x23
 7266 0630 22       		.uleb128 0x22
 7267 0631 94       		.byte	0x94
 7268 0632 01       		.byte	0x1
 7269 0633 48       		.byte	0x48
 7270 0634 24       		.byte	0x24
 7271 0635 48       		.byte	0x48
 7272 0636 26       		.byte	0x26
 7273 0637 76       		.byte	0x76
 7274 0638 00       		.sleb128 0
 7275 0639 1E       		.byte	0x1e
 7276 063a 4F       		.byte	0x4f
 7277 063b 26       		.byte	0x26
 7278 063c 46       		.byte	0x46
 7279 063d 24       		.byte	0x24
 7280 063e 46       		.byte	0x46
 7281 063f 25       		.byte	0x25
 7282 0640 22       		.byte	0x22
 7283 0641 3A       		.byte	0x3a
 7284 0642 26       		.byte	0x26
 7285 0643 1E       		.byte	0x1e
 7286 0644 4F       		.byte	0x4f
 7287 0645 26       		.byte	0x26
ARM GAS  C:\Users\corne\AppData\Local\Temp\cc0fqrF9.s 			page 155


 7288 0646 46       		.byte	0x46
 7289 0647 24       		.byte	0x24
 7290 0648 46       		.byte	0x46
 7291 0649 25       		.byte	0x25
 7292 064a 22       		.byte	0x22
 7293 064b 3A       		.byte	0x3a
 7294 064c 26       		.byte	0x26
 7295 064d 7C       		.byte	0x7c
 7296 064e 00       		.sleb128 0
 7297 064f 22       		.byte	0x22
 7298 0650 F3       		.byte	0xf3
 7299 0651 01       		.uleb128 0x1
 7300 0652 51       		.byte	0x51
 7301 0653 23       		.byte	0x23
 7302 0654 1A       		.uleb128 0x1a
 7303 0655 94       		.byte	0x94
 7304 0656 02       		.byte	0x2
 7305 0657 40       		.byte	0x40
 7306 0658 24       		.byte	0x24
 7307 0659 40       		.byte	0x40
 7308 065a 26       		.byte	0x26
 7309 065b 1E       		.byte	0x1e
 7310 065c F3       		.byte	0xf3
 7311 065d 01       		.uleb128 0x1
 7312 065e 51       		.byte	0x51
 7313 065f 23       		.byte	0x23
 7314 0660 1C       		.uleb128 0x1c
 7315 0661 94       		.byte	0x94
 7316 0662 01       		.byte	0x1
 7317 0663 08       		.byte	0x8
 7318 0664 FF       		.byte	0xff
 7319 0665 1A       		.byte	0x1a
 7320 0666 76       		.byte	0x76
 7321 0667 00       		.sleb128 0
 7322 0668 1E       		.byte	0x1e
 7323 0669 F3       		.byte	0xf3
 7324 066a 01       		.uleb128 0x1
 7325 066b 51       		.byte	0x51
 7326 066c 23       		.byte	0x23
 7327 066d 1C       		.uleb128 0x1c
 7328 066e 94       		.byte	0x94
 7329 066f 01       		.byte	0x1
 7330 0670 08       		.byte	0x8
 7331 0671 FF       		.byte	0xff
 7332 0672 1A       		.byte	0x1a
 7333 0673 76       		.byte	0x76
 7334 0674 00       		.sleb128 0
 7335 0675 1E       		.byte	0x1e
 7336 0676 4F       		.byte	0x4f
 7337 0677 26       		.byte	0x26
 7338 0678 45       		.byte	0x45
 7339 0679 24       		.byte	0x24
 7340 067a 45       		.byte	0x45
 7341 067b 25       		.byte	0x25
 7342 067c 22       		.byte	0x22
 7343 067d 3B       		.byte	0x3b
 7344 067e 26       		.byte	0x26
ARM GAS  C:\Users\corne\AppData\Local\Temp\cc0fqrF9.s 			page 156


 7345 067f 23       		.byte	0x23
 7346 0680 808002   		.uleb128 0x8000
 7347 0683 F3       		.byte	0xf3
 7348 0684 01       		.uleb128 0x1
 7349 0685 51       		.byte	0x51
 7350 0686 23       		.byte	0x23
 7351 0687 22       		.uleb128 0x22
 7352 0688 94       		.byte	0x94
 7353 0689 01       		.byte	0x1
 7354 068a 48       		.byte	0x48
 7355 068b 24       		.byte	0x24
 7356 068c 48       		.byte	0x48
 7357 068d 26       		.byte	0x26
 7358 068e 76       		.byte	0x76
 7359 068f 00       		.sleb128 0
 7360 0690 1E       		.byte	0x1e
 7361 0691 F3       		.byte	0xf3
 7362 0692 01       		.uleb128 0x1
 7363 0693 51       		.byte	0x51
 7364 0694 23       		.byte	0x23
 7365 0695 22       		.uleb128 0x22
 7366 0696 94       		.byte	0x94
 7367 0697 01       		.byte	0x1
 7368 0698 48       		.byte	0x48
 7369 0699 24       		.byte	0x24
 7370 069a 48       		.byte	0x48
 7371 069b 26       		.byte	0x26
 7372 069c 76       		.byte	0x76
 7373 069d 00       		.sleb128 0
 7374 069e 1E       		.byte	0x1e
 7375 069f 4F       		.byte	0x4f
 7376 06a0 26       		.byte	0x26
 7377 06a1 46       		.byte	0x46
 7378 06a2 24       		.byte	0x24
 7379 06a3 46       		.byte	0x46
 7380 06a4 25       		.byte	0x25
 7381 06a5 22       		.byte	0x22
 7382 06a6 3A       		.byte	0x3a
 7383 06a7 26       		.byte	0x26
 7384 06a8 1E       		.byte	0x1e
 7385 06a9 F3       		.byte	0xf3
 7386 06aa 01       		.uleb128 0x1
 7387 06ab 51       		.byte	0x51
 7388 06ac 23       		.byte	0x23
 7389 06ad 1C       		.uleb128 0x1c
 7390 06ae 94       		.byte	0x94
 7391 06af 01       		.byte	0x1
 7392 06b0 08       		.byte	0x8
 7393 06b1 FF       		.byte	0xff
 7394 06b2 1A       		.byte	0x1a
 7395 06b3 76       		.byte	0x76
 7396 06b4 00       		.sleb128 0
 7397 06b5 1E       		.byte	0x1e
 7398 06b6 F3       		.byte	0xf3
 7399 06b7 01       		.uleb128 0x1
 7400 06b8 51       		.byte	0x51
 7401 06b9 23       		.byte	0x23
ARM GAS  C:\Users\corne\AppData\Local\Temp\cc0fqrF9.s 			page 157


 7402 06ba 1C       		.uleb128 0x1c
 7403 06bb 94       		.byte	0x94
 7404 06bc 01       		.byte	0x1
 7405 06bd 08       		.byte	0x8
 7406 06be FF       		.byte	0xff
 7407 06bf 1A       		.byte	0x1a
 7408 06c0 76       		.byte	0x76
 7409 06c1 00       		.sleb128 0
 7410 06c2 1E       		.byte	0x1e
 7411 06c3 4F       		.byte	0x4f
 7412 06c4 26       		.byte	0x26
 7413 06c5 45       		.byte	0x45
 7414 06c6 24       		.byte	0x24
 7415 06c7 45       		.byte	0x45
 7416 06c8 25       		.byte	0x25
 7417 06c9 22       		.byte	0x22
 7418 06ca 3B       		.byte	0x3b
 7419 06cb 26       		.byte	0x26
 7420 06cc 23       		.byte	0x23
 7421 06cd 808002   		.uleb128 0x8000
 7422 06d0 F3       		.byte	0xf3
 7423 06d1 01       		.uleb128 0x1
 7424 06d2 51       		.byte	0x51
 7425 06d3 23       		.byte	0x23
 7426 06d4 22       		.uleb128 0x22
 7427 06d5 94       		.byte	0x94
 7428 06d6 01       		.byte	0x1
 7429 06d7 48       		.byte	0x48
 7430 06d8 24       		.byte	0x24
 7431 06d9 48       		.byte	0x48
 7432 06da 26       		.byte	0x26
 7433 06db 76       		.byte	0x76
 7434 06dc 00       		.sleb128 0
 7435 06dd 1E       		.byte	0x1e
 7436 06de F3       		.byte	0xf3
 7437 06df 01       		.uleb128 0x1
 7438 06e0 51       		.byte	0x51
 7439 06e1 23       		.byte	0x23
 7440 06e2 22       		.uleb128 0x22
 7441 06e3 94       		.byte	0x94
 7442 06e4 01       		.byte	0x1
 7443 06e5 48       		.byte	0x48
 7444 06e6 24       		.byte	0x24
 7445 06e7 48       		.byte	0x48
 7446 06e8 26       		.byte	0x26
 7447 06e9 76       		.byte	0x76
 7448 06ea 00       		.sleb128 0
 7449 06eb 1E       		.byte	0x1e
 7450 06ec 4F       		.byte	0x4f
 7451 06ed 26       		.byte	0x26
 7452 06ee 46       		.byte	0x46
 7453 06ef 24       		.byte	0x24
 7454 06f0 46       		.byte	0x46
 7455 06f1 25       		.byte	0x25
 7456 06f2 22       		.byte	0x22
 7457 06f3 3A       		.byte	0x3a
 7458 06f4 26       		.byte	0x26
ARM GAS  C:\Users\corne\AppData\Local\Temp\cc0fqrF9.s 			page 158


 7459 06f5 1E       		.byte	0x1e
 7460 06f6 4F       		.byte	0x4f
 7461 06f7 26       		.byte	0x26
 7462 06f8 46       		.byte	0x46
 7463 06f9 24       		.byte	0x24
 7464 06fa 46       		.byte	0x46
 7465 06fb 25       		.byte	0x25
 7466 06fc 22       		.byte	0x22
 7467 06fd 3A       		.byte	0x3a
 7468 06fe 26       		.byte	0x26
 7469 06ff 7C       		.byte	0x7c
 7470 0700 00       		.sleb128 0
 7471 0701 22       		.byte	0x22
 7472 0702 F3       		.byte	0xf3
 7473 0703 01       		.uleb128 0x1
 7474 0704 51       		.byte	0x51
 7475 0705 23       		.byte	0x23
 7476 0706 1A       		.uleb128 0x1a
 7477 0707 94       		.byte	0x94
 7478 0708 02       		.byte	0x2
 7479 0709 40       		.byte	0x40
 7480 070a 24       		.byte	0x24
 7481 070b 40       		.byte	0x40
 7482 070c 26       		.byte	0x26
 7483 070d 1E       		.byte	0x1e
 7484 070e 23       		.byte	0x23
 7485 070f 8040     		.uleb128 0x2000
 7486 0711 4F       		.byte	0x4f
 7487 0712 26       		.byte	0x26
 7488 0713 42       		.byte	0x42
 7489 0714 24       		.byte	0x24
 7490 0715 42       		.byte	0x42
 7491 0716 25       		.byte	0x25
 7492 0717 22       		.byte	0x22
 7493 0718 23       		.byte	0x23
 7494 0719 8040     		.uleb128 0x2000
 7495 071b 3E       		.byte	0x3e
 7496 071c 26       		.byte	0x26
 7497 071d 9F       		.byte	0x9f
 7498 071e CC000000 		.4byte	.LVL123
 7499 0722 D8000000 		.4byte	.LFE26
 7500 0726 0402     		.2byte	0x204
 7501 0728 F3       		.byte	0xf3
 7502 0729 01       		.uleb128 0x1
 7503 072a 51       		.byte	0x51
 7504 072b 23       		.byte	0x23
 7505 072c 24       		.uleb128 0x24
 7506 072d 06       		.byte	0x6
 7507 072e 08       		.byte	0x8
 7508 072f 96       		.byte	0x96
 7509 0730 39       		.byte	0x39
 7510 0731 24       		.byte	0x24
 7511 0732 1C       		.byte	0x1c
 7512 0733 F3       		.byte	0xf3
 7513 0734 01       		.uleb128 0x1
 7514 0735 51       		.byte	0x51
 7515 0736 23       		.byte	0x23
ARM GAS  C:\Users\corne\AppData\Local\Temp\cc0fqrF9.s 			page 159


 7516 0737 1C       		.uleb128 0x1c
 7517 0738 94       		.byte	0x94
 7518 0739 01       		.byte	0x1
 7519 073a 08       		.byte	0x8
 7520 073b FF       		.byte	0xff
 7521 073c 1A       		.byte	0x1a
 7522 073d 1E       		.byte	0x1e
 7523 073e F3       		.byte	0xf3
 7524 073f 01       		.uleb128 0x1
 7525 0740 51       		.byte	0x51
 7526 0741 23       		.byte	0x23
 7527 0742 24       		.uleb128 0x24
 7528 0743 06       		.byte	0x6
 7529 0744 08       		.byte	0x8
 7530 0745 96       		.byte	0x96
 7531 0746 39       		.byte	0x39
 7532 0747 24       		.byte	0x24
 7533 0748 1C       		.byte	0x1c
 7534 0749 F3       		.byte	0xf3
 7535 074a 01       		.uleb128 0x1
 7536 074b 51       		.byte	0x51
 7537 074c 23       		.byte	0x23
 7538 074d 1C       		.uleb128 0x1c
 7539 074e 94       		.byte	0x94
 7540 074f 01       		.byte	0x1
 7541 0750 08       		.byte	0x8
 7542 0751 FF       		.byte	0xff
 7543 0752 1A       		.byte	0x1a
 7544 0753 1E       		.byte	0x1e
 7545 0754 4F       		.byte	0x4f
 7546 0755 26       		.byte	0x26
 7547 0756 45       		.byte	0x45
 7548 0757 24       		.byte	0x24
 7549 0758 45       		.byte	0x45
 7550 0759 25       		.byte	0x25
 7551 075a 22       		.byte	0x22
 7552 075b 3B       		.byte	0x3b
 7553 075c 26       		.byte	0x26
 7554 075d 23       		.byte	0x23
 7555 075e 808002   		.uleb128 0x8000
 7556 0761 F3       		.byte	0xf3
 7557 0762 01       		.uleb128 0x1
 7558 0763 51       		.byte	0x51
 7559 0764 23       		.byte	0x23
 7560 0765 24       		.uleb128 0x24
 7561 0766 06       		.byte	0x6
 7562 0767 08       		.byte	0x8
 7563 0768 96       		.byte	0x96
 7564 0769 39       		.byte	0x39
 7565 076a 24       		.byte	0x24
 7566 076b 1C       		.byte	0x1c
 7567 076c F3       		.byte	0xf3
 7568 076d 01       		.uleb128 0x1
 7569 076e 51       		.byte	0x51
 7570 076f 23       		.byte	0x23
 7571 0770 22       		.uleb128 0x22
 7572 0771 94       		.byte	0x94
ARM GAS  C:\Users\corne\AppData\Local\Temp\cc0fqrF9.s 			page 160


 7573 0772 01       		.byte	0x1
 7574 0773 48       		.byte	0x48
 7575 0774 24       		.byte	0x24
 7576 0775 48       		.byte	0x48
 7577 0776 26       		.byte	0x26
 7578 0777 1E       		.byte	0x1e
 7579 0778 F3       		.byte	0xf3
 7580 0779 01       		.uleb128 0x1
 7581 077a 51       		.byte	0x51
 7582 077b 23       		.byte	0x23
 7583 077c 24       		.uleb128 0x24
 7584 077d 06       		.byte	0x6
 7585 077e 08       		.byte	0x8
 7586 077f 96       		.byte	0x96
 7587 0780 39       		.byte	0x39
 7588 0781 24       		.byte	0x24
 7589 0782 1C       		.byte	0x1c
 7590 0783 F3       		.byte	0xf3
 7591 0784 01       		.uleb128 0x1
 7592 0785 51       		.byte	0x51
 7593 0786 23       		.byte	0x23
 7594 0787 22       		.uleb128 0x22
 7595 0788 94       		.byte	0x94
 7596 0789 01       		.byte	0x1
 7597 078a 48       		.byte	0x48
 7598 078b 24       		.byte	0x24
 7599 078c 48       		.byte	0x48
 7600 078d 26       		.byte	0x26
 7601 078e 1E       		.byte	0x1e
 7602 078f 4F       		.byte	0x4f
 7603 0790 26       		.byte	0x26
 7604 0791 46       		.byte	0x46
 7605 0792 24       		.byte	0x24
 7606 0793 46       		.byte	0x46
 7607 0794 25       		.byte	0x25
 7608 0795 22       		.byte	0x22
 7609 0796 3A       		.byte	0x3a
 7610 0797 26       		.byte	0x26
 7611 0798 1E       		.byte	0x1e
 7612 0799 F3       		.byte	0xf3
 7613 079a 01       		.uleb128 0x1
 7614 079b 51       		.byte	0x51
 7615 079c 23       		.byte	0x23
 7616 079d 24       		.uleb128 0x24
 7617 079e 06       		.byte	0x6
 7618 079f 08       		.byte	0x8
 7619 07a0 96       		.byte	0x96
 7620 07a1 39       		.byte	0x39
 7621 07a2 24       		.byte	0x24
 7622 07a3 1C       		.byte	0x1c
 7623 07a4 F3       		.byte	0xf3
 7624 07a5 01       		.uleb128 0x1
 7625 07a6 51       		.byte	0x51
 7626 07a7 23       		.byte	0x23
 7627 07a8 1C       		.uleb128 0x1c
 7628 07a9 94       		.byte	0x94
 7629 07aa 01       		.byte	0x1
ARM GAS  C:\Users\corne\AppData\Local\Temp\cc0fqrF9.s 			page 161


 7630 07ab 08       		.byte	0x8
 7631 07ac FF       		.byte	0xff
 7632 07ad 1A       		.byte	0x1a
 7633 07ae 1E       		.byte	0x1e
 7634 07af F3       		.byte	0xf3
 7635 07b0 01       		.uleb128 0x1
 7636 07b1 51       		.byte	0x51
 7637 07b2 23       		.byte	0x23
 7638 07b3 24       		.uleb128 0x24
 7639 07b4 06       		.byte	0x6
 7640 07b5 08       		.byte	0x8
 7641 07b6 96       		.byte	0x96
 7642 07b7 39       		.byte	0x39
 7643 07b8 24       		.byte	0x24
 7644 07b9 1C       		.byte	0x1c
 7645 07ba F3       		.byte	0xf3
 7646 07bb 01       		.uleb128 0x1
 7647 07bc 51       		.byte	0x51
 7648 07bd 23       		.byte	0x23
 7649 07be 1C       		.uleb128 0x1c
 7650 07bf 94       		.byte	0x94
 7651 07c0 01       		.byte	0x1
 7652 07c1 08       		.byte	0x8
 7653 07c2 FF       		.byte	0xff
 7654 07c3 1A       		.byte	0x1a
 7655 07c4 1E       		.byte	0x1e
 7656 07c5 4F       		.byte	0x4f
 7657 07c6 26       		.byte	0x26
 7658 07c7 45       		.byte	0x45
 7659 07c8 24       		.byte	0x24
 7660 07c9 45       		.byte	0x45
 7661 07ca 25       		.byte	0x25
 7662 07cb 22       		.byte	0x22
 7663 07cc 3B       		.byte	0x3b
 7664 07cd 26       		.byte	0x26
 7665 07ce 23       		.byte	0x23
 7666 07cf 808002   		.uleb128 0x8000
 7667 07d2 F3       		.byte	0xf3
 7668 07d3 01       		.uleb128 0x1
 7669 07d4 51       		.byte	0x51
 7670 07d5 23       		.byte	0x23
 7671 07d6 24       		.uleb128 0x24
 7672 07d7 06       		.byte	0x6
 7673 07d8 08       		.byte	0x8
 7674 07d9 96       		.byte	0x96
 7675 07da 39       		.byte	0x39
 7676 07db 24       		.byte	0x24
 7677 07dc 1C       		.byte	0x1c
 7678 07dd F3       		.byte	0xf3
 7679 07de 01       		.uleb128 0x1
 7680 07df 51       		.byte	0x51
 7681 07e0 23       		.byte	0x23
 7682 07e1 22       		.uleb128 0x22
 7683 07e2 94       		.byte	0x94
 7684 07e3 01       		.byte	0x1
 7685 07e4 48       		.byte	0x48
 7686 07e5 24       		.byte	0x24
ARM GAS  C:\Users\corne\AppData\Local\Temp\cc0fqrF9.s 			page 162


 7687 07e6 48       		.byte	0x48
 7688 07e7 26       		.byte	0x26
 7689 07e8 1E       		.byte	0x1e
 7690 07e9 F3       		.byte	0xf3
 7691 07ea 01       		.uleb128 0x1
 7692 07eb 51       		.byte	0x51
 7693 07ec 23       		.byte	0x23
 7694 07ed 24       		.uleb128 0x24
 7695 07ee 06       		.byte	0x6
 7696 07ef 08       		.byte	0x8
 7697 07f0 96       		.byte	0x96
 7698 07f1 39       		.byte	0x39
 7699 07f2 24       		.byte	0x24
 7700 07f3 1C       		.byte	0x1c
 7701 07f4 F3       		.byte	0xf3
 7702 07f5 01       		.uleb128 0x1
 7703 07f6 51       		.byte	0x51
 7704 07f7 23       		.byte	0x23
 7705 07f8 22       		.uleb128 0x22
 7706 07f9 94       		.byte	0x94
 7707 07fa 01       		.byte	0x1
 7708 07fb 48       		.byte	0x48
 7709 07fc 24       		.byte	0x24
 7710 07fd 48       		.byte	0x48
 7711 07fe 26       		.byte	0x26
 7712 07ff 1E       		.byte	0x1e
 7713 0800 4F       		.byte	0x4f
 7714 0801 26       		.byte	0x26
 7715 0802 46       		.byte	0x46
 7716 0803 24       		.byte	0x24
 7717 0804 46       		.byte	0x46
 7718 0805 25       		.byte	0x25
 7719 0806 22       		.byte	0x22
 7720 0807 3A       		.byte	0x3a
 7721 0808 26       		.byte	0x26
 7722 0809 1E       		.byte	0x1e
 7723 080a 4F       		.byte	0x4f
 7724 080b 26       		.byte	0x26
 7725 080c 46       		.byte	0x46
 7726 080d 24       		.byte	0x24
 7727 080e 46       		.byte	0x46
 7728 080f 25       		.byte	0x25
 7729 0810 22       		.byte	0x22
 7730 0811 3A       		.byte	0x3a
 7731 0812 26       		.byte	0x26
 7732 0813 7C       		.byte	0x7c
 7733 0814 00       		.sleb128 0
 7734 0815 22       		.byte	0x22
 7735 0816 F3       		.byte	0xf3
 7736 0817 01       		.uleb128 0x1
 7737 0818 51       		.byte	0x51
 7738 0819 23       		.byte	0x23
 7739 081a 1A       		.uleb128 0x1a
 7740 081b 94       		.byte	0x94
 7741 081c 02       		.byte	0x2
 7742 081d 40       		.byte	0x40
 7743 081e 24       		.byte	0x24
ARM GAS  C:\Users\corne\AppData\Local\Temp\cc0fqrF9.s 			page 163


 7744 081f 40       		.byte	0x40
 7745 0820 26       		.byte	0x26
 7746 0821 1E       		.byte	0x1e
 7747 0822 F3       		.byte	0xf3
 7748 0823 01       		.uleb128 0x1
 7749 0824 51       		.byte	0x51
 7750 0825 23       		.byte	0x23
 7751 0826 24       		.uleb128 0x24
 7752 0827 06       		.byte	0x6
 7753 0828 08       		.byte	0x8
 7754 0829 96       		.byte	0x96
 7755 082a 39       		.byte	0x39
 7756 082b 24       		.byte	0x24
 7757 082c 1C       		.byte	0x1c
 7758 082d F3       		.byte	0xf3
 7759 082e 01       		.uleb128 0x1
 7760 082f 51       		.byte	0x51
 7761 0830 23       		.byte	0x23
 7762 0831 1C       		.uleb128 0x1c
 7763 0832 94       		.byte	0x94
 7764 0833 01       		.byte	0x1
 7765 0834 08       		.byte	0x8
 7766 0835 FF       		.byte	0xff
 7767 0836 1A       		.byte	0x1a
 7768 0837 1E       		.byte	0x1e
 7769 0838 F3       		.byte	0xf3
 7770 0839 01       		.uleb128 0x1
 7771 083a 51       		.byte	0x51
 7772 083b 23       		.byte	0x23
 7773 083c 24       		.uleb128 0x24
 7774 083d 06       		.byte	0x6
 7775 083e 08       		.byte	0x8
 7776 083f 96       		.byte	0x96
 7777 0840 39       		.byte	0x39
 7778 0841 24       		.byte	0x24
 7779 0842 1C       		.byte	0x1c
 7780 0843 F3       		.byte	0xf3
 7781 0844 01       		.uleb128 0x1
 7782 0845 51       		.byte	0x51
 7783 0846 23       		.byte	0x23
 7784 0847 1C       		.uleb128 0x1c
 7785 0848 94       		.byte	0x94
 7786 0849 01       		.byte	0x1
 7787 084a 08       		.byte	0x8
 7788 084b FF       		.byte	0xff
 7789 084c 1A       		.byte	0x1a
 7790 084d 1E       		.byte	0x1e
 7791 084e 4F       		.byte	0x4f
 7792 084f 26       		.byte	0x26
 7793 0850 45       		.byte	0x45
 7794 0851 24       		.byte	0x24
 7795 0852 45       		.byte	0x45
 7796 0853 25       		.byte	0x25
 7797 0854 22       		.byte	0x22
 7798 0855 3B       		.byte	0x3b
 7799 0856 26       		.byte	0x26
 7800 0857 23       		.byte	0x23
ARM GAS  C:\Users\corne\AppData\Local\Temp\cc0fqrF9.s 			page 164


 7801 0858 808002   		.uleb128 0x8000
 7802 085b F3       		.byte	0xf3
 7803 085c 01       		.uleb128 0x1
 7804 085d 51       		.byte	0x51
 7805 085e 23       		.byte	0x23
 7806 085f 24       		.uleb128 0x24
 7807 0860 06       		.byte	0x6
 7808 0861 08       		.byte	0x8
 7809 0862 96       		.byte	0x96
 7810 0863 39       		.byte	0x39
 7811 0864 24       		.byte	0x24
 7812 0865 1C       		.byte	0x1c
 7813 0866 F3       		.byte	0xf3
 7814 0867 01       		.uleb128 0x1
 7815 0868 51       		.byte	0x51
 7816 0869 23       		.byte	0x23
 7817 086a 22       		.uleb128 0x22
 7818 086b 94       		.byte	0x94
 7819 086c 01       		.byte	0x1
 7820 086d 48       		.byte	0x48
 7821 086e 24       		.byte	0x24
 7822 086f 48       		.byte	0x48
 7823 0870 26       		.byte	0x26
 7824 0871 1E       		.byte	0x1e
 7825 0872 F3       		.byte	0xf3
 7826 0873 01       		.uleb128 0x1
 7827 0874 51       		.byte	0x51
 7828 0875 23       		.byte	0x23
 7829 0876 24       		.uleb128 0x24
 7830 0877 06       		.byte	0x6
 7831 0878 08       		.byte	0x8
 7832 0879 96       		.byte	0x96
 7833 087a 39       		.byte	0x39
 7834 087b 24       		.byte	0x24
 7835 087c 1C       		.byte	0x1c
 7836 087d F3       		.byte	0xf3
 7837 087e 01       		.uleb128 0x1
 7838 087f 51       		.byte	0x51
 7839 0880 23       		.byte	0x23
 7840 0881 22       		.uleb128 0x22
 7841 0882 94       		.byte	0x94
 7842 0883 01       		.byte	0x1
 7843 0884 48       		.byte	0x48
 7844 0885 24       		.byte	0x24
 7845 0886 48       		.byte	0x48
 7846 0887 26       		.byte	0x26
 7847 0888 1E       		.byte	0x1e
 7848 0889 4F       		.byte	0x4f
 7849 088a 26       		.byte	0x26
 7850 088b 46       		.byte	0x46
 7851 088c 24       		.byte	0x24
 7852 088d 46       		.byte	0x46
 7853 088e 25       		.byte	0x25
 7854 088f 22       		.byte	0x22
 7855 0890 3A       		.byte	0x3a
 7856 0891 26       		.byte	0x26
 7857 0892 1E       		.byte	0x1e
ARM GAS  C:\Users\corne\AppData\Local\Temp\cc0fqrF9.s 			page 165


 7858 0893 F3       		.byte	0xf3
 7859 0894 01       		.uleb128 0x1
 7860 0895 51       		.byte	0x51
 7861 0896 23       		.byte	0x23
 7862 0897 24       		.uleb128 0x24
 7863 0898 06       		.byte	0x6
 7864 0899 08       		.byte	0x8
 7865 089a 96       		.byte	0x96
 7866 089b 39       		.byte	0x39
 7867 089c 24       		.byte	0x24
 7868 089d 1C       		.byte	0x1c
 7869 089e F3       		.byte	0xf3
 7870 089f 01       		.uleb128 0x1
 7871 08a0 51       		.byte	0x51
 7872 08a1 23       		.byte	0x23
 7873 08a2 1C       		.uleb128 0x1c
 7874 08a3 94       		.byte	0x94
 7875 08a4 01       		.byte	0x1
 7876 08a5 08       		.byte	0x8
 7877 08a6 FF       		.byte	0xff
 7878 08a7 1A       		.byte	0x1a
 7879 08a8 1E       		.byte	0x1e
 7880 08a9 F3       		.byte	0xf3
 7881 08aa 01       		.uleb128 0x1
 7882 08ab 51       		.byte	0x51
 7883 08ac 23       		.byte	0x23
 7884 08ad 24       		.uleb128 0x24
 7885 08ae 06       		.byte	0x6
 7886 08af 08       		.byte	0x8
 7887 08b0 96       		.byte	0x96
 7888 08b1 39       		.byte	0x39
 7889 08b2 24       		.byte	0x24
 7890 08b3 1C       		.byte	0x1c
 7891 08b4 F3       		.byte	0xf3
 7892 08b5 01       		.uleb128 0x1
 7893 08b6 51       		.byte	0x51
 7894 08b7 23       		.byte	0x23
 7895 08b8 1C       		.uleb128 0x1c
 7896 08b9 94       		.byte	0x94
 7897 08ba 01       		.byte	0x1
 7898 08bb 08       		.byte	0x8
 7899 08bc FF       		.byte	0xff
 7900 08bd 1A       		.byte	0x1a
 7901 08be 1E       		.byte	0x1e
 7902 08bf 4F       		.byte	0x4f
 7903 08c0 26       		.byte	0x26
 7904 08c1 45       		.byte	0x45
 7905 08c2 24       		.byte	0x24
 7906 08c3 45       		.byte	0x45
 7907 08c4 25       		.byte	0x25
 7908 08c5 22       		.byte	0x22
 7909 08c6 3B       		.byte	0x3b
 7910 08c7 26       		.byte	0x26
 7911 08c8 23       		.byte	0x23
 7912 08c9 808002   		.uleb128 0x8000
 7913 08cc F3       		.byte	0xf3
 7914 08cd 01       		.uleb128 0x1
ARM GAS  C:\Users\corne\AppData\Local\Temp\cc0fqrF9.s 			page 166


 7915 08ce 51       		.byte	0x51
 7916 08cf 23       		.byte	0x23
 7917 08d0 24       		.uleb128 0x24
 7918 08d1 06       		.byte	0x6
 7919 08d2 08       		.byte	0x8
 7920 08d3 96       		.byte	0x96
 7921 08d4 39       		.byte	0x39
 7922 08d5 24       		.byte	0x24
 7923 08d6 1C       		.byte	0x1c
 7924 08d7 F3       		.byte	0xf3
 7925 08d8 01       		.uleb128 0x1
 7926 08d9 51       		.byte	0x51
 7927 08da 23       		.byte	0x23
 7928 08db 22       		.uleb128 0x22
 7929 08dc 94       		.byte	0x94
 7930 08dd 01       		.byte	0x1
 7931 08de 48       		.byte	0x48
 7932 08df 24       		.byte	0x24
 7933 08e0 48       		.byte	0x48
 7934 08e1 26       		.byte	0x26
 7935 08e2 1E       		.byte	0x1e
 7936 08e3 F3       		.byte	0xf3
 7937 08e4 01       		.uleb128 0x1
 7938 08e5 51       		.byte	0x51
 7939 08e6 23       		.byte	0x23
 7940 08e7 24       		.uleb128 0x24
 7941 08e8 06       		.byte	0x6
 7942 08e9 08       		.byte	0x8
 7943 08ea 96       		.byte	0x96
 7944 08eb 39       		.byte	0x39
 7945 08ec 24       		.byte	0x24
 7946 08ed 1C       		.byte	0x1c
 7947 08ee F3       		.byte	0xf3
 7948 08ef 01       		.uleb128 0x1
 7949 08f0 51       		.byte	0x51
 7950 08f1 23       		.byte	0x23
 7951 08f2 22       		.uleb128 0x22
 7952 08f3 94       		.byte	0x94
 7953 08f4 01       		.byte	0x1
 7954 08f5 48       		.byte	0x48
 7955 08f6 24       		.byte	0x24
 7956 08f7 48       		.byte	0x48
 7957 08f8 26       		.byte	0x26
 7958 08f9 1E       		.byte	0x1e
 7959 08fa 4F       		.byte	0x4f
 7960 08fb 26       		.byte	0x26
 7961 08fc 46       		.byte	0x46
 7962 08fd 24       		.byte	0x24
 7963 08fe 46       		.byte	0x46
 7964 08ff 25       		.byte	0x25
 7965 0900 22       		.byte	0x22
 7966 0901 3A       		.byte	0x3a
 7967 0902 26       		.byte	0x26
 7968 0903 1E       		.byte	0x1e
 7969 0904 4F       		.byte	0x4f
 7970 0905 26       		.byte	0x26
 7971 0906 46       		.byte	0x46
ARM GAS  C:\Users\corne\AppData\Local\Temp\cc0fqrF9.s 			page 167


 7972 0907 24       		.byte	0x24
 7973 0908 46       		.byte	0x46
 7974 0909 25       		.byte	0x25
 7975 090a 22       		.byte	0x22
 7976 090b 3A       		.byte	0x3a
 7977 090c 26       		.byte	0x26
 7978 090d 7C       		.byte	0x7c
 7979 090e 00       		.sleb128 0
 7980 090f 22       		.byte	0x22
 7981 0910 F3       		.byte	0xf3
 7982 0911 01       		.uleb128 0x1
 7983 0912 51       		.byte	0x51
 7984 0913 23       		.byte	0x23
 7985 0914 1A       		.uleb128 0x1a
 7986 0915 94       		.byte	0x94
 7987 0916 02       		.byte	0x2
 7988 0917 40       		.byte	0x40
 7989 0918 24       		.byte	0x24
 7990 0919 40       		.byte	0x40
 7991 091a 26       		.byte	0x26
 7992 091b 1E       		.byte	0x1e
 7993 091c 23       		.byte	0x23
 7994 091d 8040     		.uleb128 0x2000
 7995 091f 4F       		.byte	0x4f
 7996 0920 26       		.byte	0x26
 7997 0921 42       		.byte	0x42
 7998 0922 24       		.byte	0x24
 7999 0923 42       		.byte	0x42
 8000 0924 25       		.byte	0x25
 8001 0925 22       		.byte	0x22
 8002 0926 23       		.byte	0x23
 8003 0927 8040     		.uleb128 0x2000
 8004 0929 3E       		.byte	0x3e
 8005 092a 26       		.byte	0x26
 8006 092b 9F       		.byte	0x9f
 8007 092c 00000000 		.4byte	0
 8008 0930 00000000 		.4byte	0
 8009              	.LLST21:
 8010 0934 16000000 		.4byte	.LVL93
 8011 0938 1E000000 		.4byte	.LVL96
 8012 093c 0100     		.2byte	0x1
 8013 093e 54       		.byte	0x54
 8014 093f 1E000000 		.4byte	.LVL96
 8015 0943 50000000 		.4byte	.LVL100
 8016 0947 0B00     		.2byte	0xb
 8017 0949 71       		.byte	0x71
 8018 094a 1E       		.sleb128 30
 8019 094b 94       		.byte	0x94
 8020 094c 02       		.byte	0x2
 8021 094d 40       		.byte	0x40
 8022 094e 24       		.byte	0x24
 8023 094f 40       		.byte	0x40
 8024 0950 26       		.byte	0x26
 8025 0951 44       		.byte	0x44
 8026 0952 24       		.byte	0x24
 8027 0953 9F       		.byte	0x9f
 8028 0954 50000000 		.4byte	.LVL100
ARM GAS  C:\Users\corne\AppData\Local\Temp\cc0fqrF9.s 			page 168


 8029 0958 58000000 		.4byte	.LVL101
 8030 095c 0100     		.2byte	0x1
 8031 095e 52       		.byte	0x52
 8032 095f 58000000 		.4byte	.LVL101
 8033 0963 5C000000 		.4byte	.LVL103
 8034 0967 0500     		.2byte	0x5
 8035 0969 72       		.byte	0x72
 8036 096a 80807E   		.sleb128 -32768
 8037 096d 9F       		.byte	0x9f
 8038 096e 5C000000 		.4byte	.LVL103
 8039 0972 86000000 		.4byte	.LVL109
 8040 0976 1E00     		.2byte	0x1e
 8041 0978 71       		.byte	0x71
 8042 0979 1C       		.sleb128 28
 8043 097a 94       		.byte	0x94
 8044 097b 01       		.byte	0x1
 8045 097c 08       		.byte	0x8
 8046 097d FF       		.byte	0xff
 8047 097e 1A       		.byte	0x1a
 8048 097f 76       		.byte	0x76
 8049 0980 00       		.sleb128 0
 8050 0981 1E       		.byte	0x1e
 8051 0982 71       		.byte	0x71
 8052 0983 1C       		.sleb128 28
 8053 0984 94       		.byte	0x94
 8054 0985 01       		.byte	0x1
 8055 0986 08       		.byte	0x8
 8056 0987 FF       		.byte	0xff
 8057 0988 1A       		.byte	0x1a
 8058 0989 76       		.byte	0x76
 8059 098a 00       		.sleb128 0
 8060 098b 1E       		.byte	0x1e
 8061 098c 4F       		.byte	0x4f
 8062 098d 26       		.byte	0x26
 8063 098e 45       		.byte	0x45
 8064 098f 24       		.byte	0x24
 8065 0990 45       		.byte	0x45
 8066 0991 25       		.byte	0x25
 8067 0992 22       		.byte	0x22
 8068 0993 3B       		.byte	0x3b
 8069 0994 26       		.byte	0x26
 8070 0995 9F       		.byte	0x9f
 8071 0996 86000000 		.4byte	.LVL109
 8072 099a B2000000 		.4byte	.LVL118
 8073 099e 0100     		.2byte	0x1
 8074 09a0 53       		.byte	0x53
 8075 09a1 B2000000 		.4byte	.LVL118
 8076 09a5 CC000000 		.4byte	.LVL122
 8077 09a9 C401     		.2byte	0x1c4
 8078 09ab F3       		.byte	0xf3
 8079 09ac 01       		.uleb128 0x1
 8080 09ad 51       		.byte	0x51
 8081 09ae 23       		.byte	0x23
 8082 09af 1C       		.uleb128 0x1c
 8083 09b0 94       		.byte	0x94
 8084 09b1 01       		.byte	0x1
 8085 09b2 08       		.byte	0x8
ARM GAS  C:\Users\corne\AppData\Local\Temp\cc0fqrF9.s 			page 169


 8086 09b3 FF       		.byte	0xff
 8087 09b4 1A       		.byte	0x1a
 8088 09b5 76       		.byte	0x76
 8089 09b6 00       		.sleb128 0
 8090 09b7 1E       		.byte	0x1e
 8091 09b8 F3       		.byte	0xf3
 8092 09b9 01       		.uleb128 0x1
 8093 09ba 51       		.byte	0x51
 8094 09bb 23       		.byte	0x23
 8095 09bc 1C       		.uleb128 0x1c
 8096 09bd 94       		.byte	0x94
 8097 09be 01       		.byte	0x1
 8098 09bf 08       		.byte	0x8
 8099 09c0 FF       		.byte	0xff
 8100 09c1 1A       		.byte	0x1a
 8101 09c2 76       		.byte	0x76
 8102 09c3 00       		.sleb128 0
 8103 09c4 1E       		.byte	0x1e
 8104 09c5 4F       		.byte	0x4f
 8105 09c6 26       		.byte	0x26
 8106 09c7 45       		.byte	0x45
 8107 09c8 24       		.byte	0x24
 8108 09c9 45       		.byte	0x45
 8109 09ca 25       		.byte	0x25
 8110 09cb 22       		.byte	0x22
 8111 09cc 3B       		.byte	0x3b
 8112 09cd 26       		.byte	0x26
 8113 09ce 23       		.byte	0x23
 8114 09cf 808002   		.uleb128 0x8000
 8115 09d2 F3       		.byte	0xf3
 8116 09d3 01       		.uleb128 0x1
 8117 09d4 51       		.byte	0x51
 8118 09d5 23       		.byte	0x23
 8119 09d6 22       		.uleb128 0x22
 8120 09d7 94       		.byte	0x94
 8121 09d8 01       		.byte	0x1
 8122 09d9 48       		.byte	0x48
 8123 09da 24       		.byte	0x24
 8124 09db 48       		.byte	0x48
 8125 09dc 26       		.byte	0x26
 8126 09dd 76       		.byte	0x76
 8127 09de 00       		.sleb128 0
 8128 09df 1E       		.byte	0x1e
 8129 09e0 F3       		.byte	0xf3
 8130 09e1 01       		.uleb128 0x1
 8131 09e2 51       		.byte	0x51
 8132 09e3 23       		.byte	0x23
 8133 09e4 22       		.uleb128 0x22
 8134 09e5 94       		.byte	0x94
 8135 09e6 01       		.byte	0x1
 8136 09e7 48       		.byte	0x48
 8137 09e8 24       		.byte	0x24
 8138 09e9 48       		.byte	0x48
 8139 09ea 26       		.byte	0x26
 8140 09eb 76       		.byte	0x76
 8141 09ec 00       		.sleb128 0
 8142 09ed 1E       		.byte	0x1e
ARM GAS  C:\Users\corne\AppData\Local\Temp\cc0fqrF9.s 			page 170


 8143 09ee 4F       		.byte	0x4f
 8144 09ef 26       		.byte	0x26
 8145 09f0 46       		.byte	0x46
 8146 09f1 24       		.byte	0x24
 8147 09f2 46       		.byte	0x46
 8148 09f3 25       		.byte	0x25
 8149 09f4 22       		.byte	0x22
 8150 09f5 3A       		.byte	0x3a
 8151 09f6 26       		.byte	0x26
 8152 09f7 1E       		.byte	0x1e
 8153 09f8 F3       		.byte	0xf3
 8154 09f9 01       		.uleb128 0x1
 8155 09fa 51       		.byte	0x51
 8156 09fb 23       		.byte	0x23
 8157 09fc 1C       		.uleb128 0x1c
 8158 09fd 94       		.byte	0x94
 8159 09fe 01       		.byte	0x1
 8160 09ff 08       		.byte	0x8
 8161 0a00 FF       		.byte	0xff
 8162 0a01 1A       		.byte	0x1a
 8163 0a02 76       		.byte	0x76
 8164 0a03 00       		.sleb128 0
 8165 0a04 1E       		.byte	0x1e
 8166 0a05 F3       		.byte	0xf3
 8167 0a06 01       		.uleb128 0x1
 8168 0a07 51       		.byte	0x51
 8169 0a08 23       		.byte	0x23
 8170 0a09 1C       		.uleb128 0x1c
 8171 0a0a 94       		.byte	0x94
 8172 0a0b 01       		.byte	0x1
 8173 0a0c 08       		.byte	0x8
 8174 0a0d FF       		.byte	0xff
 8175 0a0e 1A       		.byte	0x1a
 8176 0a0f 76       		.byte	0x76
 8177 0a10 00       		.sleb128 0
 8178 0a11 1E       		.byte	0x1e
 8179 0a12 4F       		.byte	0x4f
 8180 0a13 26       		.byte	0x26
 8181 0a14 45       		.byte	0x45
 8182 0a15 24       		.byte	0x24
 8183 0a16 45       		.byte	0x45
 8184 0a17 25       		.byte	0x25
 8185 0a18 22       		.byte	0x22
 8186 0a19 3B       		.byte	0x3b
 8187 0a1a 26       		.byte	0x26
 8188 0a1b 23       		.byte	0x23
 8189 0a1c 808002   		.uleb128 0x8000
 8190 0a1f F3       		.byte	0xf3
 8191 0a20 01       		.uleb128 0x1
 8192 0a21 51       		.byte	0x51
 8193 0a22 23       		.byte	0x23
 8194 0a23 22       		.uleb128 0x22
 8195 0a24 94       		.byte	0x94
 8196 0a25 01       		.byte	0x1
 8197 0a26 48       		.byte	0x48
 8198 0a27 24       		.byte	0x24
 8199 0a28 48       		.byte	0x48
ARM GAS  C:\Users\corne\AppData\Local\Temp\cc0fqrF9.s 			page 171


 8200 0a29 26       		.byte	0x26
 8201 0a2a 76       		.byte	0x76
 8202 0a2b 00       		.sleb128 0
 8203 0a2c 1E       		.byte	0x1e
 8204 0a2d F3       		.byte	0xf3
 8205 0a2e 01       		.uleb128 0x1
 8206 0a2f 51       		.byte	0x51
 8207 0a30 23       		.byte	0x23
 8208 0a31 22       		.uleb128 0x22
 8209 0a32 94       		.byte	0x94
 8210 0a33 01       		.byte	0x1
 8211 0a34 48       		.byte	0x48
 8212 0a35 24       		.byte	0x24
 8213 0a36 48       		.byte	0x48
 8214 0a37 26       		.byte	0x26
 8215 0a38 76       		.byte	0x76
 8216 0a39 00       		.sleb128 0
 8217 0a3a 1E       		.byte	0x1e
 8218 0a3b 4F       		.byte	0x4f
 8219 0a3c 26       		.byte	0x26
 8220 0a3d 46       		.byte	0x46
 8221 0a3e 24       		.byte	0x24
 8222 0a3f 46       		.byte	0x46
 8223 0a40 25       		.byte	0x25
 8224 0a41 22       		.byte	0x22
 8225 0a42 3A       		.byte	0x3a
 8226 0a43 26       		.byte	0x26
 8227 0a44 1E       		.byte	0x1e
 8228 0a45 4F       		.byte	0x4f
 8229 0a46 26       		.byte	0x26
 8230 0a47 46       		.byte	0x46
 8231 0a48 24       		.byte	0x24
 8232 0a49 46       		.byte	0x46
 8233 0a4a 25       		.byte	0x25
 8234 0a4b 22       		.byte	0x22
 8235 0a4c 3A       		.byte	0x3a
 8236 0a4d 26       		.byte	0x26
 8237 0a4e 7C       		.byte	0x7c
 8238 0a4f 00       		.sleb128 0
 8239 0a50 22       		.byte	0x22
 8240 0a51 F3       		.byte	0xf3
 8241 0a52 01       		.uleb128 0x1
 8242 0a53 51       		.byte	0x51
 8243 0a54 23       		.byte	0x23
 8244 0a55 1A       		.uleb128 0x1a
 8245 0a56 94       		.byte	0x94
 8246 0a57 02       		.byte	0x2
 8247 0a58 40       		.byte	0x40
 8248 0a59 24       		.byte	0x24
 8249 0a5a 40       		.byte	0x40
 8250 0a5b 26       		.byte	0x26
 8251 0a5c 1E       		.byte	0x1e
 8252 0a5d F3       		.byte	0xf3
 8253 0a5e 01       		.uleb128 0x1
 8254 0a5f 51       		.byte	0x51
 8255 0a60 23       		.byte	0x23
 8256 0a61 1C       		.uleb128 0x1c
ARM GAS  C:\Users\corne\AppData\Local\Temp\cc0fqrF9.s 			page 172


 8257 0a62 94       		.byte	0x94
 8258 0a63 01       		.byte	0x1
 8259 0a64 08       		.byte	0x8
 8260 0a65 FF       		.byte	0xff
 8261 0a66 1A       		.byte	0x1a
 8262 0a67 76       		.byte	0x76
 8263 0a68 00       		.sleb128 0
 8264 0a69 1E       		.byte	0x1e
 8265 0a6a F3       		.byte	0xf3
 8266 0a6b 01       		.uleb128 0x1
 8267 0a6c 51       		.byte	0x51
 8268 0a6d 23       		.byte	0x23
 8269 0a6e 1C       		.uleb128 0x1c
 8270 0a6f 94       		.byte	0x94
 8271 0a70 01       		.byte	0x1
 8272 0a71 08       		.byte	0x8
 8273 0a72 FF       		.byte	0xff
 8274 0a73 1A       		.byte	0x1a
 8275 0a74 76       		.byte	0x76
 8276 0a75 00       		.sleb128 0
 8277 0a76 1E       		.byte	0x1e
 8278 0a77 4F       		.byte	0x4f
 8279 0a78 26       		.byte	0x26
 8280 0a79 45       		.byte	0x45
 8281 0a7a 24       		.byte	0x24
 8282 0a7b 45       		.byte	0x45
 8283 0a7c 25       		.byte	0x25
 8284 0a7d 22       		.byte	0x22
 8285 0a7e 3B       		.byte	0x3b
 8286 0a7f 26       		.byte	0x26
 8287 0a80 23       		.byte	0x23
 8288 0a81 808002   		.uleb128 0x8000
 8289 0a84 F3       		.byte	0xf3
 8290 0a85 01       		.uleb128 0x1
 8291 0a86 51       		.byte	0x51
 8292 0a87 23       		.byte	0x23
 8293 0a88 22       		.uleb128 0x22
 8294 0a89 94       		.byte	0x94
 8295 0a8a 01       		.byte	0x1
 8296 0a8b 48       		.byte	0x48
 8297 0a8c 24       		.byte	0x24
 8298 0a8d 48       		.byte	0x48
 8299 0a8e 26       		.byte	0x26
 8300 0a8f 76       		.byte	0x76
 8301 0a90 00       		.sleb128 0
 8302 0a91 1E       		.byte	0x1e
 8303 0a92 F3       		.byte	0xf3
 8304 0a93 01       		.uleb128 0x1
 8305 0a94 51       		.byte	0x51
 8306 0a95 23       		.byte	0x23
 8307 0a96 22       		.uleb128 0x22
 8308 0a97 94       		.byte	0x94
 8309 0a98 01       		.byte	0x1
 8310 0a99 48       		.byte	0x48
 8311 0a9a 24       		.byte	0x24
 8312 0a9b 48       		.byte	0x48
 8313 0a9c 26       		.byte	0x26
ARM GAS  C:\Users\corne\AppData\Local\Temp\cc0fqrF9.s 			page 173


 8314 0a9d 76       		.byte	0x76
 8315 0a9e 00       		.sleb128 0
 8316 0a9f 1E       		.byte	0x1e
 8317 0aa0 4F       		.byte	0x4f
 8318 0aa1 26       		.byte	0x26
 8319 0aa2 46       		.byte	0x46
 8320 0aa3 24       		.byte	0x24
 8321 0aa4 46       		.byte	0x46
 8322 0aa5 25       		.byte	0x25
 8323 0aa6 22       		.byte	0x22
 8324 0aa7 3A       		.byte	0x3a
 8325 0aa8 26       		.byte	0x26
 8326 0aa9 1E       		.byte	0x1e
 8327 0aaa F3       		.byte	0xf3
 8328 0aab 01       		.uleb128 0x1
 8329 0aac 51       		.byte	0x51
 8330 0aad 23       		.byte	0x23
 8331 0aae 1C       		.uleb128 0x1c
 8332 0aaf 94       		.byte	0x94
 8333 0ab0 01       		.byte	0x1
 8334 0ab1 08       		.byte	0x8
 8335 0ab2 FF       		.byte	0xff
 8336 0ab3 1A       		.byte	0x1a
 8337 0ab4 76       		.byte	0x76
 8338 0ab5 00       		.sleb128 0
 8339 0ab6 1E       		.byte	0x1e
 8340 0ab7 F3       		.byte	0xf3
 8341 0ab8 01       		.uleb128 0x1
 8342 0ab9 51       		.byte	0x51
 8343 0aba 23       		.byte	0x23
 8344 0abb 1C       		.uleb128 0x1c
 8345 0abc 94       		.byte	0x94
 8346 0abd 01       		.byte	0x1
 8347 0abe 08       		.byte	0x8
 8348 0abf FF       		.byte	0xff
 8349 0ac0 1A       		.byte	0x1a
 8350 0ac1 76       		.byte	0x76
 8351 0ac2 00       		.sleb128 0
 8352 0ac3 1E       		.byte	0x1e
 8353 0ac4 4F       		.byte	0x4f
 8354 0ac5 26       		.byte	0x26
 8355 0ac6 45       		.byte	0x45
 8356 0ac7 24       		.byte	0x24
 8357 0ac8 45       		.byte	0x45
 8358 0ac9 25       		.byte	0x25
 8359 0aca 22       		.byte	0x22
 8360 0acb 3B       		.byte	0x3b
 8361 0acc 26       		.byte	0x26
 8362 0acd 23       		.byte	0x23
 8363 0ace 808002   		.uleb128 0x8000
 8364 0ad1 F3       		.byte	0xf3
 8365 0ad2 01       		.uleb128 0x1
 8366 0ad3 51       		.byte	0x51
 8367 0ad4 23       		.byte	0x23
 8368 0ad5 22       		.uleb128 0x22
 8369 0ad6 94       		.byte	0x94
 8370 0ad7 01       		.byte	0x1
ARM GAS  C:\Users\corne\AppData\Local\Temp\cc0fqrF9.s 			page 174


 8371 0ad8 48       		.byte	0x48
 8372 0ad9 24       		.byte	0x24
 8373 0ada 48       		.byte	0x48
 8374 0adb 26       		.byte	0x26
 8375 0adc 76       		.byte	0x76
 8376 0add 00       		.sleb128 0
 8377 0ade 1E       		.byte	0x1e
 8378 0adf F3       		.byte	0xf3
 8379 0ae0 01       		.uleb128 0x1
 8380 0ae1 51       		.byte	0x51
 8381 0ae2 23       		.byte	0x23
 8382 0ae3 22       		.uleb128 0x22
 8383 0ae4 94       		.byte	0x94
 8384 0ae5 01       		.byte	0x1
 8385 0ae6 48       		.byte	0x48
 8386 0ae7 24       		.byte	0x24
 8387 0ae8 48       		.byte	0x48
 8388 0ae9 26       		.byte	0x26
 8389 0aea 76       		.byte	0x76
 8390 0aeb 00       		.sleb128 0
 8391 0aec 1E       		.byte	0x1e
 8392 0aed 4F       		.byte	0x4f
 8393 0aee 26       		.byte	0x26
 8394 0aef 46       		.byte	0x46
 8395 0af0 24       		.byte	0x24
 8396 0af1 46       		.byte	0x46
 8397 0af2 25       		.byte	0x25
 8398 0af3 22       		.byte	0x22
 8399 0af4 3A       		.byte	0x3a
 8400 0af5 26       		.byte	0x26
 8401 0af6 1E       		.byte	0x1e
 8402 0af7 4F       		.byte	0x4f
 8403 0af8 26       		.byte	0x26
 8404 0af9 46       		.byte	0x46
 8405 0afa 24       		.byte	0x24
 8406 0afb 46       		.byte	0x46
 8407 0afc 25       		.byte	0x25
 8408 0afd 22       		.byte	0x22
 8409 0afe 3A       		.byte	0x3a
 8410 0aff 26       		.byte	0x26
 8411 0b00 7C       		.byte	0x7c
 8412 0b01 00       		.sleb128 0
 8413 0b02 22       		.byte	0x22
 8414 0b03 F3       		.byte	0xf3
 8415 0b04 01       		.uleb128 0x1
 8416 0b05 51       		.byte	0x51
 8417 0b06 23       		.byte	0x23
 8418 0b07 1A       		.uleb128 0x1a
 8419 0b08 94       		.byte	0x94
 8420 0b09 02       		.byte	0x2
 8421 0b0a 40       		.byte	0x40
 8422 0b0b 24       		.byte	0x24
 8423 0b0c 40       		.byte	0x40
 8424 0b0d 26       		.byte	0x26
 8425 0b0e 1E       		.byte	0x1e
 8426 0b0f 23       		.byte	0x23
 8427 0b10 8040     		.uleb128 0x2000
ARM GAS  C:\Users\corne\AppData\Local\Temp\cc0fqrF9.s 			page 175


 8428 0b12 4F       		.byte	0x4f
 8429 0b13 26       		.byte	0x26
 8430 0b14 42       		.byte	0x42
 8431 0b15 24       		.byte	0x24
 8432 0b16 42       		.byte	0x42
 8433 0b17 25       		.byte	0x25
 8434 0b18 22       		.byte	0x22
 8435 0b19 23       		.byte	0x23
 8436 0b1a 8040     		.uleb128 0x2000
 8437 0b1c 3E       		.byte	0x3e
 8438 0b1d 26       		.byte	0x26
 8439 0b1e 75       		.byte	0x75
 8440 0b1f 00       		.sleb128 0
 8441 0b20 F3       		.byte	0xf3
 8442 0b21 01       		.uleb128 0x1
 8443 0b22 51       		.byte	0x51
 8444 0b23 23       		.byte	0x23
 8445 0b24 1E       		.uleb128 0x1e
 8446 0b25 94       		.byte	0x94
 8447 0b26 02       		.byte	0x2
 8448 0b27 40       		.byte	0x40
 8449 0b28 24       		.byte	0x24
 8450 0b29 40       		.byte	0x40
 8451 0b2a 26       		.byte	0x26
 8452 0b2b 44       		.byte	0x44
 8453 0b2c 24       		.byte	0x24
 8454 0b2d 1C       		.byte	0x1c
 8455 0b2e F3       		.byte	0xf3
 8456 0b2f 01       		.uleb128 0x1
 8457 0b30 51       		.byte	0x51
 8458 0b31 23       		.byte	0x23
 8459 0b32 20       		.uleb128 0x20
 8460 0b33 94       		.byte	0x94
 8461 0b34 02       		.byte	0x2
 8462 0b35 40       		.byte	0x40
 8463 0b36 24       		.byte	0x24
 8464 0b37 40       		.byte	0x40
 8465 0b38 26       		.byte	0x26
 8466 0b39 76       		.byte	0x76
 8467 0b3a 00       		.sleb128 0
 8468 0b3b 1E       		.byte	0x1e
 8469 0b3c 1C       		.byte	0x1c
 8470 0b3d 23       		.byte	0x23
 8471 0b3e 808001   		.uleb128 0x4000
 8472 0b41 4F       		.byte	0x4f
 8473 0b42 26       		.byte	0x26
 8474 0b43 41       		.byte	0x41
 8475 0b44 24       		.byte	0x24
 8476 0b45 41       		.byte	0x41
 8477 0b46 25       		.byte	0x25
 8478 0b47 F3       		.byte	0xf3
 8479 0b48 01       		.uleb128 0x1
 8480 0b49 51       		.byte	0x51
 8481 0b4a 23       		.byte	0x23
 8482 0b4b 20       		.uleb128 0x20
 8483 0b4c 94       		.byte	0x94
 8484 0b4d 02       		.byte	0x2
ARM GAS  C:\Users\corne\AppData\Local\Temp\cc0fqrF9.s 			page 176


 8485 0b4e 40       		.byte	0x40
 8486 0b4f 24       		.byte	0x24
 8487 0b50 40       		.byte	0x40
 8488 0b51 26       		.byte	0x26
 8489 0b52 76       		.byte	0x76
 8490 0b53 00       		.sleb128 0
 8491 0b54 1E       		.byte	0x1e
 8492 0b55 1C       		.byte	0x1c
 8493 0b56 F3       		.byte	0xf3
 8494 0b57 01       		.uleb128 0x1
 8495 0b58 51       		.byte	0x51
 8496 0b59 23       		.byte	0x23
 8497 0b5a 1E       		.uleb128 0x1e
 8498 0b5b 94       		.byte	0x94
 8499 0b5c 02       		.byte	0x2
 8500 0b5d 40       		.byte	0x40
 8501 0b5e 24       		.byte	0x24
 8502 0b5f 40       		.byte	0x40
 8503 0b60 26       		.byte	0x26
 8504 0b61 44       		.byte	0x44
 8505 0b62 24       		.byte	0x24
 8506 0b63 1C       		.byte	0x1c
 8507 0b64 75       		.byte	0x75
 8508 0b65 00       		.sleb128 0
 8509 0b66 22       		.byte	0x22
 8510 0b67 23       		.byte	0x23
 8511 0b68 808001   		.uleb128 0x4000
 8512 0b6b 3F       		.byte	0x3f
 8513 0b6c 26       		.byte	0x26
 8514 0b6d 1E       		.byte	0x1e
 8515 0b6e 9F       		.byte	0x9f
 8516 0b6f CC000000 		.4byte	.LVL122
 8517 0b73 CC000000 		.4byte	.LVL123
 8518 0b77 D001     		.2byte	0x1d0
 8519 0b79 F3       		.byte	0xf3
 8520 0b7a 01       		.uleb128 0x1
 8521 0b7b 51       		.byte	0x51
 8522 0b7c 23       		.byte	0x23
 8523 0b7d 1C       		.uleb128 0x1c
 8524 0b7e 94       		.byte	0x94
 8525 0b7f 01       		.byte	0x1
 8526 0b80 08       		.byte	0x8
 8527 0b81 FF       		.byte	0xff
 8528 0b82 1A       		.byte	0x1a
 8529 0b83 76       		.byte	0x76
 8530 0b84 00       		.sleb128 0
 8531 0b85 1E       		.byte	0x1e
 8532 0b86 F3       		.byte	0xf3
 8533 0b87 01       		.uleb128 0x1
 8534 0b88 51       		.byte	0x51
 8535 0b89 23       		.byte	0x23
 8536 0b8a 1C       		.uleb128 0x1c
 8537 0b8b 94       		.byte	0x94
 8538 0b8c 01       		.byte	0x1
 8539 0b8d 08       		.byte	0x8
 8540 0b8e FF       		.byte	0xff
 8541 0b8f 1A       		.byte	0x1a
ARM GAS  C:\Users\corne\AppData\Local\Temp\cc0fqrF9.s 			page 177


 8542 0b90 76       		.byte	0x76
 8543 0b91 00       		.sleb128 0
 8544 0b92 1E       		.byte	0x1e
 8545 0b93 4F       		.byte	0x4f
 8546 0b94 26       		.byte	0x26
 8547 0b95 45       		.byte	0x45
 8548 0b96 24       		.byte	0x24
 8549 0b97 45       		.byte	0x45
 8550 0b98 25       		.byte	0x25
 8551 0b99 22       		.byte	0x22
 8552 0b9a 3B       		.byte	0x3b
 8553 0b9b 26       		.byte	0x26
 8554 0b9c 23       		.byte	0x23
 8555 0b9d 808002   		.uleb128 0x8000
 8556 0ba0 F3       		.byte	0xf3
 8557 0ba1 01       		.uleb128 0x1
 8558 0ba2 51       		.byte	0x51
 8559 0ba3 23       		.byte	0x23
 8560 0ba4 22       		.uleb128 0x22
 8561 0ba5 94       		.byte	0x94
 8562 0ba6 01       		.byte	0x1
 8563 0ba7 48       		.byte	0x48
 8564 0ba8 24       		.byte	0x24
 8565 0ba9 48       		.byte	0x48
 8566 0baa 26       		.byte	0x26
 8567 0bab 76       		.byte	0x76
 8568 0bac 00       		.sleb128 0
 8569 0bad 1E       		.byte	0x1e
 8570 0bae F3       		.byte	0xf3
 8571 0baf 01       		.uleb128 0x1
 8572 0bb0 51       		.byte	0x51
 8573 0bb1 23       		.byte	0x23
 8574 0bb2 22       		.uleb128 0x22
 8575 0bb3 94       		.byte	0x94
 8576 0bb4 01       		.byte	0x1
 8577 0bb5 48       		.byte	0x48
 8578 0bb6 24       		.byte	0x24
 8579 0bb7 48       		.byte	0x48
 8580 0bb8 26       		.byte	0x26
 8581 0bb9 76       		.byte	0x76
 8582 0bba 00       		.sleb128 0
 8583 0bbb 1E       		.byte	0x1e
 8584 0bbc 4F       		.byte	0x4f
 8585 0bbd 26       		.byte	0x26
 8586 0bbe 46       		.byte	0x46
 8587 0bbf 24       		.byte	0x24
 8588 0bc0 46       		.byte	0x46
 8589 0bc1 25       		.byte	0x25
 8590 0bc2 22       		.byte	0x22
 8591 0bc3 3A       		.byte	0x3a
 8592 0bc4 26       		.byte	0x26
 8593 0bc5 1E       		.byte	0x1e
 8594 0bc6 F3       		.byte	0xf3
 8595 0bc7 01       		.uleb128 0x1
 8596 0bc8 51       		.byte	0x51
 8597 0bc9 23       		.byte	0x23
 8598 0bca 1C       		.uleb128 0x1c
ARM GAS  C:\Users\corne\AppData\Local\Temp\cc0fqrF9.s 			page 178


 8599 0bcb 94       		.byte	0x94
 8600 0bcc 01       		.byte	0x1
 8601 0bcd 08       		.byte	0x8
 8602 0bce FF       		.byte	0xff
 8603 0bcf 1A       		.byte	0x1a
 8604 0bd0 76       		.byte	0x76
 8605 0bd1 00       		.sleb128 0
 8606 0bd2 1E       		.byte	0x1e
 8607 0bd3 F3       		.byte	0xf3
 8608 0bd4 01       		.uleb128 0x1
 8609 0bd5 51       		.byte	0x51
 8610 0bd6 23       		.byte	0x23
 8611 0bd7 1C       		.uleb128 0x1c
 8612 0bd8 94       		.byte	0x94
 8613 0bd9 01       		.byte	0x1
 8614 0bda 08       		.byte	0x8
 8615 0bdb FF       		.byte	0xff
 8616 0bdc 1A       		.byte	0x1a
 8617 0bdd 76       		.byte	0x76
 8618 0bde 00       		.sleb128 0
 8619 0bdf 1E       		.byte	0x1e
 8620 0be0 4F       		.byte	0x4f
 8621 0be1 26       		.byte	0x26
 8622 0be2 45       		.byte	0x45
 8623 0be3 24       		.byte	0x24
 8624 0be4 45       		.byte	0x45
 8625 0be5 25       		.byte	0x25
 8626 0be6 22       		.byte	0x22
 8627 0be7 3B       		.byte	0x3b
 8628 0be8 26       		.byte	0x26
 8629 0be9 23       		.byte	0x23
 8630 0bea 808002   		.uleb128 0x8000
 8631 0bed F3       		.byte	0xf3
 8632 0bee 01       		.uleb128 0x1
 8633 0bef 51       		.byte	0x51
 8634 0bf0 23       		.byte	0x23
 8635 0bf1 22       		.uleb128 0x22
 8636 0bf2 94       		.byte	0x94
 8637 0bf3 01       		.byte	0x1
 8638 0bf4 48       		.byte	0x48
 8639 0bf5 24       		.byte	0x24
 8640 0bf6 48       		.byte	0x48
 8641 0bf7 26       		.byte	0x26
 8642 0bf8 76       		.byte	0x76
 8643 0bf9 00       		.sleb128 0
 8644 0bfa 1E       		.byte	0x1e
 8645 0bfb F3       		.byte	0xf3
 8646 0bfc 01       		.uleb128 0x1
 8647 0bfd 51       		.byte	0x51
 8648 0bfe 23       		.byte	0x23
 8649 0bff 22       		.uleb128 0x22
 8650 0c00 94       		.byte	0x94
 8651 0c01 01       		.byte	0x1
 8652 0c02 48       		.byte	0x48
 8653 0c03 24       		.byte	0x24
 8654 0c04 48       		.byte	0x48
 8655 0c05 26       		.byte	0x26
ARM GAS  C:\Users\corne\AppData\Local\Temp\cc0fqrF9.s 			page 179


 8656 0c06 76       		.byte	0x76
 8657 0c07 00       		.sleb128 0
 8658 0c08 1E       		.byte	0x1e
 8659 0c09 4F       		.byte	0x4f
 8660 0c0a 26       		.byte	0x26
 8661 0c0b 46       		.byte	0x46
 8662 0c0c 24       		.byte	0x24
 8663 0c0d 46       		.byte	0x46
 8664 0c0e 25       		.byte	0x25
 8665 0c0f 22       		.byte	0x22
 8666 0c10 3A       		.byte	0x3a
 8667 0c11 26       		.byte	0x26
 8668 0c12 1E       		.byte	0x1e
 8669 0c13 4F       		.byte	0x4f
 8670 0c14 26       		.byte	0x26
 8671 0c15 46       		.byte	0x46
 8672 0c16 24       		.byte	0x24
 8673 0c17 46       		.byte	0x46
 8674 0c18 25       		.byte	0x25
 8675 0c19 22       		.byte	0x22
 8676 0c1a 3A       		.byte	0x3a
 8677 0c1b 26       		.byte	0x26
 8678 0c1c 7C       		.byte	0x7c
 8679 0c1d 00       		.sleb128 0
 8680 0c1e 22       		.byte	0x22
 8681 0c1f F3       		.byte	0xf3
 8682 0c20 01       		.uleb128 0x1
 8683 0c21 51       		.byte	0x51
 8684 0c22 23       		.byte	0x23
 8685 0c23 1A       		.uleb128 0x1a
 8686 0c24 94       		.byte	0x94
 8687 0c25 02       		.byte	0x2
 8688 0c26 40       		.byte	0x40
 8689 0c27 24       		.byte	0x24
 8690 0c28 40       		.byte	0x40
 8691 0c29 26       		.byte	0x26
 8692 0c2a 1E       		.byte	0x1e
 8693 0c2b F3       		.byte	0xf3
 8694 0c2c 01       		.uleb128 0x1
 8695 0c2d 51       		.byte	0x51
 8696 0c2e 23       		.byte	0x23
 8697 0c2f 1C       		.uleb128 0x1c
 8698 0c30 94       		.byte	0x94
 8699 0c31 01       		.byte	0x1
 8700 0c32 08       		.byte	0x8
 8701 0c33 FF       		.byte	0xff
 8702 0c34 1A       		.byte	0x1a
 8703 0c35 76       		.byte	0x76
 8704 0c36 00       		.sleb128 0
 8705 0c37 1E       		.byte	0x1e
 8706 0c38 F3       		.byte	0xf3
 8707 0c39 01       		.uleb128 0x1
 8708 0c3a 51       		.byte	0x51
 8709 0c3b 23       		.byte	0x23
 8710 0c3c 1C       		.uleb128 0x1c
 8711 0c3d 94       		.byte	0x94
 8712 0c3e 01       		.byte	0x1
ARM GAS  C:\Users\corne\AppData\Local\Temp\cc0fqrF9.s 			page 180


 8713 0c3f 08       		.byte	0x8
 8714 0c40 FF       		.byte	0xff
 8715 0c41 1A       		.byte	0x1a
 8716 0c42 76       		.byte	0x76
 8717 0c43 00       		.sleb128 0
 8718 0c44 1E       		.byte	0x1e
 8719 0c45 4F       		.byte	0x4f
 8720 0c46 26       		.byte	0x26
 8721 0c47 45       		.byte	0x45
 8722 0c48 24       		.byte	0x24
 8723 0c49 45       		.byte	0x45
 8724 0c4a 25       		.byte	0x25
 8725 0c4b 22       		.byte	0x22
 8726 0c4c 3B       		.byte	0x3b
 8727 0c4d 26       		.byte	0x26
 8728 0c4e 23       		.byte	0x23
 8729 0c4f 808002   		.uleb128 0x8000
 8730 0c52 F3       		.byte	0xf3
 8731 0c53 01       		.uleb128 0x1
 8732 0c54 51       		.byte	0x51
 8733 0c55 23       		.byte	0x23
 8734 0c56 22       		.uleb128 0x22
 8735 0c57 94       		.byte	0x94
 8736 0c58 01       		.byte	0x1
 8737 0c59 48       		.byte	0x48
 8738 0c5a 24       		.byte	0x24
 8739 0c5b 48       		.byte	0x48
 8740 0c5c 26       		.byte	0x26
 8741 0c5d 76       		.byte	0x76
 8742 0c5e 00       		.sleb128 0
 8743 0c5f 1E       		.byte	0x1e
 8744 0c60 F3       		.byte	0xf3
 8745 0c61 01       		.uleb128 0x1
 8746 0c62 51       		.byte	0x51
 8747 0c63 23       		.byte	0x23
 8748 0c64 22       		.uleb128 0x22
 8749 0c65 94       		.byte	0x94
 8750 0c66 01       		.byte	0x1
 8751 0c67 48       		.byte	0x48
 8752 0c68 24       		.byte	0x24
 8753 0c69 48       		.byte	0x48
 8754 0c6a 26       		.byte	0x26
 8755 0c6b 76       		.byte	0x76
 8756 0c6c 00       		.sleb128 0
 8757 0c6d 1E       		.byte	0x1e
 8758 0c6e 4F       		.byte	0x4f
 8759 0c6f 26       		.byte	0x26
 8760 0c70 46       		.byte	0x46
 8761 0c71 24       		.byte	0x24
 8762 0c72 46       		.byte	0x46
 8763 0c73 25       		.byte	0x25
 8764 0c74 22       		.byte	0x22
 8765 0c75 3A       		.byte	0x3a
 8766 0c76 26       		.byte	0x26
 8767 0c77 1E       		.byte	0x1e
 8768 0c78 F3       		.byte	0xf3
 8769 0c79 01       		.uleb128 0x1
ARM GAS  C:\Users\corne\AppData\Local\Temp\cc0fqrF9.s 			page 181


 8770 0c7a 51       		.byte	0x51
 8771 0c7b 23       		.byte	0x23
 8772 0c7c 1C       		.uleb128 0x1c
 8773 0c7d 94       		.byte	0x94
 8774 0c7e 01       		.byte	0x1
 8775 0c7f 08       		.byte	0x8
 8776 0c80 FF       		.byte	0xff
 8777 0c81 1A       		.byte	0x1a
 8778 0c82 76       		.byte	0x76
 8779 0c83 00       		.sleb128 0
 8780 0c84 1E       		.byte	0x1e
 8781 0c85 F3       		.byte	0xf3
 8782 0c86 01       		.uleb128 0x1
 8783 0c87 51       		.byte	0x51
 8784 0c88 23       		.byte	0x23
 8785 0c89 1C       		.uleb128 0x1c
 8786 0c8a 94       		.byte	0x94
 8787 0c8b 01       		.byte	0x1
 8788 0c8c 08       		.byte	0x8
 8789 0c8d FF       		.byte	0xff
 8790 0c8e 1A       		.byte	0x1a
 8791 0c8f 76       		.byte	0x76
 8792 0c90 00       		.sleb128 0
 8793 0c91 1E       		.byte	0x1e
 8794 0c92 4F       		.byte	0x4f
 8795 0c93 26       		.byte	0x26
 8796 0c94 45       		.byte	0x45
 8797 0c95 24       		.byte	0x24
 8798 0c96 45       		.byte	0x45
 8799 0c97 25       		.byte	0x25
 8800 0c98 22       		.byte	0x22
 8801 0c99 3B       		.byte	0x3b
 8802 0c9a 26       		.byte	0x26
 8803 0c9b 23       		.byte	0x23
 8804 0c9c 808002   		.uleb128 0x8000
 8805 0c9f F3       		.byte	0xf3
 8806 0ca0 01       		.uleb128 0x1
 8807 0ca1 51       		.byte	0x51
 8808 0ca2 23       		.byte	0x23
 8809 0ca3 22       		.uleb128 0x22
 8810 0ca4 94       		.byte	0x94
 8811 0ca5 01       		.byte	0x1
 8812 0ca6 48       		.byte	0x48
 8813 0ca7 24       		.byte	0x24
 8814 0ca8 48       		.byte	0x48
 8815 0ca9 26       		.byte	0x26
 8816 0caa 76       		.byte	0x76
 8817 0cab 00       		.sleb128 0
 8818 0cac 1E       		.byte	0x1e
 8819 0cad F3       		.byte	0xf3
 8820 0cae 01       		.uleb128 0x1
 8821 0caf 51       		.byte	0x51
 8822 0cb0 23       		.byte	0x23
 8823 0cb1 22       		.uleb128 0x22
 8824 0cb2 94       		.byte	0x94
 8825 0cb3 01       		.byte	0x1
 8826 0cb4 48       		.byte	0x48
ARM GAS  C:\Users\corne\AppData\Local\Temp\cc0fqrF9.s 			page 182


 8827 0cb5 24       		.byte	0x24
 8828 0cb6 48       		.byte	0x48
 8829 0cb7 26       		.byte	0x26
 8830 0cb8 76       		.byte	0x76
 8831 0cb9 00       		.sleb128 0
 8832 0cba 1E       		.byte	0x1e
 8833 0cbb 4F       		.byte	0x4f
 8834 0cbc 26       		.byte	0x26
 8835 0cbd 46       		.byte	0x46
 8836 0cbe 24       		.byte	0x24
 8837 0cbf 46       		.byte	0x46
 8838 0cc0 25       		.byte	0x25
 8839 0cc1 22       		.byte	0x22
 8840 0cc2 3A       		.byte	0x3a
 8841 0cc3 26       		.byte	0x26
 8842 0cc4 1E       		.byte	0x1e
 8843 0cc5 4F       		.byte	0x4f
 8844 0cc6 26       		.byte	0x26
 8845 0cc7 46       		.byte	0x46
 8846 0cc8 24       		.byte	0x24
 8847 0cc9 46       		.byte	0x46
 8848 0cca 25       		.byte	0x25
 8849 0ccb 22       		.byte	0x22
 8850 0ccc 3A       		.byte	0x3a
 8851 0ccd 26       		.byte	0x26
 8852 0cce 7C       		.byte	0x7c
 8853 0ccf 00       		.sleb128 0
 8854 0cd0 22       		.byte	0x22
 8855 0cd1 F3       		.byte	0xf3
 8856 0cd2 01       		.uleb128 0x1
 8857 0cd3 51       		.byte	0x51
 8858 0cd4 23       		.byte	0x23
 8859 0cd5 1A       		.uleb128 0x1a
 8860 0cd6 94       		.byte	0x94
 8861 0cd7 02       		.byte	0x2
 8862 0cd8 40       		.byte	0x40
 8863 0cd9 24       		.byte	0x24
 8864 0cda 40       		.byte	0x40
 8865 0cdb 26       		.byte	0x26
 8866 0cdc 1E       		.byte	0x1e
 8867 0cdd 23       		.byte	0x23
 8868 0cde 8040     		.uleb128 0x2000
 8869 0ce0 4F       		.byte	0x4f
 8870 0ce1 26       		.byte	0x26
 8871 0ce2 42       		.byte	0x42
 8872 0ce3 24       		.byte	0x24
 8873 0ce4 42       		.byte	0x42
 8874 0ce5 25       		.byte	0x25
 8875 0ce6 22       		.byte	0x22
 8876 0ce7 23       		.byte	0x23
 8877 0ce8 8040     		.uleb128 0x2000
 8878 0cea 3E       		.byte	0x3e
 8879 0ceb 26       		.byte	0x26
 8880 0cec F3       		.byte	0xf3
 8881 0ced 01       		.uleb128 0x1
 8882 0cee 50       		.byte	0x50
 8883 0cef 23       		.byte	0x23
ARM GAS  C:\Users\corne\AppData\Local\Temp\cc0fqrF9.s 			page 183


 8884 0cf0 08       		.uleb128 0x8
 8885 0cf1 06       		.byte	0x6
 8886 0cf2 3E       		.byte	0x3e
 8887 0cf3 24       		.byte	0x24
 8888 0cf4 F3       		.byte	0xf3
 8889 0cf5 01       		.uleb128 0x1
 8890 0cf6 51       		.byte	0x51
 8891 0cf7 23       		.byte	0x23
 8892 0cf8 20       		.uleb128 0x20
 8893 0cf9 94       		.byte	0x94
 8894 0cfa 02       		.byte	0x2
 8895 0cfb 40       		.byte	0x40
 8896 0cfc 24       		.byte	0x24
 8897 0cfd 40       		.byte	0x40
 8898 0cfe 26       		.byte	0x26
 8899 0cff 76       		.byte	0x76
 8900 0d00 00       		.sleb128 0
 8901 0d01 1E       		.byte	0x1e
 8902 0d02 1C       		.byte	0x1c
 8903 0d03 F3       		.byte	0xf3
 8904 0d04 01       		.uleb128 0x1
 8905 0d05 50       		.byte	0x50
 8906 0d06 23       		.byte	0x23
 8907 0d07 08       		.uleb128 0x8
 8908 0d08 06       		.byte	0x6
 8909 0d09 3E       		.byte	0x3e
 8910 0d0a 24       		.byte	0x24
 8911 0d0b F3       		.byte	0xf3
 8912 0d0c 01       		.uleb128 0x1
 8913 0d0d 51       		.byte	0x51
 8914 0d0e 23       		.byte	0x23
 8915 0d0f 20       		.uleb128 0x20
 8916 0d10 94       		.byte	0x94
 8917 0d11 02       		.byte	0x2
 8918 0d12 40       		.byte	0x40
 8919 0d13 24       		.byte	0x24
 8920 0d14 40       		.byte	0x40
 8921 0d15 26       		.byte	0x26
 8922 0d16 76       		.byte	0x76
 8923 0d17 00       		.sleb128 0
 8924 0d18 1E       		.byte	0x1e
 8925 0d19 1C       		.byte	0x1c
 8926 0d1a F3       		.byte	0xf3
 8927 0d1b 01       		.uleb128 0x1
 8928 0d1c 51       		.byte	0x51
 8929 0d1d 23       		.byte	0x23
 8930 0d1e 1E       		.uleb128 0x1e
 8931 0d1f 94       		.byte	0x94
 8932 0d20 02       		.byte	0x2
 8933 0d21 40       		.byte	0x40
 8934 0d22 24       		.byte	0x24
 8935 0d23 40       		.byte	0x40
 8936 0d24 26       		.byte	0x26
 8937 0d25 44       		.byte	0x44
 8938 0d26 24       		.byte	0x24
 8939 0d27 1C       		.byte	0x1c
 8940 0d28 23       		.byte	0x23
ARM GAS  C:\Users\corne\AppData\Local\Temp\cc0fqrF9.s 			page 184


 8941 0d29 808001   		.uleb128 0x4000
 8942 0d2c 4F       		.byte	0x4f
 8943 0d2d 26       		.byte	0x26
 8944 0d2e 41       		.byte	0x41
 8945 0d2f 24       		.byte	0x24
 8946 0d30 41       		.byte	0x41
 8947 0d31 25       		.byte	0x25
 8948 0d32 22       		.byte	0x22
 8949 0d33 F3       		.byte	0xf3
 8950 0d34 01       		.uleb128 0x1
 8951 0d35 51       		.byte	0x51
 8952 0d36 23       		.byte	0x23
 8953 0d37 1E       		.uleb128 0x1e
 8954 0d38 94       		.byte	0x94
 8955 0d39 02       		.byte	0x2
 8956 0d3a 40       		.byte	0x40
 8957 0d3b 24       		.byte	0x24
 8958 0d3c 40       		.byte	0x40
 8959 0d3d 26       		.byte	0x26
 8960 0d3e 44       		.byte	0x44
 8961 0d3f 24       		.byte	0x24
 8962 0d40 1C       		.byte	0x1c
 8963 0d41 23       		.byte	0x23
 8964 0d42 808001   		.uleb128 0x4000
 8965 0d45 3F       		.byte	0x3f
 8966 0d46 26       		.byte	0x26
 8967 0d47 1E       		.byte	0x1e
 8968 0d48 9F       		.byte	0x9f
 8969 0d49 CC000000 		.4byte	.LVL123
 8970 0d4d D8000000 		.4byte	.LFE26
 8971 0d51 7202     		.2byte	0x272
 8972 0d53 F3       		.byte	0xf3
 8973 0d54 01       		.uleb128 0x1
 8974 0d55 51       		.byte	0x51
 8975 0d56 23       		.byte	0x23
 8976 0d57 24       		.uleb128 0x24
 8977 0d58 06       		.byte	0x6
 8978 0d59 08       		.byte	0x8
 8979 0d5a 96       		.byte	0x96
 8980 0d5b 39       		.byte	0x39
 8981 0d5c 24       		.byte	0x24
 8982 0d5d 1C       		.byte	0x1c
 8983 0d5e F3       		.byte	0xf3
 8984 0d5f 01       		.uleb128 0x1
 8985 0d60 51       		.byte	0x51
 8986 0d61 23       		.byte	0x23
 8987 0d62 1C       		.uleb128 0x1c
 8988 0d63 94       		.byte	0x94
 8989 0d64 01       		.byte	0x1
 8990 0d65 08       		.byte	0x8
 8991 0d66 FF       		.byte	0xff
 8992 0d67 1A       		.byte	0x1a
 8993 0d68 1E       		.byte	0x1e
 8994 0d69 F3       		.byte	0xf3
 8995 0d6a 01       		.uleb128 0x1
 8996 0d6b 51       		.byte	0x51
 8997 0d6c 23       		.byte	0x23
ARM GAS  C:\Users\corne\AppData\Local\Temp\cc0fqrF9.s 			page 185


 8998 0d6d 24       		.uleb128 0x24
 8999 0d6e 06       		.byte	0x6
 9000 0d6f 08       		.byte	0x8
 9001 0d70 96       		.byte	0x96
 9002 0d71 39       		.byte	0x39
 9003 0d72 24       		.byte	0x24
 9004 0d73 1C       		.byte	0x1c
 9005 0d74 F3       		.byte	0xf3
 9006 0d75 01       		.uleb128 0x1
 9007 0d76 51       		.byte	0x51
 9008 0d77 23       		.byte	0x23
 9009 0d78 1C       		.uleb128 0x1c
 9010 0d79 94       		.byte	0x94
 9011 0d7a 01       		.byte	0x1
 9012 0d7b 08       		.byte	0x8
 9013 0d7c FF       		.byte	0xff
 9014 0d7d 1A       		.byte	0x1a
 9015 0d7e 1E       		.byte	0x1e
 9016 0d7f 4F       		.byte	0x4f
 9017 0d80 26       		.byte	0x26
 9018 0d81 45       		.byte	0x45
 9019 0d82 24       		.byte	0x24
 9020 0d83 45       		.byte	0x45
 9021 0d84 25       		.byte	0x25
 9022 0d85 22       		.byte	0x22
 9023 0d86 3B       		.byte	0x3b
 9024 0d87 26       		.byte	0x26
 9025 0d88 23       		.byte	0x23
 9026 0d89 808002   		.uleb128 0x8000
 9027 0d8c F3       		.byte	0xf3
 9028 0d8d 01       		.uleb128 0x1
 9029 0d8e 51       		.byte	0x51
 9030 0d8f 23       		.byte	0x23
 9031 0d90 24       		.uleb128 0x24
 9032 0d91 06       		.byte	0x6
 9033 0d92 08       		.byte	0x8
 9034 0d93 96       		.byte	0x96
 9035 0d94 39       		.byte	0x39
 9036 0d95 24       		.byte	0x24
 9037 0d96 1C       		.byte	0x1c
 9038 0d97 F3       		.byte	0xf3
 9039 0d98 01       		.uleb128 0x1
 9040 0d99 51       		.byte	0x51
 9041 0d9a 23       		.byte	0x23
 9042 0d9b 22       		.uleb128 0x22
 9043 0d9c 94       		.byte	0x94
 9044 0d9d 01       		.byte	0x1
 9045 0d9e 48       		.byte	0x48
 9046 0d9f 24       		.byte	0x24
 9047 0da0 48       		.byte	0x48
 9048 0da1 26       		.byte	0x26
 9049 0da2 1E       		.byte	0x1e
 9050 0da3 F3       		.byte	0xf3
 9051 0da4 01       		.uleb128 0x1
 9052 0da5 51       		.byte	0x51
 9053 0da6 23       		.byte	0x23
 9054 0da7 24       		.uleb128 0x24
ARM GAS  C:\Users\corne\AppData\Local\Temp\cc0fqrF9.s 			page 186


 9055 0da8 06       		.byte	0x6
 9056 0da9 08       		.byte	0x8
 9057 0daa 96       		.byte	0x96
 9058 0dab 39       		.byte	0x39
 9059 0dac 24       		.byte	0x24
 9060 0dad 1C       		.byte	0x1c
 9061 0dae F3       		.byte	0xf3
 9062 0daf 01       		.uleb128 0x1
 9063 0db0 51       		.byte	0x51
 9064 0db1 23       		.byte	0x23
 9065 0db2 22       		.uleb128 0x22
 9066 0db3 94       		.byte	0x94
 9067 0db4 01       		.byte	0x1
 9068 0db5 48       		.byte	0x48
 9069 0db6 24       		.byte	0x24
 9070 0db7 48       		.byte	0x48
 9071 0db8 26       		.byte	0x26
 9072 0db9 1E       		.byte	0x1e
 9073 0dba 4F       		.byte	0x4f
 9074 0dbb 26       		.byte	0x26
 9075 0dbc 46       		.byte	0x46
 9076 0dbd 24       		.byte	0x24
 9077 0dbe 46       		.byte	0x46
 9078 0dbf 25       		.byte	0x25
 9079 0dc0 22       		.byte	0x22
 9080 0dc1 3A       		.byte	0x3a
 9081 0dc2 26       		.byte	0x26
 9082 0dc3 1E       		.byte	0x1e
 9083 0dc4 F3       		.byte	0xf3
 9084 0dc5 01       		.uleb128 0x1
 9085 0dc6 51       		.byte	0x51
 9086 0dc7 23       		.byte	0x23
 9087 0dc8 24       		.uleb128 0x24
 9088 0dc9 06       		.byte	0x6
 9089 0dca 08       		.byte	0x8
 9090 0dcb 96       		.byte	0x96
 9091 0dcc 39       		.byte	0x39
 9092 0dcd 24       		.byte	0x24
 9093 0dce 1C       		.byte	0x1c
 9094 0dcf F3       		.byte	0xf3
 9095 0dd0 01       		.uleb128 0x1
 9096 0dd1 51       		.byte	0x51
 9097 0dd2 23       		.byte	0x23
 9098 0dd3 1C       		.uleb128 0x1c
 9099 0dd4 94       		.byte	0x94
 9100 0dd5 01       		.byte	0x1
 9101 0dd6 08       		.byte	0x8
 9102 0dd7 FF       		.byte	0xff
 9103 0dd8 1A       		.byte	0x1a
 9104 0dd9 1E       		.byte	0x1e
 9105 0dda F3       		.byte	0xf3
 9106 0ddb 01       		.uleb128 0x1
 9107 0ddc 51       		.byte	0x51
 9108 0ddd 23       		.byte	0x23
 9109 0dde 24       		.uleb128 0x24
 9110 0ddf 06       		.byte	0x6
 9111 0de0 08       		.byte	0x8
ARM GAS  C:\Users\corne\AppData\Local\Temp\cc0fqrF9.s 			page 187


 9112 0de1 96       		.byte	0x96
 9113 0de2 39       		.byte	0x39
 9114 0de3 24       		.byte	0x24
 9115 0de4 1C       		.byte	0x1c
 9116 0de5 F3       		.byte	0xf3
 9117 0de6 01       		.uleb128 0x1
 9118 0de7 51       		.byte	0x51
 9119 0de8 23       		.byte	0x23
 9120 0de9 1C       		.uleb128 0x1c
 9121 0dea 94       		.byte	0x94
 9122 0deb 01       		.byte	0x1
 9123 0dec 08       		.byte	0x8
 9124 0ded FF       		.byte	0xff
 9125 0dee 1A       		.byte	0x1a
 9126 0def 1E       		.byte	0x1e
 9127 0df0 4F       		.byte	0x4f
 9128 0df1 26       		.byte	0x26
 9129 0df2 45       		.byte	0x45
 9130 0df3 24       		.byte	0x24
 9131 0df4 45       		.byte	0x45
 9132 0df5 25       		.byte	0x25
 9133 0df6 22       		.byte	0x22
 9134 0df7 3B       		.byte	0x3b
 9135 0df8 26       		.byte	0x26
 9136 0df9 23       		.byte	0x23
 9137 0dfa 808002   		.uleb128 0x8000
 9138 0dfd F3       		.byte	0xf3
 9139 0dfe 01       		.uleb128 0x1
 9140 0dff 51       		.byte	0x51
 9141 0e00 23       		.byte	0x23
 9142 0e01 24       		.uleb128 0x24
 9143 0e02 06       		.byte	0x6
 9144 0e03 08       		.byte	0x8
 9145 0e04 96       		.byte	0x96
 9146 0e05 39       		.byte	0x39
 9147 0e06 24       		.byte	0x24
 9148 0e07 1C       		.byte	0x1c
 9149 0e08 F3       		.byte	0xf3
 9150 0e09 01       		.uleb128 0x1
 9151 0e0a 51       		.byte	0x51
 9152 0e0b 23       		.byte	0x23
 9153 0e0c 22       		.uleb128 0x22
 9154 0e0d 94       		.byte	0x94
 9155 0e0e 01       		.byte	0x1
 9156 0e0f 48       		.byte	0x48
 9157 0e10 24       		.byte	0x24
 9158 0e11 48       		.byte	0x48
 9159 0e12 26       		.byte	0x26
 9160 0e13 1E       		.byte	0x1e
 9161 0e14 F3       		.byte	0xf3
 9162 0e15 01       		.uleb128 0x1
 9163 0e16 51       		.byte	0x51
 9164 0e17 23       		.byte	0x23
 9165 0e18 24       		.uleb128 0x24
 9166 0e19 06       		.byte	0x6
 9167 0e1a 08       		.byte	0x8
 9168 0e1b 96       		.byte	0x96
ARM GAS  C:\Users\corne\AppData\Local\Temp\cc0fqrF9.s 			page 188


 9169 0e1c 39       		.byte	0x39
 9170 0e1d 24       		.byte	0x24
 9171 0e1e 1C       		.byte	0x1c
 9172 0e1f F3       		.byte	0xf3
 9173 0e20 01       		.uleb128 0x1
 9174 0e21 51       		.byte	0x51
 9175 0e22 23       		.byte	0x23
 9176 0e23 22       		.uleb128 0x22
 9177 0e24 94       		.byte	0x94
 9178 0e25 01       		.byte	0x1
 9179 0e26 48       		.byte	0x48
 9180 0e27 24       		.byte	0x24
 9181 0e28 48       		.byte	0x48
 9182 0e29 26       		.byte	0x26
 9183 0e2a 1E       		.byte	0x1e
 9184 0e2b 4F       		.byte	0x4f
 9185 0e2c 26       		.byte	0x26
 9186 0e2d 46       		.byte	0x46
 9187 0e2e 24       		.byte	0x24
 9188 0e2f 46       		.byte	0x46
 9189 0e30 25       		.byte	0x25
 9190 0e31 22       		.byte	0x22
 9191 0e32 3A       		.byte	0x3a
 9192 0e33 26       		.byte	0x26
 9193 0e34 1E       		.byte	0x1e
 9194 0e35 4F       		.byte	0x4f
 9195 0e36 26       		.byte	0x26
 9196 0e37 46       		.byte	0x46
 9197 0e38 24       		.byte	0x24
 9198 0e39 46       		.byte	0x46
 9199 0e3a 25       		.byte	0x25
 9200 0e3b 22       		.byte	0x22
 9201 0e3c 3A       		.byte	0x3a
 9202 0e3d 26       		.byte	0x26
 9203 0e3e 7C       		.byte	0x7c
 9204 0e3f 00       		.sleb128 0
 9205 0e40 22       		.byte	0x22
 9206 0e41 F3       		.byte	0xf3
 9207 0e42 01       		.uleb128 0x1
 9208 0e43 51       		.byte	0x51
 9209 0e44 23       		.byte	0x23
 9210 0e45 1A       		.uleb128 0x1a
 9211 0e46 94       		.byte	0x94
 9212 0e47 02       		.byte	0x2
 9213 0e48 40       		.byte	0x40
 9214 0e49 24       		.byte	0x24
 9215 0e4a 40       		.byte	0x40
 9216 0e4b 26       		.byte	0x26
 9217 0e4c 1E       		.byte	0x1e
 9218 0e4d F3       		.byte	0xf3
 9219 0e4e 01       		.uleb128 0x1
 9220 0e4f 51       		.byte	0x51
 9221 0e50 23       		.byte	0x23
 9222 0e51 24       		.uleb128 0x24
 9223 0e52 06       		.byte	0x6
 9224 0e53 08       		.byte	0x8
 9225 0e54 96       		.byte	0x96
ARM GAS  C:\Users\corne\AppData\Local\Temp\cc0fqrF9.s 			page 189


 9226 0e55 39       		.byte	0x39
 9227 0e56 24       		.byte	0x24
 9228 0e57 1C       		.byte	0x1c
 9229 0e58 F3       		.byte	0xf3
 9230 0e59 01       		.uleb128 0x1
 9231 0e5a 51       		.byte	0x51
 9232 0e5b 23       		.byte	0x23
 9233 0e5c 1C       		.uleb128 0x1c
 9234 0e5d 94       		.byte	0x94
 9235 0e5e 01       		.byte	0x1
 9236 0e5f 08       		.byte	0x8
 9237 0e60 FF       		.byte	0xff
 9238 0e61 1A       		.byte	0x1a
 9239 0e62 1E       		.byte	0x1e
 9240 0e63 F3       		.byte	0xf3
 9241 0e64 01       		.uleb128 0x1
 9242 0e65 51       		.byte	0x51
 9243 0e66 23       		.byte	0x23
 9244 0e67 24       		.uleb128 0x24
 9245 0e68 06       		.byte	0x6
 9246 0e69 08       		.byte	0x8
 9247 0e6a 96       		.byte	0x96
 9248 0e6b 39       		.byte	0x39
 9249 0e6c 24       		.byte	0x24
 9250 0e6d 1C       		.byte	0x1c
 9251 0e6e F3       		.byte	0xf3
 9252 0e6f 01       		.uleb128 0x1
 9253 0e70 51       		.byte	0x51
 9254 0e71 23       		.byte	0x23
 9255 0e72 1C       		.uleb128 0x1c
 9256 0e73 94       		.byte	0x94
 9257 0e74 01       		.byte	0x1
 9258 0e75 08       		.byte	0x8
 9259 0e76 FF       		.byte	0xff
 9260 0e77 1A       		.byte	0x1a
 9261 0e78 1E       		.byte	0x1e
 9262 0e79 4F       		.byte	0x4f
 9263 0e7a 26       		.byte	0x26
 9264 0e7b 45       		.byte	0x45
 9265 0e7c 24       		.byte	0x24
 9266 0e7d 45       		.byte	0x45
 9267 0e7e 25       		.byte	0x25
 9268 0e7f 22       		.byte	0x22
 9269 0e80 3B       		.byte	0x3b
 9270 0e81 26       		.byte	0x26
 9271 0e82 23       		.byte	0x23
 9272 0e83 808002   		.uleb128 0x8000
 9273 0e86 F3       		.byte	0xf3
 9274 0e87 01       		.uleb128 0x1
 9275 0e88 51       		.byte	0x51
 9276 0e89 23       		.byte	0x23
 9277 0e8a 24       		.uleb128 0x24
 9278 0e8b 06       		.byte	0x6
 9279 0e8c 08       		.byte	0x8
 9280 0e8d 96       		.byte	0x96
 9281 0e8e 39       		.byte	0x39
 9282 0e8f 24       		.byte	0x24
ARM GAS  C:\Users\corne\AppData\Local\Temp\cc0fqrF9.s 			page 190


 9283 0e90 1C       		.byte	0x1c
 9284 0e91 F3       		.byte	0xf3
 9285 0e92 01       		.uleb128 0x1
 9286 0e93 51       		.byte	0x51
 9287 0e94 23       		.byte	0x23
 9288 0e95 22       		.uleb128 0x22
 9289 0e96 94       		.byte	0x94
 9290 0e97 01       		.byte	0x1
 9291 0e98 48       		.byte	0x48
 9292 0e99 24       		.byte	0x24
 9293 0e9a 48       		.byte	0x48
 9294 0e9b 26       		.byte	0x26
 9295 0e9c 1E       		.byte	0x1e
 9296 0e9d F3       		.byte	0xf3
 9297 0e9e 01       		.uleb128 0x1
 9298 0e9f 51       		.byte	0x51
 9299 0ea0 23       		.byte	0x23
 9300 0ea1 24       		.uleb128 0x24
 9301 0ea2 06       		.byte	0x6
 9302 0ea3 08       		.byte	0x8
 9303 0ea4 96       		.byte	0x96
 9304 0ea5 39       		.byte	0x39
 9305 0ea6 24       		.byte	0x24
 9306 0ea7 1C       		.byte	0x1c
 9307 0ea8 F3       		.byte	0xf3
 9308 0ea9 01       		.uleb128 0x1
 9309 0eaa 51       		.byte	0x51
 9310 0eab 23       		.byte	0x23
 9311 0eac 22       		.uleb128 0x22
 9312 0ead 94       		.byte	0x94
 9313 0eae 01       		.byte	0x1
 9314 0eaf 48       		.byte	0x48
 9315 0eb0 24       		.byte	0x24
 9316 0eb1 48       		.byte	0x48
 9317 0eb2 26       		.byte	0x26
 9318 0eb3 1E       		.byte	0x1e
 9319 0eb4 4F       		.byte	0x4f
 9320 0eb5 26       		.byte	0x26
 9321 0eb6 46       		.byte	0x46
 9322 0eb7 24       		.byte	0x24
 9323 0eb8 46       		.byte	0x46
 9324 0eb9 25       		.byte	0x25
 9325 0eba 22       		.byte	0x22
 9326 0ebb 3A       		.byte	0x3a
 9327 0ebc 26       		.byte	0x26
 9328 0ebd 1E       		.byte	0x1e
 9329 0ebe F3       		.byte	0xf3
 9330 0ebf 01       		.uleb128 0x1
 9331 0ec0 51       		.byte	0x51
 9332 0ec1 23       		.byte	0x23
 9333 0ec2 24       		.uleb128 0x24
 9334 0ec3 06       		.byte	0x6
 9335 0ec4 08       		.byte	0x8
 9336 0ec5 96       		.byte	0x96
 9337 0ec6 39       		.byte	0x39
 9338 0ec7 24       		.byte	0x24
 9339 0ec8 1C       		.byte	0x1c
ARM GAS  C:\Users\corne\AppData\Local\Temp\cc0fqrF9.s 			page 191


 9340 0ec9 F3       		.byte	0xf3
 9341 0eca 01       		.uleb128 0x1
 9342 0ecb 51       		.byte	0x51
 9343 0ecc 23       		.byte	0x23
 9344 0ecd 1C       		.uleb128 0x1c
 9345 0ece 94       		.byte	0x94
 9346 0ecf 01       		.byte	0x1
 9347 0ed0 08       		.byte	0x8
 9348 0ed1 FF       		.byte	0xff
 9349 0ed2 1A       		.byte	0x1a
 9350 0ed3 1E       		.byte	0x1e
 9351 0ed4 F3       		.byte	0xf3
 9352 0ed5 01       		.uleb128 0x1
 9353 0ed6 51       		.byte	0x51
 9354 0ed7 23       		.byte	0x23
 9355 0ed8 24       		.uleb128 0x24
 9356 0ed9 06       		.byte	0x6
 9357 0eda 08       		.byte	0x8
 9358 0edb 96       		.byte	0x96
 9359 0edc 39       		.byte	0x39
 9360 0edd 24       		.byte	0x24
 9361 0ede 1C       		.byte	0x1c
 9362 0edf F3       		.byte	0xf3
 9363 0ee0 01       		.uleb128 0x1
 9364 0ee1 51       		.byte	0x51
 9365 0ee2 23       		.byte	0x23
 9366 0ee3 1C       		.uleb128 0x1c
 9367 0ee4 94       		.byte	0x94
 9368 0ee5 01       		.byte	0x1
 9369 0ee6 08       		.byte	0x8
 9370 0ee7 FF       		.byte	0xff
 9371 0ee8 1A       		.byte	0x1a
 9372 0ee9 1E       		.byte	0x1e
 9373 0eea 4F       		.byte	0x4f
 9374 0eeb 26       		.byte	0x26
 9375 0eec 45       		.byte	0x45
 9376 0eed 24       		.byte	0x24
 9377 0eee 45       		.byte	0x45
 9378 0eef 25       		.byte	0x25
 9379 0ef0 22       		.byte	0x22
 9380 0ef1 3B       		.byte	0x3b
 9381 0ef2 26       		.byte	0x26
 9382 0ef3 23       		.byte	0x23
 9383 0ef4 808002   		.uleb128 0x8000
 9384 0ef7 F3       		.byte	0xf3
 9385 0ef8 01       		.uleb128 0x1
 9386 0ef9 51       		.byte	0x51
 9387 0efa 23       		.byte	0x23
 9388 0efb 24       		.uleb128 0x24
 9389 0efc 06       		.byte	0x6
 9390 0efd 08       		.byte	0x8
 9391 0efe 96       		.byte	0x96
 9392 0eff 39       		.byte	0x39
 9393 0f00 24       		.byte	0x24
 9394 0f01 1C       		.byte	0x1c
 9395 0f02 F3       		.byte	0xf3
 9396 0f03 01       		.uleb128 0x1
ARM GAS  C:\Users\corne\AppData\Local\Temp\cc0fqrF9.s 			page 192


 9397 0f04 51       		.byte	0x51
 9398 0f05 23       		.byte	0x23
 9399 0f06 22       		.uleb128 0x22
 9400 0f07 94       		.byte	0x94
 9401 0f08 01       		.byte	0x1
 9402 0f09 48       		.byte	0x48
 9403 0f0a 24       		.byte	0x24
 9404 0f0b 48       		.byte	0x48
 9405 0f0c 26       		.byte	0x26
 9406 0f0d 1E       		.byte	0x1e
 9407 0f0e F3       		.byte	0xf3
 9408 0f0f 01       		.uleb128 0x1
 9409 0f10 51       		.byte	0x51
 9410 0f11 23       		.byte	0x23
 9411 0f12 24       		.uleb128 0x24
 9412 0f13 06       		.byte	0x6
 9413 0f14 08       		.byte	0x8
 9414 0f15 96       		.byte	0x96
 9415 0f16 39       		.byte	0x39
 9416 0f17 24       		.byte	0x24
 9417 0f18 1C       		.byte	0x1c
 9418 0f19 F3       		.byte	0xf3
 9419 0f1a 01       		.uleb128 0x1
 9420 0f1b 51       		.byte	0x51
 9421 0f1c 23       		.byte	0x23
 9422 0f1d 22       		.uleb128 0x22
 9423 0f1e 94       		.byte	0x94
 9424 0f1f 01       		.byte	0x1
 9425 0f20 48       		.byte	0x48
 9426 0f21 24       		.byte	0x24
 9427 0f22 48       		.byte	0x48
 9428 0f23 26       		.byte	0x26
 9429 0f24 1E       		.byte	0x1e
 9430 0f25 4F       		.byte	0x4f
 9431 0f26 26       		.byte	0x26
 9432 0f27 46       		.byte	0x46
 9433 0f28 24       		.byte	0x24
 9434 0f29 46       		.byte	0x46
 9435 0f2a 25       		.byte	0x25
 9436 0f2b 22       		.byte	0x22
 9437 0f2c 3A       		.byte	0x3a
 9438 0f2d 26       		.byte	0x26
 9439 0f2e 1E       		.byte	0x1e
 9440 0f2f 4F       		.byte	0x4f
 9441 0f30 26       		.byte	0x26
 9442 0f31 46       		.byte	0x46
 9443 0f32 24       		.byte	0x24
 9444 0f33 46       		.byte	0x46
 9445 0f34 25       		.byte	0x25
 9446 0f35 22       		.byte	0x22
 9447 0f36 3A       		.byte	0x3a
 9448 0f37 26       		.byte	0x26
 9449 0f38 7C       		.byte	0x7c
 9450 0f39 00       		.sleb128 0
 9451 0f3a 22       		.byte	0x22
 9452 0f3b F3       		.byte	0xf3
 9453 0f3c 01       		.uleb128 0x1
ARM GAS  C:\Users\corne\AppData\Local\Temp\cc0fqrF9.s 			page 193


 9454 0f3d 51       		.byte	0x51
 9455 0f3e 23       		.byte	0x23
 9456 0f3f 1A       		.uleb128 0x1a
 9457 0f40 94       		.byte	0x94
 9458 0f41 02       		.byte	0x2
 9459 0f42 40       		.byte	0x40
 9460 0f43 24       		.byte	0x24
 9461 0f44 40       		.byte	0x40
 9462 0f45 26       		.byte	0x26
 9463 0f46 1E       		.byte	0x1e
 9464 0f47 23       		.byte	0x23
 9465 0f48 8040     		.uleb128 0x2000
 9466 0f4a 4F       		.byte	0x4f
 9467 0f4b 26       		.byte	0x26
 9468 0f4c 42       		.byte	0x42
 9469 0f4d 24       		.byte	0x24
 9470 0f4e 42       		.byte	0x42
 9471 0f4f 25       		.byte	0x25
 9472 0f50 22       		.byte	0x22
 9473 0f51 23       		.byte	0x23
 9474 0f52 8040     		.uleb128 0x2000
 9475 0f54 3E       		.byte	0x3e
 9476 0f55 26       		.byte	0x26
 9477 0f56 F3       		.byte	0xf3
 9478 0f57 01       		.uleb128 0x1
 9479 0f58 50       		.byte	0x50
 9480 0f59 23       		.byte	0x23
 9481 0f5a 08       		.uleb128 0x8
 9482 0f5b 06       		.byte	0x6
 9483 0f5c 3E       		.byte	0x3e
 9484 0f5d 24       		.byte	0x24
 9485 0f5e F3       		.byte	0xf3
 9486 0f5f 01       		.uleb128 0x1
 9487 0f60 51       		.byte	0x51
 9488 0f61 23       		.byte	0x23
 9489 0f62 24       		.uleb128 0x24
 9490 0f63 06       		.byte	0x6
 9491 0f64 08       		.byte	0x8
 9492 0f65 96       		.byte	0x96
 9493 0f66 39       		.byte	0x39
 9494 0f67 24       		.byte	0x24
 9495 0f68 1C       		.byte	0x1c
 9496 0f69 F3       		.byte	0xf3
 9497 0f6a 01       		.uleb128 0x1
 9498 0f6b 51       		.byte	0x51
 9499 0f6c 23       		.byte	0x23
 9500 0f6d 20       		.uleb128 0x20
 9501 0f6e 94       		.byte	0x94
 9502 0f6f 02       		.byte	0x2
 9503 0f70 40       		.byte	0x40
 9504 0f71 24       		.byte	0x24
 9505 0f72 40       		.byte	0x40
 9506 0f73 26       		.byte	0x26
 9507 0f74 1E       		.byte	0x1e
 9508 0f75 1C       		.byte	0x1c
 9509 0f76 F3       		.byte	0xf3
 9510 0f77 01       		.uleb128 0x1
ARM GAS  C:\Users\corne\AppData\Local\Temp\cc0fqrF9.s 			page 194


 9511 0f78 50       		.byte	0x50
 9512 0f79 23       		.byte	0x23
 9513 0f7a 08       		.uleb128 0x8
 9514 0f7b 06       		.byte	0x6
 9515 0f7c 3E       		.byte	0x3e
 9516 0f7d 24       		.byte	0x24
 9517 0f7e F3       		.byte	0xf3
 9518 0f7f 01       		.uleb128 0x1
 9519 0f80 51       		.byte	0x51
 9520 0f81 23       		.byte	0x23
 9521 0f82 24       		.uleb128 0x24
 9522 0f83 06       		.byte	0x6
 9523 0f84 08       		.byte	0x8
 9524 0f85 96       		.byte	0x96
 9525 0f86 39       		.byte	0x39
 9526 0f87 24       		.byte	0x24
 9527 0f88 1C       		.byte	0x1c
 9528 0f89 F3       		.byte	0xf3
 9529 0f8a 01       		.uleb128 0x1
 9530 0f8b 51       		.byte	0x51
 9531 0f8c 23       		.byte	0x23
 9532 0f8d 20       		.uleb128 0x20
 9533 0f8e 94       		.byte	0x94
 9534 0f8f 02       		.byte	0x2
 9535 0f90 40       		.byte	0x40
 9536 0f91 24       		.byte	0x24
 9537 0f92 40       		.byte	0x40
 9538 0f93 26       		.byte	0x26
 9539 0f94 1E       		.byte	0x1e
 9540 0f95 1C       		.byte	0x1c
 9541 0f96 F3       		.byte	0xf3
 9542 0f97 01       		.uleb128 0x1
 9543 0f98 51       		.byte	0x51
 9544 0f99 23       		.byte	0x23
 9545 0f9a 1E       		.uleb128 0x1e
 9546 0f9b 94       		.byte	0x94
 9547 0f9c 02       		.byte	0x2
 9548 0f9d 40       		.byte	0x40
 9549 0f9e 24       		.byte	0x24
 9550 0f9f 40       		.byte	0x40
 9551 0fa0 26       		.byte	0x26
 9552 0fa1 44       		.byte	0x44
 9553 0fa2 24       		.byte	0x24
 9554 0fa3 1C       		.byte	0x1c
 9555 0fa4 23       		.byte	0x23
 9556 0fa5 808001   		.uleb128 0x4000
 9557 0fa8 4F       		.byte	0x4f
 9558 0fa9 26       		.byte	0x26
 9559 0faa 41       		.byte	0x41
 9560 0fab 24       		.byte	0x24
 9561 0fac 41       		.byte	0x41
 9562 0fad 25       		.byte	0x25
 9563 0fae 22       		.byte	0x22
 9564 0faf F3       		.byte	0xf3
 9565 0fb0 01       		.uleb128 0x1
 9566 0fb1 51       		.byte	0x51
 9567 0fb2 23       		.byte	0x23
ARM GAS  C:\Users\corne\AppData\Local\Temp\cc0fqrF9.s 			page 195


 9568 0fb3 1E       		.uleb128 0x1e
 9569 0fb4 94       		.byte	0x94
 9570 0fb5 02       		.byte	0x2
 9571 0fb6 40       		.byte	0x40
 9572 0fb7 24       		.byte	0x24
 9573 0fb8 40       		.byte	0x40
 9574 0fb9 26       		.byte	0x26
 9575 0fba 44       		.byte	0x44
 9576 0fbb 24       		.byte	0x24
 9577 0fbc 1C       		.byte	0x1c
 9578 0fbd 23       		.byte	0x23
 9579 0fbe 808001   		.uleb128 0x4000
 9580 0fc1 3F       		.byte	0x3f
 9581 0fc2 26       		.byte	0x26
 9582 0fc3 1E       		.byte	0x1e
 9583 0fc4 9F       		.byte	0x9f
 9584 0fc5 00000000 		.4byte	0
 9585 0fc9 00000000 		.4byte	0
 9586              	.LLST22:
 9587 0fcd 1C000000 		.4byte	.LVL95
 9588 0fd1 20000000 		.4byte	.LVL97
 9589 0fd5 0100     		.2byte	0x1
 9590 0fd7 50       		.byte	0x50
 9591 0fd8 20000000 		.4byte	.LVL97
 9592 0fdc 6C000000 		.4byte	.LVL104
 9593 0fe0 0C00     		.2byte	0xc
 9594 0fe2 71       		.byte	0x71
 9595 0fe3 20       		.sleb128 32
 9596 0fe4 94       		.byte	0x94
 9597 0fe5 02       		.byte	0x2
 9598 0fe6 40       		.byte	0x40
 9599 0fe7 24       		.byte	0x24
 9600 0fe8 40       		.byte	0x40
 9601 0fe9 26       		.byte	0x26
 9602 0fea 76       		.byte	0x76
 9603 0feb 00       		.sleb128 0
 9604 0fec 1E       		.byte	0x1e
 9605 0fed 9F       		.byte	0x9f
 9606 0fee 6C000000 		.4byte	.LVL104
 9607 0ff2 72000000 		.4byte	.LVL105
 9608 0ff6 0100     		.2byte	0x1
 9609 0ff8 53       		.byte	0x53
 9610 0ff9 72000000 		.4byte	.LVL105
 9611 0ffd 74000000 		.4byte	.LVL106
 9612 1001 8F00     		.2byte	0x8f
 9613 1003 71       		.byte	0x71
 9614 1004 1C       		.sleb128 28
 9615 1005 94       		.byte	0x94
 9616 1006 01       		.byte	0x1
 9617 1007 08       		.byte	0x8
 9618 1008 FF       		.byte	0xff
 9619 1009 1A       		.byte	0x1a
 9620 100a 76       		.byte	0x76
 9621 100b 00       		.sleb128 0
 9622 100c 1E       		.byte	0x1e
 9623 100d 71       		.byte	0x71
 9624 100e 1C       		.sleb128 28
ARM GAS  C:\Users\corne\AppData\Local\Temp\cc0fqrF9.s 			page 196


 9625 100f 94       		.byte	0x94
 9626 1010 01       		.byte	0x1
 9627 1011 08       		.byte	0x8
 9628 1012 FF       		.byte	0xff
 9629 1013 1A       		.byte	0x1a
 9630 1014 76       		.byte	0x76
 9631 1015 00       		.sleb128 0
 9632 1016 1E       		.byte	0x1e
 9633 1017 4F       		.byte	0x4f
 9634 1018 26       		.byte	0x26
 9635 1019 45       		.byte	0x45
 9636 101a 24       		.byte	0x24
 9637 101b 45       		.byte	0x45
 9638 101c 25       		.byte	0x25
 9639 101d 22       		.byte	0x22
 9640 101e 3B       		.byte	0x3b
 9641 101f 26       		.byte	0x26
 9642 1020 23       		.byte	0x23
 9643 1021 808002   		.uleb128 0x8000
 9644 1024 71       		.byte	0x71
 9645 1025 22       		.sleb128 34
 9646 1026 94       		.byte	0x94
 9647 1027 01       		.byte	0x1
 9648 1028 48       		.byte	0x48
 9649 1029 24       		.byte	0x24
 9650 102a 48       		.byte	0x48
 9651 102b 26       		.byte	0x26
 9652 102c 76       		.byte	0x76
 9653 102d 00       		.sleb128 0
 9654 102e 1E       		.byte	0x1e
 9655 102f 71       		.byte	0x71
 9656 1030 22       		.sleb128 34
 9657 1031 94       		.byte	0x94
 9658 1032 01       		.byte	0x1
 9659 1033 48       		.byte	0x48
 9660 1034 24       		.byte	0x24
 9661 1035 48       		.byte	0x48
 9662 1036 26       		.byte	0x26
 9663 1037 76       		.byte	0x76
 9664 1038 00       		.sleb128 0
 9665 1039 1E       		.byte	0x1e
 9666 103a 4F       		.byte	0x4f
 9667 103b 26       		.byte	0x26
 9668 103c 46       		.byte	0x46
 9669 103d 24       		.byte	0x24
 9670 103e 46       		.byte	0x46
 9671 103f 25       		.byte	0x25
 9672 1040 22       		.byte	0x22
 9673 1041 3A       		.byte	0x3a
 9674 1042 26       		.byte	0x26
 9675 1043 1E       		.byte	0x1e
 9676 1044 71       		.byte	0x71
 9677 1045 1C       		.sleb128 28
 9678 1046 94       		.byte	0x94
 9679 1047 01       		.byte	0x1
 9680 1048 08       		.byte	0x8
 9681 1049 FF       		.byte	0xff
ARM GAS  C:\Users\corne\AppData\Local\Temp\cc0fqrF9.s 			page 197


 9682 104a 1A       		.byte	0x1a
 9683 104b 76       		.byte	0x76
 9684 104c 00       		.sleb128 0
 9685 104d 1E       		.byte	0x1e
 9686 104e 71       		.byte	0x71
 9687 104f 1C       		.sleb128 28
 9688 1050 94       		.byte	0x94
 9689 1051 01       		.byte	0x1
 9690 1052 08       		.byte	0x8
 9691 1053 FF       		.byte	0xff
 9692 1054 1A       		.byte	0x1a
 9693 1055 76       		.byte	0x76
 9694 1056 00       		.sleb128 0
 9695 1057 1E       		.byte	0x1e
 9696 1058 4F       		.byte	0x4f
 9697 1059 26       		.byte	0x26
 9698 105a 45       		.byte	0x45
 9699 105b 24       		.byte	0x24
 9700 105c 45       		.byte	0x45
 9701 105d 25       		.byte	0x25
 9702 105e 22       		.byte	0x22
 9703 105f 3B       		.byte	0x3b
 9704 1060 26       		.byte	0x26
 9705 1061 23       		.byte	0x23
 9706 1062 808002   		.uleb128 0x8000
 9707 1065 71       		.byte	0x71
 9708 1066 22       		.sleb128 34
 9709 1067 94       		.byte	0x94
 9710 1068 01       		.byte	0x1
 9711 1069 48       		.byte	0x48
 9712 106a 24       		.byte	0x24
 9713 106b 48       		.byte	0x48
 9714 106c 26       		.byte	0x26
 9715 106d 76       		.byte	0x76
 9716 106e 00       		.sleb128 0
 9717 106f 1E       		.byte	0x1e
 9718 1070 71       		.byte	0x71
 9719 1071 22       		.sleb128 34
 9720 1072 94       		.byte	0x94
 9721 1073 01       		.byte	0x1
 9722 1074 48       		.byte	0x48
 9723 1075 24       		.byte	0x24
 9724 1076 48       		.byte	0x48
 9725 1077 26       		.byte	0x26
 9726 1078 76       		.byte	0x76
 9727 1079 00       		.sleb128 0
 9728 107a 1E       		.byte	0x1e
 9729 107b 4F       		.byte	0x4f
 9730 107c 26       		.byte	0x26
 9731 107d 46       		.byte	0x46
 9732 107e 24       		.byte	0x24
 9733 107f 46       		.byte	0x46
 9734 1080 25       		.byte	0x25
 9735 1081 22       		.byte	0x22
 9736 1082 3A       		.byte	0x3a
 9737 1083 26       		.byte	0x26
 9738 1084 1E       		.byte	0x1e
ARM GAS  C:\Users\corne\AppData\Local\Temp\cc0fqrF9.s 			page 198


 9739 1085 4F       		.byte	0x4f
 9740 1086 26       		.byte	0x26
 9741 1087 46       		.byte	0x46
 9742 1088 24       		.byte	0x24
 9743 1089 46       		.byte	0x46
 9744 108a 25       		.byte	0x25
 9745 108b 22       		.byte	0x22
 9746 108c 3A       		.byte	0x3a
 9747 108d 26       		.byte	0x26
 9748 108e 7C       		.byte	0x7c
 9749 108f 00       		.sleb128 0
 9750 1090 22       		.byte	0x22
 9751 1091 9F       		.byte	0x9f
 9752 1092 74000000 		.4byte	.LVL106
 9753 1096 76000000 		.4byte	.LVL107
 9754 109a 9100     		.2byte	0x91
 9755 109c 71       		.byte	0x71
 9756 109d 1C       		.sleb128 28
 9757 109e 94       		.byte	0x94
 9758 109f 01       		.byte	0x1
 9759 10a0 08       		.byte	0x8
 9760 10a1 FF       		.byte	0xff
 9761 10a2 1A       		.byte	0x1a
 9762 10a3 76       		.byte	0x76
 9763 10a4 00       		.sleb128 0
 9764 10a5 1E       		.byte	0x1e
 9765 10a6 71       		.byte	0x71
 9766 10a7 1C       		.sleb128 28
 9767 10a8 94       		.byte	0x94
 9768 10a9 01       		.byte	0x1
 9769 10aa 08       		.byte	0x8
 9770 10ab FF       		.byte	0xff
 9771 10ac 1A       		.byte	0x1a
 9772 10ad 76       		.byte	0x76
 9773 10ae 00       		.sleb128 0
 9774 10af 1E       		.byte	0x1e
 9775 10b0 4F       		.byte	0x4f
 9776 10b1 26       		.byte	0x26
 9777 10b2 45       		.byte	0x45
 9778 10b3 24       		.byte	0x24
 9779 10b4 45       		.byte	0x45
 9780 10b5 25       		.byte	0x25
 9781 10b6 22       		.byte	0x22
 9782 10b7 3B       		.byte	0x3b
 9783 10b8 26       		.byte	0x26
 9784 10b9 72       		.byte	0x72
 9785 10ba 00       		.sleb128 0
 9786 10bb 38       		.byte	0x38
 9787 10bc 24       		.byte	0x24
 9788 10bd 22       		.byte	0x22
 9789 10be 71       		.byte	0x71
 9790 10bf 22       		.sleb128 34
 9791 10c0 94       		.byte	0x94
 9792 10c1 01       		.byte	0x1
 9793 10c2 48       		.byte	0x48
 9794 10c3 24       		.byte	0x24
 9795 10c4 48       		.byte	0x48
ARM GAS  C:\Users\corne\AppData\Local\Temp\cc0fqrF9.s 			page 199


 9796 10c5 26       		.byte	0x26
 9797 10c6 76       		.byte	0x76
 9798 10c7 00       		.sleb128 0
 9799 10c8 1E       		.byte	0x1e
 9800 10c9 71       		.byte	0x71
 9801 10ca 22       		.sleb128 34
 9802 10cb 94       		.byte	0x94
 9803 10cc 01       		.byte	0x1
 9804 10cd 48       		.byte	0x48
 9805 10ce 24       		.byte	0x24
 9806 10cf 48       		.byte	0x48
 9807 10d0 26       		.byte	0x26
 9808 10d1 76       		.byte	0x76
 9809 10d2 00       		.sleb128 0
 9810 10d3 1E       		.byte	0x1e
 9811 10d4 4F       		.byte	0x4f
 9812 10d5 26       		.byte	0x26
 9813 10d6 46       		.byte	0x46
 9814 10d7 24       		.byte	0x24
 9815 10d8 46       		.byte	0x46
 9816 10d9 25       		.byte	0x25
 9817 10da 22       		.byte	0x22
 9818 10db 3A       		.byte	0x3a
 9819 10dc 26       		.byte	0x26
 9820 10dd 1E       		.byte	0x1e
 9821 10de 71       		.byte	0x71
 9822 10df 1C       		.sleb128 28
 9823 10e0 94       		.byte	0x94
 9824 10e1 01       		.byte	0x1
 9825 10e2 08       		.byte	0x8
 9826 10e3 FF       		.byte	0xff
 9827 10e4 1A       		.byte	0x1a
 9828 10e5 76       		.byte	0x76
 9829 10e6 00       		.sleb128 0
 9830 10e7 1E       		.byte	0x1e
 9831 10e8 71       		.byte	0x71
 9832 10e9 1C       		.sleb128 28
 9833 10ea 94       		.byte	0x94
 9834 10eb 01       		.byte	0x1
 9835 10ec 08       		.byte	0x8
 9836 10ed FF       		.byte	0xff
 9837 10ee 1A       		.byte	0x1a
 9838 10ef 76       		.byte	0x76
 9839 10f0 00       		.sleb128 0
 9840 10f1 1E       		.byte	0x1e
 9841 10f2 4F       		.byte	0x4f
 9842 10f3 26       		.byte	0x26
 9843 10f4 45       		.byte	0x45
 9844 10f5 24       		.byte	0x24
 9845 10f6 45       		.byte	0x45
 9846 10f7 25       		.byte	0x25
 9847 10f8 22       		.byte	0x22
 9848 10f9 3B       		.byte	0x3b
 9849 10fa 26       		.byte	0x26
 9850 10fb 72       		.byte	0x72
 9851 10fc 00       		.sleb128 0
 9852 10fd 38       		.byte	0x38
ARM GAS  C:\Users\corne\AppData\Local\Temp\cc0fqrF9.s 			page 200


 9853 10fe 24       		.byte	0x24
 9854 10ff 22       		.byte	0x22
 9855 1100 71       		.byte	0x71
 9856 1101 22       		.sleb128 34
 9857 1102 94       		.byte	0x94
 9858 1103 01       		.byte	0x1
 9859 1104 48       		.byte	0x48
 9860 1105 24       		.byte	0x24
 9861 1106 48       		.byte	0x48
 9862 1107 26       		.byte	0x26
 9863 1108 76       		.byte	0x76
 9864 1109 00       		.sleb128 0
 9865 110a 1E       		.byte	0x1e
 9866 110b 71       		.byte	0x71
 9867 110c 22       		.sleb128 34
 9868 110d 94       		.byte	0x94
 9869 110e 01       		.byte	0x1
 9870 110f 48       		.byte	0x48
 9871 1110 24       		.byte	0x24
 9872 1111 48       		.byte	0x48
 9873 1112 26       		.byte	0x26
 9874 1113 76       		.byte	0x76
 9875 1114 00       		.sleb128 0
 9876 1115 1E       		.byte	0x1e
 9877 1116 4F       		.byte	0x4f
 9878 1117 26       		.byte	0x26
 9879 1118 46       		.byte	0x46
 9880 1119 24       		.byte	0x24
 9881 111a 46       		.byte	0x46
 9882 111b 25       		.byte	0x25
 9883 111c 22       		.byte	0x22
 9884 111d 3A       		.byte	0x3a
 9885 111e 26       		.byte	0x26
 9886 111f 1E       		.byte	0x1e
 9887 1120 4F       		.byte	0x4f
 9888 1121 26       		.byte	0x26
 9889 1122 46       		.byte	0x46
 9890 1123 24       		.byte	0x24
 9891 1124 46       		.byte	0x46
 9892 1125 25       		.byte	0x25
 9893 1126 22       		.byte	0x22
 9894 1127 3A       		.byte	0x3a
 9895 1128 26       		.byte	0x26
 9896 1129 7C       		.byte	0x7c
 9897 112a 00       		.sleb128 0
 9898 112b 22       		.byte	0x22
 9899 112c 9F       		.byte	0x9f
 9900 112d 76000000 		.4byte	.LVL107
 9901 1131 9C000000 		.4byte	.LVL112
 9902 1135 8F00     		.2byte	0x8f
 9903 1137 71       		.byte	0x71
 9904 1138 1C       		.sleb128 28
 9905 1139 94       		.byte	0x94
 9906 113a 01       		.byte	0x1
 9907 113b 08       		.byte	0x8
 9908 113c FF       		.byte	0xff
 9909 113d 1A       		.byte	0x1a
ARM GAS  C:\Users\corne\AppData\Local\Temp\cc0fqrF9.s 			page 201


 9910 113e 76       		.byte	0x76
 9911 113f 00       		.sleb128 0
 9912 1140 1E       		.byte	0x1e
 9913 1141 71       		.byte	0x71
 9914 1142 1C       		.sleb128 28
 9915 1143 94       		.byte	0x94
 9916 1144 01       		.byte	0x1
 9917 1145 08       		.byte	0x8
 9918 1146 FF       		.byte	0xff
 9919 1147 1A       		.byte	0x1a
 9920 1148 76       		.byte	0x76
 9921 1149 00       		.sleb128 0
 9922 114a 1E       		.byte	0x1e
 9923 114b 4F       		.byte	0x4f
 9924 114c 26       		.byte	0x26
 9925 114d 45       		.byte	0x45
 9926 114e 24       		.byte	0x24
 9927 114f 45       		.byte	0x45
 9928 1150 25       		.byte	0x25
 9929 1151 22       		.byte	0x22
 9930 1152 3B       		.byte	0x3b
 9931 1153 26       		.byte	0x26
 9932 1154 23       		.byte	0x23
 9933 1155 808002   		.uleb128 0x8000
 9934 1158 71       		.byte	0x71
 9935 1159 22       		.sleb128 34
 9936 115a 94       		.byte	0x94
 9937 115b 01       		.byte	0x1
 9938 115c 48       		.byte	0x48
 9939 115d 24       		.byte	0x24
 9940 115e 48       		.byte	0x48
 9941 115f 26       		.byte	0x26
 9942 1160 76       		.byte	0x76
 9943 1161 00       		.sleb128 0
 9944 1162 1E       		.byte	0x1e
 9945 1163 71       		.byte	0x71
 9946 1164 22       		.sleb128 34
 9947 1165 94       		.byte	0x94
 9948 1166 01       		.byte	0x1
 9949 1167 48       		.byte	0x48
 9950 1168 24       		.byte	0x24
 9951 1169 48       		.byte	0x48
 9952 116a 26       		.byte	0x26
 9953 116b 76       		.byte	0x76
 9954 116c 00       		.sleb128 0
 9955 116d 1E       		.byte	0x1e
 9956 116e 4F       		.byte	0x4f
 9957 116f 26       		.byte	0x26
 9958 1170 46       		.byte	0x46
 9959 1171 24       		.byte	0x24
 9960 1172 46       		.byte	0x46
 9961 1173 25       		.byte	0x25
 9962 1174 22       		.byte	0x22
 9963 1175 3A       		.byte	0x3a
 9964 1176 26       		.byte	0x26
 9965 1177 1E       		.byte	0x1e
 9966 1178 71       		.byte	0x71
ARM GAS  C:\Users\corne\AppData\Local\Temp\cc0fqrF9.s 			page 202


 9967 1179 1C       		.sleb128 28
 9968 117a 94       		.byte	0x94
 9969 117b 01       		.byte	0x1
 9970 117c 08       		.byte	0x8
 9971 117d FF       		.byte	0xff
 9972 117e 1A       		.byte	0x1a
 9973 117f 76       		.byte	0x76
 9974 1180 00       		.sleb128 0
 9975 1181 1E       		.byte	0x1e
 9976 1182 71       		.byte	0x71
 9977 1183 1C       		.sleb128 28
 9978 1184 94       		.byte	0x94
 9979 1185 01       		.byte	0x1
 9980 1186 08       		.byte	0x8
 9981 1187 FF       		.byte	0xff
 9982 1188 1A       		.byte	0x1a
 9983 1189 76       		.byte	0x76
 9984 118a 00       		.sleb128 0
 9985 118b 1E       		.byte	0x1e
 9986 118c 4F       		.byte	0x4f
 9987 118d 26       		.byte	0x26
 9988 118e 45       		.byte	0x45
 9989 118f 24       		.byte	0x24
 9990 1190 45       		.byte	0x45
 9991 1191 25       		.byte	0x25
 9992 1192 22       		.byte	0x22
 9993 1193 3B       		.byte	0x3b
 9994 1194 26       		.byte	0x26
 9995 1195 23       		.byte	0x23
 9996 1196 808002   		.uleb128 0x8000
 9997 1199 71       		.byte	0x71
 9998 119a 22       		.sleb128 34
 9999 119b 94       		.byte	0x94
 10000 119c 01       		.byte	0x1
 10001 119d 48       		.byte	0x48
 10002 119e 24       		.byte	0x24
 10003 119f 48       		.byte	0x48
 10004 11a0 26       		.byte	0x26
 10005 11a1 76       		.byte	0x76
 10006 11a2 00       		.sleb128 0
 10007 11a3 1E       		.byte	0x1e
 10008 11a4 71       		.byte	0x71
 10009 11a5 22       		.sleb128 34
 10010 11a6 94       		.byte	0x94
 10011 11a7 01       		.byte	0x1
 10012 11a8 48       		.byte	0x48
 10013 11a9 24       		.byte	0x24
 10014 11aa 48       		.byte	0x48
 10015 11ab 26       		.byte	0x26
 10016 11ac 76       		.byte	0x76
 10017 11ad 00       		.sleb128 0
 10018 11ae 1E       		.byte	0x1e
 10019 11af 4F       		.byte	0x4f
 10020 11b0 26       		.byte	0x26
 10021 11b1 46       		.byte	0x46
 10022 11b2 24       		.byte	0x24
 10023 11b3 46       		.byte	0x46
ARM GAS  C:\Users\corne\AppData\Local\Temp\cc0fqrF9.s 			page 203


 10024 11b4 25       		.byte	0x25
 10025 11b5 22       		.byte	0x22
 10026 11b6 3A       		.byte	0x3a
 10027 11b7 26       		.byte	0x26
 10028 11b8 1E       		.byte	0x1e
 10029 11b9 4F       		.byte	0x4f
 10030 11ba 26       		.byte	0x26
 10031 11bb 46       		.byte	0x46
 10032 11bc 24       		.byte	0x24
 10033 11bd 46       		.byte	0x46
 10034 11be 25       		.byte	0x25
 10035 11bf 22       		.byte	0x22
 10036 11c0 3A       		.byte	0x3a
 10037 11c1 26       		.byte	0x26
 10038 11c2 7C       		.byte	0x7c
 10039 11c3 00       		.sleb128 0
 10040 11c4 22       		.byte	0x22
 10041 11c5 9F       		.byte	0x9f
 10042 11c6 9C000000 		.4byte	.LVL112
 10043 11ca A0000000 		.4byte	.LVL114
 10044 11ce 0100     		.2byte	0x1
 10045 11d0 52       		.byte	0x52
 10046 11d1 A0000000 		.4byte	.LVL114
 10047 11d5 A4000000 		.4byte	.LVL115
 10048 11d9 2100     		.2byte	0x21
 10049 11db 73       		.byte	0x73
 10050 11dc 00       		.sleb128 0
 10051 11dd 4F       		.byte	0x4f
 10052 11de 26       		.byte	0x26
 10053 11df 41       		.byte	0x41
 10054 11e0 24       		.byte	0x24
 10055 11e1 41       		.byte	0x41
 10056 11e2 25       		.byte	0x25
 10057 11e3 73       		.byte	0x73
 10058 11e4 00       		.sleb128 0
 10059 11e5 22       		.byte	0x22
 10060 11e6 3F       		.byte	0x3f
 10061 11e7 26       		.byte	0x26
 10062 11e8 73       		.byte	0x73
 10063 11e9 00       		.sleb128 0
 10064 11ea 4F       		.byte	0x4f
 10065 11eb 26       		.byte	0x26
 10066 11ec 41       		.byte	0x41
 10067 11ed 24       		.byte	0x24
 10068 11ee 41       		.byte	0x41
 10069 11ef 25       		.byte	0x25
 10070 11f0 73       		.byte	0x73
 10071 11f1 00       		.sleb128 0
 10072 11f2 22       		.byte	0x22
 10073 11f3 3F       		.byte	0x3f
 10074 11f4 26       		.byte	0x26
 10075 11f5 1E       		.byte	0x1e
 10076 11f6 70       		.byte	0x70
 10077 11f7 00       		.sleb128 0
 10078 11f8 22       		.byte	0x22
 10079 11f9 37       		.byte	0x37
 10080 11fa 26       		.byte	0x26
ARM GAS  C:\Users\corne\AppData\Local\Temp\cc0fqrF9.s 			page 204


 10081 11fb 9F       		.byte	0x9f
 10082 11fc A4000000 		.4byte	.LVL115
 10083 1200 B2000000 		.4byte	.LVL118
 10084 1204 3F00     		.2byte	0x3f
 10085 1206 73       		.byte	0x73
 10086 1207 00       		.sleb128 0
 10087 1208 4F       		.byte	0x4f
 10088 1209 26       		.byte	0x26
 10089 120a 41       		.byte	0x41
 10090 120b 24       		.byte	0x24
 10091 120c 41       		.byte	0x41
 10092 120d 25       		.byte	0x25
 10093 120e 73       		.byte	0x73
 10094 120f 00       		.sleb128 0
 10095 1210 22       		.byte	0x22
 10096 1211 3F       		.byte	0x3f
 10097 1212 26       		.byte	0x26
 10098 1213 73       		.byte	0x73
 10099 1214 00       		.sleb128 0
 10100 1215 4F       		.byte	0x4f
 10101 1216 26       		.byte	0x26
 10102 1217 41       		.byte	0x41
 10103 1218 24       		.byte	0x24
 10104 1219 41       		.byte	0x41
 10105 121a 25       		.byte	0x25
 10106 121b 73       		.byte	0x73
 10107 121c 00       		.sleb128 0
 10108 121d 22       		.byte	0x22
 10109 121e 3F       		.byte	0x3f
 10110 121f 26       		.byte	0x26
 10111 1220 1E       		.byte	0x1e
 10112 1221 4F       		.byte	0x4f
 10113 1222 26       		.byte	0x26
 10114 1223 74       		.byte	0x74
 10115 1224 00       		.sleb128 0
 10116 1225 1A       		.byte	0x1a
 10117 1226 73       		.byte	0x73
 10118 1227 00       		.sleb128 0
 10119 1228 4F       		.byte	0x4f
 10120 1229 26       		.byte	0x26
 10121 122a 41       		.byte	0x41
 10122 122b 24       		.byte	0x24
 10123 122c 41       		.byte	0x41
 10124 122d 25       		.byte	0x25
 10125 122e 73       		.byte	0x73
 10126 122f 00       		.sleb128 0
 10127 1230 22       		.byte	0x22
 10128 1231 3F       		.byte	0x3f
 10129 1232 26       		.byte	0x26
 10130 1233 73       		.byte	0x73
 10131 1234 00       		.sleb128 0
 10132 1235 4F       		.byte	0x4f
 10133 1236 26       		.byte	0x26
 10134 1237 41       		.byte	0x41
 10135 1238 24       		.byte	0x24
 10136 1239 41       		.byte	0x41
 10137 123a 25       		.byte	0x25
ARM GAS  C:\Users\corne\AppData\Local\Temp\cc0fqrF9.s 			page 205


 10138 123b 73       		.byte	0x73
 10139 123c 00       		.sleb128 0
 10140 123d 22       		.byte	0x22
 10141 123e 3F       		.byte	0x3f
 10142 123f 26       		.byte	0x26
 10143 1240 1E       		.byte	0x1e
 10144 1241 22       		.byte	0x22
 10145 1242 37       		.byte	0x37
 10146 1243 26       		.byte	0x26
 10147 1244 9F       		.byte	0x9f
 10148 1245 00000000 		.4byte	0
 10149 1249 00000000 		.4byte	0
 10150              	.LLST23:
 10151 124d 32000000 		.4byte	.LVL98
 10152 1251 94000000 		.4byte	.LVL110
 10153 1255 0100     		.2byte	0x1
 10154 1257 50       		.byte	0x50
 10155 1258 94000000 		.4byte	.LVL110
 10156 125c 9E000000 		.4byte	.LVL113
 10157 1260 4400     		.2byte	0x44
 10158 1262 75       		.byte	0x75
 10159 1263 00       		.sleb128 0
 10160 1264 71       		.byte	0x71
 10161 1265 1E       		.sleb128 30
 10162 1266 94       		.byte	0x94
 10163 1267 02       		.byte	0x2
 10164 1268 40       		.byte	0x40
 10165 1269 24       		.byte	0x24
 10166 126a 40       		.byte	0x40
 10167 126b 26       		.byte	0x26
 10168 126c 44       		.byte	0x44
 10169 126d 24       		.byte	0x24
 10170 126e 1C       		.byte	0x1c
 10171 126f 71       		.byte	0x71
 10172 1270 20       		.sleb128 32
 10173 1271 94       		.byte	0x94
 10174 1272 02       		.byte	0x2
 10175 1273 40       		.byte	0x40
 10176 1274 24       		.byte	0x24
 10177 1275 40       		.byte	0x40
 10178 1276 26       		.byte	0x26
 10179 1277 76       		.byte	0x76
 10180 1278 00       		.sleb128 0
 10181 1279 1E       		.byte	0x1e
 10182 127a 1C       		.byte	0x1c
 10183 127b 23       		.byte	0x23
 10184 127c 808001   		.uleb128 0x4000
 10185 127f 4F       		.byte	0x4f
 10186 1280 26       		.byte	0x26
 10187 1281 41       		.byte	0x41
 10188 1282 24       		.byte	0x24
 10189 1283 41       		.byte	0x41
 10190 1284 25       		.byte	0x25
 10191 1285 71       		.byte	0x71
 10192 1286 20       		.sleb128 32
 10193 1287 94       		.byte	0x94
 10194 1288 02       		.byte	0x2
ARM GAS  C:\Users\corne\AppData\Local\Temp\cc0fqrF9.s 			page 206


 10195 1289 40       		.byte	0x40
 10196 128a 24       		.byte	0x24
 10197 128b 40       		.byte	0x40
 10198 128c 26       		.byte	0x26
 10199 128d 76       		.byte	0x76
 10200 128e 00       		.sleb128 0
 10201 128f 1E       		.byte	0x1e
 10202 1290 1C       		.byte	0x1c
 10203 1291 71       		.byte	0x71
 10204 1292 1E       		.sleb128 30
 10205 1293 94       		.byte	0x94
 10206 1294 02       		.byte	0x2
 10207 1295 40       		.byte	0x40
 10208 1296 24       		.byte	0x24
 10209 1297 40       		.byte	0x40
 10210 1298 26       		.byte	0x26
 10211 1299 44       		.byte	0x44
 10212 129a 24       		.byte	0x24
 10213 129b 1C       		.byte	0x1c
 10214 129c 75       		.byte	0x75
 10215 129d 00       		.sleb128 0
 10216 129e 22       		.byte	0x22
 10217 129f 23       		.byte	0x23
 10218 12a0 808001   		.uleb128 0x4000
 10219 12a3 3F       		.byte	0x3f
 10220 12a4 26       		.byte	0x26
 10221 12a5 9F       		.byte	0x9f
 10222 12a6 9E000000 		.4byte	.LVL113
 10223 12aa AC000000 		.4byte	.LVL116
 10224 12ae 5000     		.2byte	0x50
 10225 12b0 75       		.byte	0x75
 10226 12b1 00       		.sleb128 0
 10227 12b2 F3       		.byte	0xf3
 10228 12b3 01       		.uleb128 0x1
 10229 12b4 51       		.byte	0x51
 10230 12b5 23       		.byte	0x23
 10231 12b6 1E       		.uleb128 0x1e
 10232 12b7 94       		.byte	0x94
 10233 12b8 02       		.byte	0x2
 10234 12b9 40       		.byte	0x40
 10235 12ba 24       		.byte	0x24
 10236 12bb 40       		.byte	0x40
 10237 12bc 26       		.byte	0x26
 10238 12bd 44       		.byte	0x44
 10239 12be 24       		.byte	0x24
 10240 12bf 1C       		.byte	0x1c
 10241 12c0 F3       		.byte	0xf3
 10242 12c1 01       		.uleb128 0x1
 10243 12c2 51       		.byte	0x51
 10244 12c3 23       		.byte	0x23
 10245 12c4 20       		.uleb128 0x20
 10246 12c5 94       		.byte	0x94
 10247 12c6 02       		.byte	0x2
 10248 12c7 40       		.byte	0x40
 10249 12c8 24       		.byte	0x24
 10250 12c9 40       		.byte	0x40
 10251 12ca 26       		.byte	0x26
ARM GAS  C:\Users\corne\AppData\Local\Temp\cc0fqrF9.s 			page 207


 10252 12cb 76       		.byte	0x76
 10253 12cc 00       		.sleb128 0
 10254 12cd 1E       		.byte	0x1e
 10255 12ce 1C       		.byte	0x1c
 10256 12cf 23       		.byte	0x23
 10257 12d0 808001   		.uleb128 0x4000
 10258 12d3 4F       		.byte	0x4f
 10259 12d4 26       		.byte	0x26
 10260 12d5 41       		.byte	0x41
 10261 12d6 24       		.byte	0x24
 10262 12d7 41       		.byte	0x41
 10263 12d8 25       		.byte	0x25
 10264 12d9 F3       		.byte	0xf3
 10265 12da 01       		.uleb128 0x1
 10266 12db 51       		.byte	0x51
 10267 12dc 23       		.byte	0x23
 10268 12dd 20       		.uleb128 0x20
 10269 12de 94       		.byte	0x94
 10270 12df 02       		.byte	0x2
 10271 12e0 40       		.byte	0x40
 10272 12e1 24       		.byte	0x24
 10273 12e2 40       		.byte	0x40
 10274 12e3 26       		.byte	0x26
 10275 12e4 76       		.byte	0x76
 10276 12e5 00       		.sleb128 0
 10277 12e6 1E       		.byte	0x1e
 10278 12e7 1C       		.byte	0x1c
 10279 12e8 F3       		.byte	0xf3
 10280 12e9 01       		.uleb128 0x1
 10281 12ea 51       		.byte	0x51
 10282 12eb 23       		.byte	0x23
 10283 12ec 1E       		.uleb128 0x1e
 10284 12ed 94       		.byte	0x94
 10285 12ee 02       		.byte	0x2
 10286 12ef 40       		.byte	0x40
 10287 12f0 24       		.byte	0x24
 10288 12f1 40       		.byte	0x40
 10289 12f2 26       		.byte	0x26
 10290 12f3 44       		.byte	0x44
 10291 12f4 24       		.byte	0x24
 10292 12f5 1C       		.byte	0x1c
 10293 12f6 75       		.byte	0x75
 10294 12f7 00       		.sleb128 0
 10295 12f8 22       		.byte	0x22
 10296 12f9 23       		.byte	0x23
 10297 12fa 808001   		.uleb128 0x4000
 10298 12fd 3F       		.byte	0x3f
 10299 12fe 26       		.byte	0x26
 10300 12ff 9F       		.byte	0x9f
 10301 1300 B0000000 		.4byte	.LVL117
 10302 1304 D8000000 		.4byte	.LFE26
 10303 1308 0100     		.2byte	0x1
 10304 130a 52       		.byte	0x52
 10305 130b 00000000 		.4byte	0
 10306 130f 00000000 		.4byte	0
 10307              	.LLST24:
 10308 1313 00000000 		.4byte	.LVL124
ARM GAS  C:\Users\corne\AppData\Local\Temp\cc0fqrF9.s 			page 208


 10309 1317 26000000 		.4byte	.LVL128
 10310 131b 0100     		.2byte	0x1
 10311 131d 50       		.byte	0x50
 10312 131e 26000000 		.4byte	.LVL128
 10313 1322 4C000000 		.4byte	.LVL132
 10314 1326 0400     		.2byte	0x4
 10315 1328 F3       		.byte	0xf3
 10316 1329 01       		.uleb128 0x1
 10317 132a 50       		.byte	0x50
 10318 132b 9F       		.byte	0x9f
 10319 132c 4C000000 		.4byte	.LVL132
 10320 1330 4E000000 		.4byte	.LVL133
 10321 1334 0100     		.2byte	0x1
 10322 1336 50       		.byte	0x50
 10323 1337 4E000000 		.4byte	.LVL133
 10324 133b 52000000 		.4byte	.LVL134
 10325 133f 0400     		.2byte	0x4
 10326 1341 F3       		.byte	0xf3
 10327 1342 01       		.uleb128 0x1
 10328 1343 50       		.byte	0x50
 10329 1344 9F       		.byte	0x9f
 10330 1345 52000000 		.4byte	.LVL134
 10331 1349 54000000 		.4byte	.LVL135
 10332 134d 0100     		.2byte	0x1
 10333 134f 50       		.byte	0x50
 10334 1350 54000000 		.4byte	.LVL135
 10335 1354 58000000 		.4byte	.LVL136
 10336 1358 0400     		.2byte	0x4
 10337 135a F3       		.byte	0xf3
 10338 135b 01       		.uleb128 0x1
 10339 135c 50       		.byte	0x50
 10340 135d 9F       		.byte	0x9f
 10341 135e 58000000 		.4byte	.LVL136
 10342 1362 5A000000 		.4byte	.LVL137
 10343 1366 0100     		.2byte	0x1
 10344 1368 50       		.byte	0x50
 10345 1369 5A000000 		.4byte	.LVL137
 10346 136d 62000000 		.4byte	.LFE23
 10347 1371 0400     		.2byte	0x4
 10348 1373 F3       		.byte	0xf3
 10349 1374 01       		.uleb128 0x1
 10350 1375 50       		.byte	0x50
 10351 1376 9F       		.byte	0x9f
 10352 1377 00000000 		.4byte	0
 10353 137b 00000000 		.4byte	0
 10354              	.LLST25:
 10355 137f 00000000 		.4byte	.LVL124
 10356 1383 24000000 		.4byte	.LVL127
 10357 1387 0100     		.2byte	0x1
 10358 1389 51       		.byte	0x51
 10359 138a 24000000 		.4byte	.LVL127
 10360 138e 4C000000 		.4byte	.LVL132
 10361 1392 0100     		.2byte	0x1
 10362 1394 56       		.byte	0x56
 10363 1395 4C000000 		.4byte	.LVL132
 10364 1399 5E000000 		.4byte	.LVL138
 10365 139d 0100     		.2byte	0x1
ARM GAS  C:\Users\corne\AppData\Local\Temp\cc0fqrF9.s 			page 209


 10366 139f 51       		.byte	0x51
 10367 13a0 5E000000 		.4byte	.LVL138
 10368 13a4 60000000 		.4byte	.LVL141
 10369 13a8 0100     		.2byte	0x1
 10370 13aa 56       		.byte	0x56
 10371 13ab 60000000 		.4byte	.LVL141
 10372 13af 62000000 		.4byte	.LFE23
 10373 13b3 0400     		.2byte	0x4
 10374 13b5 F3       		.byte	0xf3
 10375 13b6 01       		.uleb128 0x1
 10376 13b7 51       		.byte	0x51
 10377 13b8 9F       		.byte	0x9f
 10378 13b9 00000000 		.4byte	0
 10379 13bd 00000000 		.4byte	0
 10380              	.LLST26:
 10381 13c1 00000000 		.4byte	.LVL124
 10382 13c5 29000000 		.4byte	.LVL129-1
 10383 13c9 0100     		.2byte	0x1
 10384 13cb 52       		.byte	0x52
 10385 13cc 29000000 		.4byte	.LVL129-1
 10386 13d0 4C000000 		.4byte	.LVL132
 10387 13d4 0100     		.2byte	0x1
 10388 13d6 54       		.byte	0x54
 10389 13d7 4C000000 		.4byte	.LVL132
 10390 13db 5E000000 		.4byte	.LVL138
 10391 13df 0100     		.2byte	0x1
 10392 13e1 52       		.byte	0x52
 10393 13e2 5E000000 		.4byte	.LVL138
 10394 13e6 60000000 		.4byte	.LVL140
 10395 13ea 0100     		.2byte	0x1
 10396 13ec 54       		.byte	0x54
 10397 13ed 60000000 		.4byte	.LVL140
 10398 13f1 62000000 		.4byte	.LFE23
 10399 13f5 0400     		.2byte	0x4
 10400 13f7 F3       		.byte	0xf3
 10401 13f8 01       		.uleb128 0x1
 10402 13f9 52       		.byte	0x52
 10403 13fa 9F       		.byte	0x9f
 10404 13fb 00000000 		.4byte	0
 10405 13ff 00000000 		.4byte	0
 10406              	.LLST27:
 10407 1403 00000000 		.4byte	.LVL124
 10408 1407 18000000 		.4byte	.LVL126
 10409 140b 0100     		.2byte	0x1
 10410 140d 53       		.byte	0x53
 10411 140e 18000000 		.4byte	.LVL126
 10412 1412 4C000000 		.4byte	.LVL132
 10413 1416 0100     		.2byte	0x1
 10414 1418 57       		.byte	0x57
 10415 1419 4C000000 		.4byte	.LVL132
 10416 141d 5E000000 		.4byte	.LVL138
 10417 1421 0100     		.2byte	0x1
 10418 1423 53       		.byte	0x53
 10419 1424 5E000000 		.4byte	.LVL138
 10420 1428 60000000 		.4byte	.LVL142
 10421 142c 0100     		.2byte	0x1
 10422 142e 57       		.byte	0x57
ARM GAS  C:\Users\corne\AppData\Local\Temp\cc0fqrF9.s 			page 210


 10423 142f 60000000 		.4byte	.LVL142
 10424 1433 62000000 		.4byte	.LFE23
 10425 1437 0400     		.2byte	0x4
 10426 1439 F3       		.byte	0xf3
 10427 143a 01       		.uleb128 0x1
 10428 143b 53       		.byte	0x53
 10429 143c 9F       		.byte	0x9f
 10430 143d 00000000 		.4byte	0
 10431 1441 00000000 		.4byte	0
 10432              	.LLST28:
 10433 1445 0A000000 		.4byte	.LVL125
 10434 1449 60000000 		.4byte	.LVL139
 10435 144d 0200     		.2byte	0x2
 10436 144f 30       		.byte	0x30
 10437 1450 9F       		.byte	0x9f
 10438 1451 60000000 		.4byte	.LVL139
 10439 1455 62000000 		.4byte	.LFE23
 10440 1459 0100     		.2byte	0x1
 10441 145b 50       		.byte	0x50
 10442 145c 00000000 		.4byte	0
 10443 1460 00000000 		.4byte	0
 10444              	.LLST29:
 10445 1464 02000000 		.4byte	.LVL144
 10446 1468 06000000 		.4byte	.LVL145
 10447 146c 0200     		.2byte	0x2
 10448 146e 31       		.byte	0x31
 10449 146f 9F       		.byte	0x9f
 10450 1470 06000000 		.4byte	.LVL145
 10451 1474 14000000 		.4byte	.LVL146
 10452 1478 0100     		.2byte	0x1
 10453 147a 54       		.byte	0x54
 10454 147b 16000000 		.4byte	.LVL147
 10455 147f 1A000000 		.4byte	.LVL148
 10456 1483 0100     		.2byte	0x1
 10457 1485 54       		.byte	0x54
 10458 1486 00000000 		.4byte	0
 10459 148a 00000000 		.4byte	0
 10460              	.LLST30:
 10461 148e 1E000000 		.4byte	.LVL153
 10462 1492 20000000 		.4byte	.LVL154
 10463 1496 0100     		.2byte	0x1
 10464 1498 53       		.byte	0x53
 10465 1499 20000000 		.4byte	.LVL154
 10466 149d 28000000 		.4byte	.LVL155
 10467 14a1 0500     		.2byte	0x5
 10468 14a3 72       		.byte	0x72
 10469 14a4 00       		.sleb128 0
 10470 14a5 3F       		.byte	0x3f
 10471 14a6 1A       		.byte	0x1a
 10472 14a7 9F       		.byte	0x9f
 10473 14a8 00000000 		.4byte	0
 10474 14ac 00000000 		.4byte	0
 10475              	.LLST31:
 10476 14b0 18000000 		.4byte	.LVL152
 10477 14b4 38000000 		.4byte	.LVL160
 10478 14b8 0100     		.2byte	0x1
 10479 14ba 54       		.byte	0x54
ARM GAS  C:\Users\corne\AppData\Local\Temp\cc0fqrF9.s 			page 211


 10480 14bb 00000000 		.4byte	0
 10481 14bf 00000000 		.4byte	0
 10482              	.LLST32:
 10483 14c3 2C000000 		.4byte	.LVL156
 10484 14c7 2E000000 		.4byte	.LVL157
 10485 14cb 0100     		.2byte	0x1
 10486 14cd 53       		.byte	0x53
 10487 14ce 2E000000 		.4byte	.LVL157
 10488 14d2 30000000 		.4byte	.LVL158
 10489 14d6 0A00     		.2byte	0xa
 10490 14d8 70       		.byte	0x70
 10491 14d9 04       		.sleb128 4
 10492 14da 94       		.byte	0x94
 10493 14db 01       		.byte	0x1
 10494 14dc 08       		.byte	0x8
 10495 14dd FF       		.byte	0xff
 10496 14de 1A       		.byte	0x1a
 10497 14df 34       		.byte	0x34
 10498 14e0 25       		.byte	0x25
 10499 14e1 9F       		.byte	0x9f
 10500 14e2 00000000 		.4byte	0
 10501 14e6 00000000 		.4byte	0
 10502              	.LLST33:
 10503 14ea 28000000 		.4byte	.LVL155
 10504 14ee 32000000 		.4byte	.LVL159
 10505 14f2 0100     		.2byte	0x1
 10506 14f4 52       		.byte	0x52
 10507 14f5 00000000 		.4byte	0
 10508 14f9 00000000 		.4byte	0
 10509              	.LLST34:
 10510 14fd 00000000 		.4byte	.LVL161
 10511 1501 06000000 		.4byte	.LVL162
 10512 1505 0100     		.2byte	0x1
 10513 1507 50       		.byte	0x50
 10514 1508 06000000 		.4byte	.LVL162
 10515 150c 08000000 		.4byte	.LVL163
 10516 1510 0400     		.2byte	0x4
 10517 1512 F3       		.byte	0xf3
 10518 1513 01       		.uleb128 0x1
 10519 1514 50       		.byte	0x50
 10520 1515 9F       		.byte	0x9f
 10521 1516 08000000 		.4byte	.LVL163
 10522 151a 0A000000 		.4byte	.LVL164
 10523 151e 0100     		.2byte	0x1
 10524 1520 50       		.byte	0x50
 10525 1521 0A000000 		.4byte	.LVL164
 10526 1525 0C000000 		.4byte	.LFE31
 10527 1529 0400     		.2byte	0x4
 10528 152b F3       		.byte	0xf3
 10529 152c 01       		.uleb128 0x1
 10530 152d 50       		.byte	0x50
 10531 152e 9F       		.byte	0x9f
 10532 152f 00000000 		.4byte	0
 10533 1533 00000000 		.4byte	0
 10534              	.LLST35:
 10535 1537 00000000 		.4byte	.LVL161
 10536 153b 0A000000 		.4byte	.LVL164
ARM GAS  C:\Users\corne\AppData\Local\Temp\cc0fqrF9.s 			page 212


 10537 153f 0200     		.2byte	0x2
 10538 1541 30       		.byte	0x30
 10539 1542 9F       		.byte	0x9f
 10540 1543 0A000000 		.4byte	.LVL164
 10541 1547 0C000000 		.4byte	.LFE31
 10542 154b 0100     		.2byte	0x1
 10543 154d 50       		.byte	0x50
 10544 154e 00000000 		.4byte	0
 10545 1552 00000000 		.4byte	0
 10546              	.LLST36:
 10547 1556 00000000 		.4byte	.LVL165
 10548 155a 18000000 		.4byte	.LVL166
 10549 155e 0100     		.2byte	0x1
 10550 1560 50       		.byte	0x50
 10551 1561 18000000 		.4byte	.LVL166
 10552 1565 1C000000 		.4byte	.LVL167
 10553 1569 0400     		.2byte	0x4
 10554 156b F3       		.byte	0xf3
 10555 156c 01       		.uleb128 0x1
 10556 156d 50       		.byte	0x50
 10557 156e 9F       		.byte	0x9f
 10558 156f 1C000000 		.4byte	.LVL167
 10559 1573 1E000000 		.4byte	.LVL168
 10560 1577 0100     		.2byte	0x1
 10561 1579 50       		.byte	0x50
 10562 157a 1E000000 		.4byte	.LVL168
 10563 157e 22000000 		.4byte	.LVL169
 10564 1582 0400     		.2byte	0x4
 10565 1584 F3       		.byte	0xf3
 10566 1585 01       		.uleb128 0x1
 10567 1586 50       		.byte	0x50
 10568 1587 9F       		.byte	0x9f
 10569 1588 22000000 		.4byte	.LVL169
 10570 158c 24000000 		.4byte	.LVL170
 10571 1590 0100     		.2byte	0x1
 10572 1592 50       		.byte	0x50
 10573 1593 24000000 		.4byte	.LVL170
 10574 1597 28000000 		.4byte	.LVL171
 10575 159b 0400     		.2byte	0x4
 10576 159d F3       		.byte	0xf3
 10577 159e 01       		.uleb128 0x1
 10578 159f 50       		.byte	0x50
 10579 15a0 9F       		.byte	0x9f
 10580 15a1 28000000 		.4byte	.LVL171
 10581 15a5 2A000000 		.4byte	.LVL172
 10582 15a9 0100     		.2byte	0x1
 10583 15ab 50       		.byte	0x50
 10584 15ac 2A000000 		.4byte	.LVL172
 10585 15b0 2E000000 		.4byte	.LVL173
 10586 15b4 0400     		.2byte	0x4
 10587 15b6 F3       		.byte	0xf3
 10588 15b7 01       		.uleb128 0x1
 10589 15b8 50       		.byte	0x50
 10590 15b9 9F       		.byte	0x9f
 10591 15ba 2E000000 		.4byte	.LVL173
 10592 15be 30000000 		.4byte	.LVL174
 10593 15c2 0100     		.2byte	0x1
ARM GAS  C:\Users\corne\AppData\Local\Temp\cc0fqrF9.s 			page 213


 10594 15c4 50       		.byte	0x50
 10595 15c5 30000000 		.4byte	.LVL174
 10596 15c9 32000000 		.4byte	.LFE32
 10597 15cd 0400     		.2byte	0x4
 10598 15cf F3       		.byte	0xf3
 10599 15d0 01       		.uleb128 0x1
 10600 15d1 50       		.byte	0x50
 10601 15d2 9F       		.byte	0x9f
 10602 15d3 00000000 		.4byte	0
 10603 15d7 00000000 		.4byte	0
 10604              	.LLST37:
 10605 15db 00000000 		.4byte	.LVL175
 10606 15df 0E000000 		.4byte	.LVL176
 10607 15e3 0100     		.2byte	0x1
 10608 15e5 50       		.byte	0x50
 10609 15e6 0E000000 		.4byte	.LVL176
 10610 15ea 24000000 		.4byte	.LVL178
 10611 15ee 0400     		.2byte	0x4
 10612 15f0 F3       		.byte	0xf3
 10613 15f1 01       		.uleb128 0x1
 10614 15f2 50       		.byte	0x50
 10615 15f3 9F       		.byte	0x9f
 10616 15f4 24000000 		.4byte	.LVL178
 10617 15f8 38000000 		.4byte	.LVL182
 10618 15fc 0100     		.2byte	0x1
 10619 15fe 54       		.byte	0x54
 10620 15ff 00000000 		.4byte	0
 10621 1603 00000000 		.4byte	0
 10622              	.LLST38:
 10623 1607 00000000 		.4byte	.LVL175
 10624 160b 11000000 		.4byte	.LVL177-1
 10625 160f 0100     		.2byte	0x1
 10626 1611 51       		.byte	0x51
 10627 1612 11000000 		.4byte	.LVL177-1
 10628 1616 3C000000 		.4byte	.LFE2
 10629 161a 0200     		.2byte	0x2
 10630 161c 91       		.byte	0x91
 10631 161d 64       		.sleb128 -28
 10632 161e 00000000 		.4byte	0
 10633 1622 00000000 		.4byte	0
 10634              	.LLST39:
 10635 1626 00000000 		.4byte	.LVL175
 10636 162a 11000000 		.4byte	.LVL177-1
 10637 162e 0100     		.2byte	0x1
 10638 1630 52       		.byte	0x52
 10639 1631 11000000 		.4byte	.LVL177-1
 10640 1635 3C000000 		.4byte	.LFE2
 10641 1639 0400     		.2byte	0x4
 10642 163b F3       		.byte	0xf3
 10643 163c 01       		.uleb128 0x1
 10644 163d 52       		.byte	0x52
 10645 163e 9F       		.byte	0x9f
 10646 163f 00000000 		.4byte	0
 10647 1643 00000000 		.4byte	0
 10648              	.LLST40:
 10649 1647 00000000 		.4byte	.LVL175
 10650 164b 11000000 		.4byte	.LVL177-1
ARM GAS  C:\Users\corne\AppData\Local\Temp\cc0fqrF9.s 			page 214


 10651 164f 0100     		.2byte	0x1
 10652 1651 53       		.byte	0x53
 10653 1652 11000000 		.4byte	.LVL177-1
 10654 1656 3A000000 		.4byte	.LVL183
 10655 165a 0100     		.2byte	0x1
 10656 165c 57       		.byte	0x57
 10657 165d 3A000000 		.4byte	.LVL183
 10658 1661 3C000000 		.4byte	.LFE2
 10659 1665 0400     		.2byte	0x4
 10660 1667 F3       		.byte	0xf3
 10661 1668 01       		.uleb128 0x1
 10662 1669 53       		.byte	0x53
 10663 166a 9F       		.byte	0x9f
 10664 166b 00000000 		.4byte	0
 10665 166f 00000000 		.4byte	0
 10666              	.LLST41:
 10667 1673 12000000 		.4byte	.LVL177
 10668 1677 28000000 		.4byte	.LVL179
 10669 167b 0100     		.2byte	0x1
 10670 167d 50       		.byte	0x50
 10671 167e 30000000 		.4byte	.LVL180
 10672 1682 36000000 		.4byte	.LVL181
 10673 1686 0100     		.2byte	0x1
 10674 1688 50       		.byte	0x50
 10675 1689 38000000 		.4byte	.LVL182
 10676 168d 3C000000 		.4byte	.LFE2
 10677 1691 0100     		.2byte	0x1
 10678 1693 50       		.byte	0x50
 10679 1694 00000000 		.4byte	0
 10680 1698 00000000 		.4byte	0
 10681              	.LLST42:
 10682 169c 00000000 		.4byte	.LVL184
 10683 16a0 0C000000 		.4byte	.LVL186
 10684 16a4 0100     		.2byte	0x1
 10685 16a6 50       		.byte	0x50
 10686 16a7 0C000000 		.4byte	.LVL186
 10687 16ab 44000000 		.4byte	.LVL197
 10688 16af 0100     		.2byte	0x1
 10689 16b1 55       		.byte	0x55
 10690 16b2 44000000 		.4byte	.LVL197
 10691 16b6 46000000 		.4byte	.LFE27
 10692 16ba 0400     		.2byte	0x4
 10693 16bc F3       		.byte	0xf3
 10694 16bd 01       		.uleb128 0x1
 10695 16be 50       		.byte	0x50
 10696 16bf 9F       		.byte	0x9f
 10697 16c0 00000000 		.4byte	0
 10698 16c4 00000000 		.4byte	0
 10699              	.LLST43:
 10700 16c8 1E000000 		.4byte	.LVL189
 10701 16cc 24000000 		.4byte	.LVL190
 10702 16d0 0100     		.2byte	0x1
 10703 16d2 50       		.byte	0x50
 10704 16d3 24000000 		.4byte	.LVL190
 10705 16d7 36000000 		.4byte	.LVL193
 10706 16db 0100     		.2byte	0x1
 10707 16dd 54       		.byte	0x54
ARM GAS  C:\Users\corne\AppData\Local\Temp\cc0fqrF9.s 			page 215


 10708 16de 36000000 		.4byte	.LVL193
 10709 16e2 3C000000 		.4byte	.LVL194
 10710 16e6 0100     		.2byte	0x1
 10711 16e8 50       		.byte	0x50
 10712 16e9 3C000000 		.4byte	.LVL194
 10713 16ed 44000000 		.4byte	.LVL196
 10714 16f1 0100     		.2byte	0x1
 10715 16f3 54       		.byte	0x54
 10716 16f4 00000000 		.4byte	0
 10717 16f8 00000000 		.4byte	0
 10718              	.LLST44:
 10719 16fc 06000000 		.4byte	.LVL185
 10720 1700 28000000 		.4byte	.LVL191
 10721 1704 0300     		.2byte	0x3
 10722 1706 09       		.byte	0x9
 10723 1707 88       		.byte	0x88
 10724 1708 9F       		.byte	0x9f
 10725 1709 28000000 		.4byte	.LVL191
 10726 170d 40000000 		.4byte	.LVL195
 10727 1711 0300     		.2byte	0x3
 10728 1713 09       		.byte	0x9
 10729 1714 E1       		.byte	0xe1
 10730 1715 9F       		.byte	0x9f
 10731 1716 00000000 		.4byte	0
 10732 171a 00000000 		.4byte	0
 10733              	.LLST45:
 10734 171e 00000000 		.4byte	.LVL198
 10735 1722 24000000 		.4byte	.LVL204
 10736 1726 0100     		.2byte	0x1
 10737 1728 50       		.byte	0x50
 10738 1729 24000000 		.4byte	.LVL204
 10739 172d A4000000 		.4byte	.LVL231
 10740 1731 0100     		.2byte	0x1
 10741 1733 56       		.byte	0x56
 10742 1734 A4000000 		.4byte	.LVL231
 10743 1738 AA000000 		.4byte	.LFE3
 10744 173c 0400     		.2byte	0x4
 10745 173e F3       		.byte	0xf3
 10746 173f 01       		.uleb128 0x1
 10747 1740 50       		.byte	0x50
 10748 1741 9F       		.byte	0x9f
 10749 1742 00000000 		.4byte	0
 10750 1746 00000000 		.4byte	0
 10751              	.LLST46:
 10752 174a 00000000 		.4byte	.LVL198
 10753 174e 27000000 		.4byte	.LVL205-1
 10754 1752 0100     		.2byte	0x1
 10755 1754 51       		.byte	0x51
 10756 1755 27000000 		.4byte	.LVL205-1
 10757 1759 58000000 		.4byte	.LVL209
 10758 175d 0100     		.2byte	0x1
 10759 175f 59       		.byte	0x59
 10760 1760 58000000 		.4byte	.LVL209
 10761 1764 5A000000 		.4byte	.LVL210
 10762 1768 0100     		.2byte	0x1
 10763 176a 51       		.byte	0x51
 10764 176b 5A000000 		.4byte	.LVL210
ARM GAS  C:\Users\corne\AppData\Local\Temp\cc0fqrF9.s 			page 216


 10765 176f 90000000 		.4byte	.LVL222
 10766 1773 0100     		.2byte	0x1
 10767 1775 59       		.byte	0x59
 10768 1776 90000000 		.4byte	.LVL222
 10769 177a 9C000000 		.4byte	.LVL226
 10770 177e 0100     		.2byte	0x1
 10771 1780 51       		.byte	0x51
 10772 1781 9C000000 		.4byte	.LVL226
 10773 1785 A4000000 		.4byte	.LVL233
 10774 1789 0100     		.2byte	0x1
 10775 178b 59       		.byte	0x59
 10776 178c A4000000 		.4byte	.LVL233
 10777 1790 AA000000 		.4byte	.LFE3
 10778 1794 0400     		.2byte	0x4
 10779 1796 F3       		.byte	0xf3
 10780 1797 01       		.uleb128 0x1
 10781 1798 51       		.byte	0x51
 10782 1799 9F       		.byte	0x9f
 10783 179a 00000000 		.4byte	0
 10784 179e 00000000 		.4byte	0
 10785              	.LLST47:
 10786 17a2 00000000 		.4byte	.LVL198
 10787 17a6 1C000000 		.4byte	.LVL202
 10788 17aa 0100     		.2byte	0x1
 10789 17ac 52       		.byte	0x52
 10790 17ad 1C000000 		.4byte	.LVL202
 10791 17b1 AA000000 		.4byte	.LFE3
 10792 17b5 0400     		.2byte	0x4
 10793 17b7 F3       		.byte	0xf3
 10794 17b8 01       		.uleb128 0x1
 10795 17b9 52       		.byte	0x52
 10796 17ba 9F       		.byte	0x9f
 10797 17bb 00000000 		.4byte	0
 10798 17bf 00000000 		.4byte	0
 10799              	.LLST48:
 10800 17c3 00000000 		.4byte	.LVL198
 10801 17c7 14000000 		.4byte	.LVL199
 10802 17cb 0100     		.2byte	0x1
 10803 17cd 53       		.byte	0x53
 10804 17ce 14000000 		.4byte	.LVL199
 10805 17d2 A4000000 		.4byte	.LVL230
 10806 17d6 0100     		.2byte	0x1
 10807 17d8 54       		.byte	0x54
 10808 17d9 A4000000 		.4byte	.LVL230
 10809 17dd AA000000 		.4byte	.LFE3
 10810 17e1 0400     		.2byte	0x4
 10811 17e3 F3       		.byte	0xf3
 10812 17e4 01       		.uleb128 0x1
 10813 17e5 53       		.byte	0x53
 10814 17e6 9F       		.byte	0x9f
 10815 17e7 00000000 		.4byte	0
 10816 17eb 00000000 		.4byte	0
 10817              	.LLST49:
 10818 17ef 28000000 		.4byte	.LVL205
 10819 17f3 48000000 		.4byte	.LVL206
 10820 17f7 0100     		.2byte	0x1
 10821 17f9 50       		.byte	0x50
ARM GAS  C:\Users\corne\AppData\Local\Temp\cc0fqrF9.s 			page 217


 10822 17fa 58000000 		.4byte	.LVL209
 10823 17fe 5A000000 		.4byte	.LVL210
 10824 1802 0100     		.2byte	0x1
 10825 1804 50       		.byte	0x50
 10826 1805 7E000000 		.4byte	.LVL217
 10827 1809 86000000 		.4byte	.LVL219
 10828 180d 0100     		.2byte	0x1
 10829 180f 50       		.byte	0x50
 10830 1810 8A000000 		.4byte	.LVL220
 10831 1814 8C000000 		.4byte	.LVL221
 10832 1818 0100     		.2byte	0x1
 10833 181a 50       		.byte	0x50
 10834 181b 90000000 		.4byte	.LVL222
 10835 181f 92000000 		.4byte	.LVL223
 10836 1823 0100     		.2byte	0x1
 10837 1825 50       		.byte	0x50
 10838 1826 96000000 		.4byte	.LVL224
 10839 182a 98000000 		.4byte	.LVL225
 10840 182e 0100     		.2byte	0x1
 10841 1830 50       		.byte	0x50
 10842 1831 9C000000 		.4byte	.LVL226
 10843 1835 9E000000 		.4byte	.LVL227
 10844 1839 0100     		.2byte	0x1
 10845 183b 50       		.byte	0x50
 10846 183c A0000000 		.4byte	.LVL228
 10847 1840 AA000000 		.4byte	.LFE3
 10848 1844 0100     		.2byte	0x1
 10849 1846 50       		.byte	0x50
 10850 1847 00000000 		.4byte	0
 10851 184b 00000000 		.4byte	0
 10852              	.LLST50:
 10853 184f 14000000 		.4byte	.LVL199
 10854 1853 16000000 		.4byte	.LVL200
 10855 1857 0300     		.2byte	0x3
 10856 1859 73       		.byte	0x73
 10857 185a 7F       		.sleb128 -1
 10858 185b 9F       		.byte	0x9f
 10859 185c 16000000 		.4byte	.LVL200
 10860 1860 18000000 		.4byte	.LVL201
 10861 1864 0300     		.2byte	0x3
 10862 1866 73       		.byte	0x73
 10863 1867 78       		.sleb128 -8
 10864 1868 9F       		.byte	0x9f
 10865 1869 18000000 		.4byte	.LVL201
 10866 186d 1C000000 		.4byte	.LVL202
 10867 1871 0700     		.2byte	0x7
 10868 1873 72       		.byte	0x72
 10869 1874 00       		.sleb128 0
 10870 1875 31       		.byte	0x31
 10871 1876 24       		.byte	0x24
 10872 1877 31       		.byte	0x31
 10873 1878 1C       		.byte	0x1c
 10874 1879 9F       		.byte	0x9f
 10875 187a 1C000000 		.4byte	.LVL202
 10876 187e 76000000 		.4byte	.LVL216
 10877 1882 0700     		.2byte	0x7
 10878 1884 75       		.byte	0x75
ARM GAS  C:\Users\corne\AppData\Local\Temp\cc0fqrF9.s 			page 218


 10879 1885 00       		.sleb128 0
 10880 1886 31       		.byte	0x31
 10881 1887 24       		.byte	0x24
 10882 1888 31       		.byte	0x31
 10883 1889 1C       		.byte	0x1c
 10884 188a 9F       		.byte	0x9f
 10885 188b 84000000 		.4byte	.LVL218
 10886 188f 9C000000 		.4byte	.LVL226
 10887 1893 0700     		.2byte	0x7
 10888 1895 75       		.byte	0x75
 10889 1896 00       		.sleb128 0
 10890 1897 31       		.byte	0x31
 10891 1898 24       		.byte	0x24
 10892 1899 31       		.byte	0x31
 10893 189a 1C       		.byte	0x1c
 10894 189b 9F       		.byte	0x9f
 10895 189c 00000000 		.4byte	0
 10896 18a0 00000000 		.4byte	0
 10897              	.LLST51:
 10898 18a4 22000000 		.4byte	.LVL203
 10899 18a8 27000000 		.4byte	.LVL205-1
 10900 18ac 0200     		.2byte	0x2
 10901 18ae 73       		.byte	0x73
 10902 18af 00       		.sleb128 0
 10903 18b0 27000000 		.4byte	.LVL205-1
 10904 18b4 58000000 		.4byte	.LVL209
 10905 18b8 0200     		.2byte	0x2
 10906 18ba 7D       		.byte	0x7d
 10907 18bb 00       		.sleb128 0
 10908 18bc 58000000 		.4byte	.LVL209
 10909 18c0 5A000000 		.4byte	.LVL210
 10910 18c4 0200     		.2byte	0x2
 10911 18c6 72       		.byte	0x72
 10912 18c7 00       		.sleb128 0
 10913 18c8 5A000000 		.4byte	.LVL210
 10914 18cc A2000000 		.4byte	.LVL229
 10915 18d0 0200     		.2byte	0x2
 10916 18d2 7D       		.byte	0x7d
 10917 18d3 00       		.sleb128 0
 10918 18d4 A2000000 		.4byte	.LVL229
 10919 18d8 A4000000 		.4byte	.LVL232
 10920 18dc 0300     		.2byte	0x3
 10921 18de 77       		.byte	0x77
 10922 18df 1C       		.sleb128 28
 10923 18e0 06       		.byte	0x6
 10924 18e1 A4000000 		.4byte	.LVL232
 10925 18e5 AA000000 		.4byte	.LFE3
 10926 18e9 0300     		.2byte	0x3
 10927 18eb 91       		.byte	0x91
 10928 18ec 7C       		.sleb128 -4
 10929 18ed 06       		.byte	0x6
 10930 18ee 00000000 		.4byte	0
 10931 18f2 00000000 		.4byte	0
 10932              	.LLST52:
 10933 18f6 70000000 		.4byte	.LVL213
 10934 18fa 72000000 		.4byte	.LVL214
 10935 18fe 0100     		.2byte	0x1
ARM GAS  C:\Users\corne\AppData\Local\Temp\cc0fqrF9.s 			page 219


 10936 1900 53       		.byte	0x53
 10937 1901 74000000 		.4byte	.LVL215
 10938 1905 7D000000 		.4byte	.LVL217-1
 10939 1909 0100     		.2byte	0x1
 10940 190b 53       		.byte	0x53
 10941 190c 00000000 		.4byte	0
 10942 1910 00000000 		.4byte	0
 10943              	.LLST53:
 10944 1914 48000000 		.4byte	.LVL206
 10945 1918 54000000 		.4byte	.LVL207
 10946 191c 0100     		.2byte	0x1
 10947 191e 52       		.byte	0x52
 10948 191f 56000000 		.4byte	.LVL208
 10949 1923 58000000 		.4byte	.LVL209
 10950 1927 0100     		.2byte	0x1
 10951 1929 52       		.byte	0x52
 10952 192a 5A000000 		.4byte	.LVL210
 10953 192e 5E000000 		.4byte	.LVL211
 10954 1932 0100     		.2byte	0x1
 10955 1934 52       		.byte	0x52
 10956 1935 00000000 		.4byte	0
 10957 1939 00000000 		.4byte	0
 10958              	.LLST54:
 10959 193d 00000000 		.4byte	.LVL234
 10960 1941 0C000000 		.4byte	.LVL235
 10961 1945 0100     		.2byte	0x1
 10962 1947 50       		.byte	0x50
 10963 1948 0C000000 		.4byte	.LVL235
 10964 194c 12000000 		.4byte	.LVL236
 10965 1950 0100     		.2byte	0x1
 10966 1952 53       		.byte	0x53
 10967 1953 12000000 		.4byte	.LVL236
 10968 1957 54000000 		.4byte	.LFE11
 10969 195b 0400     		.2byte	0x4
 10970 195d F3       		.byte	0xf3
 10971 195e 01       		.uleb128 0x1
 10972 195f 50       		.byte	0x50
 10973 1960 9F       		.byte	0x9f
 10974 1961 00000000 		.4byte	0
 10975 1965 00000000 		.4byte	0
 10976              	.LLST55:
 10977 1969 00000000 		.4byte	.LVL234
 10978 196d 16000000 		.4byte	.LVL237
 10979 1971 0100     		.2byte	0x1
 10980 1973 51       		.byte	0x51
 10981 1974 16000000 		.4byte	.LVL237
 10982 1978 52000000 		.4byte	.LVL243
 10983 197c 0100     		.2byte	0x1
 10984 197e 54       		.byte	0x54
 10985 197f 52000000 		.4byte	.LVL243
 10986 1983 54000000 		.4byte	.LFE11
 10987 1987 0400     		.2byte	0x4
 10988 1989 F3       		.byte	0xf3
 10989 198a 01       		.uleb128 0x1
 10990 198b 51       		.byte	0x51
 10991 198c 9F       		.byte	0x9f
 10992 198d 00000000 		.4byte	0
ARM GAS  C:\Users\corne\AppData\Local\Temp\cc0fqrF9.s 			page 220


 10993 1991 00000000 		.4byte	0
 10994              	.LLST56:
 10995 1995 24000000 		.4byte	.LVL238
 10996 1999 38000000 		.4byte	.LVL239
 10997 199d 0100     		.2byte	0x1
 10998 199f 50       		.byte	0x50
 10999 19a0 38000000 		.4byte	.LVL239
 11000 19a4 3B000000 		.4byte	.LVL240-1
 11001 19a8 0400     		.2byte	0x4
 11002 19aa 70       		.byte	0x70
 11003 19ab 8C7E     		.sleb128 -244
 11004 19ad 9F       		.byte	0x9f
 11005 19ae 3C000000 		.4byte	.LVL240
 11006 19b2 4A000000 		.4byte	.LVL241
 11007 19b6 0100     		.2byte	0x1
 11008 19b8 50       		.byte	0x50
 11009 19b9 50000000 		.4byte	.LVL242
 11010 19bd 54000000 		.4byte	.LFE11
 11011 19c1 0100     		.2byte	0x1
 11012 19c3 50       		.byte	0x50
 11013 19c4 00000000 		.4byte	0
 11014 19c8 00000000 		.4byte	0
 11015              	.LLST57:
 11016 19cc 00000000 		.4byte	.LVL244
 11017 19d0 1A000000 		.4byte	.LVL247
 11018 19d4 0100     		.2byte	0x1
 11019 19d6 50       		.byte	0x50
 11020 19d7 1A000000 		.4byte	.LVL247
 11021 19db 52000000 		.4byte	.LFE12
 11022 19df 0400     		.2byte	0x4
 11023 19e1 F3       		.byte	0xf3
 11024 19e2 01       		.uleb128 0x1
 11025 19e3 50       		.byte	0x50
 11026 19e4 9F       		.byte	0x9f
 11027 19e5 00000000 		.4byte	0
 11028 19e9 00000000 		.4byte	0
 11029              	.LLST58:
 11030 19ed 00000000 		.4byte	.LVL244
 11031 19f1 16000000 		.4byte	.LVL246
 11032 19f5 0100     		.2byte	0x1
 11033 19f7 51       		.byte	0x51
 11034 19f8 16000000 		.4byte	.LVL246
 11035 19fc 50000000 		.4byte	.LVL254
 11036 1a00 0100     		.2byte	0x1
 11037 1a02 55       		.byte	0x55
 11038 1a03 50000000 		.4byte	.LVL254
 11039 1a07 52000000 		.4byte	.LFE12
 11040 1a0b 0400     		.2byte	0x4
 11041 1a0d F3       		.byte	0xf3
 11042 1a0e 01       		.uleb128 0x1
 11043 1a0f 51       		.byte	0x51
 11044 1a10 9F       		.byte	0x9f
 11045 1a11 00000000 		.4byte	0
 11046 1a15 00000000 		.4byte	0
 11047              	.LLST59:
 11048 1a19 00000000 		.4byte	.LVL244
 11049 1a1d 0C000000 		.4byte	.LVL245
ARM GAS  C:\Users\corne\AppData\Local\Temp\cc0fqrF9.s 			page 221


 11050 1a21 0100     		.2byte	0x1
 11051 1a23 52       		.byte	0x52
 11052 1a24 0C000000 		.4byte	.LVL245
 11053 1a28 50000000 		.4byte	.LVL253
 11054 1a2c 0100     		.2byte	0x1
 11055 1a2e 54       		.byte	0x54
 11056 1a2f 50000000 		.4byte	.LVL253
 11057 1a33 52000000 		.4byte	.LFE12
 11058 1a37 0400     		.2byte	0x4
 11059 1a39 F3       		.byte	0xf3
 11060 1a3a 01       		.uleb128 0x1
 11061 1a3b 52       		.byte	0x52
 11062 1a3c 9F       		.byte	0x9f
 11063 1a3d 00000000 		.4byte	0
 11064 1a41 00000000 		.4byte	0
 11065              	.LLST60:
 11066 1a45 1E000000 		.4byte	.LVL248
 11067 1a49 2C000000 		.4byte	.LVL249
 11068 1a4d 0100     		.2byte	0x1
 11069 1a4f 50       		.byte	0x50
 11070 1a50 4E000000 		.4byte	.LVL252
 11071 1a54 52000000 		.4byte	.LFE12
 11072 1a58 0100     		.2byte	0x1
 11073 1a5a 50       		.byte	0x50
 11074 1a5b 00000000 		.4byte	0
 11075 1a5f 00000000 		.4byte	0
 11076              	.LLST61:
 11077 1a63 00000000 		.4byte	.LVL255
 11078 1a67 10000000 		.4byte	.LVL258
 11079 1a6b 0100     		.2byte	0x1
 11080 1a6d 50       		.byte	0x50
 11081 1a6e 10000000 		.4byte	.LVL258
 11082 1a72 16000000 		.4byte	.LVL260
 11083 1a76 0400     		.2byte	0x4
 11084 1a78 F3       		.byte	0xf3
 11085 1a79 01       		.uleb128 0x1
 11086 1a7a 50       		.byte	0x50
 11087 1a7b 9F       		.byte	0x9f
 11088 1a7c 16000000 		.4byte	.LVL260
 11089 1a80 18000000 		.4byte	.LVL261
 11090 1a84 0100     		.2byte	0x1
 11091 1a86 50       		.byte	0x50
 11092 1a87 18000000 		.4byte	.LVL261
 11093 1a8b 28000000 		.4byte	.LFE10
 11094 1a8f 0400     		.2byte	0x4
 11095 1a91 F3       		.byte	0xf3
 11096 1a92 01       		.uleb128 0x1
 11097 1a93 50       		.byte	0x50
 11098 1a94 9F       		.byte	0x9f
 11099 1a95 00000000 		.4byte	0
 11100 1a99 00000000 		.4byte	0
 11101              	.LLST62:
 11102 1a9d 00000000 		.4byte	.LVL255
 11103 1aa1 0E000000 		.4byte	.LVL257
 11104 1aa5 0100     		.2byte	0x1
 11105 1aa7 51       		.byte	0x51
 11106 1aa8 0E000000 		.4byte	.LVL257
ARM GAS  C:\Users\corne\AppData\Local\Temp\cc0fqrF9.s 			page 222


 11107 1aac 16000000 		.4byte	.LVL260
 11108 1ab0 0100     		.2byte	0x1
 11109 1ab2 54       		.byte	0x54
 11110 1ab3 16000000 		.4byte	.LVL260
 11111 1ab7 18000000 		.4byte	.LVL261
 11112 1abb 0100     		.2byte	0x1
 11113 1abd 51       		.byte	0x51
 11114 1abe 18000000 		.4byte	.LVL261
 11115 1ac2 26000000 		.4byte	.LVL264
 11116 1ac6 0100     		.2byte	0x1
 11117 1ac8 54       		.byte	0x54
 11118 1ac9 26000000 		.4byte	.LVL264
 11119 1acd 28000000 		.4byte	.LFE10
 11120 1ad1 0400     		.2byte	0x4
 11121 1ad3 F3       		.byte	0xf3
 11122 1ad4 01       		.uleb128 0x1
 11123 1ad5 51       		.byte	0x51
 11124 1ad6 9F       		.byte	0x9f
 11125 1ad7 00000000 		.4byte	0
 11126 1adb 00000000 		.4byte	0
 11127              	.LLST63:
 11128 1adf 00000000 		.4byte	.LVL255
 11129 1ae3 13000000 		.4byte	.LVL259-1
 11130 1ae7 0100     		.2byte	0x1
 11131 1ae9 52       		.byte	0x52
 11132 1aea 13000000 		.4byte	.LVL259-1
 11133 1aee 16000000 		.4byte	.LVL260
 11134 1af2 0100     		.2byte	0x1
 11135 1af4 55       		.byte	0x55
 11136 1af5 16000000 		.4byte	.LVL260
 11137 1af9 18000000 		.4byte	.LVL261
 11138 1afd 0100     		.2byte	0x1
 11139 1aff 52       		.byte	0x52
 11140 1b00 18000000 		.4byte	.LVL261
 11141 1b04 26000000 		.4byte	.LVL265
 11142 1b08 0100     		.2byte	0x1
 11143 1b0a 55       		.byte	0x55
 11144 1b0b 26000000 		.4byte	.LVL265
 11145 1b0f 28000000 		.4byte	.LFE10
 11146 1b13 0400     		.2byte	0x4
 11147 1b15 F3       		.byte	0xf3
 11148 1b16 01       		.uleb128 0x1
 11149 1b17 52       		.byte	0x52
 11150 1b18 9F       		.byte	0x9f
 11151 1b19 00000000 		.4byte	0
 11152 1b1d 00000000 		.4byte	0
 11153              	.LLST64:
 11154 1b21 08000000 		.4byte	.LVL256
 11155 1b25 14000000 		.4byte	.LVL259
 11156 1b29 0200     		.2byte	0x2
 11157 1b2b 31       		.byte	0x31
 11158 1b2c 9F       		.byte	0x9f
 11159 1b2d 14000000 		.4byte	.LVL259
 11160 1b31 16000000 		.4byte	.LVL260
 11161 1b35 0100     		.2byte	0x1
 11162 1b37 50       		.byte	0x50
 11163 1b38 16000000 		.4byte	.LVL260
ARM GAS  C:\Users\corne\AppData\Local\Temp\cc0fqrF9.s 			page 223


 11164 1b3c 18000000 		.4byte	.LVL261
 11165 1b40 0200     		.2byte	0x2
 11166 1b42 31       		.byte	0x31
 11167 1b43 9F       		.byte	0x9f
 11168 1b44 18000000 		.4byte	.LVL261
 11169 1b48 22000000 		.4byte	.LVL262
 11170 1b4c 0100     		.2byte	0x1
 11171 1b4e 50       		.byte	0x50
 11172 1b4f 26000000 		.4byte	.LVL263
 11173 1b53 28000000 		.4byte	.LFE10
 11174 1b57 0100     		.2byte	0x1
 11175 1b59 50       		.byte	0x50
 11176 1b5a 00000000 		.4byte	0
 11177 1b5e 00000000 		.4byte	0
 11178              	.LLST65:
 11179 1b62 00000000 		.4byte	.LVL266
 11180 1b66 1A000000 		.4byte	.LVL269
 11181 1b6a 0100     		.2byte	0x1
 11182 1b6c 50       		.byte	0x50
 11183 1b6d 1A000000 		.4byte	.LVL269
 11184 1b71 52000000 		.4byte	.LFE13
 11185 1b75 0400     		.2byte	0x4
 11186 1b77 F3       		.byte	0xf3
 11187 1b78 01       		.uleb128 0x1
 11188 1b79 50       		.byte	0x50
 11189 1b7a 9F       		.byte	0x9f
 11190 1b7b 00000000 		.4byte	0
 11191 1b7f 00000000 		.4byte	0
 11192              	.LLST66:
 11193 1b83 00000000 		.4byte	.LVL266
 11194 1b87 16000000 		.4byte	.LVL268
 11195 1b8b 0100     		.2byte	0x1
 11196 1b8d 51       		.byte	0x51
 11197 1b8e 16000000 		.4byte	.LVL268
 11198 1b92 50000000 		.4byte	.LVL276
 11199 1b96 0100     		.2byte	0x1
 11200 1b98 55       		.byte	0x55
 11201 1b99 50000000 		.4byte	.LVL276
 11202 1b9d 52000000 		.4byte	.LFE13
 11203 1ba1 0400     		.2byte	0x4
 11204 1ba3 F3       		.byte	0xf3
 11205 1ba4 01       		.uleb128 0x1
 11206 1ba5 51       		.byte	0x51
 11207 1ba6 9F       		.byte	0x9f
 11208 1ba7 00000000 		.4byte	0
 11209 1bab 00000000 		.4byte	0
 11210              	.LLST67:
 11211 1baf 00000000 		.4byte	.LVL266
 11212 1bb3 0C000000 		.4byte	.LVL267
 11213 1bb7 0100     		.2byte	0x1
 11214 1bb9 52       		.byte	0x52
 11215 1bba 0C000000 		.4byte	.LVL267
 11216 1bbe 50000000 		.4byte	.LVL275
 11217 1bc2 0100     		.2byte	0x1
 11218 1bc4 54       		.byte	0x54
 11219 1bc5 50000000 		.4byte	.LVL275
 11220 1bc9 52000000 		.4byte	.LFE13
ARM GAS  C:\Users\corne\AppData\Local\Temp\cc0fqrF9.s 			page 224


 11221 1bcd 0400     		.2byte	0x4
 11222 1bcf F3       		.byte	0xf3
 11223 1bd0 01       		.uleb128 0x1
 11224 1bd1 52       		.byte	0x52
 11225 1bd2 9F       		.byte	0x9f
 11226 1bd3 00000000 		.4byte	0
 11227 1bd7 00000000 		.4byte	0
 11228              	.LLST68:
 11229 1bdb 1E000000 		.4byte	.LVL270
 11230 1bdf 2C000000 		.4byte	.LVL271
 11231 1be3 0100     		.2byte	0x1
 11232 1be5 50       		.byte	0x50
 11233 1be6 4E000000 		.4byte	.LVL274
 11234 1bea 52000000 		.4byte	.LFE13
 11235 1bee 0100     		.2byte	0x1
 11236 1bf0 50       		.byte	0x50
 11237 1bf1 00000000 		.4byte	0
 11238 1bf5 00000000 		.4byte	0
 11239              	.LLST69:
 11240 1bf9 00000000 		.4byte	.LVL277
 11241 1bfd 0C000000 		.4byte	.LVL279
 11242 1c01 0100     		.2byte	0x1
 11243 1c03 50       		.byte	0x50
 11244 1c04 0C000000 		.4byte	.LVL279
 11245 1c08 0F000000 		.4byte	.LVL280-1
 11246 1c0c 0100     		.2byte	0x1
 11247 1c0e 51       		.byte	0x51
 11248 1c0f 0F000000 		.4byte	.LVL280-1
 11249 1c13 1E000000 		.4byte	.LVL283
 11250 1c17 0100     		.2byte	0x1
 11251 1c19 54       		.byte	0x54
 11252 1c1a 1E000000 		.4byte	.LVL283
 11253 1c1e 20000000 		.4byte	.LFE21
 11254 1c22 0400     		.2byte	0x4
 11255 1c24 F3       		.byte	0xf3
 11256 1c25 01       		.uleb128 0x1
 11257 1c26 50       		.byte	0x50
 11258 1c27 9F       		.byte	0x9f
 11259 1c28 00000000 		.4byte	0
 11260 1c2c 00000000 		.4byte	0
 11261              	.LLST70:
 11262 1c30 00000000 		.4byte	.LVL277
 11263 1c34 0A000000 		.4byte	.LVL278
 11264 1c38 0100     		.2byte	0x1
 11265 1c3a 51       		.byte	0x51
 11266 1c3b 0A000000 		.4byte	.LVL278
 11267 1c3f 0F000000 		.4byte	.LVL280-1
 11268 1c43 0100     		.2byte	0x1
 11269 1c45 52       		.byte	0x52
 11270 1c46 0F000000 		.4byte	.LVL280-1
 11271 1c4a 1E000000 		.4byte	.LVL284
 11272 1c4e 0100     		.2byte	0x1
 11273 1c50 55       		.byte	0x55
 11274 1c51 1E000000 		.4byte	.LVL284
 11275 1c55 20000000 		.4byte	.LFE21
 11276 1c59 0400     		.2byte	0x4
 11277 1c5b F3       		.byte	0xf3
ARM GAS  C:\Users\corne\AppData\Local\Temp\cc0fqrF9.s 			page 225


 11278 1c5c 01       		.uleb128 0x1
 11279 1c5d 51       		.byte	0x51
 11280 1c5e 9F       		.byte	0x9f
 11281 1c5f 00000000 		.4byte	0
 11282 1c63 00000000 		.4byte	0
 11283              	.LLST71:
 11284 1c67 10000000 		.4byte	.LVL280
 11285 1c6b 1A000000 		.4byte	.LVL281
 11286 1c6f 0100     		.2byte	0x1
 11287 1c71 50       		.byte	0x50
 11288 1c72 1A000000 		.4byte	.LVL281
 11289 1c76 1D000000 		.4byte	.LVL282-1
 11290 1c7a 0300     		.2byte	0x3
 11291 1c7c 70       		.byte	0x70
 11292 1c7d 61       		.sleb128 -31
 11293 1c7e 9F       		.byte	0x9f
 11294 1c7f 1E000000 		.4byte	.LVL282
 11295 1c83 20000000 		.4byte	.LFE21
 11296 1c87 0100     		.2byte	0x1
 11297 1c89 50       		.byte	0x50
 11298 1c8a 00000000 		.4byte	0
 11299 1c8e 00000000 		.4byte	0
 11300              	.LLST72:
 11301 1c92 00000000 		.4byte	.LVL285
 11302 1c96 18000000 		.4byte	.LVL287
 11303 1c9a 0100     		.2byte	0x1
 11304 1c9c 50       		.byte	0x50
 11305 1c9d 18000000 		.4byte	.LVL287
 11306 1ca1 40000000 		.4byte	.LFE19
 11307 1ca5 0400     		.2byte	0x4
 11308 1ca7 F3       		.byte	0xf3
 11309 1ca8 01       		.uleb128 0x1
 11310 1ca9 50       		.byte	0x50
 11311 1caa 9F       		.byte	0x9f
 11312 1cab 00000000 		.4byte	0
 11313 1caf 00000000 		.4byte	0
 11314              	.LLST73:
 11315 1cb3 00000000 		.4byte	.LVL285
 11316 1cb7 14000000 		.4byte	.LVL286
 11317 1cbb 0100     		.2byte	0x1
 11318 1cbd 51       		.byte	0x51
 11319 1cbe 14000000 		.4byte	.LVL286
 11320 1cc2 1B000000 		.4byte	.LVL288-1
 11321 1cc6 0100     		.2byte	0x1
 11322 1cc8 53       		.byte	0x53
 11323 1cc9 1B000000 		.4byte	.LVL288-1
 11324 1ccd 3E000000 		.4byte	.LVL291
 11325 1cd1 0100     		.2byte	0x1
 11326 1cd3 55       		.byte	0x55
 11327 1cd4 3E000000 		.4byte	.LVL291
 11328 1cd8 40000000 		.4byte	.LFE19
 11329 1cdc 0400     		.2byte	0x4
 11330 1cde F3       		.byte	0xf3
 11331 1cdf 01       		.uleb128 0x1
 11332 1ce0 51       		.byte	0x51
 11333 1ce1 9F       		.byte	0x9f
 11334 1ce2 00000000 		.4byte	0
ARM GAS  C:\Users\corne\AppData\Local\Temp\cc0fqrF9.s 			page 226


 11335 1ce6 00000000 		.4byte	0
 11336              	.LLST74:
 11337 1cea 1C000000 		.4byte	.LVL288
 11338 1cee 36000000 		.4byte	.LVL289
 11339 1cf2 0100     		.2byte	0x1
 11340 1cf4 50       		.byte	0x50
 11341 1cf5 3C000000 		.4byte	.LVL290
 11342 1cf9 40000000 		.4byte	.LFE19
 11343 1cfd 0100     		.2byte	0x1
 11344 1cff 50       		.byte	0x50
 11345 1d00 00000000 		.4byte	0
 11346 1d04 00000000 		.4byte	0
 11347              	.LLST75:
 11348 1d08 00000000 		.4byte	.LVL292
 11349 1d0c 09000000 		.4byte	.LVL293-1
 11350 1d10 0100     		.2byte	0x1
 11351 1d12 50       		.byte	0x50
 11352 1d13 09000000 		.4byte	.LVL293-1
 11353 1d17 2C000000 		.4byte	.LVL301
 11354 1d1b 0100     		.2byte	0x1
 11355 1d1d 55       		.byte	0x55
 11356 1d1e 2C000000 		.4byte	.LVL301
 11357 1d22 2E000000 		.4byte	.LFE5
 11358 1d26 0400     		.2byte	0x4
 11359 1d28 F3       		.byte	0xf3
 11360 1d29 01       		.uleb128 0x1
 11361 1d2a 50       		.byte	0x50
 11362 1d2b 9F       		.byte	0x9f
 11363 1d2c 00000000 		.4byte	0
 11364 1d30 00000000 		.4byte	0
 11365              	.LLST76:
 11366 1d34 0C000000 		.4byte	.LVL294
 11367 1d38 16000000 		.4byte	.LVL295
 11368 1d3c 0100     		.2byte	0x1
 11369 1d3e 50       		.byte	0x50
 11370 1d3f 16000000 		.4byte	.LVL295
 11371 1d43 1C000000 		.4byte	.LVL297
 11372 1d47 0100     		.2byte	0x1
 11373 1d49 54       		.byte	0x54
 11374 1d4a 1C000000 		.4byte	.LVL297
 11375 1d4e 24000000 		.4byte	.LVL298
 11376 1d52 0100     		.2byte	0x1
 11377 1d54 50       		.byte	0x50
 11378 1d55 24000000 		.4byte	.LVL298
 11379 1d59 2C000000 		.4byte	.LVL300
 11380 1d5d 0100     		.2byte	0x1
 11381 1d5f 54       		.byte	0x54
 11382 1d60 00000000 		.4byte	0
 11383 1d64 00000000 		.4byte	0
 11384              	.LLST77:
 11385 1d68 00000000 		.4byte	.LVL302
 11386 1d6c 08000000 		.4byte	.LVL303
 11387 1d70 0100     		.2byte	0x1
 11388 1d72 50       		.byte	0x50
 11389 1d73 08000000 		.4byte	.LVL303
 11390 1d77 24000000 		.4byte	.LVL308
 11391 1d7b 0100     		.2byte	0x1
ARM GAS  C:\Users\corne\AppData\Local\Temp\cc0fqrF9.s 			page 227


 11392 1d7d 54       		.byte	0x54
 11393 1d7e 24000000 		.4byte	.LVL308
 11394 1d82 26000000 		.4byte	.LFE7
 11395 1d86 0400     		.2byte	0x4
 11396 1d88 F3       		.byte	0xf3
 11397 1d89 01       		.uleb128 0x1
 11398 1d8a 50       		.byte	0x50
 11399 1d8b 9F       		.byte	0x9f
 11400 1d8c 00000000 		.4byte	0
 11401 1d90 00000000 		.4byte	0
 11402              	.LLST78:
 11403 1d94 00000000 		.4byte	.LVL302
 11404 1d98 0B000000 		.4byte	.LVL304-1
 11405 1d9c 0100     		.2byte	0x1
 11406 1d9e 51       		.byte	0x51
 11407 1d9f 0B000000 		.4byte	.LVL304-1
 11408 1da3 24000000 		.4byte	.LVL309
 11409 1da7 0100     		.2byte	0x1
 11410 1da9 55       		.byte	0x55
 11411 1daa 24000000 		.4byte	.LVL309
 11412 1dae 26000000 		.4byte	.LFE7
 11413 1db2 0400     		.2byte	0x4
 11414 1db4 F3       		.byte	0xf3
 11415 1db5 01       		.uleb128 0x1
 11416 1db6 51       		.byte	0x51
 11417 1db7 9F       		.byte	0x9f
 11418 1db8 00000000 		.4byte	0
 11419 1dbc 00000000 		.4byte	0
 11420              	.LLST79:
 11421 1dc0 0C000000 		.4byte	.LVL304
 11422 1dc4 18000000 		.4byte	.LVL305
 11423 1dc8 0100     		.2byte	0x1
 11424 1dca 50       		.byte	0x50
 11425 1dcb 18000000 		.4byte	.LVL305
 11426 1dcf 1B000000 		.4byte	.LVL306-1
 11427 1dd3 0400     		.2byte	0x4
 11428 1dd5 70       		.byte	0x70
 11429 1dd6 8C7E     		.sleb128 -244
 11430 1dd8 9F       		.byte	0x9f
 11431 1dd9 1C000000 		.4byte	.LVL306
 11432 1ddd 26000000 		.4byte	.LFE7
 11433 1de1 0100     		.2byte	0x1
 11434 1de3 50       		.byte	0x50
 11435 1de4 00000000 		.4byte	0
 11436 1de8 00000000 		.4byte	0
 11437              	.LLST80:
 11438 1dec 00000000 		.4byte	.LVL310
 11439 1df0 15000000 		.4byte	.LVL311-1
 11440 1df4 0100     		.2byte	0x1
 11441 1df6 50       		.byte	0x50
 11442 1df7 15000000 		.4byte	.LVL311-1
 11443 1dfb 36000000 		.4byte	.LVL319
 11444 1dff 0100     		.2byte	0x1
 11445 1e01 55       		.byte	0x55
 11446 1e02 36000000 		.4byte	.LVL319
 11447 1e06 38000000 		.4byte	.LFE8
 11448 1e0a 0400     		.2byte	0x4
ARM GAS  C:\Users\corne\AppData\Local\Temp\cc0fqrF9.s 			page 228


 11449 1e0c F3       		.byte	0xf3
 11450 1e0d 01       		.uleb128 0x1
 11451 1e0e 50       		.byte	0x50
 11452 1e0f 9F       		.byte	0x9f
 11453 1e10 00000000 		.4byte	0
 11454 1e14 00000000 		.4byte	0
 11455              	.LLST81:
 11456 1e18 18000000 		.4byte	.LVL312
 11457 1e1c 24000000 		.4byte	.LVL313
 11458 1e20 0100     		.2byte	0x1
 11459 1e22 50       		.byte	0x50
 11460 1e23 24000000 		.4byte	.LVL313
 11461 1e27 2C000000 		.4byte	.LVL315
 11462 1e2b 0100     		.2byte	0x1
 11463 1e2d 54       		.byte	0x54
 11464 1e2e 2C000000 		.4byte	.LVL315
 11465 1e32 30000000 		.4byte	.LVL316
 11466 1e36 0100     		.2byte	0x1
 11467 1e38 50       		.byte	0x50
 11468 1e39 30000000 		.4byte	.LVL316
 11469 1e3d 36000000 		.4byte	.LVL318
 11470 1e41 0100     		.2byte	0x1
 11471 1e43 54       		.byte	0x54
 11472 1e44 00000000 		.4byte	0
 11473 1e48 00000000 		.4byte	0
 11474              	.LLST82:
 11475 1e4c 00000000 		.4byte	.LVL320
 11476 1e50 0F000000 		.4byte	.LVL322-1
 11477 1e54 0100     		.2byte	0x1
 11478 1e56 50       		.byte	0x50
 11479 1e57 0F000000 		.4byte	.LVL322-1
 11480 1e5b 66000000 		.4byte	.LVL343
 11481 1e5f 0100     		.2byte	0x1
 11482 1e61 56       		.byte	0x56
 11483 1e62 66000000 		.4byte	.LVL343
 11484 1e66 68000000 		.4byte	.LFE1
 11485 1e6a 0400     		.2byte	0x4
 11486 1e6c F3       		.byte	0xf3
 11487 1e6d 01       		.uleb128 0x1
 11488 1e6e 50       		.byte	0x50
 11489 1e6f 9F       		.byte	0x9f
 11490 1e70 00000000 		.4byte	0
 11491 1e74 00000000 		.4byte	0
 11492              	.LLST83:
 11493 1e78 12000000 		.4byte	.LVL323
 11494 1e7c 16000000 		.4byte	.LVL324
 11495 1e80 0100     		.2byte	0x1
 11496 1e82 50       		.byte	0x50
 11497 1e83 16000000 		.4byte	.LVL324
 11498 1e87 26000000 		.4byte	.LVL326
 11499 1e8b 0100     		.2byte	0x1
 11500 1e8d 54       		.byte	0x54
 11501 1e8e 26000000 		.4byte	.LVL326
 11502 1e92 36000000 		.4byte	.LVL327
 11503 1e96 0100     		.2byte	0x1
 11504 1e98 50       		.byte	0x50
 11505 1e99 36000000 		.4byte	.LVL327
ARM GAS  C:\Users\corne\AppData\Local\Temp\cc0fqrF9.s 			page 229


 11506 1e9d 3C000000 		.4byte	.LVL329
 11507 1ea1 0100     		.2byte	0x1
 11508 1ea3 54       		.byte	0x54
 11509 1ea4 3C000000 		.4byte	.LVL329
 11510 1ea8 40000000 		.4byte	.LVL330
 11511 1eac 0100     		.2byte	0x1
 11512 1eae 50       		.byte	0x50
 11513 1eaf 40000000 		.4byte	.LVL330
 11514 1eb3 46000000 		.4byte	.LVL332
 11515 1eb7 0100     		.2byte	0x1
 11516 1eb9 54       		.byte	0x54
 11517 1eba 46000000 		.4byte	.LVL332
 11518 1ebe 4A000000 		.4byte	.LVL333
 11519 1ec2 0100     		.2byte	0x1
 11520 1ec4 50       		.byte	0x50
 11521 1ec5 4A000000 		.4byte	.LVL333
 11522 1ec9 54000000 		.4byte	.LVL337
 11523 1ecd 0100     		.2byte	0x1
 11524 1ecf 54       		.byte	0x54
 11525 1ed0 54000000 		.4byte	.LVL337
 11526 1ed4 56000000 		.4byte	.LVL338
 11527 1ed8 0100     		.2byte	0x1
 11528 1eda 50       		.byte	0x50
 11529 1edb 56000000 		.4byte	.LVL338
 11530 1edf 60000000 		.4byte	.LVL340
 11531 1ee3 0100     		.2byte	0x1
 11532 1ee5 54       		.byte	0x54
 11533 1ee6 62000000 		.4byte	.LVL341
 11534 1eea 66000000 		.4byte	.LVL342
 11535 1eee 0100     		.2byte	0x1
 11536 1ef0 54       		.byte	0x54
 11537 1ef1 00000000 		.4byte	0
 11538 1ef5 00000000 		.4byte	0
 11539              	.LLST84:
 11540 1ef9 06000000 		.4byte	.LVL321
 11541 1efd 16000000 		.4byte	.LVL324
 11542 1f01 0200     		.2byte	0x2
 11543 1f03 35       		.byte	0x35
 11544 1f04 9F       		.byte	0x9f
 11545 1f05 16000000 		.4byte	.LVL324
 11546 1f09 50000000 		.4byte	.LVL335
 11547 1f0d 0100     		.2byte	0x1
 11548 1f0f 55       		.byte	0x55
 11549 1f10 52000000 		.4byte	.LVL336
 11550 1f14 54000000 		.4byte	.LVL337
 11551 1f18 0100     		.2byte	0x1
 11552 1f1a 55       		.byte	0x55
 11553 1f1b 54000000 		.4byte	.LVL337
 11554 1f1f 56000000 		.4byte	.LVL338
 11555 1f23 0200     		.2byte	0x2
 11556 1f25 35       		.byte	0x35
 11557 1f26 9F       		.byte	0x9f
 11558 1f27 56000000 		.4byte	.LVL338
 11559 1f2b 62000000 		.4byte	.LVL341
 11560 1f2f 0100     		.2byte	0x1
 11561 1f31 55       		.byte	0x55
 11562 1f32 00000000 		.4byte	0
ARM GAS  C:\Users\corne\AppData\Local\Temp\cc0fqrF9.s 			page 230


 11563 1f36 00000000 		.4byte	0
 11564              	.LLST85:
 11565 1f3a 00000000 		.4byte	.LVL344
 11566 1f3e 0E000000 		.4byte	.LVL345
 11567 1f42 0100     		.2byte	0x1
 11568 1f44 50       		.byte	0x50
 11569 1f45 0E000000 		.4byte	.LVL345
 11570 1f49 11000000 		.4byte	.LVL346-1
 11571 1f4d 0100     		.2byte	0x1
 11572 1f4f 53       		.byte	0x53
 11573 1f50 11000000 		.4byte	.LVL346-1
 11574 1f54 32000000 		.4byte	.LVL352
 11575 1f58 0100     		.2byte	0x1
 11576 1f5a 54       		.byte	0x54
 11577 1f5b 32000000 		.4byte	.LVL352
 11578 1f5f 34000000 		.4byte	.LFE20
 11579 1f63 0400     		.2byte	0x4
 11580 1f65 F3       		.byte	0xf3
 11581 1f66 01       		.uleb128 0x1
 11582 1f67 50       		.byte	0x50
 11583 1f68 9F       		.byte	0x9f
 11584 1f69 00000000 		.4byte	0
 11585 1f6d 00000000 		.4byte	0
 11586              	.LLST86:
 11587 1f71 12000000 		.4byte	.LVL346
 11588 1f75 1A000000 		.4byte	.LVL347
 11589 1f79 0100     		.2byte	0x1
 11590 1f7b 50       		.byte	0x50
 11591 1f7c 24000000 		.4byte	.LVL349
 11592 1f80 2C000000 		.4byte	.LVL350
 11593 1f84 0100     		.2byte	0x1
 11594 1f86 50       		.byte	0x50
 11595 1f87 30000000 		.4byte	.LVL351
 11596 1f8b 34000000 		.4byte	.LFE20
 11597 1f8f 0100     		.2byte	0x1
 11598 1f91 50       		.byte	0x50
 11599 1f92 00000000 		.4byte	0
 11600 1f96 00000000 		.4byte	0
 11601              	.LLST87:
 11602 1f9a 00000000 		.4byte	.LVL353
 11603 1f9e 0A000000 		.4byte	.LVL354
 11604 1fa2 0100     		.2byte	0x1
 11605 1fa4 50       		.byte	0x50
 11606 1fa5 0A000000 		.4byte	.LVL354
 11607 1fa9 74000000 		.4byte	.LFE4
 11608 1fad 0400     		.2byte	0x4
 11609 1faf F3       		.byte	0xf3
 11610 1fb0 01       		.uleb128 0x1
 11611 1fb1 50       		.byte	0x50
 11612 1fb2 9F       		.byte	0x9f
 11613 1fb3 00000000 		.4byte	0
 11614 1fb7 00000000 		.4byte	0
 11615              	.LLST88:
 11616 1fbb 00000000 		.4byte	.LVL353
 11617 1fbf 0D000000 		.4byte	.LVL355-1
 11618 1fc3 0100     		.2byte	0x1
 11619 1fc5 51       		.byte	0x51
ARM GAS  C:\Users\corne\AppData\Local\Temp\cc0fqrF9.s 			page 231


 11620 1fc6 0D000000 		.4byte	.LVL355-1
 11621 1fca 72000000 		.4byte	.LVL370
 11622 1fce 0100     		.2byte	0x1
 11623 1fd0 55       		.byte	0x55
 11624 1fd1 72000000 		.4byte	.LVL370
 11625 1fd5 74000000 		.4byte	.LFE4
 11626 1fd9 0400     		.2byte	0x4
 11627 1fdb F3       		.byte	0xf3
 11628 1fdc 01       		.uleb128 0x1
 11629 1fdd 51       		.byte	0x51
 11630 1fde 9F       		.byte	0x9f
 11631 1fdf 00000000 		.4byte	0
 11632 1fe3 00000000 		.4byte	0
 11633              	.LLST89:
 11634 1fe7 10000000 		.4byte	.LVL356
 11635 1feb 18000000 		.4byte	.LVL357
 11636 1fef 0100     		.2byte	0x1
 11637 1ff1 50       		.byte	0x50
 11638 1ff2 18000000 		.4byte	.LVL357
 11639 1ff6 1E000000 		.4byte	.LVL359
 11640 1ffa 0100     		.2byte	0x1
 11641 1ffc 54       		.byte	0x54
 11642 1ffd 1E000000 		.4byte	.LVL359
 11643 2001 2C000000 		.4byte	.LVL360
 11644 2005 0100     		.2byte	0x1
 11645 2007 50       		.byte	0x50
 11646 2008 2C000000 		.4byte	.LVL360
 11647 200c 72000000 		.4byte	.LVL369
 11648 2010 0100     		.2byte	0x1
 11649 2012 54       		.byte	0x54
 11650 2013 00000000 		.4byte	0
 11651 2017 00000000 		.4byte	0
 11652              	.LLST90:
 11653 201b 00000000 		.4byte	.LVL371
 11654 201f 0A000000 		.4byte	.LVL372
 11655 2023 0100     		.2byte	0x1
 11656 2025 50       		.byte	0x50
 11657 2026 0A000000 		.4byte	.LVL372
 11658 202a 40000000 		.4byte	.LFE6
 11659 202e 0400     		.2byte	0x4
 11660 2030 F3       		.byte	0xf3
 11661 2031 01       		.uleb128 0x1
 11662 2032 50       		.byte	0x50
 11663 2033 9F       		.byte	0x9f
 11664 2034 00000000 		.4byte	0
 11665 2038 00000000 		.4byte	0
 11666              	.LLST91:
 11667 203c 00000000 		.4byte	.LVL371
 11668 2040 0D000000 		.4byte	.LVL373-1
 11669 2044 0100     		.2byte	0x1
 11670 2046 51       		.byte	0x51
 11671 2047 0D000000 		.4byte	.LVL373-1
 11672 204b 3E000000 		.4byte	.LVL380
 11673 204f 0100     		.2byte	0x1
 11674 2051 54       		.byte	0x54
 11675 2052 3E000000 		.4byte	.LVL380
 11676 2056 40000000 		.4byte	.LFE6
ARM GAS  C:\Users\corne\AppData\Local\Temp\cc0fqrF9.s 			page 232


 11677 205a 0400     		.2byte	0x4
 11678 205c F3       		.byte	0xf3
 11679 205d 01       		.uleb128 0x1
 11680 205e 51       		.byte	0x51
 11681 205f 9F       		.byte	0x9f
 11682 2060 00000000 		.4byte	0
 11683 2064 00000000 		.4byte	0
 11684              	.LLST92:
 11685 2068 0E000000 		.4byte	.LVL373
 11686 206c 18000000 		.4byte	.LVL374
 11687 2070 0100     		.2byte	0x1
 11688 2072 50       		.byte	0x50
 11689 2073 1C000000 		.4byte	.LVL375
 11690 2077 2C000000 		.4byte	.LVL376
 11691 207b 0100     		.2byte	0x1
 11692 207d 50       		.byte	0x50
 11693 207e 30000000 		.4byte	.LVL377
 11694 2082 38000000 		.4byte	.LVL378
 11695 2086 0100     		.2byte	0x1
 11696 2088 50       		.byte	0x50
 11697 2089 3C000000 		.4byte	.LVL379
 11698 208d 40000000 		.4byte	.LFE6
 11699 2091 0100     		.2byte	0x1
 11700 2093 50       		.byte	0x50
 11701 2094 00000000 		.4byte	0
 11702 2098 00000000 		.4byte	0
 11703              	.LLST93:
 11704 209c 00000000 		.4byte	.LVL381
 11705 20a0 10000000 		.4byte	.LVL384
 11706 20a4 0100     		.2byte	0x1
 11707 20a6 50       		.byte	0x50
 11708 20a7 10000000 		.4byte	.LVL384
 11709 20ab 62000000 		.4byte	.LFE9
 11710 20af 0400     		.2byte	0x4
 11711 20b1 F3       		.byte	0xf3
 11712 20b2 01       		.uleb128 0x1
 11713 20b3 50       		.byte	0x50
 11714 20b4 9F       		.byte	0x9f
 11715 20b5 00000000 		.4byte	0
 11716 20b9 00000000 		.4byte	0
 11717              	.LLST94:
 11718 20bd 00000000 		.4byte	.LVL381
 11719 20c1 0E000000 		.4byte	.LVL383
 11720 20c5 0100     		.2byte	0x1
 11721 20c7 51       		.byte	0x51
 11722 20c8 0E000000 		.4byte	.LVL383
 11723 20cc 60000000 		.4byte	.LVL398
 11724 20d0 0100     		.2byte	0x1
 11725 20d2 55       		.byte	0x55
 11726 20d3 60000000 		.4byte	.LVL398
 11727 20d7 62000000 		.4byte	.LFE9
 11728 20db 0400     		.2byte	0x4
 11729 20dd F3       		.byte	0xf3
 11730 20de 01       		.uleb128 0x1
 11731 20df 51       		.byte	0x51
 11732 20e0 9F       		.byte	0x9f
 11733 20e1 00000000 		.4byte	0
ARM GAS  C:\Users\corne\AppData\Local\Temp\cc0fqrF9.s 			page 233


 11734 20e5 00000000 		.4byte	0
 11735              	.LLST95:
 11736 20e9 00000000 		.4byte	.LVL381
 11737 20ed 0C000000 		.4byte	.LVL382
 11738 20f1 0100     		.2byte	0x1
 11739 20f3 52       		.byte	0x52
 11740 20f4 0C000000 		.4byte	.LVL382
 11741 20f8 60000000 		.4byte	.LVL397
 11742 20fc 0100     		.2byte	0x1
 11743 20fe 54       		.byte	0x54
 11744 20ff 60000000 		.4byte	.LVL397
 11745 2103 62000000 		.4byte	.LFE9
 11746 2107 0400     		.2byte	0x4
 11747 2109 F3       		.byte	0xf3
 11748 210a 01       		.uleb128 0x1
 11749 210b 52       		.byte	0x52
 11750 210c 9F       		.byte	0x9f
 11751 210d 00000000 		.4byte	0
 11752 2111 00000000 		.4byte	0
 11753              	.LLST96:
 11754 2115 24000000 		.4byte	.LVL387
 11755 2119 34000000 		.4byte	.LVL388
 11756 211d 0100     		.2byte	0x1
 11757 211f 50       		.byte	0x50
 11758 2120 38000000 		.4byte	.LVL389
 11759 2124 40000000 		.4byte	.LVL390
 11760 2128 0100     		.2byte	0x1
 11761 212a 50       		.byte	0x50
 11762 212b 52000000 		.4byte	.LVL392
 11763 212f 56000000 		.4byte	.LVL393
 11764 2133 0100     		.2byte	0x1
 11765 2135 50       		.byte	0x50
 11766 2136 5A000000 		.4byte	.LVL394
 11767 213a 5C000000 		.4byte	.LVL395
 11768 213e 0100     		.2byte	0x1
 11769 2140 50       		.byte	0x50
 11770 2141 5E000000 		.4byte	.LVL396
 11771 2145 62000000 		.4byte	.LFE9
 11772 2149 0100     		.2byte	0x1
 11773 214b 50       		.byte	0x50
 11774 214c 00000000 		.4byte	0
 11775 2150 00000000 		.4byte	0
 11776              		.section	.debug_aranges,"",%progbits
 11777 0000 14010000 		.4byte	0x114
 11778 0004 0200     		.2byte	0x2
 11779 0006 00000000 		.4byte	.Ldebug_info0
 11780 000a 04       		.byte	0x4
 11781 000b 00       		.byte	0
 11782 000c 0000     		.2byte	0
 11783 000e 0000     		.2byte	0
 11784 0010 00000000 		.4byte	.LFB14
 11785 0014 16000000 		.4byte	.LFE14-.LFB14
 11786 0018 00000000 		.4byte	.LFB15
 11787 001c 10000000 		.4byte	.LFE15-.LFB15
 11788 0020 00000000 		.4byte	.LFB16
 11789 0024 16000000 		.4byte	.LFE16-.LFB16
 11790 0028 00000000 		.4byte	.LFB17
ARM GAS  C:\Users\corne\AppData\Local\Temp\cc0fqrF9.s 			page 234


 11791 002c 10000000 		.4byte	.LFE17-.LFB17
 11792 0030 00000000 		.4byte	.LFB18
 11793 0034 28000000 		.4byte	.LFE18-.LFB18
 11794 0038 00000000 		.4byte	.LFB22
 11795 003c 32000000 		.4byte	.LFE22-.LFB22
 11796 0040 00000000 		.4byte	.LFB24
 11797 0044 70000000 		.4byte	.LFE24-.LFB24
 11798 0048 00000000 		.4byte	.LFB25
 11799 004c 2C020000 		.4byte	.LFE25-.LFB25
 11800 0050 00000000 		.4byte	.LFB26
 11801 0054 D8000000 		.4byte	.LFE26-.LFB26
 11802 0058 00000000 		.4byte	.LFB23
 11803 005c 62000000 		.4byte	.LFE23-.LFB23
 11804 0060 00000000 		.4byte	.LFB28
 11805 0064 1C000000 		.4byte	.LFE28-.LFB28
 11806 0068 00000000 		.4byte	.LFB29
 11807 006c 80000000 		.4byte	.LFE29-.LFB29
 11808 0070 00000000 		.4byte	.LFB30
 11809 0074 3A000000 		.4byte	.LFE30-.LFB30
 11810 0078 00000000 		.4byte	.LFB31
 11811 007c 0C000000 		.4byte	.LFE31-.LFB31
 11812 0080 00000000 		.4byte	.LFB32
 11813 0084 32000000 		.4byte	.LFE32-.LFB32
 11814 0088 00000000 		.4byte	.LFB2
 11815 008c 3C000000 		.4byte	.LFE2-.LFB2
 11816 0090 00000000 		.4byte	.LFB27
 11817 0094 46000000 		.4byte	.LFE27-.LFB27
 11818 0098 00000000 		.4byte	.LFB3
 11819 009c AA000000 		.4byte	.LFE3-.LFB3
 11820 00a0 00000000 		.4byte	.LFB11
 11821 00a4 54000000 		.4byte	.LFE11-.LFB11
 11822 00a8 00000000 		.4byte	.LFB12
 11823 00ac 52000000 		.4byte	.LFE12-.LFB12
 11824 00b0 00000000 		.4byte	.LFB10
 11825 00b4 28000000 		.4byte	.LFE10-.LFB10
 11826 00b8 00000000 		.4byte	.LFB13
 11827 00bc 52000000 		.4byte	.LFE13-.LFB13
 11828 00c0 00000000 		.4byte	.LFB21
 11829 00c4 20000000 		.4byte	.LFE21-.LFB21
 11830 00c8 00000000 		.4byte	.LFB19
 11831 00cc 40000000 		.4byte	.LFE19-.LFB19
 11832 00d0 00000000 		.4byte	.LFB5
 11833 00d4 2E000000 		.4byte	.LFE5-.LFB5
 11834 00d8 00000000 		.4byte	.LFB7
 11835 00dc 26000000 		.4byte	.LFE7-.LFB7
 11836 00e0 00000000 		.4byte	.LFB8
 11837 00e4 38000000 		.4byte	.LFE8-.LFB8
 11838 00e8 00000000 		.4byte	.LFB1
 11839 00ec 68000000 		.4byte	.LFE1-.LFB1
 11840 00f0 00000000 		.4byte	.LFB20
 11841 00f4 34000000 		.4byte	.LFE20-.LFB20
 11842 00f8 00000000 		.4byte	.LFB4
 11843 00fc 74000000 		.4byte	.LFE4-.LFB4
 11844 0100 00000000 		.4byte	.LFB6
 11845 0104 40000000 		.4byte	.LFE6-.LFB6
 11846 0108 00000000 		.4byte	.LFB9
 11847 010c 62000000 		.4byte	.LFE9-.LFB9
ARM GAS  C:\Users\corne\AppData\Local\Temp\cc0fqrF9.s 			page 235


 11848 0110 00000000 		.4byte	0
 11849 0114 00000000 		.4byte	0
 11850              		.section	.debug_ranges,"",%progbits
 11851              	.Ldebug_ranges0:
 11852 0000 00000000 		.4byte	.LFB14
 11853 0004 16000000 		.4byte	.LFE14
 11854 0008 00000000 		.4byte	.LFB15
 11855 000c 10000000 		.4byte	.LFE15
 11856 0010 00000000 		.4byte	.LFB16
 11857 0014 16000000 		.4byte	.LFE16
 11858 0018 00000000 		.4byte	.LFB17
 11859 001c 10000000 		.4byte	.LFE17
 11860 0020 00000000 		.4byte	.LFB18
 11861 0024 28000000 		.4byte	.LFE18
 11862 0028 00000000 		.4byte	.LFB22
 11863 002c 32000000 		.4byte	.LFE22
 11864 0030 00000000 		.4byte	.LFB24
 11865 0034 70000000 		.4byte	.LFE24
 11866 0038 00000000 		.4byte	.LFB25
 11867 003c 2C020000 		.4byte	.LFE25
 11868 0040 00000000 		.4byte	.LFB26
 11869 0044 D8000000 		.4byte	.LFE26
 11870 0048 00000000 		.4byte	.LFB23
 11871 004c 62000000 		.4byte	.LFE23
 11872 0050 00000000 		.4byte	.LFB28
 11873 0054 1C000000 		.4byte	.LFE28
 11874 0058 00000000 		.4byte	.LFB29
 11875 005c 80000000 		.4byte	.LFE29
 11876 0060 00000000 		.4byte	.LFB30
 11877 0064 3A000000 		.4byte	.LFE30
 11878 0068 00000000 		.4byte	.LFB31
 11879 006c 0C000000 		.4byte	.LFE31
 11880 0070 00000000 		.4byte	.LFB32
 11881 0074 32000000 		.4byte	.LFE32
 11882 0078 00000000 		.4byte	.LFB2
 11883 007c 3C000000 		.4byte	.LFE2
 11884 0080 00000000 		.4byte	.LFB27
 11885 0084 46000000 		.4byte	.LFE27
 11886 0088 00000000 		.4byte	.LFB3
 11887 008c AA000000 		.4byte	.LFE3
 11888 0090 00000000 		.4byte	.LFB11
 11889 0094 54000000 		.4byte	.LFE11
 11890 0098 00000000 		.4byte	.LFB12
 11891 009c 52000000 		.4byte	.LFE12
 11892 00a0 00000000 		.4byte	.LFB10
 11893 00a4 28000000 		.4byte	.LFE10
 11894 00a8 00000000 		.4byte	.LFB13
 11895 00ac 52000000 		.4byte	.LFE13
 11896 00b0 00000000 		.4byte	.LFB21
 11897 00b4 20000000 		.4byte	.LFE21
 11898 00b8 00000000 		.4byte	.LFB19
 11899 00bc 40000000 		.4byte	.LFE19
 11900 00c0 00000000 		.4byte	.LFB5
 11901 00c4 2E000000 		.4byte	.LFE5
 11902 00c8 00000000 		.4byte	.LFB7
 11903 00cc 26000000 		.4byte	.LFE7
 11904 00d0 00000000 		.4byte	.LFB8
ARM GAS  C:\Users\corne\AppData\Local\Temp\cc0fqrF9.s 			page 236


 11905 00d4 38000000 		.4byte	.LFE8
 11906 00d8 00000000 		.4byte	.LFB1
 11907 00dc 68000000 		.4byte	.LFE1
 11908 00e0 00000000 		.4byte	.LFB20
 11909 00e4 34000000 		.4byte	.LFE20
 11910 00e8 00000000 		.4byte	.LFB4
 11911 00ec 74000000 		.4byte	.LFE4
 11912 00f0 00000000 		.4byte	.LFB6
 11913 00f4 40000000 		.4byte	.LFE6
 11914 00f8 00000000 		.4byte	.LFB9
 11915 00fc 62000000 		.4byte	.LFE9
 11916 0100 00000000 		.4byte	0
 11917 0104 00000000 		.4byte	0
 11918              		.section	.debug_line,"",%progbits
 11919              	.Ldebug_line0:
 11920 0000 C9040000 		.section	.debug_str,"MS",%progbits,1
 11920      02002D01 
 11920      00000201 
 11920      FB0E0D00 
 11920      01010101 
 11921              	.LASF134:
 11922 0000 7472795F 		.ascii	"try_count\000"
 11922      636F756E 
 11922      7400
 11923              	.LASF75:
 11924 000a 66696C6C 		.ascii	"fill_osr_temp_settings\000"
 11924      5F6F7372 
 11924      5F74656D 
 11924      705F7365 
 11924      7474696E 
 11925              	.LASF51:
 11926 0021 74656D70 		.ascii	"temperature\000"
 11926      65726174 
 11926      75726500 
 11927              	.LASF98:
 11928 002d 72736C74 		.ascii	"rslt\000"
 11928      00
 11929              	.LASF50:
 11930 0032 70726573 		.ascii	"pressure\000"
 11930      73757265 
 11930      00
 11931              	.LASF97:
 11932 003b 636F6D70 		.ascii	"comp_data\000"
 11932      5F646174 
 11932      6100
 11933              	.LASF62:
 11934 0045 696E7465 		.ascii	"interface\000"
 11934      72666163 
 11934      6500
 11935              	.LASF15:
 11936 004f 756E7369 		.ascii	"unsigned int\000"
 11936      676E6564 
 11936      20696E74 
 11936      00
 11937              	.LASF141:
 11938 005c 626D6532 		.ascii	"bme280.c\000"
 11938      38302E63 
ARM GAS  C:\Users\corne\AppData\Local\Temp\cc0fqrF9.s 			page 237


 11938      00
 11939              	.LASF8:
 11940 0065 5F5F696E 		.ascii	"__int32_t\000"
 11940      7433325F 
 11940      7400
 11941              	.LASF84:
 11942 006f 74656D70 		.ascii	"temperature_min\000"
 11942      65726174 
 11942      7572655F 
 11942      6D696E00 
 11943              	.LASF144:
 11944 007f 6D656D73 		.ascii	"memset\000"
 11944      657400
 11945              	.LASF125:
 11946 0086 72656C6F 		.ascii	"reload_device_settings\000"
 11946      61645F64 
 11946      65766963 
 11946      655F7365 
 11946      7474696E 
 11947              	.LASF30:
 11948 009d 6469675F 		.ascii	"dig_T1\000"
 11948      543100
 11949              	.LASF31:
 11950 00a4 6469675F 		.ascii	"dig_T2\000"
 11950      543200
 11951              	.LASF32:
 11952 00ab 6469675F 		.ascii	"dig_T3\000"
 11952      543300
 11953              	.LASF111:
 11954 00b2 64657369 		.ascii	"desired_settings\000"
 11954      7265645F 
 11954      73657474 
 11954      696E6773 
 11954      00
 11955              	.LASF137:
 11956 00c3 626D6532 		.ascii	"bme280_set_sensor_mode\000"
 11956      38305F73 
 11956      65745F73 
 11956      656E736F 
 11956      725F6D6F 
 11957              	.LASF57:
 11958 00da 6F73725F 		.ascii	"osr_h\000"
 11958      6800
 11959              	.LASF124:
 11960 00e0 7365745F 		.ascii	"set_filter_standby_settings\000"
 11960      66696C74 
 11960      65725F73 
 11960      74616E64 
 11960      62795F73 
 11961              	.LASF55:
 11962 00fc 6F73725F 		.ascii	"osr_p\000"
 11962      7000
 11963              	.LASF53:
 11964 0102 626D6532 		.ascii	"bme280_data\000"
 11964      38305F64 
 11964      61746100 
 11965              	.LASF56:
ARM GAS  C:\Users\corne\AppData\Local\Temp\cc0fqrF9.s 			page 238


 11966 010e 6F73725F 		.ascii	"osr_t\000"
 11966      7400
 11967              	.LASF139:
 11968 0114 626D6532 		.ascii	"bme280_get_sensor_data\000"
 11968      38305F67 
 11968      65745F73 
 11968      656E736F 
 11968      725F6461 
 11969              	.LASF76:
 11970 012b 70617273 		.ascii	"parse_device_settings\000"
 11970      655F6465 
 11970      76696365 
 11970      5F736574 
 11970      74696E67 
 11971              	.LASF21:
 11972 0141 75696E74 		.ascii	"uint32_t\000"
 11972      33325F74 
 11972      00
 11973              	.LASF16:
 11974 014a 696E7438 		.ascii	"int8_t\000"
 11974      5F7400
 11975              	.LASF117:
 11976 0151 74656D70 		.ascii	"temp_len\000"
 11976      5F6C656E 
 11976      00
 11977              	.LASF69:
 11978 015a 666C6F61 		.ascii	"float\000"
 11978      7400
 11979              	.LASF133:
 11980 0160 626D6532 		.ascii	"bme280_init\000"
 11980      38305F69 
 11980      6E697400 
 11981              	.LASF102:
 11982 016c 696E6465 		.ascii	"index\000"
 11982      7800
 11983              	.LASF18:
 11984 0172 696E7431 		.ascii	"int16_t\000"
 11984      365F7400 
 11985              	.LASF14:
 11986 017a 6C6F6E67 		.ascii	"long long unsigned int\000"
 11986      206C6F6E 
 11986      6720756E 
 11986      7369676E 
 11986      65642069 
 11987              	.LASF71:
 11988 0191 7265675F 		.ascii	"reg_data\000"
 11988      64617461 
 11988      00
 11989              	.LASF101:
 11990 019a 74656D70 		.ascii	"temp_buff\000"
 11990      5F627566 
 11990      6600
 11991              	.LASF6:
 11992 01a4 5F5F7569 		.ascii	"__uint16_t\000"
 11992      6E743136 
 11992      5F7400
 11993              	.LASF119:
ARM GAS  C:\Users\corne\AppData\Local\Temp\cc0fqrF9.s 			page 239


 11994 01af 7365745F 		.ascii	"set_osr_humidity_settings\000"
 11994      6F73725F 
 11994      68756D69 
 11994      64697479 
 11994      5F736574 
 11995              	.LASF140:
 11996 01c9 474E5520 		.ascii	"GNU C11 5.4.1 20160609 (release) [ARM/embedded-5-br"
 11996      43313120 
 11996      352E342E 
 11996      31203230 
 11996      31363036 
 11997 01fc 616E6368 		.ascii	"anch revision 237715] -mcpu=cortex-m0 -mthumb -g -O"
 11997      20726576 
 11997      6973696F 
 11997      6E203233 
 11997      37373135 
 11998 022f 67202D66 		.ascii	"g -ffunction-sections -ffat-lto-objects\000"
 11998      66756E63 
 11998      74696F6E 
 11998      2D736563 
 11998      74696F6E 
 11999              	.LASF61:
 12000 0257 63686970 		.ascii	"chip_id\000"
 12000      5F696400 
 12001              	.LASF138:
 12002 025f 6C617374 		.ascii	"last_set_mode\000"
 12002      5F736574 
 12002      5F6D6F64 
 12002      6500
 12003              	.LASF108:
 12004 026d 6469675F 		.ascii	"dig_H5_msb\000"
 12004      48355F6D 
 12004      736200
 12005              	.LASF22:
 12006 0278 696E7436 		.ascii	"int64_t\000"
 12006      345F7400 
 12007              	.LASF128:
 12008 0280 73656E73 		.ascii	"sensor_mode_reg_val\000"
 12008      6F725F6D 
 12008      6F64655F 
 12008      7265675F 
 12008      76616C00 
 12009              	.LASF120:
 12010 0294 6374726C 		.ascii	"ctrl_hum\000"
 12010      5F68756D 
 12010      00
 12011              	.LASF132:
 12012 029d 736F6674 		.ascii	"soft_rst_cmd\000"
 12012      5F727374 
 12012      5F636D64 
 12012      00
 12013              	.LASF86:
 12014 02aa 636F6D70 		.ascii	"compensate_temperature\000"
 12014      656E7361 
 12014      74655F74 
 12014      656D7065 
 12014      72617475 
ARM GAS  C:\Users\corne\AppData\Local\Temp\cc0fqrF9.s 			page 240


 12015              	.LASF42:
 12016 02c1 6469675F 		.ascii	"dig_H1\000"
 12016      483100
 12017              	.LASF43:
 12018 02c8 6469675F 		.ascii	"dig_H2\000"
 12018      483200
 12019              	.LASF44:
 12020 02cf 6469675F 		.ascii	"dig_H3\000"
 12020      483300
 12021              	.LASF45:
 12022 02d6 6469675F 		.ascii	"dig_H4\000"
 12022      483400
 12023              	.LASF46:
 12024 02dd 6469675F 		.ascii	"dig_H5\000"
 12024      483500
 12025              	.LASF47:
 12026 02e4 6469675F 		.ascii	"dig_H6\000"
 12026      483600
 12027              	.LASF29:
 12028 02eb 626D6532 		.ascii	"bme280_delay_fptr_t\000"
 12028      38305F64 
 12028      656C6179 
 12028      5F667074 
 12028      725F7400 
 12029              	.LASF65:
 12030 02ff 64656C61 		.ascii	"delay_ms\000"
 12030      795F6D73 
 12030      00
 12031              	.LASF67:
 12032 0308 73657474 		.ascii	"settings\000"
 12032      696E6773 
 12032      00
 12033              	.LASF66:
 12034 0311 63616C69 		.ascii	"calib_data\000"
 12034      625F6461 
 12034      746100
 12035              	.LASF77:
 12036 031c 70617273 		.ascii	"parse_sensor_data\000"
 12036      655F7365 
 12036      6E736F72 
 12036      5F646174 
 12036      6100
 12037              	.LASF104:
 12038 032e 70617273 		.ascii	"parse_humidity_calib_data\000"
 12038      655F6875 
 12038      6D696469 
 12038      74795F63 
 12038      616C6962 
 12039              	.LASF25:
 12040 0348 63686172 		.ascii	"char\000"
 12040      00
 12041              	.LASF96:
 12042 034d 73656E73 		.ascii	"sensor_comp\000"
 12042      6F725F63 
 12042      6F6D7000 
 12043              	.LASF113:
 12044 0359 6E756C6C 		.ascii	"null_ptr_check\000"
ARM GAS  C:\Users\corne\AppData\Local\Temp\cc0fqrF9.s 			page 241


 12044      5F707472 
 12044      5F636865 
 12044      636B00
 12045              	.LASF17:
 12046 0368 75696E74 		.ascii	"uint8_t\000"
 12046      385F7400 
 12047              	.LASF48:
 12048 0370 745F6669 		.ascii	"t_fine\000"
 12048      6E6500
 12049              	.LASF13:
 12050 0377 6C6F6E67 		.ascii	"long long int\000"
 12050      206C6F6E 
 12050      6720696E 
 12050      7400
 12051              	.LASF64:
 12052 0385 77726974 		.ascii	"write\000"
 12052      6500
 12053              	.LASF142:
 12054 038b 433A5C55 		.ascii	"C:\\Users\\corne\\Dropbox\\prive\\projects\\Wireles"
 12054      73657273 
 12054      5C636F72 
 12054      6E655C44 
 12054      726F7062 
 12055 03b8 735F7365 		.ascii	"s_sensornode\\Software\\Wireless_sensornode\\Firmwa"
 12055      6E736F72 
 12055      6E6F6465 
 12055      5C536F66 
 12055      74776172 
 12056 03e8 72655F56 		.ascii	"re_V0.1.cydsn\000"
 12056      302E312E 
 12056      63796473 
 12056      6E00
 12057              	.LASF28:
 12058 03f6 626D6532 		.ascii	"bme280_com_fptr_t\000"
 12058      38305F63 
 12058      6F6D5F66 
 12058      7074725F 
 12058      7400
 12059              	.LASF73:
 12060 0408 66696C6C 		.ascii	"fill_standby_settings\000"
 12060      5F737461 
 12060      6E646279 
 12060      5F736574 
 12060      74696E67 
 12061              	.LASF72:
 12062 041e 66696C6C 		.ascii	"fill_filter_settings\000"
 12062      5F66696C 
 12062      7465725F 
 12062      73657474 
 12062      696E6773 
 12063              	.LASF118:
 12064 0433 7265675F 		.ascii	"reg_addr_cnt\000"
 12064      61646472 
 12064      5F636E74 
 12064      00
 12065              	.LASF4:
 12066 0440 5F5F696E 		.ascii	"__int16_t\000"
ARM GAS  C:\Users\corne\AppData\Local\Temp\cc0fqrF9.s 			page 242


 12066      7431365F 
 12066      7400
 12067              	.LASF82:
 12068 044a 76617231 		.ascii	"var1\000"
 12068      00
 12069              	.LASF83:
 12070 044f 76617232 		.ascii	"var2\000"
 12070      00
 12071              	.LASF88:
 12072 0454 76617233 		.ascii	"var3\000"
 12072      00
 12073              	.LASF89:
 12074 0459 76617234 		.ascii	"var4\000"
 12074      00
 12075              	.LASF93:
 12076 045e 76617235 		.ascii	"var5\000"
 12076      00
 12077              	.LASF80:
 12078 0463 64617461 		.ascii	"data_lsb\000"
 12078      5F6C7362 
 12078      00
 12079              	.LASF85:
 12080 046c 74656D70 		.ascii	"temperature_max\000"
 12080      65726174 
 12080      7572655F 
 12080      6D617800 
 12081              	.LASF127:
 12082 047c 73656E73 		.ascii	"sensor_mode\000"
 12082      6F725F6D 
 12082      6F646500 
 12083              	.LASF0:
 12084 0488 5F5F696E 		.ascii	"__int8_t\000"
 12084      74385F74 
 12084      00
 12085              	.LASF12:
 12086 0491 5F5F696E 		.ascii	"__int64_t\000"
 12086      7436345F 
 12086      7400
 12087              	.LASF23:
 12088 049b 6C6F6E67 		.ascii	"long double\000"
 12088      20646F75 
 12088      626C6500 
 12089              	.LASF49:
 12090 04a7 626D6532 		.ascii	"bme280_calib_data\000"
 12090      38305F63 
 12090      616C6962 
 12090      5F646174 
 12090      6100
 12091              	.LASF126:
 12092 04b9 77726974 		.ascii	"write_power_mode\000"
 12092      655F706F 
 12092      7765725F 
 12092      6D6F6465 
 12092      00
 12093              	.LASF19:
 12094 04ca 75696E74 		.ascii	"uint16_t\000"
 12094      31365F74 
ARM GAS  C:\Users\corne\AppData\Local\Temp\cc0fqrF9.s 			page 243


 12094      00
 12095              	.LASF116:
 12096 04d3 626D6532 		.ascii	"bme280_set_regs\000"
 12096      38305F73 
 12096      65745F72 
 12096      65677300 
 12097              	.LASF129:
 12098 04e3 626D6532 		.ascii	"bme280_get_sensor_settings\000"
 12098      38305F67 
 12098      65745F73 
 12098      656E736F 
 12098      725F7365 
 12099              	.LASF123:
 12100 04fe 7365745F 		.ascii	"set_osr_settings\000"
 12100      6F73725F 
 12100      73657474 
 12100      696E6773 
 12100      00
 12101              	.LASF131:
 12102 050f 626D6532 		.ascii	"bme280_soft_reset\000"
 12102      38305F73 
 12102      6F66745F 
 12102      72657365 
 12102      7400
 12103              	.LASF106:
 12104 0521 6469675F 		.ascii	"dig_H4_msb\000"
 12104      48345F6D 
 12104      736200
 12105              	.LASF92:
 12106 052c 636F6D70 		.ascii	"compensate_humidity\000"
 12106      656E7361 
 12106      74655F68 
 12106      756D6964 
 12106      69747900 
 12107              	.LASF5:
 12108 0540 73686F72 		.ascii	"short int\000"
 12108      7420696E 
 12108      7400
 12109              	.LASF100:
 12110 054a 7265675F 		.ascii	"reg_addr\000"
 12110      61646472 
 12110      00
 12111              	.LASF9:
 12112 0553 6C6F6E67 		.ascii	"long int\000"
 12112      20696E74 
 12112      00
 12113              	.LASF115:
 12114 055c 626D6532 		.ascii	"bme280_get_regs\000"
 12114      38305F67 
 12114      65745F72 
 12114      65677300 
 12115              	.LASF74:
 12116 056c 66696C6C 		.ascii	"fill_osr_press_settings\000"
 12116      5F6F7372 
 12116      5F707265 
 12116      73735F73 
 12116      65747469 
ARM GAS  C:\Users\corne\AppData\Local\Temp\cc0fqrF9.s 			page 244


 12117              	.LASF60:
 12118 0584 626D6532 		.ascii	"bme280_settings\000"
 12118      38305F73 
 12118      65747469 
 12118      6E677300 
 12119              	.LASF110:
 12120 0594 7375625F 		.ascii	"sub_settings\000"
 12120      73657474 
 12120      696E6773 
 12120      00
 12121              	.LASF78:
 12122 05a1 756E636F 		.ascii	"uncomp_data\000"
 12122      6D705F64 
 12122      61746100 
 12123              	.LASF58:
 12124 05ad 66696C74 		.ascii	"filter\000"
 12124      657200
 12125              	.LASF95:
 12126 05b4 636F6D70 		.ascii	"compensate_data\000"
 12126      656E7361 
 12126      74655F64 
 12126      61746100 
 12127              	.LASF1:
 12128 05c4 5F5F7569 		.ascii	"__uint8_t\000"
 12128      6E74385F 
 12128      7400
 12129              	.LASF63:
 12130 05ce 72656164 		.ascii	"read\000"
 12130      00
 12131              	.LASF135:
 12132 05d3 7075745F 		.ascii	"put_device_to_sleep\000"
 12132      64657669 
 12132      63655F74 
 12132      6F5F736C 
 12132      65657000 
 12133              	.LASF105:
 12134 05e7 6469675F 		.ascii	"dig_H4_lsb\000"
 12134      48345F6C 
 12134      736200
 12135              	.LASF68:
 12136 05f2 626D6532 		.ascii	"bme280_dev\000"
 12136      38305F64 
 12136      657600
 12137              	.LASF94:
 12138 05fd 68756D69 		.ascii	"humidity_max\000"
 12138      64697479 
 12138      5F6D6178 
 12138      00
 12139              	.LASF24:
 12140 060a 73697A65 		.ascii	"sizetype\000"
 12140      74797065 
 12140      00
 12141              	.LASF11:
 12142 0613 6C6F6E67 		.ascii	"long unsigned int\000"
 12142      20756E73 
 12142      69676E65 
 12142      6420696E 
ARM GAS  C:\Users\corne\AppData\Local\Temp\cc0fqrF9.s 			page 245


 12142      7400
 12143              	.LASF20:
 12144 0625 696E7433 		.ascii	"int32_t\000"
 12144      325F7400 
 12145              	.LASF54:
 12146 062d 626D6532 		.ascii	"bme280_uncomp_data\000"
 12146      38305F75 
 12146      6E636F6D 
 12146      705F6461 
 12146      746100
 12147              	.LASF103:
 12148 0640 70617273 		.ascii	"parse_temp_press_calib_data\000"
 12148      655F7465 
 12148      6D705F70 
 12148      72657373 
 12148      5F63616C 
 12149              	.LASF26:
 12150 065c 424D4532 		.ascii	"BME280_SPI_INTF\000"
 12150      38305F53 
 12150      50495F49 
 12150      4E544600 
 12151              	.LASF3:
 12152 066c 756E7369 		.ascii	"unsigned char\000"
 12152      676E6564 
 12152      20636861 
 12152      7200
 12153              	.LASF10:
 12154 067a 5F5F7569 		.ascii	"__uint32_t\000"
 12154      6E743332 
 12154      5F7400
 12155              	.LASF27:
 12156 0685 424D4532 		.ascii	"BME280_I2C_INTF\000"
 12156      38305F49 
 12156      32435F49 
 12156      4E544600 
 12157              	.LASF121:
 12158 0695 6374726C 		.ascii	"ctrl_meas\000"
 12158      5F6D6561 
 12158      7300
 12159              	.LASF87:
 12160 069f 636F6D70 		.ascii	"compensate_pressure\000"
 12160      656E7361 
 12160      74655F70 
 12160      72657373 
 12160      75726500 
 12161              	.LASF122:
 12162 06b3 7365745F 		.ascii	"set_osr_press_temp_settings\000"
 12162      6F73725F 
 12162      70726573 
 12162      735F7465 
 12162      6D705F73 
 12163              	.LASF130:
 12164 06cf 626D6532 		.ascii	"bme280_get_sensor_mode\000"
 12164      38305F67 
 12164      65745F73 
 12164      656E736F 
 12164      725F6D6F 
ARM GAS  C:\Users\corne\AppData\Local\Temp\cc0fqrF9.s 			page 246


 12165              	.LASF33:
 12166 06e6 6469675F 		.ascii	"dig_P1\000"
 12166      503100
 12167              	.LASF34:
 12168 06ed 6469675F 		.ascii	"dig_P2\000"
 12168      503200
 12169              	.LASF35:
 12170 06f4 6469675F 		.ascii	"dig_P3\000"
 12170      503300
 12171              	.LASF36:
 12172 06fb 6469675F 		.ascii	"dig_P4\000"
 12172      503400
 12173              	.LASF37:
 12174 0702 6469675F 		.ascii	"dig_P5\000"
 12174      503500
 12175              	.LASF38:
 12176 0709 6469675F 		.ascii	"dig_P6\000"
 12176      503600
 12177              	.LASF39:
 12178 0710 6469675F 		.ascii	"dig_P7\000"
 12178      503700
 12179              	.LASF40:
 12180 0717 6469675F 		.ascii	"dig_P8\000"
 12180      503800
 12181              	.LASF41:
 12182 071e 6469675F 		.ascii	"dig_P9\000"
 12182      503900
 12183              	.LASF114:
 12184 0725 6765745F 		.ascii	"get_calib_data\000"
 12184      63616C69 
 12184      625F6461 
 12184      746100
 12185              	.LASF2:
 12186 0734 7369676E 		.ascii	"signed char\000"
 12186      65642063 
 12186      68617200 
 12187              	.LASF112:
 12188 0740 73657474 		.ascii	"settings_changed\000"
 12188      696E6773 
 12188      5F636861 
 12188      6E676564 
 12188      00
 12189              	.LASF7:
 12190 0751 73686F72 		.ascii	"short unsigned int\000"
 12190      7420756E 
 12190      7369676E 
 12190      65642069 
 12190      6E7400
 12191              	.LASF107:
 12192 0764 6469675F 		.ascii	"dig_H5_lsb\000"
 12192      48355F6C 
 12192      736200
 12193              	.LASF143:
 12194 076f 626D6532 		.ascii	"bme280_intf\000"
 12194      38305F69 
 12194      6E746600 
 12195              	.LASF136:
ARM GAS  C:\Users\corne\AppData\Local\Temp\cc0fqrF9.s 			page 247


 12196 077b 626D6532 		.ascii	"bme280_set_sensor_settings\000"
 12196      38305F73 
 12196      65745F73 
 12196      656E736F 
 12196      725F7365 
 12197              	.LASF99:
 12198 0796 696E7465 		.ascii	"interleave_reg_addr\000"
 12198      726C6561 
 12198      76655F72 
 12198      65675F61 
 12198      64647200 
 12199              	.LASF70:
 12200 07aa 646F7562 		.ascii	"double\000"
 12200      6C6500
 12201              	.LASF79:
 12202 07b1 64617461 		.ascii	"data_xlsb\000"
 12202      5F786C73 
 12202      6200
 12203              	.LASF81:
 12204 07bb 64617461 		.ascii	"data_msb\000"
 12204      5F6D7362 
 12204      00
 12205              	.LASF59:
 12206 07c4 7374616E 		.ascii	"standby_time\000"
 12206      6462795F 
 12206      74696D65 
 12206      00
 12207              	.LASF52:
 12208 07d1 68756D69 		.ascii	"humidity\000"
 12208      64697479 
 12208      00
 12209              	.LASF109:
 12210 07da 6172655F 		.ascii	"are_settings_changed\000"
 12210      73657474 
 12210      696E6773 
 12210      5F636861 
 12210      6E676564 
 12211              	.LASF91:
 12212 07ef 70726573 		.ascii	"pressure_max\000"
 12212      73757265 
 12212      5F6D6178 
 12212      00
 12213              	.LASF90:
 12214 07fc 70726573 		.ascii	"pressure_min\000"
 12214      73757265 
 12214      5F6D696E 
 12214      00
 12215              		.ident	"GCC: (GNU Tools for ARM Embedded Processors) 5.4.1 20160609 (release) [ARM/embedded-5-bran
