ARM GAS  C:\Users\corne\AppData\Local\Temp\cc0fqrF9.s 			page 1


   1              		.syntax unified
   2              		.cpu cortex-m0
   3              		.fpu softvfp
   4              		.eabi_attribute 20, 1
   5              		.eabi_attribute 21, 1
   6              		.eabi_attribute 23, 3
   7              		.eabi_attribute 24, 1
   8              		.eabi_attribute 25, 1
   9              		.eabi_attribute 26, 1
  10              		.eabi_attribute 30, 1
  11              		.eabi_attribute 34, 0
  12              		.eabi_attribute 18, 4
  13              		.thumb
  14              		.syntax unified
  15              		.file	"bme280.c"
  16              		.text
  17              	.Ltext0:
  18              		.cfi_sections	.debug_frame
  19              		.section	.text.fill_filter_settings,"ax",%progbits
  20              		.align	2
  21              		.code	16
  22              		.thumb_func
  23              		.type	fill_filter_settings, %function
  24              	fill_filter_settings:
  25              	.LFB14:
  26              		.file 1 "bme280.c"
   1:bme280.c      **** /**\mainpage
   2:bme280.c      ****  * Copyright (C) 2016 - 2017 Bosch Sensortec GmbH
   3:bme280.c      ****  *
   4:bme280.c      ****  * Redistribution and use in source and binary forms, with or without
   5:bme280.c      ****  * modification, are permitted provided that the following conditions are met:
   6:bme280.c      ****  *
   7:bme280.c      ****  * Redistributions of source code must retain the above copyright
   8:bme280.c      ****  * notice, this list of conditions and the following disclaimer.
   9:bme280.c      ****  *
  10:bme280.c      ****  * Redistributions in binary form must reproduce the above copyright
  11:bme280.c      ****  * notice, this list of conditions and the following disclaimer in the
  12:bme280.c      ****  * documentation and/or other materials provided with the distribution.
  13:bme280.c      ****  *
  14:bme280.c      ****  * Neither the name of the copyright holder nor the names of the
  15:bme280.c      ****  * contributors may be used to endorse or promote products derived from
  16:bme280.c      ****  * this software without specific prior written permission.
  17:bme280.c      ****  *
  18:bme280.c      ****  * THIS SOFTWARE IS PROVIDED BY THE COPYRIGHT HOLDERS AND
  19:bme280.c      ****  * CONTRIBUTORS "AS IS" AND ANY EXPRESS OR
  20:bme280.c      ****  * IMPLIED WARRANTIES, INCLUDING, BUT NOT LIMITED TO, THE IMPLIED
  21:bme280.c      ****  * WARRANTIES OF MERCHANTABILITY AND FITNESS FOR A PARTICULAR PURPOSE ARE
  22:bme280.c      ****  * DISCLAIMED. IN NO EVENT SHALL COPYRIGHT HOLDER
  23:bme280.c      ****  * OR CONTRIBUTORS BE LIABLE FOR ANY
  24:bme280.c      ****  * DIRECT, INDIRECT, INCIDENTAL, SPECIAL, EXEMPLARY,
  25:bme280.c      ****  * OR CONSEQUENTIAL DAMAGES(INCLUDING, BUT NOT LIMITED TO,
  26:bme280.c      ****  * PROCUREMENT OF SUBSTITUTE GOODS OR SERVICES;
  27:bme280.c      ****  * LOSS OF USE, DATA, OR PROFITS; OR BUSINESS INTERRUPTION)
  28:bme280.c      ****  * HOWEVER CAUSED AND ON ANY THEORY OF LIABILITY,
  29:bme280.c      ****  * WHETHER IN CONTRACT, STRICT LIABILITY, OR TORT
  30:bme280.c      ****  * (INCLUDING NEGLIGENCE OR OTHERWISE) ARISING IN
  31:bme280.c      ****  * ANY WAY OUT OF THE USE OF THIS
ARM GAS  C:\Users\corne\AppData\Local\Temp\cc0fqrF9.s 			page 2


  32:bme280.c      ****  * SOFTWARE, EVEN IF ADVISED OF THE POSSIBILITY OF SUCH DAMAGE
  33:bme280.c      ****  *
  34:bme280.c      ****  * The information provided is believed to be accurate and reliable.
  35:bme280.c      ****  * The copyright holder assumes no responsibility
  36:bme280.c      ****  * for the consequences of use
  37:bme280.c      ****  * of such information nor for any infringement of patents or
  38:bme280.c      ****  * other rights of third parties which may result from its use.
  39:bme280.c      ****  * No license is granted by implication or otherwise under any patent or
  40:bme280.c      ****  * patent rights of the copyright holder.
  41:bme280.c      ****  *
  42:bme280.c      ****  * File		bme280.c
  43:bme280.c      ****  * Date		21 Mar 2017
  44:bme280.c      ****  * Version	3.2.0
  45:bme280.c      ****  *
  46:bme280.c      ****  */
  47:bme280.c      **** 
  48:bme280.c      **** /*! @file bme280.c
  49:bme280.c      ****     @brief Sensor driver for BME280 sensor */
  50:bme280.c      **** #include "bme280.h"
  51:bme280.c      **** 
  52:bme280.c      **** /**\name Internal macros */
  53:bme280.c      **** /* To identify osr settings selected by user */
  54:bme280.c      **** #define OVERSAMPLING_SETTINGS		UINT8_C(0x07)
  55:bme280.c      **** /* To identify filter and standby settings selected by user */
  56:bme280.c      **** #define FILTER_STANDBY_SETTINGS		UINT8_C(0x18)
  57:bme280.c      **** 
  58:bme280.c      **** /*!
  59:bme280.c      ****  * @brief This internal API puts the device to sleep mode.
  60:bme280.c      ****  *
  61:bme280.c      ****  * @param[in] dev : Structure instance of bme280_dev.
  62:bme280.c      ****  *
  63:bme280.c      ****  * @return Result of API execution status.
  64:bme280.c      ****  * @retval zero -> Success / +ve value -> Warning / -ve value -> Error
  65:bme280.c      ****  */
  66:bme280.c      **** static int8_t put_device_to_sleep(const bme280_dev *dev);
  67:bme280.c      **** 
  68:bme280.c      **** /*!
  69:bme280.c      ****  * @brief This internal API writes the power mode in the sensor.
  70:bme280.c      ****  *
  71:bme280.c      ****  * @param[in] dev : Structure instance of bme280_dev.
  72:bme280.c      ****  * @param[in] sensor_mode : Variable which contains the power mode to be set.
  73:bme280.c      ****  *
  74:bme280.c      ****  * @return Result of API execution status.
  75:bme280.c      ****  * @retval zero -> Success / +ve value -> Warning / -ve value -> Error
  76:bme280.c      ****  */
  77:bme280.c      **** static int8_t write_power_mode(uint8_t sensor_mode, const bme280_dev *dev);
  78:bme280.c      **** 
  79:bme280.c      **** /*!
  80:bme280.c      ****  * @brief This internal API is used to validate the device pointer for
  81:bme280.c      ****  * null conditions.
  82:bme280.c      ****  *
  83:bme280.c      ****  * @param[in] dev : Structure instance of bme280_dev.
  84:bme280.c      ****  *
  85:bme280.c      ****  * @return Result of API execution status
  86:bme280.c      ****  * @retval zero -> Success / +ve value -> Warning / -ve value -> Error
  87:bme280.c      ****  */
  88:bme280.c      **** static int8_t null_ptr_check(const bme280_dev *dev);
ARM GAS  C:\Users\corne\AppData\Local\Temp\cc0fqrF9.s 			page 3


  89:bme280.c      **** 
  90:bme280.c      **** /*!
  91:bme280.c      ****  * @brief This internal API interleaves the register address between the
  92:bme280.c      ****  * register data buffer for burst write operation.
  93:bme280.c      ****  *
  94:bme280.c      ****  * @param[in] reg_addr : Contains the register address array.
  95:bme280.c      ****  * @param[out] temp_buff : Contains the temporary buffer to store the
  96:bme280.c      ****  * register data and register address.
  97:bme280.c      ****  * @param[in] reg_data : Contains the register data to be written in the
  98:bme280.c      ****  * temporary buffer.
  99:bme280.c      ****  * @param[in] len : No of bytes of data to be written for burst write.
 100:bme280.c      ****  */
 101:bme280.c      **** static void interleave_reg_addr(const uint8_t *reg_addr, uint8_t *temp_buff, const uint8_t *reg_dat
 102:bme280.c      **** 
 103:bme280.c      **** /*!
 104:bme280.c      ****  * @brief This internal API reads the calibration data from the sensor, parse
 105:bme280.c      ****  * it and store in the device structure.
 106:bme280.c      ****  *
 107:bme280.c      ****  * @param[in] dev : Structure instance of bme280_dev.
 108:bme280.c      ****  *
 109:bme280.c      ****  * @return Result of API execution status
 110:bme280.c      ****  * @retval zero -> Success / +ve value -> Warning / -ve value -> Error
 111:bme280.c      ****  */
 112:bme280.c      **** static int8_t get_calib_data(bme280_dev *dev);
 113:bme280.c      **** 
 114:bme280.c      **** /*!
 115:bme280.c      ****  *  @brief This internal API is used to parse the temperature and
 116:bme280.c      ****  *  pressure calibration data and store it in the device structure.
 117:bme280.c      ****  *
 118:bme280.c      ****  *  @param[out] dev : Structure instance of bme280_dev to store the calib data.
 119:bme280.c      ****  *  @param[in] reg_data : Contains the calibration data to be parsed.
 120:bme280.c      ****  */
 121:bme280.c      **** static void parse_temp_press_calib_data(const uint8_t *reg_data, bme280_dev *dev);
 122:bme280.c      **** 
 123:bme280.c      **** /*!
 124:bme280.c      ****  *  @brief This internal API is used to parse the humidity calibration data
 125:bme280.c      ****  *  and store it in device structure.
 126:bme280.c      ****  *
 127:bme280.c      ****  *  @param[out] dev : Structure instance of bme280_dev to store the calib data.
 128:bme280.c      ****  *  @param[in] reg_data : Contains calibration data to be parsed.
 129:bme280.c      ****  */
 130:bme280.c      **** static void parse_humidity_calib_data(const uint8_t *reg_data, bme280_dev *dev);
 131:bme280.c      **** 
 132:bme280.c      **** /*!
 133:bme280.c      ****  *  @brief This internal API is used to parse the pressure, temperature and
 134:bme280.c      ****  *  humidity data and store it in the bme280_uncomp_data structure instance.
 135:bme280.c      ****  *
 136:bme280.c      ****  *  @param[in] reg_data : Contains the register data which needs to be parsed.
 137:bme280.c      ****  *  @param[out] uncomp_data : Contains the uncompensated pressure, temperature
 138:bme280.c      ****  *  and humidity data.
 139:bme280.c      ****  */
 140:bme280.c      **** static void parse_sensor_data(const uint8_t *reg_data, bme280_uncomp_data *uncomp_data);
 141:bme280.c      **** 
 142:bme280.c      **** /*!
 143:bme280.c      ****  * @brief This internal API is used to compensate the pressure and/or
 144:bme280.c      ****  * temperature and/or humidity data according to the component selected by the
 145:bme280.c      ****  * user.
ARM GAS  C:\Users\corne\AppData\Local\Temp\cc0fqrF9.s 			page 4


 146:bme280.c      ****  *
 147:bme280.c      ****  * @param[in] sensor_comp : Used to select pressure and/or temperature and/or
 148:bme280.c      ****  * humidity.
 149:bme280.c      ****  * @param[in] uncomp_data : Contains the uncompensated pressure, temperature and
 150:bme280.c      ****  * humidity data.
 151:bme280.c      ****  * @param[out] comp_data : Contains the compensated pressure and/or temperature
 152:bme280.c      ****  * and/or humidity data.
 153:bme280.c      ****  * @param[in] calib_data : Pointer to the calibration data structure.
 154:bme280.c      ****  *
 155:bme280.c      ****  * @return Result of API execution status.
 156:bme280.c      ****  * @retval zero -> Success / -ve value -> Error
 157:bme280.c      ****  */
 158:bme280.c      **** static int8_t compensate_data(uint8_t sensor_comp, const bme280_uncomp_data *uncomp_data,
 159:bme280.c      **** 				      bme280_data *comp_data, bme280_calib_data *calib_data);
 160:bme280.c      **** 
 161:bme280.c      **** #ifdef FLOATING_POINT_REPRESENTATION
 162:bme280.c      **** /*!
 163:bme280.c      ****  * @brief This internal API is used to compensate the raw pressure data and
 164:bme280.c      ****  * return the compensated pressure data in double data type.
 165:bme280.c      ****  *
 166:bme280.c      ****  * @param[in] uncomp_data : Contains the uncompensated pressure data.
 167:bme280.c      ****  * @param[in] calib_data : Pointer to the calibration data structure.
 168:bme280.c      ****  *
 169:bme280.c      ****  * @return Compensated pressure data.
 170:bme280.c      ****  * @retval Compensated pressure data in double.
 171:bme280.c      ****  */
 172:bme280.c      **** static double compensate_pressure(const  bme280_uncomp_data *uncomp_data,
 173:bme280.c      **** 						const  bme280_calib_data *calib_data);
 174:bme280.c      **** 
 175:bme280.c      **** /*!
 176:bme280.c      ****  * @brief This internal API is used to compensate the raw humidity data and
 177:bme280.c      ****  * return the compensated humidity data in double data type.
 178:bme280.c      ****  *
 179:bme280.c      ****  * @param[in] uncomp_data : Contains the uncompensated humidity data.
 180:bme280.c      ****  * @param[in] calib_data : Pointer to the calibration data structure.
 181:bme280.c      ****  *
 182:bme280.c      ****  * @return Compensated humidity data.
 183:bme280.c      ****  * @retval Compensated humidity data in double.
 184:bme280.c      ****  */
 185:bme280.c      **** static double compensate_humidity(const  bme280_uncomp_data *uncomp_data,
 186:bme280.c      **** 						const  bme280_calib_data *calib_data);
 187:bme280.c      **** 
 188:bme280.c      **** /*!
 189:bme280.c      ****  * @brief This internal API is used to compensate the raw temperature data and
 190:bme280.c      ****  * return the compensated temperature data in double data type.
 191:bme280.c      ****  *
 192:bme280.c      ****  * @param[in] uncomp_data : Contains the uncompensated temperature data.
 193:bme280.c      ****  * @param[in] calib_data : Pointer to calibration data structure.
 194:bme280.c      ****  *
 195:bme280.c      ****  * @return Compensated temperature data.
 196:bme280.c      ****  * @retval Compensated temperature data in double.
 197:bme280.c      ****  */
 198:bme280.c      **** static  double compensate_temperature(const  bme280_uncomp_data *uncomp_data,
 199:bme280.c      **** 						 bme280_calib_data *calib_data);
 200:bme280.c      **** 
 201:bme280.c      **** #else
 202:bme280.c      **** 
ARM GAS  C:\Users\corne\AppData\Local\Temp\cc0fqrF9.s 			page 5


 203:bme280.c      **** /*!
 204:bme280.c      ****  * @brief This internal API is used to compensate the raw temperature data and
 205:bme280.c      ****  * return the compensated temperature data in integer data type.
 206:bme280.c      ****  *
 207:bme280.c      ****  * @param[in] uncomp_data : Contains the uncompensated temperature data.
 208:bme280.c      ****  * @param[in] calib_data : Pointer to calibration data structure.
 209:bme280.c      ****  *
 210:bme280.c      ****  * @return Compensated temperature data.
 211:bme280.c      ****  * @retval Compensated temperature data in integer.
 212:bme280.c      ****  */
 213:bme280.c      **** static int32_t compensate_temperature(const  bme280_uncomp_data *uncomp_data,
 214:bme280.c      **** 						 bme280_calib_data *calib_data);
 215:bme280.c      **** 
 216:bme280.c      **** /*!
 217:bme280.c      ****  * @brief This internal API is used to compensate the raw pressure data and
 218:bme280.c      ****  * return the compensated pressure data in integer data type.
 219:bme280.c      ****  *
 220:bme280.c      ****  * @param[in] uncomp_data : Contains the uncompensated pressure data.
 221:bme280.c      ****  * @param[in] calib_data : Pointer to the calibration data structure.
 222:bme280.c      ****  *
 223:bme280.c      ****  * @return Compensated pressure data.
 224:bme280.c      ****  * @retval Compensated pressure data in integer.
 225:bme280.c      ****  */
 226:bme280.c      **** static uint32_t compensate_pressure(const  bme280_uncomp_data *uncomp_data,
 227:bme280.c      **** 						const  bme280_calib_data *calib_data);
 228:bme280.c      **** 
 229:bme280.c      **** /*!
 230:bme280.c      ****  * @brief This internal API is used to compensate the raw humidity data and
 231:bme280.c      ****  * return the compensated humidity data in integer data type.
 232:bme280.c      ****  *
 233:bme280.c      ****  * @param[in] uncomp_data : Contains the uncompensated humidity data.
 234:bme280.c      ****  * @param[in] calib_data : Pointer to the calibration data structure.
 235:bme280.c      ****  *
 236:bme280.c      ****  * @return Compensated humidity data.
 237:bme280.c      ****  * @retval Compensated humidity data in integer.
 238:bme280.c      ****  */
 239:bme280.c      **** static uint32_t compensate_humidity(const  bme280_uncomp_data *uncomp_data,
 240:bme280.c      **** 						const  bme280_calib_data *calib_data);
 241:bme280.c      **** 
 242:bme280.c      **** #endif
 243:bme280.c      **** 
 244:bme280.c      **** /*!
 245:bme280.c      ****  * @brief This internal API is used to identify the settings which the user
 246:bme280.c      ****  * wants to modify in the sensor.
 247:bme280.c      ****  *
 248:bme280.c      ****  * @param[in] sub_settings : Contains the settings subset to identify particular
 249:bme280.c      ****  * group of settings which the user is interested to change.
 250:bme280.c      ****  * @param[in] desired_settings : Contains the user specified settings.
 251:bme280.c      ****  *
 252:bme280.c      ****  * @return Indicates whether user is interested to modify the settings which
 253:bme280.c      ****  * are related to sub_settings.
 254:bme280.c      ****  * @retval True -> User wants to modify this group of settings
 255:bme280.c      ****  * @retval False -> User does not want to modify this group of settings
 256:bme280.c      ****  */
 257:bme280.c      **** static uint8_t are_settings_changed(uint8_t sub_settings, uint8_t desired_settings);
 258:bme280.c      **** 
 259:bme280.c      **** /*!
ARM GAS  C:\Users\corne\AppData\Local\Temp\cc0fqrF9.s 			page 6


 260:bme280.c      ****  * @brief This API sets the humidity oversampling settings of the sensor.
 261:bme280.c      ****  *
 262:bme280.c      ****  * @param[in] dev : Structure instance of bme280_dev.
 263:bme280.c      ****  *
 264:bme280.c      ****  * @return Result of API execution status
 265:bme280.c      ****  * @retval zero -> Success / +ve value -> Warning / -ve value -> Error
 266:bme280.c      ****  */
 267:bme280.c      **** static int8_t set_osr_humidity_settings(const  bme280_settings *settings, const  bme280_dev *dev);
 268:bme280.c      **** 
 269:bme280.c      **** /*!
 270:bme280.c      ****  * @brief This internal API sets the oversampling settings for pressure,
 271:bme280.c      ****  * temperature and humidity in the sensor.
 272:bme280.c      ****  *
 273:bme280.c      ****  * @param[in] desired_settings : Variable used to select the settings which
 274:bme280.c      ****  * are to be set.
 275:bme280.c      ****  * @param[in] dev : Structure instance of bme280_dev.
 276:bme280.c      ****  *
 277:bme280.c      ****  * @return Result of API execution status
 278:bme280.c      ****  * @retval zero -> Success / +ve value -> Warning / -ve value -> Error
 279:bme280.c      ****  */
 280:bme280.c      **** static int8_t set_osr_settings(uint8_t desired_settings, const   bme280_settings *settings,
 281:bme280.c      **** 				const  bme280_dev *dev);
 282:bme280.c      **** 
 283:bme280.c      **** /*!
 284:bme280.c      ****  * @brief This API sets the pressure and/or temperature oversampling settings
 285:bme280.c      ****  * in the sensor according to the settings selected by the user.
 286:bme280.c      ****  *
 287:bme280.c      ****  * @param[in] dev : Structure instance of bme280_dev.
 288:bme280.c      ****  * @param[in] desired_settings: variable to select the pressure and/or
 289:bme280.c      ****  * temperature oversampling settings.
 290:bme280.c      ****  *
 291:bme280.c      ****  * @return Result of API execution status
 292:bme280.c      ****  * @retval zero -> Success / +ve value -> Warning / -ve value -> Error
 293:bme280.c      ****  */
 294:bme280.c      **** static int8_t set_osr_press_temp_settings(uint8_t desired_settings, const   bme280_settings *settin
 295:bme280.c      **** 						const   bme280_dev *dev);
 296:bme280.c      **** 
 297:bme280.c      **** /*!
 298:bme280.c      ****  * @brief This internal API fills the pressure oversampling settings provided by
 299:bme280.c      ****  * the user in the data buffer so as to write in the sensor.
 300:bme280.c      ****  *
 301:bme280.c      ****  * @param[in] dev : Structure instance of bme280_dev.
 302:bme280.c      ****  * @param[out] reg_data : Variable which is filled according to the pressure
 303:bme280.c      ****  * oversampling data provided by the user.
 304:bme280.c      ****  */
 305:bme280.c      **** static void fill_osr_press_settings(uint8_t *reg_data, const   bme280_settings *settings);
 306:bme280.c      **** 
 307:bme280.c      **** /*!
 308:bme280.c      ****  * @brief This internal API fills the temperature oversampling settings provided
 309:bme280.c      ****  * by the user in the data buffer so as to write in the sensor.
 310:bme280.c      ****  *
 311:bme280.c      ****  * @param[in] dev : Structure instance of bme280_dev.
 312:bme280.c      ****  * @param[out] reg_data : Variable which is filled according to the temperature
 313:bme280.c      ****  * oversampling data provided by the user.
 314:bme280.c      ****  */
 315:bme280.c      **** static void fill_osr_temp_settings(uint8_t *reg_data, const  bme280_settings *settings);
 316:bme280.c      **** 
ARM GAS  C:\Users\corne\AppData\Local\Temp\cc0fqrF9.s 			page 7


 317:bme280.c      **** /*!
 318:bme280.c      ****  * @brief This internal API sets the filter and/or standby duration settings
 319:bme280.c      ****  * in the sensor according to the settings selected by the user.
 320:bme280.c      ****  *
 321:bme280.c      ****  * @param[in] dev : Structure instance of bme280_dev.
 322:bme280.c      ****  * @param[in] desired_settings : variable to select the filter and/or
 323:bme280.c      ****  * standby duration settings.
 324:bme280.c      ****  *
 325:bme280.c      ****  * @return Result of API execution status
 326:bme280.c      ****  * @retval zero -> Success / +ve value -> Warning / -ve value -> Error
 327:bme280.c      ****  */
 328:bme280.c      **** static int8_t set_filter_standby_settings(uint8_t desired_settings, const  bme280_settings *setting
 329:bme280.c      **** 						const  bme280_dev *dev);
 330:bme280.c      **** 
 331:bme280.c      **** /*!
 332:bme280.c      ****  * @brief This internal API fills the filter settings provided by the user
 333:bme280.c      ****  * in the data buffer so as to write in the sensor.
 334:bme280.c      ****  *
 335:bme280.c      ****  * @param[in] dev : Structure instance of bme280_dev.
 336:bme280.c      ****  * @param[out] reg_data : Variable which is filled according to the filter
 337:bme280.c      ****  * settings data provided by the user.
 338:bme280.c      ****  */
 339:bme280.c      **** static void fill_filter_settings(uint8_t *reg_data, const  bme280_settings *settings);
 340:bme280.c      **** 
 341:bme280.c      **** /*!
 342:bme280.c      ****  * @brief This internal API fills the standby duration settings provided by the
 343:bme280.c      ****  * user in the data buffer so as to write in the sensor.
 344:bme280.c      ****  *
 345:bme280.c      ****  * @param[in] dev : Structure instance of bme280_dev.
 346:bme280.c      ****  * @param[out] reg_data : Variable which is filled according to the standby
 347:bme280.c      ****  * settings data provided by the user.
 348:bme280.c      ****  */
 349:bme280.c      **** static void fill_standby_settings(uint8_t *reg_data, const  bme280_settings *settings);
 350:bme280.c      **** 
 351:bme280.c      **** /*!
 352:bme280.c      ****  * @brief This internal API parse the oversampling(pressure, temperature
 353:bme280.c      ****  * and humidity), filter and standby duration settings and store in the
 354:bme280.c      ****  * device structure.
 355:bme280.c      ****  *
 356:bme280.c      ****  * @param[out] dev : Structure instance of bme280_dev.
 357:bme280.c      ****  * @param[in] reg_data : Register data to be parsed.
 358:bme280.c      ****  */
 359:bme280.c      **** static void parse_device_settings(const uint8_t *reg_data,  bme280_settings *settings);
 360:bme280.c      **** 
 361:bme280.c      **** /*!
 362:bme280.c      ****  * @brief This internal API reloads the already existing device settings in the
 363:bme280.c      ****  * sensor after soft reset.
 364:bme280.c      ****  *
 365:bme280.c      ****  * @param[in] dev : Structure instance of bme280_dev.
 366:bme280.c      ****  * @param[in] settings : Pointer variable which contains the settings to
 367:bme280.c      ****  * be set in the sensor.
 368:bme280.c      ****  *
 369:bme280.c      ****  * @return Result of API execution status
 370:bme280.c      ****  * @retval zero -> Success / +ve value -> Warning / -ve value -> Error
 371:bme280.c      ****  */
 372:bme280.c      **** static int8_t reload_device_settings(const  bme280_settings *settings, const  bme280_dev *dev);
 373:bme280.c      **** 
ARM GAS  C:\Users\corne\AppData\Local\Temp\cc0fqrF9.s 			page 8


 374:bme280.c      **** /****************** Global Function Definitions *******************************/
 375:bme280.c      **** 
 376:bme280.c      **** /*!
 377:bme280.c      ****  *  @brief This API is the entry point.
 378:bme280.c      ****  *  It reads the chip-id and calibration data from the sensor.
 379:bme280.c      ****  */
 380:bme280.c      **** int8_t bme280_init( bme280_dev *dev)
 381:bme280.c      **** {
 382:bme280.c      **** 	int8_t rslt;
 383:bme280.c      **** 	/* chip id read try count */
 384:bme280.c      **** 	uint8_t try_count = 5;
 385:bme280.c      **** 	uint8_t chip_id = 0;
 386:bme280.c      **** 
 387:bme280.c      **** 	/* Check for null pointer in the device structure*/
 388:bme280.c      **** 	rslt = null_ptr_check(dev);
 389:bme280.c      **** 	/* Proceed if null check is fine */
 390:bme280.c      **** 	if (rslt ==  BME280_OK) {
 391:bme280.c      **** 		while (try_count) {
 392:bme280.c      **** 			/* Read the chip-id of bme280 sensor */
 393:bme280.c      **** 			rslt = bme280_get_regs(BME280_CHIP_ID_ADDR, &chip_id, 1, dev);
 394:bme280.c      **** 			/* Check for chip id validity */
 395:bme280.c      **** 			if ((rslt == BME280_OK) && (chip_id == BME280_CHIP_ID)) {
 396:bme280.c      **** 				dev->chip_id = chip_id;
 397:bme280.c      **** 				/* Reset the sensor */
 398:bme280.c      **** 				rslt = bme280_soft_reset(dev);
 399:bme280.c      **** 				if (rslt == BME280_OK) {
 400:bme280.c      **** 					/* Read the calibration data */
 401:bme280.c      **** 					rslt = get_calib_data(dev);
 402:bme280.c      **** 				}
 403:bme280.c      **** 				break;
 404:bme280.c      **** 			}
 405:bme280.c      **** 			/* Wait for 1 ms */
 406:bme280.c      **** 			dev->delay_ms(1);
 407:bme280.c      **** 			--try_count;
 408:bme280.c      **** 		}
 409:bme280.c      **** 		/* Chip id check failed */
 410:bme280.c      **** 		if (!try_count)
 411:bme280.c      **** 			rslt = BME280_E_DEV_NOT_FOUND;
 412:bme280.c      **** 	}
 413:bme280.c      **** 
 414:bme280.c      **** 	return rslt;
 415:bme280.c      **** }
 416:bme280.c      **** 
 417:bme280.c      **** /*!
 418:bme280.c      ****  * @brief This API reads the data from the given register address of the sensor.
 419:bme280.c      ****  */
 420:bme280.c      **** int8_t bme280_get_regs(uint8_t reg_addr, uint8_t *reg_data, uint16_t len, const  bme280_dev *dev)
 421:bme280.c      **** {
 422:bme280.c      **** 	int8_t rslt;
 423:bme280.c      **** 
 424:bme280.c      **** 	/* Check for null pointer in the device structure*/
 425:bme280.c      **** 	rslt = null_ptr_check(dev);
 426:bme280.c      **** 	/* Proceed if null check is fine */
 427:bme280.c      **** 	if (rslt == BME280_OK) {
 428:bme280.c      **** 		/* If interface selected is SPI */
 429:bme280.c      **** 		if (dev->interface != BME280_I2C_INTF)
 430:bme280.c      **** 			reg_addr = reg_addr | 0x80;
ARM GAS  C:\Users\corne\AppData\Local\Temp\cc0fqrF9.s 			page 9


 431:bme280.c      **** 		/* Read the data  */
 432:bme280.c      **** 		rslt = dev->read(dev->id, reg_addr, reg_data, len);
 433:bme280.c      **** 		/* Check for communication error */
 434:bme280.c      **** 		if (rslt != BME280_OK)
 435:bme280.c      **** 			rslt = BME280_E_COMM_FAIL;
 436:bme280.c      **** 	}
 437:bme280.c      **** 
 438:bme280.c      **** 	return rslt;
 439:bme280.c      **** }
 440:bme280.c      **** 
 441:bme280.c      **** /*!
 442:bme280.c      ****  * @brief This API writes the given data to the register address
 443:bme280.c      ****  * of the sensor.
 444:bme280.c      ****  */
 445:bme280.c      **** int8_t bme280_set_regs(uint8_t *reg_addr, const uint8_t *reg_data, uint8_t len, const  bme280_dev *
 446:bme280.c      **** {
 447:bme280.c      **** 	int8_t rslt;
 448:bme280.c      **** 	uint8_t temp_buff[len * 2];
 449:bme280.c      **** 	uint16_t temp_len;
 450:bme280.c      **** 	uint8_t reg_addr_cnt;
 451:bme280.c      **** 
 452:bme280.c      **** 	/* Check for null pointer in the device structure*/
 453:bme280.c      **** 	rslt = null_ptr_check(dev);
 454:bme280.c      **** 	/* Check for arguments validity */
 455:bme280.c      **** 	if ((rslt ==  BME280_OK) && (reg_addr != NULL) && (reg_data != NULL)) {
 456:bme280.c      **** 		if (len != 0) {
 457:bme280.c      **** 			temp_buff[0] = reg_data[0];
 458:bme280.c      **** 			/* If interface selected is SPI */
 459:bme280.c      **** 			if (dev->interface != BME280_I2C_INTF) {
 460:bme280.c      **** 				for (reg_addr_cnt = 0; reg_addr_cnt < len; reg_addr_cnt++)
 461:bme280.c      **** 					reg_addr[reg_addr_cnt] = reg_addr[reg_addr_cnt] & 0x7F;
 462:bme280.c      **** 			}
 463:bme280.c      **** 			/* Burst write mode */
 464:bme280.c      **** 			if (len > 1) {
 465:bme280.c      **** 				/* Interleave register address w.r.t data for
 466:bme280.c      **** 				burst write*/
 467:bme280.c      **** 				interleave_reg_addr(reg_addr, temp_buff, reg_data, len);
 468:bme280.c      **** 				temp_len = len * 2;
 469:bme280.c      **** 			} else {
 470:bme280.c      **** 				temp_len = len;
 471:bme280.c      **** 			}
 472:bme280.c      **** 			rslt = dev->write(dev->id, reg_addr[0], temp_buff, temp_len);
 473:bme280.c      **** 			/* Check for communication error */
 474:bme280.c      **** 			if (rslt != BME280_OK)
 475:bme280.c      **** 				rslt = BME280_E_COMM_FAIL;
 476:bme280.c      **** 		} else {
 477:bme280.c      **** 			rslt = BME280_E_INVALID_LEN;
 478:bme280.c      **** 		}
 479:bme280.c      **** 	} else {
 480:bme280.c      **** 		rslt = BME280_E_NULL_PTR;
 481:bme280.c      **** 	}
 482:bme280.c      **** 
 483:bme280.c      **** 
 484:bme280.c      **** 	return rslt;
 485:bme280.c      **** }
 486:bme280.c      **** 
 487:bme280.c      **** /*!
ARM GAS  C:\Users\corne\AppData\Local\Temp\cc0fqrF9.s 			page 10


 488:bme280.c      ****  * @brief This API sets the oversampling, filter and standby duration
 489:bme280.c      ****  * (normal mode) settings in the sensor.
 490:bme280.c      ****  */
 491:bme280.c      **** int8_t bme280_set_sensor_settings(uint8_t desired_settings, const  bme280_dev *dev)
 492:bme280.c      **** {
 493:bme280.c      **** 	int8_t rslt;
 494:bme280.c      **** 	uint8_t sensor_mode;
 495:bme280.c      **** 
 496:bme280.c      **** 	/* Check for null pointer in the device structure*/
 497:bme280.c      **** 	rslt = null_ptr_check(dev);
 498:bme280.c      **** 	/* Proceed if null check is fine */
 499:bme280.c      **** 	if (rslt == BME280_OK) {
 500:bme280.c      **** 		rslt = bme280_get_sensor_mode(&sensor_mode, dev);
 501:bme280.c      **** 		if ((rslt == BME280_OK) && (sensor_mode != BME280_SLEEP_MODE))
 502:bme280.c      **** 			rslt = put_device_to_sleep(dev);
 503:bme280.c      **** 		if (rslt == BME280_OK) {
 504:bme280.c      **** 			/* Check if user wants to change oversampling
 505:bme280.c      **** 			   settings */
 506:bme280.c      **** 			if (are_settings_changed(OVERSAMPLING_SETTINGS, desired_settings))
 507:bme280.c      **** 				rslt = set_osr_settings(desired_settings, &dev->settings, dev);
 508:bme280.c      **** 			/* Check if user wants to change filter and/or
 509:bme280.c      **** 			   standby settings */
 510:bme280.c      **** 			if ((rslt == BME280_OK) && are_settings_changed(FILTER_STANDBY_SETTINGS, desired_settings))
 511:bme280.c      **** 				rslt = set_filter_standby_settings(desired_settings, &dev->settings, dev);
 512:bme280.c      **** 		}
 513:bme280.c      **** 	}
 514:bme280.c      **** 
 515:bme280.c      **** 	return rslt;
 516:bme280.c      **** }
 517:bme280.c      **** 
 518:bme280.c      **** /*!
 519:bme280.c      ****  * @brief This API gets the oversampling, filter and standby duration
 520:bme280.c      ****  * (normal mode) settings from the sensor.
 521:bme280.c      ****  */
 522:bme280.c      **** int8_t bme280_get_sensor_settings( bme280_dev *dev)
 523:bme280.c      **** {
 524:bme280.c      **** 	int8_t rslt;
 525:bme280.c      **** 	uint8_t reg_data[4];
 526:bme280.c      **** 
 527:bme280.c      **** 	/* Check for null pointer in the device structure*/
 528:bme280.c      **** 	rslt = null_ptr_check(dev);
 529:bme280.c      **** 	/* Proceed if null check is fine */
 530:bme280.c      **** 	if (rslt == BME280_OK) {
 531:bme280.c      **** 		rslt = bme280_get_regs(BME280_CTRL_HUM_ADDR, reg_data, 4, dev);
 532:bme280.c      **** 		if (rslt == BME280_OK)
 533:bme280.c      **** 			parse_device_settings(reg_data, &dev->settings);
 534:bme280.c      **** 	}
 535:bme280.c      **** 
 536:bme280.c      **** 	return rslt;
 537:bme280.c      **** }
 538:bme280.c      **** 
 539:bme280.c      **** /*!
 540:bme280.c      ****  * @brief This API sets the power mode of the sensor.
 541:bme280.c      ****  */
 542:bme280.c      **** int8_t bme280_set_sensor_mode(uint8_t sensor_mode, const  bme280_dev *dev)
 543:bme280.c      **** {
 544:bme280.c      **** 	int8_t rslt;
ARM GAS  C:\Users\corne\AppData\Local\Temp\cc0fqrF9.s 			page 11


 545:bme280.c      **** 	uint8_t last_set_mode;
 546:bme280.c      **** 
 547:bme280.c      **** 	/* Check for null pointer in the device structure*/
 548:bme280.c      **** 	rslt = null_ptr_check(dev);
 549:bme280.c      **** 
 550:bme280.c      **** 	if (rslt == BME280_OK) {
 551:bme280.c      **** 		rslt = bme280_get_sensor_mode(&last_set_mode, dev);
 552:bme280.c      **** 		/* If the sensor is not in sleep mode put the device to sleep
 553:bme280.c      **** 		   mode */
 554:bme280.c      **** 		if ((rslt == BME280_OK) && (last_set_mode != BME280_SLEEP_MODE))
 555:bme280.c      **** 			rslt = put_device_to_sleep(dev);
 556:bme280.c      **** 		/* Set the power mode */
 557:bme280.c      **** 		if (rslt == BME280_OK)
 558:bme280.c      **** 			rslt = write_power_mode(sensor_mode, dev);
 559:bme280.c      **** 	}
 560:bme280.c      **** 
 561:bme280.c      **** 	return rslt;
 562:bme280.c      **** }
 563:bme280.c      **** 
 564:bme280.c      **** /*!
 565:bme280.c      ****  * @brief This API gets the power mode of the sensor.
 566:bme280.c      ****  */
 567:bme280.c      **** int8_t bme280_get_sensor_mode(uint8_t *sensor_mode, const  bme280_dev *dev)
 568:bme280.c      **** {
 569:bme280.c      **** 	int8_t rslt;
 570:bme280.c      **** 
 571:bme280.c      **** 	/* Check for null pointer in the device structure*/
 572:bme280.c      **** 	rslt = null_ptr_check(dev);
 573:bme280.c      **** 
 574:bme280.c      **** 	if (rslt == BME280_OK) {
 575:bme280.c      **** 		/* Read the power mode register */
 576:bme280.c      **** 		rslt = bme280_get_regs(BME280_PWR_CTRL_ADDR, sensor_mode, 1, dev);
 577:bme280.c      **** 		/* Assign the power mode in the device structure */
 578:bme280.c      **** 		*sensor_mode = BME280_GET_BITS_POS_0(*sensor_mode, BME280_SENSOR_MODE);
 579:bme280.c      **** 	}
 580:bme280.c      **** 
 581:bme280.c      **** 	return rslt;
 582:bme280.c      **** }
 583:bme280.c      **** 
 584:bme280.c      **** /*!
 585:bme280.c      ****  * @brief This API performs the soft reset of the sensor.
 586:bme280.c      ****  */
 587:bme280.c      **** int8_t bme280_soft_reset(const  bme280_dev *dev)
 588:bme280.c      **** {
 589:bme280.c      **** 	int8_t rslt;
 590:bme280.c      **** 	uint8_t reg_addr = BME280_RESET_ADDR;
 591:bme280.c      **** 	/* 0xB6 is the soft reset command */
 592:bme280.c      **** 	uint8_t soft_rst_cmd = 0xB6;
 593:bme280.c      **** 
 594:bme280.c      **** 	/* Check for null pointer in the device structure*/
 595:bme280.c      **** 	rslt = null_ptr_check(dev);
 596:bme280.c      **** 	/* Proceed if null check is fine */
 597:bme280.c      **** 	if (rslt == BME280_OK) {
 598:bme280.c      **** 		/* Write the soft reset command in the sensor */
 599:bme280.c      **** 		rslt = bme280_set_regs(&reg_addr, &soft_rst_cmd, 1, dev);
 600:bme280.c      **** 		/* As per data sheet, startup time is 2 ms. */
 601:bme280.c      **** 		dev->delay_ms(2);
ARM GAS  C:\Users\corne\AppData\Local\Temp\cc0fqrF9.s 			page 12


 602:bme280.c      **** 	}
 603:bme280.c      **** 
 604:bme280.c      **** 	return rslt;
 605:bme280.c      **** }
 606:bme280.c      **** 
 607:bme280.c      **** /*!
 608:bme280.c      ****  * @brief This API reads the pressure, temperature and humidity data from the
 609:bme280.c      ****  * sensor, compensates the data and store it in the bme280_data structure
 610:bme280.c      ****  * instance passed by the user.
 611:bme280.c      ****  */
 612:bme280.c      **** int8_t bme280_get_sensor_data(uint8_t sensor_comp,  bme280_data *comp_data,  bme280_dev *dev)
 613:bme280.c      **** {
 614:bme280.c      **** 	int8_t rslt;
 615:bme280.c      **** 	/* Array to store the pressure, temperature and humidity data read from
 616:bme280.c      **** 	the sensor */
 617:bme280.c      **** 	uint8_t reg_data[BME280_P_T_H_DATA_LEN] = {0};
 618:bme280.c      **** 	 bme280_uncomp_data uncomp_data = {0};
 619:bme280.c      **** 
 620:bme280.c      **** 	/* Check for null pointer in the device structure*/
 621:bme280.c      **** 	rslt = null_ptr_check(dev);
 622:bme280.c      **** 
 623:bme280.c      **** 	if ((rslt == BME280_OK) && (comp_data != NULL)) {
 624:bme280.c      **** 		/* Read the pressure and temperature data from the sensor */
 625:bme280.c      **** 		rslt = bme280_get_regs(BME280_DATA_ADDR, reg_data, BME280_P_T_H_DATA_LEN, dev);
 626:bme280.c      **** 
 627:bme280.c      **** 		if (rslt == BME280_OK) {
 628:bme280.c      **** 			/* Parse the read data from the sensor */
 629:bme280.c      **** 			parse_sensor_data(reg_data, &uncomp_data);
 630:bme280.c      **** 			/* Compensate the pressure and/or temperature and/or
 631:bme280.c      **** 			   humidity data from the sensor */
 632:bme280.c      **** 			rslt = compensate_data(sensor_comp, &uncomp_data, comp_data, &dev->calib_data);
 633:bme280.c      **** 		}
 634:bme280.c      **** 	} else {
 635:bme280.c      **** 		rslt = BME280_E_NULL_PTR;
 636:bme280.c      **** 	}
 637:bme280.c      **** 
 638:bme280.c      **** 	return rslt;
 639:bme280.c      **** }
 640:bme280.c      **** 
 641:bme280.c      **** /*!
 642:bme280.c      ****  * @brief This internal API sets the oversampling settings for pressure,
 643:bme280.c      ****  * temperature and humidity in the sensor.
 644:bme280.c      ****  */
 645:bme280.c      **** static int8_t set_osr_settings(uint8_t desired_settings, const  bme280_settings *settings,
 646:bme280.c      **** 				const  bme280_dev *dev)
 647:bme280.c      **** {
 648:bme280.c      **** 	int8_t rslt = BME280_W_INVALID_OSR_MACRO;
 649:bme280.c      **** 
 650:bme280.c      **** 	if (desired_settings & BME280_OSR_HUM_SEL)
 651:bme280.c      **** 		rslt = set_osr_humidity_settings(settings, dev);
 652:bme280.c      **** 	if (desired_settings & (BME280_OSR_PRESS_SEL | BME280_OSR_TEMP_SEL))
 653:bme280.c      **** 		rslt = set_osr_press_temp_settings(desired_settings, settings, dev);
 654:bme280.c      **** 
 655:bme280.c      **** 	return rslt;
 656:bme280.c      **** }
 657:bme280.c      **** 
 658:bme280.c      **** /*!
ARM GAS  C:\Users\corne\AppData\Local\Temp\cc0fqrF9.s 			page 13


 659:bme280.c      ****  * @brief This API sets the humidity oversampling settings of the sensor.
 660:bme280.c      ****  */
 661:bme280.c      **** static int8_t set_osr_humidity_settings(const  bme280_settings *settings, const  bme280_dev *dev)
 662:bme280.c      **** {
 663:bme280.c      **** 	int8_t rslt;
 664:bme280.c      **** 	uint8_t ctrl_hum;
 665:bme280.c      **** 	uint8_t ctrl_meas;
 666:bme280.c      **** 	uint8_t reg_addr = BME280_CTRL_HUM_ADDR;
 667:bme280.c      **** 
 668:bme280.c      **** 	ctrl_hum = settings->osr_h & BME280_CTRL_HUM_MSK;
 669:bme280.c      **** 	/* Write the humidity control value in the register */
 670:bme280.c      **** 	rslt = bme280_set_regs(&reg_addr, &ctrl_hum, 1, dev);
 671:bme280.c      **** 	/* Humidity related changes will be only effective after a
 672:bme280.c      **** 	   write operation to ctrl_meas register */
 673:bme280.c      **** 	if (rslt == BME280_OK) {
 674:bme280.c      **** 		reg_addr = BME280_CTRL_MEAS_ADDR;
 675:bme280.c      **** 		rslt = bme280_get_regs(reg_addr, &ctrl_meas, 1, dev);
 676:bme280.c      **** 		if (rslt == BME280_OK)
 677:bme280.c      **** 			rslt = bme280_set_regs(&reg_addr, &ctrl_meas, 1, dev);
 678:bme280.c      **** 	}
 679:bme280.c      **** 
 680:bme280.c      **** 	return rslt;
 681:bme280.c      **** }
 682:bme280.c      **** 
 683:bme280.c      **** /*!
 684:bme280.c      ****  * @brief This API sets the pressure and/or temperature oversampling settings
 685:bme280.c      ****  * in the sensor according to the settings selected by the user.
 686:bme280.c      ****  */
 687:bme280.c      **** static int8_t set_osr_press_temp_settings(uint8_t desired_settings, const  bme280_settings *setting
 688:bme280.c      **** 						const  bme280_dev *dev)
 689:bme280.c      **** {
 690:bme280.c      **** 	int8_t rslt;
 691:bme280.c      **** 	uint8_t reg_addr = BME280_CTRL_MEAS_ADDR;
 692:bme280.c      **** 	uint8_t reg_data;
 693:bme280.c      **** 
 694:bme280.c      **** 	rslt = bme280_get_regs(reg_addr, &reg_data, 1, dev);
 695:bme280.c      **** 
 696:bme280.c      **** 	if (rslt == BME280_OK) {
 697:bme280.c      **** 		if (desired_settings & BME280_OSR_PRESS_SEL)
 698:bme280.c      **** 			fill_osr_press_settings(&reg_data, settings);
 699:bme280.c      **** 		if (desired_settings & BME280_OSR_TEMP_SEL)
 700:bme280.c      **** 			fill_osr_temp_settings(&reg_data, settings);
 701:bme280.c      **** 		/* Write the oversampling settings in the register */
 702:bme280.c      **** 		rslt = bme280_set_regs(&reg_addr, &reg_data, 1, dev);
 703:bme280.c      **** 	}
 704:bme280.c      **** 
 705:bme280.c      **** 	return rslt;
 706:bme280.c      **** }
 707:bme280.c      **** 
 708:bme280.c      **** /*!
 709:bme280.c      ****  * @brief This internal API sets the filter and/or standby duration settings
 710:bme280.c      ****  * in the sensor according to the settings selected by the user.
 711:bme280.c      ****  */
 712:bme280.c      **** static int8_t set_filter_standby_settings(uint8_t desired_settings, const  bme280_settings *setting
 713:bme280.c      **** 						const  bme280_dev *dev)
 714:bme280.c      **** {
 715:bme280.c      **** 	int8_t rslt;
ARM GAS  C:\Users\corne\AppData\Local\Temp\cc0fqrF9.s 			page 14


 716:bme280.c      **** 	uint8_t reg_addr = BME280_CONFIG_ADDR;
 717:bme280.c      **** 	uint8_t reg_data;
 718:bme280.c      **** 
 719:bme280.c      **** 	rslt = bme280_get_regs(reg_addr, &reg_data, 1, dev);
 720:bme280.c      **** 
 721:bme280.c      **** 	if (rslt == BME280_OK) {
 722:bme280.c      **** 		if (desired_settings & BME280_FILTER_SEL)
 723:bme280.c      **** 			fill_filter_settings(&reg_data, settings);
 724:bme280.c      **** 		if (desired_settings & BME280_STANDBY_SEL)
 725:bme280.c      **** 			fill_standby_settings(&reg_data, settings);
 726:bme280.c      **** 		/* Write the oversampling settings in the register */
 727:bme280.c      **** 		rslt = bme280_set_regs(&reg_addr, &reg_data, 1, dev);
 728:bme280.c      **** 	}
 729:bme280.c      **** 
 730:bme280.c      **** 	return rslt;
 731:bme280.c      **** }
 732:bme280.c      **** 
 733:bme280.c      **** /*!
 734:bme280.c      ****  * @brief This internal API fills the filter settings provided by the user
 735:bme280.c      ****  * in the data buffer so as to write in the sensor.
 736:bme280.c      ****  */
 737:bme280.c      **** static void fill_filter_settings(uint8_t *reg_data, const  bme280_settings *settings)
 738:bme280.c      **** {
  27              		.loc 1 738 0
  28              		.cfi_startproc
  29              		@ args = 0, pretend = 0, frame = 0
  30              		@ frame_needed = 0, uses_anonymous_args = 0
  31              	.LVL0:
  32 0000 10B5     		push	{r4, lr}
  33              		.cfi_def_cfa_offset 8
  34              		.cfi_offset 4, -8
  35              		.cfi_offset 14, -4
 739:bme280.c      **** 	*reg_data = BME280_SET_BITS(*reg_data, BME280_FILTER, settings->filter);
  36              		.loc 1 739 0
  37 0002 0478     		ldrb	r4, [r0]
  38 0004 CB78     		ldrb	r3, [r1, #3]
  39 0006 9A00     		lsls	r2, r3, #2
  40 0008 1C23     		movs	r3, #28
  41 000a 2100     		movs	r1, r4
  42              	.LVL1:
  43 000c 9943     		bics	r1, r3
  44 000e 1340     		ands	r3, r2
  45 0010 0B43     		orrs	r3, r1
  46 0012 0370     		strb	r3, [r0]
 740:bme280.c      **** }
  47              		.loc 1 740 0
  48              		@ sp needed
  49 0014 10BD     		pop	{r4, pc}
  50              		.cfi_endproc
  51              	.LFE14:
  52              		.size	fill_filter_settings, .-fill_filter_settings
  53 0016 C046     		.section	.text.fill_standby_settings,"ax",%progbits
  54              		.align	2
  55              		.code	16
  56              		.thumb_func
  57              		.type	fill_standby_settings, %function
  58              	fill_standby_settings:
ARM GAS  C:\Users\corne\AppData\Local\Temp\cc0fqrF9.s 			page 15


  59              	.LFB15:
 741:bme280.c      **** 
 742:bme280.c      **** /*!
 743:bme280.c      ****  * @brief This internal API fills the standby duration settings provided by
 744:bme280.c      ****  * the user in the data buffer so as to write in the sensor.
 745:bme280.c      ****  */
 746:bme280.c      **** static void fill_standby_settings(uint8_t *reg_data, const  bme280_settings *settings)
 747:bme280.c      **** {
  60              		.loc 1 747 0
  61              		.cfi_startproc
  62              		@ args = 0, pretend = 0, frame = 0
  63              		@ frame_needed = 0, uses_anonymous_args = 0
  64              		@ link register save eliminated.
  65              	.LVL2:
 748:bme280.c      **** 	*reg_data = BME280_SET_BITS(*reg_data, BME280_STANDBY, settings->standby_time);
  66              		.loc 1 748 0
  67 0000 0378     		ldrb	r3, [r0]
  68 0002 0A79     		ldrb	r2, [r1, #4]
  69 0004 5201     		lsls	r2, r2, #5
  70 0006 1F21     		movs	r1, #31
  71              	.LVL3:
  72 0008 0B40     		ands	r3, r1
  73 000a 1343     		orrs	r3, r2
  74 000c 0370     		strb	r3, [r0]
 749:bme280.c      **** }
  75              		.loc 1 749 0
  76              		@ sp needed
  77 000e 7047     		bx	lr
  78              		.cfi_endproc
  79              	.LFE15:
  80              		.size	fill_standby_settings, .-fill_standby_settings
  81              		.section	.text.fill_osr_press_settings,"ax",%progbits
  82              		.align	2
  83              		.code	16
  84              		.thumb_func
  85              		.type	fill_osr_press_settings, %function
  86              	fill_osr_press_settings:
  87              	.LFB16:
 750:bme280.c      **** 
 751:bme280.c      **** /*!
 752:bme280.c      ****  * @brief This internal API fills the pressure oversampling settings provided by
 753:bme280.c      ****  * the user in the data buffer so as to write in the sensor.
 754:bme280.c      ****  */
 755:bme280.c      **** static void fill_osr_press_settings(uint8_t *reg_data, const  bme280_settings *settings)
 756:bme280.c      **** {
  88              		.loc 1 756 0
  89              		.cfi_startproc
  90              		@ args = 0, pretend = 0, frame = 0
  91              		@ frame_needed = 0, uses_anonymous_args = 0
  92              	.LVL4:
  93 0000 10B5     		push	{r4, lr}
  94              		.cfi_def_cfa_offset 8
  95              		.cfi_offset 4, -8
  96              		.cfi_offset 14, -4
 757:bme280.c      **** 	*reg_data = BME280_SET_BITS(*reg_data, BME280_CTRL_PRESS, settings->osr_p);
  97              		.loc 1 757 0
  98 0002 0478     		ldrb	r4, [r0]
ARM GAS  C:\Users\corne\AppData\Local\Temp\cc0fqrF9.s 			page 16


  99 0004 0B78     		ldrb	r3, [r1]
 100 0006 9A00     		lsls	r2, r3, #2
 101 0008 1C23     		movs	r3, #28
 102 000a 2100     		movs	r1, r4
 103              	.LVL5:
 104 000c 9943     		bics	r1, r3
 105 000e 1340     		ands	r3, r2
 106 0010 0B43     		orrs	r3, r1
 107 0012 0370     		strb	r3, [r0]
 758:bme280.c      **** }
 108              		.loc 1 758 0
 109              		@ sp needed
 110 0014 10BD     		pop	{r4, pc}
 111              		.cfi_endproc
 112              	.LFE16:
 113              		.size	fill_osr_press_settings, .-fill_osr_press_settings
 114 0016 C046     		.section	.text.fill_osr_temp_settings,"ax",%progbits
 115              		.align	2
 116              		.code	16
 117              		.thumb_func
 118              		.type	fill_osr_temp_settings, %function
 119              	fill_osr_temp_settings:
 120              	.LFB17:
 759:bme280.c      **** 
 760:bme280.c      **** /*!
 761:bme280.c      ****  * @brief This internal API fills the temperature oversampling settings
 762:bme280.c      ****  * provided by the user in the data buffer so as to write in the sensor.
 763:bme280.c      ****  */
 764:bme280.c      **** static void fill_osr_temp_settings(uint8_t *reg_data, const  bme280_settings *settings)
 765:bme280.c      **** {
 121              		.loc 1 765 0
 122              		.cfi_startproc
 123              		@ args = 0, pretend = 0, frame = 0
 124              		@ frame_needed = 0, uses_anonymous_args = 0
 125              		@ link register save eliminated.
 126              	.LVL6:
 766:bme280.c      **** 	*reg_data = BME280_SET_BITS(*reg_data, BME280_CTRL_TEMP, settings->osr_t);
 127              		.loc 1 766 0
 128 0000 0378     		ldrb	r3, [r0]
 129 0002 4A78     		ldrb	r2, [r1, #1]
 130 0004 5201     		lsls	r2, r2, #5
 131 0006 1F21     		movs	r1, #31
 132              	.LVL7:
 133 0008 0B40     		ands	r3, r1
 134 000a 1343     		orrs	r3, r2
 135 000c 0370     		strb	r3, [r0]
 767:bme280.c      **** }
 136              		.loc 1 767 0
 137              		@ sp needed
 138 000e 7047     		bx	lr
 139              		.cfi_endproc
 140              	.LFE17:
 141              		.size	fill_osr_temp_settings, .-fill_osr_temp_settings
 142              		.section	.text.parse_device_settings,"ax",%progbits
 143              		.align	2
 144              		.code	16
 145              		.thumb_func
ARM GAS  C:\Users\corne\AppData\Local\Temp\cc0fqrF9.s 			page 17


 146              		.type	parse_device_settings, %function
 147              	parse_device_settings:
 148              	.LFB18:
 768:bme280.c      **** 
 769:bme280.c      **** /*!
 770:bme280.c      ****  * @brief This internal API parse the oversampling(pressure, temperature
 771:bme280.c      ****  * and humidity), filter and standby duration settings and store in the
 772:bme280.c      ****  * device structure.
 773:bme280.c      ****  */
 774:bme280.c      **** static void parse_device_settings(const uint8_t *reg_data,  bme280_settings *settings)
 775:bme280.c      **** {
 149              		.loc 1 775 0
 150              		.cfi_startproc
 151              		@ args = 0, pretend = 0, frame = 0
 152              		@ frame_needed = 0, uses_anonymous_args = 0
 153              	.LVL8:
 154 0000 10B5     		push	{r4, lr}
 155              		.cfi_def_cfa_offset 8
 156              		.cfi_offset 4, -8
 157              		.cfi_offset 14, -4
 776:bme280.c      **** 	settings->osr_h = BME280_GET_BITS_POS_0(reg_data[0], BME280_CTRL_HUM);
 158              		.loc 1 776 0
 159 0002 0378     		ldrb	r3, [r0]
 160 0004 0724     		movs	r4, #7
 161 0006 2340     		ands	r3, r4
 162 0008 8B70     		strb	r3, [r1, #2]
 777:bme280.c      **** 	settings->osr_p = BME280_GET_BITS(reg_data[2], BME280_CTRL_PRESS);
 163              		.loc 1 777 0
 164 000a 8278     		ldrb	r2, [r0, #2]
 165 000c 9210     		asrs	r2, r2, #2
 166 000e 2240     		ands	r2, r4
 167 0010 0A70     		strb	r2, [r1]
 778:bme280.c      **** 	settings->osr_t = BME280_GET_BITS(reg_data[2], BME280_CTRL_TEMP);
 168              		.loc 1 778 0
 169 0012 8378     		ldrb	r3, [r0, #2]
 170 0014 5B09     		lsrs	r3, r3, #5
 171 0016 4B70     		strb	r3, [r1, #1]
 779:bme280.c      **** 	settings->filter = BME280_GET_BITS(reg_data[3], BME280_FILTER);
 172              		.loc 1 779 0
 173 0018 C378     		ldrb	r3, [r0, #3]
 174 001a 9B10     		asrs	r3, r3, #2
 175 001c 2340     		ands	r3, r4
 176 001e CB70     		strb	r3, [r1, #3]
 780:bme280.c      **** 	settings->standby_time = BME280_GET_BITS(reg_data[3], BME280_STANDBY);
 177              		.loc 1 780 0
 178 0020 C378     		ldrb	r3, [r0, #3]
 179 0022 5B09     		lsrs	r3, r3, #5
 180 0024 0B71     		strb	r3, [r1, #4]
 781:bme280.c      **** }
 181              		.loc 1 781 0
 182              		@ sp needed
 183 0026 10BD     		pop	{r4, pc}
 184              		.cfi_endproc
 185              	.LFE18:
 186              		.size	parse_device_settings, .-parse_device_settings
 187              		.section	.text.parse_sensor_data,"ax",%progbits
 188              		.align	2
ARM GAS  C:\Users\corne\AppData\Local\Temp\cc0fqrF9.s 			page 18


 189              		.code	16
 190              		.thumb_func
 191              		.type	parse_sensor_data, %function
 192              	parse_sensor_data:
 193              	.LFB22:
 782:bme280.c      **** /*!
 783:bme280.c      ****  * @brief This internal API writes the power mode in the sensor.
 784:bme280.c      ****  */
 785:bme280.c      **** static int8_t write_power_mode(uint8_t sensor_mode, const  bme280_dev *dev)
 786:bme280.c      **** {
 787:bme280.c      **** 	int8_t rslt;
 788:bme280.c      **** 	uint8_t reg_addr = BME280_PWR_CTRL_ADDR;
 789:bme280.c      **** 	/* Variable to store the value read from power mode register */
 790:bme280.c      **** 	uint8_t sensor_mode_reg_val;
 791:bme280.c      **** 
 792:bme280.c      **** 	/* Read the power mode register */
 793:bme280.c      **** 	rslt = bme280_get_regs(reg_addr, &sensor_mode_reg_val, 1, dev);
 794:bme280.c      **** 	/* Set the power mode */
 795:bme280.c      **** 	if (rslt == BME280_OK) {
 796:bme280.c      **** 		sensor_mode_reg_val = BME280_SET_BITS_POS_0(sensor_mode_reg_val, BME280_SENSOR_MODE, sensor_mode)
 797:bme280.c      **** 		/* Write the power mode in the register */
 798:bme280.c      **** 		rslt = bme280_set_regs(&reg_addr, &sensor_mode_reg_val, 1, dev);
 799:bme280.c      **** 	}
 800:bme280.c      **** 
 801:bme280.c      **** 	return rslt;
 802:bme280.c      **** }
 803:bme280.c      **** 
 804:bme280.c      **** /*!
 805:bme280.c      ****  * @brief This internal API puts the device to sleep mode.
 806:bme280.c      ****  */
 807:bme280.c      **** static int8_t put_device_to_sleep(const  bme280_dev *dev)
 808:bme280.c      **** {
 809:bme280.c      **** 	int8_t rslt;
 810:bme280.c      **** 	uint8_t reg_data[4];
 811:bme280.c      **** 	 bme280_settings settings;
 812:bme280.c      **** 
 813:bme280.c      **** 	rslt = bme280_get_regs(BME280_CTRL_HUM_ADDR, reg_data, 4, dev);
 814:bme280.c      **** 	if (rslt == BME280_OK) {
 815:bme280.c      **** 		parse_device_settings(reg_data, &settings);
 816:bme280.c      **** 		rslt = bme280_soft_reset(dev);
 817:bme280.c      **** 		if (rslt == BME280_OK)
 818:bme280.c      **** 			rslt = reload_device_settings(&settings, dev);
 819:bme280.c      **** 	}
 820:bme280.c      **** 
 821:bme280.c      **** 	return rslt;
 822:bme280.c      **** }
 823:bme280.c      **** 
 824:bme280.c      **** /*!
 825:bme280.c      ****  * @brief This internal API reloads the already existing device settings in
 826:bme280.c      ****  * the sensor after soft reset.
 827:bme280.c      ****  */
 828:bme280.c      **** static int8_t reload_device_settings(const  bme280_settings *settings, const  bme280_dev *dev)
 829:bme280.c      **** {
 830:bme280.c      **** 	int8_t rslt;
 831:bme280.c      **** 
 832:bme280.c      **** 	rslt = set_osr_settings(BME280_ALL_SETTINGS_SEL, settings, dev);
 833:bme280.c      **** 	if (rslt == BME280_OK)
ARM GAS  C:\Users\corne\AppData\Local\Temp\cc0fqrF9.s 			page 19


 834:bme280.c      **** 		rslt = set_filter_standby_settings(BME280_ALL_SETTINGS_SEL, settings, dev);
 835:bme280.c      **** 
 836:bme280.c      **** 	return rslt;
 837:bme280.c      **** }
 838:bme280.c      **** 
 839:bme280.c      **** /*!
 840:bme280.c      ****  *  @brief This internal API is used to parse the pressure, temperature and
 841:bme280.c      ****  *  humidity data and store it in the bme280_uncomp_data structure instance.
 842:bme280.c      ****  */
 843:bme280.c      **** static void parse_sensor_data(const uint8_t *reg_data,  bme280_uncomp_data *uncomp_data)
 844:bme280.c      **** {
 194              		.loc 1 844 0
 195              		.cfi_startproc
 196              		@ args = 0, pretend = 0, frame = 0
 197              		@ frame_needed = 0, uses_anonymous_args = 0
 198              	.LVL9:
 199 0000 10B5     		push	{r4, lr}
 200              		.cfi_def_cfa_offset 8
 201              		.cfi_offset 4, -8
 202              		.cfi_offset 14, -4
 845:bme280.c      **** 	/* Variables to store the sensor data */
 846:bme280.c      **** 	uint32_t data_xlsb;
 847:bme280.c      **** 	uint32_t data_lsb;
 848:bme280.c      **** 	uint32_t data_msb;
 849:bme280.c      **** 
 850:bme280.c      **** 	/* Store the parsed register values for pressure data */
 851:bme280.c      **** 	data_xlsb = (uint32_t)reg_data[0] << 12;
 203              		.loc 1 851 0
 204 0002 0378     		ldrb	r3, [r0]
 205 0004 1C03     		lsls	r4, r3, #12
 206              	.LVL10:
 852:bme280.c      **** 	data_lsb = (uint32_t)reg_data[1] << 4;
 207              		.loc 1 852 0
 208 0006 4378     		ldrb	r3, [r0, #1]
 209 0008 1B01     		lsls	r3, r3, #4
 210              	.LVL11:
 853:bme280.c      **** 	data_msb = (uint32_t)reg_data[2] << 4;
 211              		.loc 1 853 0
 212 000a 8278     		ldrb	r2, [r0, #2]
 213 000c 1201     		lsls	r2, r2, #4
 214              	.LVL12:
 854:bme280.c      **** 	uncomp_data->pressure = data_msb | data_lsb | data_xlsb;
 215              		.loc 1 854 0
 216 000e 1343     		orrs	r3, r2
 217              	.LVL13:
 218 0010 2343     		orrs	r3, r4
 219 0012 0B60     		str	r3, [r1]
 220              	.LVL14:
 855:bme280.c      **** 
 856:bme280.c      **** 	/* Store the parsed register values for temperature data */
 857:bme280.c      **** 	data_xlsb = (uint32_t)reg_data[3] << 12;
 221              		.loc 1 857 0
 222 0014 C378     		ldrb	r3, [r0, #3]
 223 0016 1C03     		lsls	r4, r3, #12
 224              	.LVL15:
 858:bme280.c      **** 	data_lsb = (uint32_t)reg_data[4] << 4;
 225              		.loc 1 858 0
ARM GAS  C:\Users\corne\AppData\Local\Temp\cc0fqrF9.s 			page 20


 226 0018 0379     		ldrb	r3, [r0, #4]
 227 001a 1B01     		lsls	r3, r3, #4
 228              	.LVL16:
 859:bme280.c      **** 	data_msb = (uint32_t)reg_data[5] << 4;
 229              		.loc 1 859 0
 230 001c 4279     		ldrb	r2, [r0, #5]
 231              	.LVL17:
 232 001e 1201     		lsls	r2, r2, #4
 233              	.LVL18:
 860:bme280.c      **** 	uncomp_data->temperature = data_msb | data_lsb | data_xlsb;
 234              		.loc 1 860 0
 235 0020 1343     		orrs	r3, r2
 236              	.LVL19:
 237 0022 2343     		orrs	r3, r4
 238 0024 4B60     		str	r3, [r1, #4]
 239              	.LVL20:
 861:bme280.c      **** 
 862:bme280.c      **** 	/* Store the parsed register values for temperature data */
 863:bme280.c      **** 	data_lsb = (uint32_t)reg_data[6] << 8;
 240              		.loc 1 863 0
 241 0026 8379     		ldrb	r3, [r0, #6]
 242 0028 1B02     		lsls	r3, r3, #8
 243              	.LVL21:
 864:bme280.c      **** 	data_msb = (uint32_t)reg_data[7];
 244              		.loc 1 864 0
 245 002a C279     		ldrb	r2, [r0, #7]
 246              	.LVL22:
 865:bme280.c      **** 	uncomp_data->humidity = data_msb | data_lsb;
 247              		.loc 1 865 0
 248 002c 1343     		orrs	r3, r2
 249              	.LVL23:
 250 002e 8B60     		str	r3, [r1, #8]
 251              	.LVL24:
 866:bme280.c      **** }
 252              		.loc 1 866 0
 253              		@ sp needed
 254              	.LVL25:
 255 0030 10BD     		pop	{r4, pc}
 256              		.cfi_endproc
 257              	.LFE22:
 258              		.size	parse_sensor_data, .-parse_sensor_data
 259 0032 C046     		.section	.text.compensate_temperature,"ax",%progbits
 260              		.align	2
 261              		.code	16
 262              		.thumb_func
 263              		.type	compensate_temperature, %function
 264              	compensate_temperature:
 265              	.LFB24:
 867:bme280.c      **** 
 868:bme280.c      **** /*!
 869:bme280.c      ****  * @brief This internal API is used to compensate the pressure and/or
 870:bme280.c      ****  * temperature and/or humidity data according to the component selected
 871:bme280.c      ****  * by the user.
 872:bme280.c      ****  */
 873:bme280.c      **** static int8_t compensate_data(uint8_t sensor_comp, const  bme280_uncomp_data *uncomp_data,
 874:bme280.c      **** 				      bme280_data *comp_data,  bme280_calib_data *calib_data)
 875:bme280.c      **** {
ARM GAS  C:\Users\corne\AppData\Local\Temp\cc0fqrF9.s 			page 21


 876:bme280.c      **** 	int8_t rslt = BME280_OK;
 877:bme280.c      **** 
 878:bme280.c      **** 	if ((uncomp_data != NULL) && (comp_data != NULL) && (calib_data != NULL)) {
 879:bme280.c      **** 		/* Initialize to zero */
 880:bme280.c      **** 		comp_data->temperature = 0;
 881:bme280.c      **** 		comp_data->pressure = 0;
 882:bme280.c      **** 		comp_data->humidity = 0;
 883:bme280.c      **** 		/* If pressure or temperature component is selected */
 884:bme280.c      **** 		if (sensor_comp & (BME280_PRESS | BME280_TEMP | BME280_HUM)) {
 885:bme280.c      **** 			/* Compensate the temperature data */
 886:bme280.c      **** 			comp_data->temperature = compensate_temperature(uncomp_data, calib_data);
 887:bme280.c      **** 		}
 888:bme280.c      **** 		if (sensor_comp & BME280_PRESS) {
 889:bme280.c      **** 			/* Compensate the pressure data */
 890:bme280.c      **** 			comp_data->pressure = compensate_pressure(uncomp_data, calib_data);
 891:bme280.c      **** 		}
 892:bme280.c      **** 		if (sensor_comp & BME280_HUM) {
 893:bme280.c      **** 			/* Compensate the humidity data */
 894:bme280.c      **** 			comp_data->humidity = compensate_humidity(uncomp_data, calib_data);
 895:bme280.c      **** 		}
 896:bme280.c      **** 	} else {
 897:bme280.c      **** 		rslt = BME280_E_NULL_PTR;
 898:bme280.c      **** 	}
 899:bme280.c      **** 
 900:bme280.c      **** 	return rslt;
 901:bme280.c      **** }
 902:bme280.c      **** 
 903:bme280.c      **** #ifdef FLOATING_POINT_REPRESENTATION
 904:bme280.c      **** /*!
 905:bme280.c      ****  * @brief This internal API is used to compensate the raw temperature data and
 906:bme280.c      ****  * return the compensated temperature data in double data type.
 907:bme280.c      ****  */
 908:bme280.c      **** static double compensate_temperature(const  bme280_uncomp_data *uncomp_data,
 909:bme280.c      **** 						 bme280_calib_data *calib_data)
 910:bme280.c      **** {
 911:bme280.c      **** 	double var1;
 912:bme280.c      **** 	double var2;
 913:bme280.c      **** 	double temperature;
 914:bme280.c      **** 	double temperature_min = -40;
 915:bme280.c      **** 	double temperature_max = 85;
 916:bme280.c      **** 
 917:bme280.c      **** 	var1 = ((double)uncomp_data->temperature) / 16384.0 - ((double)calib_data->dig_T1) / 1024.0;
 918:bme280.c      **** 	var1 = var1 * ((double)calib_data->dig_T2);
 919:bme280.c      **** 	var2 = (((double)uncomp_data->temperature) / 131072.0 - ((double)calib_data->dig_T1) / 8192.0);
 920:bme280.c      **** 	var2 = (var2 * var2) * ((double)calib_data->dig_T3);
 921:bme280.c      **** 	calib_data->t_fine = (int32_t)(var1 + var2);
 922:bme280.c      **** 	temperature = (var1 + var2) / 5120.0;
 923:bme280.c      **** 
 924:bme280.c      **** 	if (temperature < temperature_min)
 925:bme280.c      **** 		temperature = temperature_min;
 926:bme280.c      **** 	else if (temperature > temperature_max)
 927:bme280.c      **** 		temperature = temperature_max;
 928:bme280.c      **** 
 929:bme280.c      **** 	return temperature;
 930:bme280.c      **** }
 931:bme280.c      **** 
 932:bme280.c      **** /*!
ARM GAS  C:\Users\corne\AppData\Local\Temp\cc0fqrF9.s 			page 22


 933:bme280.c      ****  * @brief This internal API is used to compensate the raw pressure data and
 934:bme280.c      ****  * return the compensated pressure data in double data type.
 935:bme280.c      ****  */
 936:bme280.c      **** static double compensate_pressure(const  bme280_uncomp_data *uncomp_data,
 937:bme280.c      **** 						const  bme280_calib_data *calib_data)
 938:bme280.c      **** {
 939:bme280.c      **** 	double var1;
 940:bme280.c      **** 	double var2;
 941:bme280.c      **** 	double var3;
 942:bme280.c      **** 	double pressure;
 943:bme280.c      **** 	double pressure_min = 30000.0;
 944:bme280.c      **** 	double pressure_max = 110000.0;
 945:bme280.c      **** 
 946:bme280.c      **** 	var1 = ((double)calib_data->t_fine / 2.0) - 64000.0;
 947:bme280.c      **** 	var2 = var1 * var1 * ((double)calib_data->dig_P6) / 32768.0;
 948:bme280.c      **** 	var2 = var2 + var1 * ((double)calib_data->dig_P5) * 2.0;
 949:bme280.c      **** 	var2 = (var2 / 4.0) + (((double)calib_data->dig_P4) * 65536.0);
 950:bme280.c      **** 	var3 = ((double)calib_data->dig_P3) * var1 * var1 / 524288.0;
 951:bme280.c      **** 	var1 = (var3 + ((double)calib_data->dig_P2) * var1) / 524288.0;
 952:bme280.c      **** 	var1 = (1.0 + var1 / 32768.0) * ((double)calib_data->dig_P1);
 953:bme280.c      **** 	/* avoid exception caused by division by zero */
 954:bme280.c      **** 	if (var1) {
 955:bme280.c      **** 		pressure = 1048576.0 - (double) uncomp_data->pressure;
 956:bme280.c      **** 		pressure = (pressure - (var2 / 4096.0)) * 6250.0 / var1;
 957:bme280.c      **** 		var1 = ((double)calib_data->dig_P9) * pressure * pressure / 2147483648.0;
 958:bme280.c      **** 		var2 = pressure * ((double)calib_data->dig_P8) / 32768.0;
 959:bme280.c      **** 		pressure = pressure + (var1 + var2 + ((double)calib_data->dig_P7)) / 16.0;
 960:bme280.c      **** 
 961:bme280.c      **** 		if (pressure < pressure_min)
 962:bme280.c      **** 			pressure = pressure_min;
 963:bme280.c      **** 		else if (pressure > pressure_max)
 964:bme280.c      **** 			pressure = pressure_max;
 965:bme280.c      **** 	} else { /* Invalid case */
 966:bme280.c      **** 		pressure = pressure_min;
 967:bme280.c      **** 	}
 968:bme280.c      **** 
 969:bme280.c      **** 	return pressure;
 970:bme280.c      **** }
 971:bme280.c      **** 
 972:bme280.c      **** /*!
 973:bme280.c      ****  * @brief This internal API is used to compensate the raw humidity data and
 974:bme280.c      ****  * return the compensated humidity data in double data type.
 975:bme280.c      ****  */
 976:bme280.c      **** static double compensate_humidity(const  bme280_uncomp_data *uncomp_data,
 977:bme280.c      **** 						const  bme280_calib_data *calib_data)
 978:bme280.c      **** {
 979:bme280.c      **** 	double humidity;
 980:bme280.c      **** 	double humidity_min = 0.0;
 981:bme280.c      **** 	double humidity_max = 100.0;
 982:bme280.c      **** 	double var1;
 983:bme280.c      **** 	double var2;
 984:bme280.c      **** 	double var3;
 985:bme280.c      **** 	double var4;
 986:bme280.c      **** 	double var5;
 987:bme280.c      **** 	double var6;
 988:bme280.c      **** 
 989:bme280.c      **** 	var1 = ((double)calib_data->t_fine) - 76800.0;
ARM GAS  C:\Users\corne\AppData\Local\Temp\cc0fqrF9.s 			page 23


 990:bme280.c      **** 	var2 = (((double)calib_data->dig_H4) * 64.0 + (((double)calib_data->dig_H5) / 16384.0) * var1);
 991:bme280.c      **** 	var3 = uncomp_data->humidity - var2;
 992:bme280.c      **** 	var4 = ((double)calib_data->dig_H2) / 65536.0;
 993:bme280.c      **** 	var5 = (1.0 + (((double)calib_data->dig_H3) / 67108864.0) * var1);
 994:bme280.c      **** 	var6 = 1.0 + (((double)calib_data->dig_H6) / 67108864.0) * var1 * var5;
 995:bme280.c      **** 	var6 = var3 * var4 * (var5 * var6);
 996:bme280.c      **** 	humidity = var6 * (1.0 - ((double)calib_data->dig_H1) * var6 / 524288.0);
 997:bme280.c      **** 
 998:bme280.c      **** 	if (humidity > humidity_max)
 999:bme280.c      **** 		humidity = humidity_max;
1000:bme280.c      **** 	else if (humidity < humidity_min)
1001:bme280.c      **** 		humidity = humidity_min;
1002:bme280.c      **** 
1003:bme280.c      **** 	return humidity;
1004:bme280.c      **** }
1005:bme280.c      **** 
1006:bme280.c      **** #else
1007:bme280.c      **** /*!
1008:bme280.c      ****  * @brief This internal API is used to compensate the raw temperature data and
1009:bme280.c      ****  * return the compensated temperature data in integer data type.
1010:bme280.c      ****  */
1011:bme280.c      **** static int32_t compensate_temperature(const  bme280_uncomp_data *uncomp_data,
1012:bme280.c      **** 						 bme280_calib_data *calib_data)
1013:bme280.c      **** {
 266              		.loc 1 1013 0
 267              		.cfi_startproc
 268              		@ args = 0, pretend = 0, frame = 0
 269              		@ frame_needed = 0, uses_anonymous_args = 0
 270              	.LVL26:
 271 0000 30B5     		push	{r4, r5, lr}
 272              		.cfi_def_cfa_offset 12
 273              		.cfi_offset 4, -12
 274              		.cfi_offset 5, -8
 275              		.cfi_offset 14, -4
 276              	.LVL27:
1014:bme280.c      **** 	int32_t var1;
1015:bme280.c      **** 	int32_t var2;
1016:bme280.c      **** 	int32_t temperature;
1017:bme280.c      **** 	int32_t temperature_min = -4000;
1018:bme280.c      **** 	int32_t temperature_max = 8500;
1019:bme280.c      **** 
1020:bme280.c      **** 	var1 = (int32_t)((uncomp_data->temperature / 8) - ((int32_t)calib_data->dig_T1 * 2));
 277              		.loc 1 1020 0
 278 0002 4268     		ldr	r2, [r0, #4]
 279 0004 D008     		lsrs	r0, r2, #3
 280              	.LVL28:
 281 0006 0B88     		ldrh	r3, [r1]
 282 0008 5C00     		lsls	r4, r3, #1
 283 000a 041B     		subs	r4, r0, r4
 284              	.LVL29:
1021:bme280.c      **** 	var1 = (var1 * ((int32_t)calib_data->dig_T2)) / 2048;
 285              		.loc 1 1021 0
 286 000c 0225     		movs	r5, #2
 287 000e 485F     		ldrsh	r0, [r1, r5]
 288 0010 4443     		muls	r4, r0
 289              	.LVL30:
 290 0012 E017     		asrs	r0, r4, #31
ARM GAS  C:\Users\corne\AppData\Local\Temp\cc0fqrF9.s 			page 24


 291 0014 4005     		lsls	r0, r0, #21
 292 0016 400D     		lsrs	r0, r0, #21
 293 0018 0019     		adds	r0, r0, r4
 294 001a C012     		asrs	r0, r0, #11
 295              	.LVL31:
1022:bme280.c      **** 	var2 = (int32_t)((uncomp_data->temperature / 16) - ((int32_t)calib_data->dig_T1));
 296              		.loc 1 1022 0
 297 001c 1209     		lsrs	r2, r2, #4
 298 001e D21A     		subs	r2, r2, r3
 299              	.LVL32:
1023:bme280.c      **** 	var2 = (((var2 * var2) / 4096) * ((int32_t)calib_data->dig_T3)) / 16384;
 300              		.loc 1 1023 0
 301 0020 5243     		muls	r2, r2
 302              	.LVL33:
 303 0022 D317     		asrs	r3, r2, #31
 304              	.LVL34:
 305 0024 1B05     		lsls	r3, r3, #20
 306 0026 1B0D     		lsrs	r3, r3, #20
 307 0028 9B18     		adds	r3, r3, r2
 308 002a 1B13     		asrs	r3, r3, #12
 309 002c 0424     		movs	r4, #4
 310 002e 0A5F     		ldrsh	r2, [r1, r4]
 311 0030 5343     		muls	r3, r2
 312 0032 DA17     		asrs	r2, r3, #31
 313 0034 9204     		lsls	r2, r2, #18
 314 0036 920C     		lsrs	r2, r2, #18
 315 0038 D318     		adds	r3, r2, r3
 316 003a 9B13     		asrs	r3, r3, #14
 317              	.LVL35:
1024:bme280.c      **** 	calib_data->t_fine = var1 + var2;
 318              		.loc 1 1024 0
 319 003c C018     		adds	r0, r0, r3
 320              	.LVL36:
 321 003e 4862     		str	r0, [r1, #36]
 322              	.LVL37:
1025:bme280.c      **** 	temperature = (calib_data->t_fine * 5 + 128) / 256;
 323              		.loc 1 1025 0
 324 0040 8300     		lsls	r3, r0, #2
 325              	.LVL38:
 326 0042 1818     		adds	r0, r3, r0
 327 0044 0300     		movs	r3, r0
 328 0046 8033     		adds	r3, r3, #128
 329 0048 DA17     		asrs	r2, r3, #31
 330 004a FF20     		movs	r0, #255
 331 004c 1040     		ands	r0, r2
 332 004e C018     		adds	r0, r0, r3
 333 0050 0012     		asrs	r0, r0, #8
 334              	.LVL39:
1026:bme280.c      **** 
1027:bme280.c      **** 	if (temperature < temperature_min)
 335              		.loc 1 1027 0
 336 0052 054B     		ldr	r3, .L11
 337 0054 9842     		cmp	r0, r3
 338 0056 03DB     		blt	.L9
1028:bme280.c      **** 		temperature = temperature_min;
1029:bme280.c      **** 	else if (temperature > temperature_max)
 339              		.loc 1 1029 0
ARM GAS  C:\Users\corne\AppData\Local\Temp\cc0fqrF9.s 			page 25


 340 0058 044B     		ldr	r3, .L11+4
 341 005a 9842     		cmp	r0, r3
 342 005c 02DC     		bgt	.L10
 343 005e 02E0     		b	.L8
 344              	.L9:
1028:bme280.c      **** 		temperature = temperature_min;
 345              		.loc 1 1028 0
 346 0060 0148     		ldr	r0, .L11
 347              	.LVL40:
 348 0062 00E0     		b	.L8
 349              	.LVL41:
 350              	.L10:
1030:bme280.c      **** 		temperature = temperature_max;
 351              		.loc 1 1030 0
 352 0064 0148     		ldr	r0, .L11+4
 353              	.LVL42:
 354              	.L8:
1031:bme280.c      **** 
1032:bme280.c      **** 	return temperature;
1033:bme280.c      **** }
 355              		.loc 1 1033 0
 356              		@ sp needed
 357 0066 30BD     		pop	{r4, r5, pc}
 358              	.L12:
 359              		.align	2
 360              	.L11:
 361 0068 60F0FFFF 		.word	-4000
 362 006c 34210000 		.word	8500
 363              		.cfi_endproc
 364              	.LFE24:
 365              		.size	compensate_temperature, .-compensate_temperature
 366              		.global	__aeabi_lmul
 367              		.global	__aeabi_ldivmod
 368              		.section	.text.compensate_pressure,"ax",%progbits
 369              		.align	2
 370              		.code	16
 371              		.thumb_func
 372              		.type	compensate_pressure, %function
 373              	compensate_pressure:
 374              	.LFB25:
1034:bme280.c      **** #ifdef MACHINE_64_BIT
1035:bme280.c      **** /*!
1036:bme280.c      ****  * @brief This internal API is used to compensate the raw pressure data and
1037:bme280.c      ****  * return the compensated pressure data in integer data type with higher
1038:bme280.c      ****  * accuracy.
1039:bme280.c      ****  */
1040:bme280.c      **** static uint32_t compensate_pressure(const  bme280_uncomp_data *uncomp_data,
1041:bme280.c      **** 						const  bme280_calib_data *calib_data)
1042:bme280.c      **** {
 375              		.loc 1 1042 0
 376              		.cfi_startproc
 377              		@ args = 0, pretend = 0, frame = 16
 378              		@ frame_needed = 0, uses_anonymous_args = 0
 379              	.LVL43:
 380 0000 F0B5     		push	{r4, r5, r6, r7, lr}
 381              		.cfi_def_cfa_offset 20
 382              		.cfi_offset 4, -20
ARM GAS  C:\Users\corne\AppData\Local\Temp\cc0fqrF9.s 			page 26


 383              		.cfi_offset 5, -16
 384              		.cfi_offset 6, -12
 385              		.cfi_offset 7, -8
 386              		.cfi_offset 14, -4
 387 0002 5746     		mov	r7, r10
 388 0004 4E46     		mov	r6, r9
 389 0006 4546     		mov	r5, r8
 390 0008 E0B4     		push	{r5, r6, r7}
 391              		.cfi_def_cfa_offset 32
 392              		.cfi_offset 8, -32
 393              		.cfi_offset 9, -28
 394              		.cfi_offset 10, -24
 395 000a 84B0     		sub	sp, sp, #16
 396              		.cfi_def_cfa_offset 48
 397 000c 8146     		mov	r9, r0
 398 000e 8846     		mov	r8, r1
 399              	.LVL44:
1043:bme280.c      **** 	int64_t var1;
1044:bme280.c      **** 	int64_t var2;
1045:bme280.c      **** 	int64_t var3;
1046:bme280.c      **** 	int64_t var4;
1047:bme280.c      **** 	uint32_t pressure;
1048:bme280.c      **** 	uint32_t pressure_min = 3000000;
1049:bme280.c      **** 	uint32_t pressure_max = 11000000;
1050:bme280.c      **** 
1051:bme280.c      **** 	var1 = ((int64_t)calib_data->t_fine) - 128000;
 400              		.loc 1 1051 0
 401 0010 4A6A     		ldr	r2, [r1, #36]
 402 0012 D317     		asrs	r3, r2, #31
 403 0014 804E     		ldr	r6, .L19
 404 0016 0127     		movs	r7, #1
 405 0018 7F42     		rsbs	r7, r7, #0
 406 001a B618     		adds	r6, r6, r2
 407 001c 5F41     		adcs	r7, r7, r3
 408              	.LVL45:
1052:bme280.c      **** 	var2 = var1 * var1 * (int64_t)calib_data->dig_P6;
 409              		.loc 1 1052 0
 410 001e 3200     		movs	r2, r6
 411 0020 3B00     		movs	r3, r7
 412 0022 3000     		movs	r0, r6
 413              	.LVL46:
 414 0024 3900     		movs	r1, r7
 415              	.LVL47:
 416 0026 FFF7FEFF 		bl	__aeabi_lmul
 417              	.LVL48:
 418 002a 4346     		mov	r3, r8
 419 002c 1022     		movs	r2, #16
 420 002e 9A5E     		ldrsh	r2, [r3, r2]
 421 0030 D317     		asrs	r3, r2, #31
 422 0032 0090     		str	r0, [sp]
 423 0034 0191     		str	r1, [sp, #4]
 424 0036 FFF7FEFF 		bl	__aeabi_lmul
 425              	.LVL49:
 426 003a 0400     		movs	r4, r0
 427 003c 0D00     		movs	r5, r1
 428              	.LVL50:
1053:bme280.c      **** 	var2 = var2 + ((var1 * (int64_t)calib_data->dig_P5) * 131072);
ARM GAS  C:\Users\corne\AppData\Local\Temp\cc0fqrF9.s 			page 27


 429              		.loc 1 1053 0
 430 003e 4346     		mov	r3, r8
 431 0040 0E22     		movs	r2, #14
 432 0042 9A5E     		ldrsh	r2, [r3, r2]
 433 0044 D317     		asrs	r3, r2, #31
 434 0046 3000     		movs	r0, r6
 435 0048 3900     		movs	r1, r7
 436 004a FFF7FEFF 		bl	__aeabi_lmul
 437              	.LVL51:
 438 004e C30B     		lsrs	r3, r0, #15
 439 0050 9A46     		mov	r10, r3
 440 0052 4B04     		lsls	r3, r1, #17
 441 0054 5146     		mov	r1, r10
 442 0056 0B43     		orrs	r3, r1
 443 0058 4204     		lsls	r2, r0, #17
 444 005a A418     		adds	r4, r4, r2
 445 005c 5D41     		adcs	r5, r5, r3
 446              	.LVL52:
1054:bme280.c      **** 	var2 = var2 + (((int64_t)calib_data->dig_P4) * 34359738368);
 447              		.loc 1 1054 0
 448 005e 4346     		mov	r3, r8
 449 0060 0C21     		movs	r1, #12
 450 0062 595E     		ldrsh	r1, [r3, r1]
 451 0064 0022     		movs	r2, #0
 452 0066 CB00     		lsls	r3, r1, #3
 453 0068 A418     		adds	r4, r4, r2
 454 006a 5D41     		adcs	r5, r5, r3
 455              	.LVL53:
 456 006c 0294     		str	r4, [sp, #8]
 457 006e 0395     		str	r5, [sp, #12]
 458              	.LVL54:
1055:bme280.c      **** 	var1 = ((var1 * var1 * (int64_t)calib_data->dig_P3) / 256) + ((var1 * (int64_t)calib_data->dig_P2)
 459              		.loc 1 1055 0
 460 0070 4346     		mov	r3, r8
 461 0072 0A22     		movs	r2, #10
 462 0074 9A5E     		ldrsh	r2, [r3, r2]
 463 0076 D317     		asrs	r3, r2, #31
 464 0078 0098     		ldr	r0, [sp]
 465 007a 0199     		ldr	r1, [sp, #4]
 466 007c FFF7FEFF 		bl	__aeabi_lmul
 467              	.LVL55:
 468 0080 CD17     		asrs	r5, r1, #31
 469 0082 FF24     		movs	r4, #255
 470              	.LVL56:
 471 0084 2540     		ands	r5, r4
 472 0086 2A00     		movs	r2, r5
 473 0088 0023     		movs	r3, #0
 474 008a 8018     		adds	r0, r0, r2
 475 008c 5941     		adcs	r1, r1, r3
 476 008e 0A06     		lsls	r2, r1, #24
 477 0090 030A     		lsrs	r3, r0, #8
 478 0092 1A43     		orrs	r2, r3
 479 0094 1400     		movs	r4, r2
 480 0096 0D12     		asrs	r5, r1, #8
 481 0098 4346     		mov	r3, r8
 482 009a 0822     		movs	r2, #8
 483 009c 9A5E     		ldrsh	r2, [r3, r2]
ARM GAS  C:\Users\corne\AppData\Local\Temp\cc0fqrF9.s 			page 28


 484 009e D317     		asrs	r3, r2, #31
 485 00a0 3000     		movs	r0, r6
 486 00a2 3900     		movs	r1, r7
 487 00a4 FFF7FEFF 		bl	__aeabi_lmul
 488              	.LVL57:
 489 00a8 060D     		lsrs	r6, r0, #20
 490              	.LVL58:
 491 00aa 0B03     		lsls	r3, r1, #12
 492 00ac 3343     		orrs	r3, r6
 493 00ae 0203     		lsls	r2, r0, #12
 494 00b0 A418     		adds	r4, r4, r2
 495 00b2 5D41     		adcs	r5, r5, r3
 496              	.LVL59:
1056:bme280.c      **** 	var3 = ((int64_t)1) * 140737488355328;
1057:bme280.c      **** 	var1 = (var3 + var1) * ((int64_t)calib_data->dig_P1) / 8589934592;
 497              		.loc 1 1057 0
 498 00b4 0020     		movs	r0, #0
 499 00b6 8021     		movs	r1, #128
 500 00b8 0902     		lsls	r1, r1, #8
 501 00ba 0019     		adds	r0, r0, r4
 502 00bc 6941     		adcs	r1, r1, r5
 503 00be 4346     		mov	r3, r8
 504 00c0 DA88     		ldrh	r2, [r3, #6]
 505 00c2 0023     		movs	r3, #0
 506 00c4 FFF7FEFF 		bl	__aeabi_lmul
 507              	.LVL60:
 508 00c8 CC17     		asrs	r4, r1, #31
 509              	.LVL61:
 510 00ca 2200     		movs	r2, r4
 511 00cc 0125     		movs	r5, #1
 512 00ce 2C40     		ands	r4, r5
 513 00d0 2300     		movs	r3, r4
 514 00d2 8018     		adds	r0, r0, r2
 515 00d4 5941     		adcs	r1, r1, r3
 516 00d6 4D10     		asrs	r5, r1, #1
 517 00d8 CC17     		asrs	r4, r1, #31
 518              	.LVL62:
1058:bme280.c      **** 
1059:bme280.c      **** 	/* To avoid divide by zero exception */
1060:bme280.c      **** 	if (var1 != 0) {
 519              		.loc 1 1060 0
 520 00da 2B00     		movs	r3, r5
 521 00dc 2343     		orrs	r3, r4
 522 00de 00D1     		bne	.LCB427
 523 00e0 8EE0     		b	.L16	@long jump
 524              	.LCB427:
1061:bme280.c      **** 		var4 = 1048576 - uncomp_data->pressure;
 525              		.loc 1 1061 0
 526 00e2 4B46     		mov	r3, r9
 527 00e4 1A68     		ldr	r2, [r3]
 528 00e6 8023     		movs	r3, #128
 529 00e8 5B03     		lsls	r3, r3, #13
 530 00ea 9B1A     		subs	r3, r3, r2
 531              	.LVL63:
1062:bme280.c      **** 		var4 = (((var4 * (2147483648UL)) - var2) * 3125) / var1;
 532              		.loc 1 1062 0
 533 00ec 5908     		lsrs	r1, r3, #1
ARM GAS  C:\Users\corne\AppData\Local\Temp\cc0fqrF9.s 			page 29


 534 00ee D807     		lsls	r0, r3, #31
 535 00f0 029A     		ldr	r2, [sp, #8]
 536 00f2 039B     		ldr	r3, [sp, #12]
 537 00f4 801A     		subs	r0, r0, r2
 538 00f6 9941     		sbcs	r1, r1, r3
 539 00f8 484A     		ldr	r2, .L19+4
 540 00fa 0023     		movs	r3, #0
 541              	.LVL64:
 542 00fc FFF7FEFF 		bl	__aeabi_lmul
 543              	.LVL65:
 544 0100 2A00     		movs	r2, r5
 545 0102 2300     		movs	r3, r4
 546 0104 FFF7FEFF 		bl	__aeabi_ldivmod
 547              	.LVL66:
 548 0108 0400     		movs	r4, r0
 549              	.LVL67:
 550 010a 0D00     		movs	r5, r1
 551              	.LVL68:
1063:bme280.c      **** 		var1 = (((int64_t)calib_data->dig_P9) * (var4 / 8192) * (var4 / 8192)) / 33554432;
 552              		.loc 1 1063 0
 553 010c 4346     		mov	r3, r8
 554 010e 1620     		movs	r0, #22
 555 0110 185E     		ldrsh	r0, [r3, r0]
 556 0112 C117     		asrs	r1, r0, #31
 557 0114 EE17     		asrs	r6, r5, #31
 558 0116 F604     		lsls	r6, r6, #19
 559 0118 F20C     		lsrs	r2, r6, #19
 560 011a 0023     		movs	r3, #0
 561 011c 1219     		adds	r2, r2, r4
 562 011e 6B41     		adcs	r3, r3, r5
 563 0120 DE04     		lsls	r6, r3, #19
 564 0122 570B     		lsrs	r7, r2, #13
 565 0124 3743     		orrs	r7, r6
 566 0126 5E13     		asrs	r6, r3, #13
 567 0128 3A00     		movs	r2, r7
 568 012a 3300     		movs	r3, r6
 569 012c FFF7FEFF 		bl	__aeabi_lmul
 570              	.LVL69:
 571 0130 0200     		movs	r2, r0
 572 0132 0B00     		movs	r3, r1
 573 0134 3800     		movs	r0, r7
 574 0136 3100     		movs	r1, r6
 575 0138 FFF7FEFF 		bl	__aeabi_lmul
 576              	.LVL70:
 577 013c CE17     		asrs	r6, r1, #31
 578 013e F601     		lsls	r6, r6, #7
 579 0140 F209     		lsrs	r2, r6, #7
 580 0142 0023     		movs	r3, #0
 581 0144 8018     		adds	r0, r0, r2
 582 0146 5941     		adcs	r1, r1, r3
 583 0148 CA01     		lsls	r2, r1, #7
 584 014a 430E     		lsrs	r3, r0, #25
 585 014c 1A43     		orrs	r2, r3
 586 014e 1600     		movs	r6, r2
 587 0150 4F16     		asrs	r7, r1, #25
 588              	.LVL71:
1064:bme280.c      **** 		var2 = (((int64_t)calib_data->dig_P8) * var4) / 524288;
ARM GAS  C:\Users\corne\AppData\Local\Temp\cc0fqrF9.s 			page 30


 589              		.loc 1 1064 0
 590 0152 4346     		mov	r3, r8
 591 0154 1422     		movs	r2, #20
 592 0156 9A5E     		ldrsh	r2, [r3, r2]
 593 0158 D317     		asrs	r3, r2, #31
 594 015a 2000     		movs	r0, r4
 595 015c 2900     		movs	r1, r5
 596 015e FFF7FEFF 		bl	__aeabi_lmul
 597              	.LVL72:
 598 0162 0090     		str	r0, [sp]
 599 0164 0191     		str	r1, [sp, #4]
 600 0166 C917     		asrs	r1, r1, #31
 601 0168 4903     		lsls	r1, r1, #13
 602 016a 8C46     		mov	ip, r1
 603 016c 6346     		mov	r3, ip
 604 016e 580B     		lsrs	r0, r3, #13
 605 0170 0021     		movs	r1, #0
 606 0172 009A     		ldr	r2, [sp]
 607 0174 019B     		ldr	r3, [sp, #4]
 608 0176 1218     		adds	r2, r2, r0
 609 0178 4B41     		adcs	r3, r3, r1
 610 017a 1100     		movs	r1, r2
 611 017c 1A00     		movs	r2, r3
 612 017e 5B03     		lsls	r3, r3, #13
 613 0180 9C46     		mov	ip, r3
 614 0182 0091     		str	r1, [sp]
 615 0184 0192     		str	r2, [sp, #4]
 616 0186 C80C     		lsrs	r0, r1, #19
 617 0188 6146     		mov	r1, ip
 618 018a 0143     		orrs	r1, r0
 619 018c 0A00     		movs	r2, r1
 620 018e 0199     		ldr	r1, [sp, #4]
 621 0190 CB14     		asrs	r3, r1, #19
 622              	.LVL73:
1065:bme280.c      **** 		var4 = ((var4 + var1 + var2) / 256) + (((int64_t)calib_data->dig_P7) * 16);
 623              		.loc 1 1065 0
 624 0192 A419     		adds	r4, r4, r6
 625 0194 7D41     		adcs	r5, r5, r7
 626              	.LVL74:
 627 0196 1219     		adds	r2, r2, r4
 628 0198 6B41     		adcs	r3, r3, r5
 629              	.LVL75:
 630 019a D817     		asrs	r0, r3, #31
 631 019c FF21     		movs	r1, #255
 632 019e 0840     		ands	r0, r1
 633 01a0 0400     		movs	r4, r0
 634 01a2 0025     		movs	r5, #0
 635 01a4 1219     		adds	r2, r2, r4
 636 01a6 6B41     		adcs	r3, r3, r5
 637 01a8 1C06     		lsls	r4, r3, #24
 638 01aa 120A     		lsrs	r2, r2, #8
 639 01ac 1443     		orrs	r4, r2
 640 01ae 2000     		movs	r0, r4
 641 01b0 1912     		asrs	r1, r3, #8
 642 01b2 4346     		mov	r3, r8
 643 01b4 1224     		movs	r4, #18
 644 01b6 1C5F     		ldrsh	r4, [r3, r4]
ARM GAS  C:\Users\corne\AppData\Local\Temp\cc0fqrF9.s 			page 31


 645 01b8 E617     		asrs	r6, r4, #31
 646              	.LVL76:
 647 01ba 250F     		lsrs	r5, r4, #28
 648 01bc 3301     		lsls	r3, r6, #4
 649 01be 2B43     		orrs	r3, r5
 650 01c0 2201     		lsls	r2, r4, #4
 651 01c2 1218     		adds	r2, r2, r0
 652 01c4 4B41     		adcs	r3, r3, r1
 653              	.LVL77:
1066:bme280.c      **** 		pressure = (uint32_t)(((var4 / 2) * 100) / 128);
 654              		.loc 1 1066 0
 655 01c6 D80F     		lsrs	r0, r3, #31
 656 01c8 0021     		movs	r1, #0
 657 01ca 1218     		adds	r2, r2, r0
 658 01cc 4B41     		adcs	r3, r3, r1
 659              	.LVL78:
 660 01ce D907     		lsls	r1, r3, #31
 661 01d0 5008     		lsrs	r0, r2, #1
 662 01d2 0843     		orrs	r0, r1
 663 01d4 5910     		asrs	r1, r3, #1
 664 01d6 6422     		movs	r2, #100
 665 01d8 0023     		movs	r3, #0
 666 01da FFF7FEFF 		bl	__aeabi_lmul
 667              	.LVL79:
 668 01de CD17     		asrs	r5, r1, #31
 669 01e0 7F24     		movs	r4, #127
 670 01e2 2540     		ands	r5, r4
 671 01e4 2A00     		movs	r2, r5
 672 01e6 0023     		movs	r3, #0
 673 01e8 8018     		adds	r0, r0, r2
 674 01ea 5941     		adcs	r1, r1, r3
 675 01ec 4B06     		lsls	r3, r1, #25
 676 01ee C009     		lsrs	r0, r0, #7
 677 01f0 1843     		orrs	r0, r3
 678              	.LVL80:
1067:bme280.c      **** 
1068:bme280.c      **** 		if (pressure < pressure_min)
 679              		.loc 1 1068 0
 680 01f2 0B4B     		ldr	r3, .L19+8
 681 01f4 9842     		cmp	r0, r3
 682 01f6 05D9     		bls	.L17
1069:bme280.c      **** 			pressure = pressure_min;
1070:bme280.c      **** 		else if (pressure > pressure_max)
 683              		.loc 1 1070 0
 684 01f8 0A4B     		ldr	r3, .L19+12
 685 01fa 9842     		cmp	r0, r3
 686 01fc 04D8     		bhi	.L18
 687 01fe 04E0     		b	.L14
 688              	.LVL81:
 689              	.L16:
1071:bme280.c      **** 			pressure = pressure_max;
1072:bme280.c      **** 	} else {
1073:bme280.c      **** 		pressure = pressure_min;
 690              		.loc 1 1073 0
 691 0200 0948     		ldr	r0, .L19+16
 692 0202 02E0     		b	.L14
 693              	.LVL82:
ARM GAS  C:\Users\corne\AppData\Local\Temp\cc0fqrF9.s 			page 32


 694              	.L17:
1069:bme280.c      **** 			pressure = pressure_min;
 695              		.loc 1 1069 0
 696 0204 0848     		ldr	r0, .L19+16
 697              	.LVL83:
 698 0206 00E0     		b	.L14
 699              	.LVL84:
 700              	.L18:
1071:bme280.c      **** 			pressure = pressure_max;
 701              		.loc 1 1071 0
 702 0208 0648     		ldr	r0, .L19+12
 703              	.LVL85:
 704              	.L14:
1074:bme280.c      **** 	}
1075:bme280.c      **** 
1076:bme280.c      **** 	return pressure;
1077:bme280.c      **** }
 705              		.loc 1 1077 0
 706 020a 04B0     		add	sp, sp, #16
 707              		@ sp needed
 708              	.LVL86:
 709              	.LVL87:
 710 020c 1CBC     		pop	{r2, r3, r4}
 711 020e 9046     		mov	r8, r2
 712 0210 9946     		mov	r9, r3
 713 0212 A246     		mov	r10, r4
 714 0214 F0BD     		pop	{r4, r5, r6, r7, pc}
 715              	.L20:
 716 0216 C046     		.align	2
 717              	.L19:
 718 0218 000CFEFF 		.word	-128000
 719 021c 350C0000 		.word	3125
 720 0220 BFC62D00 		.word	2999999
 721 0224 C0D8A700 		.word	11000000
 722 0228 C0C62D00 		.word	3000000
 723              		.cfi_endproc
 724              	.LFE25:
 725              		.size	compensate_pressure, .-compensate_pressure
 726              		.section	.text.compensate_humidity,"ax",%progbits
 727              		.align	2
 728              		.code	16
 729              		.thumb_func
 730              		.type	compensate_humidity, %function
 731              	compensate_humidity:
 732              	.LFB26:
1078:bme280.c      **** #else
1079:bme280.c      **** /*!
1080:bme280.c      ****  * @brief This internal API is used to compensate the raw pressure data and
1081:bme280.c      ****  * return the compensated pressure data in integer data type.
1082:bme280.c      ****  */
1083:bme280.c      **** static uint32_t compensate_pressure(const  bme280_uncomp_data *uncomp_data,
1084:bme280.c      **** 						const  bme280_calib_data *calib_data)
1085:bme280.c      **** {
1086:bme280.c      **** 	int32_t var1;
1087:bme280.c      **** 	int32_t var2;
1088:bme280.c      **** 	int32_t var3;
1089:bme280.c      **** 	int32_t var4;
ARM GAS  C:\Users\corne\AppData\Local\Temp\cc0fqrF9.s 			page 33


1090:bme280.c      **** 	uint32_t var5;
1091:bme280.c      **** 	uint32_t pressure;
1092:bme280.c      **** 	uint32_t pressure_min = 30000;
1093:bme280.c      **** 	uint32_t pressure_max = 110000;
1094:bme280.c      **** 
1095:bme280.c      **** 	var1 = (((int32_t)calib_data->t_fine) / 2) - (int32_t)64000;
1096:bme280.c      **** 	var2 = (((var1 / 4) * (var1 / 4)) / 2048) * ((int32_t)calib_data->dig_P6);
1097:bme280.c      **** 	var2 = var2 + ((var1 * ((int32_t)calib_data->dig_P5)) * 2);
1098:bme280.c      **** 	var2 = (var2 / 4) + (((int32_t)calib_data->dig_P4) * 65536);
1099:bme280.c      **** 	var3 = (calib_data->dig_P3 * (((var1 / 4) * (var1 / 4)) / 8192)) / 8;
1100:bme280.c      **** 	var4 = (((int32_t)calib_data->dig_P2) * var1) / 2;
1101:bme280.c      **** 	var1 = (var3 + var4) / 262144;
1102:bme280.c      **** 	var1 = (((32768 + var1)) * ((int32_t)calib_data->dig_P1)) / 32768;
1103:bme280.c      **** 	 /* avoid exception caused by division by zero */
1104:bme280.c      **** 	if (var1) {
1105:bme280.c      **** 		var5 = (uint32_t)((uint32_t)1048576) - uncomp_data->pressure;
1106:bme280.c      **** 		pressure = ((uint32_t)(var5 - (uint32_t)(var2 / 4096))) * 3125;
1107:bme280.c      **** 		if (pressure < 0x80000000)
1108:bme280.c      **** 			pressure = (pressure << 1) / ((uint32_t)var1);
1109:bme280.c      **** 		else
1110:bme280.c      **** 			pressure = (pressure / (uint32_t)var1) * 2;
1111:bme280.c      **** 
1112:bme280.c      **** 		var1 = (((int32_t)calib_data->dig_P9) * ((int32_t)(((pressure / 8) * (pressure / 8)) / 8192))) / 
1113:bme280.c      **** 		var2 = (((int32_t)(pressure / 4)) * ((int32_t)calib_data->dig_P8)) / 8192;
1114:bme280.c      **** 		pressure = (uint32_t)((int32_t)pressure + ((var1 + var2 + calib_data->dig_P7) / 16));
1115:bme280.c      **** 
1116:bme280.c      **** 		if (pressure < pressure_min)
1117:bme280.c      **** 			pressure = pressure_min;
1118:bme280.c      **** 		else if (pressure > pressure_max)
1119:bme280.c      **** 			pressure = pressure_max;
1120:bme280.c      **** 	} else {
1121:bme280.c      **** 		pressure = pressure_min;
1122:bme280.c      **** 	}
1123:bme280.c      **** 
1124:bme280.c      **** 	return pressure;
1125:bme280.c      **** }
1126:bme280.c      **** #endif
1127:bme280.c      **** 
1128:bme280.c      **** /*!
1129:bme280.c      ****  * @brief This internal API is used to compensate the raw humidity data and
1130:bme280.c      ****  * return the compensated humidity data in integer data type.
1131:bme280.c      ****  */
1132:bme280.c      **** static uint32_t compensate_humidity(const  bme280_uncomp_data *uncomp_data,
1133:bme280.c      **** 						const  bme280_calib_data *calib_data)
1134:bme280.c      **** {
 733              		.loc 1 1134 0
 734              		.cfi_startproc
 735              		@ args = 0, pretend = 0, frame = 0
 736              		@ frame_needed = 0, uses_anonymous_args = 0
 737              	.LVL88:
 738 0000 70B5     		push	{r4, r5, r6, lr}
 739              		.cfi_def_cfa_offset 16
 740              		.cfi_offset 4, -16
 741              		.cfi_offset 5, -12
 742              		.cfi_offset 6, -8
 743              		.cfi_offset 14, -4
 744              	.LVL89:
ARM GAS  C:\Users\corne\AppData\Local\Temp\cc0fqrF9.s 			page 34


1135:bme280.c      **** 	int32_t var1;
1136:bme280.c      **** 	int32_t var2;
1137:bme280.c      **** 	int32_t var3;
1138:bme280.c      **** 	int32_t var4;
1139:bme280.c      **** 	int32_t var5;
1140:bme280.c      **** 	uint32_t humidity;
1141:bme280.c      **** 	uint32_t humidity_max = 100000;
1142:bme280.c      **** 
1143:bme280.c      **** 	var1 = calib_data->t_fine - ((int32_t)76800);
 745              		.loc 1 1143 0
 746 0002 4B6A     		ldr	r3, [r1, #36]
 747 0004 324A     		ldr	r2, .L26
 748 0006 9446     		mov	ip, r2
 749 0008 6344     		add	r3, r3, ip
 750 000a 1E00     		movs	r6, r3
 751              	.LVL90:
1144:bme280.c      **** 	var2 = (int32_t)(uncomp_data->humidity * 16384);
 752              		.loc 1 1144 0
 753 000c 8468     		ldr	r4, [r0, #8]
 754 000e A503     		lsls	r5, r4, #14
 755              	.LVL91:
1145:bme280.c      **** 	var3 = (int32_t)(((int32_t)calib_data->dig_H4) * 1048576);
 756              		.loc 1 1145 0
 757 0010 1E23     		movs	r3, #30
 758 0012 CC5E     		ldrsh	r4, [r1, r3]
 759              	.LVL92:
 760 0014 2405     		lsls	r4, r4, #20
 761              	.LVL93:
1146:bme280.c      **** 	var4 = ((int32_t)calib_data->dig_H5) * var1;
 762              		.loc 1 1146 0
 763 0016 2023     		movs	r3, #32
 764 0018 C85E     		ldrsh	r0, [r1, r3]
 765              	.LVL94:
 766 001a 7043     		muls	r0, r6
 767              	.LVL95:
1147:bme280.c      **** 	var5 = (((var2 - var3) - var4) + (int32_t)16384) / 32768;
 768              		.loc 1 1147 0
 769 001c 2C1B     		subs	r4, r5, r4
 770              	.LVL96:
 771 001e 201A     		subs	r0, r4, r0
 772              	.LVL97:
 773 0020 8023     		movs	r3, #128
 774 0022 DB01     		lsls	r3, r3, #7
 775 0024 9C46     		mov	ip, r3
 776 0026 6044     		add	r0, r0, ip
 777 0028 C317     		asrs	r3, r0, #31
 778 002a 5B04     		lsls	r3, r3, #17
 779 002c 5B0C     		lsrs	r3, r3, #17
 780 002e 1818     		adds	r0, r3, r0
 781 0030 C013     		asrs	r0, r0, #15
 782              	.LVL98:
1148:bme280.c      **** 	var2 = (var1 * ((int32_t)calib_data->dig_H6)) / 1024;
 783              		.loc 1 1148 0
 784 0032 2223     		movs	r3, #34
 785 0034 CC56     		ldrsb	r4, [r1, r3]
 786 0036 7443     		muls	r4, r6
 787 0038 E317     		asrs	r3, r4, #31
ARM GAS  C:\Users\corne\AppData\Local\Temp\cc0fqrF9.s 			page 35


 788 003a 9B05     		lsls	r3, r3, #22
 789 003c 9B0D     		lsrs	r3, r3, #22
 790 003e 1B19     		adds	r3, r3, r4
 791 0040 9B12     		asrs	r3, r3, #10
 792              	.LVL99:
1149:bme280.c      **** 	var3 = (var1 * ((int32_t)calib_data->dig_H3)) / 2048;
 793              		.loc 1 1149 0
 794 0042 0A7F     		ldrb	r2, [r1, #28]
 795 0044 7243     		muls	r2, r6
 796 0046 D417     		asrs	r4, r2, #31
 797 0048 6405     		lsls	r4, r4, #21
 798 004a 640D     		lsrs	r4, r4, #21
 799 004c A218     		adds	r2, r4, r2
 800 004e D212     		asrs	r2, r2, #11
 801              	.LVL100:
1150:bme280.c      **** 	var4 = ((var2 * (var3 + (int32_t)32768)) / 1024) + (int32_t)2097152;
 802              		.loc 1 1150 0
 803 0050 8024     		movs	r4, #128
 804 0052 2402     		lsls	r4, r4, #8
 805 0054 A446     		mov	ip, r4
 806 0056 6244     		add	r2, r2, ip
 807              	.LVL101:
 808 0058 5343     		muls	r3, r2
 809              	.LVL102:
 810 005a DA17     		asrs	r2, r3, #31
 811              	.LVL103:
 812 005c 9205     		lsls	r2, r2, #22
 813 005e 920D     		lsrs	r2, r2, #22
 814 0060 D318     		adds	r3, r2, r3
 815 0062 9B12     		asrs	r3, r3, #10
 816 0064 8022     		movs	r2, #128
 817 0066 9203     		lsls	r2, r2, #14
 818 0068 9446     		mov	ip, r2
 819 006a 6344     		add	r3, r3, ip
 820              	.LVL104:
1151:bme280.c      **** 	var2 = ((var4 * ((int32_t)calib_data->dig_H2)) + 8192) / 16384;
 821              		.loc 1 1151 0
 822 006c 1A22     		movs	r2, #26
 823 006e 8C5E     		ldrsh	r4, [r1, r2]
 824 0070 6343     		muls	r3, r4
 825              	.LVL105:
 826 0072 8022     		movs	r2, #128
 827              	.LVL106:
 828 0074 9201     		lsls	r2, r2, #6
 829              	.LVL107:
 830 0076 9C18     		adds	r4, r3, r2
 831 0078 E317     		asrs	r3, r4, #31
 832 007a 9B04     		lsls	r3, r3, #18
 833 007c 9B0C     		lsrs	r3, r3, #18
 834 007e 1C19     		adds	r4, r3, r4
 835 0080 A413     		asrs	r4, r4, #14
 836              	.LVL108:
1152:bme280.c      **** 	var3 = var5 * var2;
 837              		.loc 1 1152 0
 838 0082 2300     		movs	r3, r4
 839 0084 4343     		muls	r3, r0
 840              	.LVL109:
ARM GAS  C:\Users\corne\AppData\Local\Temp\cc0fqrF9.s 			page 36


1153:bme280.c      **** 	var4 = ((var3 / 32768) * (var3 / 32768)) / 128;
 841              		.loc 1 1153 0
 842 0086 DA17     		asrs	r2, r3, #31
 843 0088 5204     		lsls	r2, r2, #17
 844 008a 520C     		lsrs	r2, r2, #17
 845 008c D218     		adds	r2, r2, r3
 846 008e D213     		asrs	r2, r2, #15
 847 0090 5243     		muls	r2, r2
 848 0092 D017     		asrs	r0, r2, #31
 849              	.LVL110:
 850 0094 7F24     		movs	r4, #127
 851              	.LVL111:
 852 0096 2040     		ands	r0, r4
 853 0098 8218     		adds	r2, r0, r2
 854 009a D211     		asrs	r2, r2, #7
 855              	.LVL112:
1154:bme280.c      **** 	var5 = var3 - ((var4 * ((int32_t)calib_data->dig_H1)) / 16);
 856              		.loc 1 1154 0
 857 009c 097E     		ldrb	r1, [r1, #24]
 858              	.LVL113:
 859 009e 4A43     		muls	r2, r1
 860              	.LVL114:
 861 00a0 D117     		asrs	r1, r2, #31
 862 00a2 0F20     		movs	r0, #15
 863              	.LVL115:
 864 00a4 0840     		ands	r0, r1
 865 00a6 8218     		adds	r2, r0, r2
 866 00a8 1211     		asrs	r2, r2, #4
 867 00aa 9A1A     		subs	r2, r3, r2
 868              	.LVL116:
1155:bme280.c      **** 	var5 = (var5 < 0 ? 0 : var5);
 869              		.loc 1 1155 0
 870 00ac 00D5     		bpl	.L22
 871 00ae 0022     		movs	r2, #0
 872              	.L22:
 873              	.LVL117:
1156:bme280.c      **** 	var5 = (var5 > 419430400 ? 419430400 : var5);
 874              		.loc 1 1156 0
 875 00b0 C823     		movs	r3, #200
 876              	.LVL118:
 877 00b2 5B05     		lsls	r3, r3, #21
 878 00b4 9A42     		cmp	r2, r3
 879 00b6 00DD     		ble	.L23
 880 00b8 1A00     		movs	r2, r3
 881              	.LVL119:
 882              	.L23:
1157:bme280.c      **** 	humidity = (uint32_t)(var5 / 4096);
 883              		.loc 1 1157 0
 884 00ba D017     		asrs	r0, r2, #31
 885 00bc 0005     		lsls	r0, r0, #20
 886 00be 000D     		lsrs	r0, r0, #20
 887 00c0 8018     		adds	r0, r0, r2
 888 00c2 0013     		asrs	r0, r0, #12
 889              	.LVL120:
1158:bme280.c      **** 
1159:bme280.c      **** 	if (humidity > humidity_max)
 890              		.loc 1 1159 0
ARM GAS  C:\Users\corne\AppData\Local\Temp\cc0fqrF9.s 			page 37


 891 00c4 034B     		ldr	r3, .L26+4
 892 00c6 9842     		cmp	r0, r3
 893 00c8 00D9     		bls	.L24
1160:bme280.c      **** 		humidity = humidity_max;
 894              		.loc 1 1160 0
 895 00ca 1800     		movs	r0, r3
 896              	.LVL121:
 897              	.L24:
1161:bme280.c      **** 
1162:bme280.c      **** 	return humidity;
1163:bme280.c      **** }
 898              		.loc 1 1163 0
 899              		@ sp needed
 900              	.LVL122:
 901              	.LVL123:
 902 00cc 70BD     		pop	{r4, r5, r6, pc}
 903              	.L27:
 904 00ce C046     		.align	2
 905              	.L26:
 906 00d0 00D4FEFF 		.word	-76800
 907 00d4 A0860100 		.word	100000
 908              		.cfi_endproc
 909              	.LFE26:
 910              		.size	compensate_humidity, .-compensate_humidity
 911              		.section	.text.compensate_data,"ax",%progbits
 912              		.align	2
 913              		.code	16
 914              		.thumb_func
 915              		.type	compensate_data, %function
 916              	compensate_data:
 917              	.LFB23:
 875:bme280.c      **** 	int8_t rslt = BME280_OK;
 918              		.loc 1 875 0
 919              		.cfi_startproc
 920              		@ args = 0, pretend = 0, frame = 0
 921              		@ frame_needed = 0, uses_anonymous_args = 0
 922              	.LVL124:
 923 0000 F8B5     		push	{r3, r4, r5, r6, r7, lr}
 924              		.cfi_def_cfa_offset 24
 925              		.cfi_offset 3, -24
 926              		.cfi_offset 4, -20
 927              		.cfi_offset 5, -16
 928              		.cfi_offset 6, -12
 929              		.cfi_offset 7, -8
 930              		.cfi_offset 14, -4
 931 0002 0500     		movs	r5, r0
 932 0004 0E00     		movs	r6, r1
 933 0006 1400     		movs	r4, r2
 934 0008 1F00     		movs	r7, r3
 935              	.LVL125:
 878:bme280.c      **** 		/* Initialize to zero */
 936              		.loc 1 878 0
 937 000a 0029     		cmp	r1, #0
 938 000c 1ED0     		beq	.L32
 878:bme280.c      **** 		/* Initialize to zero */
 939              		.loc 1 878 0 is_stmt 0 discriminator 1
 940 000e 002A     		cmp	r2, #0
ARM GAS  C:\Users\corne\AppData\Local\Temp\cc0fqrF9.s 			page 38


 941 0010 1FD0     		beq	.L33
 878:bme280.c      **** 		/* Initialize to zero */
 942              		.loc 1 878 0 discriminator 2
 943 0012 002B     		cmp	r3, #0
 944 0014 20D0     		beq	.L34
 880:bme280.c      **** 		comp_data->pressure = 0;
 945              		.loc 1 880 0 is_stmt 1
 946 0016 0023     		movs	r3, #0
 947              	.LVL126:
 948 0018 5360     		str	r3, [r2, #4]
 881:bme280.c      **** 		comp_data->humidity = 0;
 949              		.loc 1 881 0
 950 001a 1360     		str	r3, [r2]
 882:bme280.c      **** 		/* If pressure or temperature component is selected */
 951              		.loc 1 882 0
 952 001c 9360     		str	r3, [r2, #8]
 884:bme280.c      **** 			/* Compensate the temperature data */
 953              		.loc 1 884 0
 954 001e 4307     		lsls	r3, r0, #29
 955 0020 04D0     		beq	.L30
 886:bme280.c      **** 		}
 956              		.loc 1 886 0
 957 0022 3900     		movs	r1, r7
 958              	.LVL127:
 959 0024 3000     		movs	r0, r6
 960              	.LVL128:
 961 0026 FFF7FEFF 		bl	compensate_temperature
 962              	.LVL129:
 963 002a 6060     		str	r0, [r4, #4]
 964              	.L30:
 888:bme280.c      **** 			/* Compensate the pressure data */
 965              		.loc 1 888 0
 966 002c EB07     		lsls	r3, r5, #31
 967 002e 04D5     		bpl	.L31
 890:bme280.c      **** 		}
 968              		.loc 1 890 0
 969 0030 3900     		movs	r1, r7
 970 0032 3000     		movs	r0, r6
 971 0034 FFF7FEFF 		bl	compensate_pressure
 972              	.LVL130:
 973 0038 2060     		str	r0, [r4]
 974              	.L31:
 892:bme280.c      **** 			/* Compensate the humidity data */
 975              		.loc 1 892 0
 976 003a 6B07     		lsls	r3, r5, #29
 977 003c 0FD5     		bpl	.L35
 894:bme280.c      **** 		}
 978              		.loc 1 894 0
 979 003e 3900     		movs	r1, r7
 980 0040 3000     		movs	r0, r6
 981 0042 FFF7FEFF 		bl	compensate_humidity
 982              	.LVL131:
 983 0046 A060     		str	r0, [r4, #8]
 876:bme280.c      **** 
 984              		.loc 1 876 0
 985 0048 0020     		movs	r0, #0
 986 004a 09E0     		b	.L29
ARM GAS  C:\Users\corne\AppData\Local\Temp\cc0fqrF9.s 			page 39


 987              	.LVL132:
 988              	.L32:
 897:bme280.c      **** 	}
 989              		.loc 1 897 0
 990 004c 0120     		movs	r0, #1
 991              	.LVL133:
 992 004e 4042     		rsbs	r0, r0, #0
 993 0050 06E0     		b	.L29
 994              	.LVL134:
 995              	.L33:
 996 0052 0120     		movs	r0, #1
 997              	.LVL135:
 998 0054 4042     		rsbs	r0, r0, #0
 999 0056 03E0     		b	.L29
 1000              	.LVL136:
 1001              	.L34:
 1002 0058 0120     		movs	r0, #1
 1003              	.LVL137:
 1004 005a 4042     		rsbs	r0, r0, #0
 1005 005c 00E0     		b	.L29
 1006              	.LVL138:
 1007              	.L35:
 876:bme280.c      **** 
 1008              		.loc 1 876 0
 1009 005e 0020     		movs	r0, #0
 1010              	.L29:
 1011              	.LVL139:
 901:bme280.c      **** 
 1012              		.loc 1 901 0
 1013              		@ sp needed
 1014              	.LVL140:
 1015              	.LVL141:
 1016              	.LVL142:
 1017 0060 F8BD     		pop	{r3, r4, r5, r6, r7, pc}
 1018              		.cfi_endproc
 1019              	.LFE23:
 1020              		.size	compensate_data, .-compensate_data
 1021 0062 C046     		.section	.text.interleave_reg_addr,"ax",%progbits
 1022              		.align	2
 1023              		.code	16
 1024              		.thumb_func
 1025              		.type	interleave_reg_addr, %function
 1026              	interleave_reg_addr:
 1027              	.LFB28:
1164:bme280.c      **** #endif
1165:bme280.c      **** 
1166:bme280.c      **** /*!
1167:bme280.c      ****  * @brief This internal API reads the calibration data from the sensor, parse
1168:bme280.c      ****  * it and store in the device structure.
1169:bme280.c      ****  */
1170:bme280.c      **** static int8_t get_calib_data( bme280_dev *dev)
1171:bme280.c      **** {
1172:bme280.c      **** 	int8_t rslt;
1173:bme280.c      **** 	uint8_t reg_addr = BME280_TEMP_PRESS_CALIB_DATA_ADDR;
1174:bme280.c      **** 	/* Array to store calibration data */
1175:bme280.c      **** 	uint8_t calib_data[BME280_TEMP_PRESS_CALIB_DATA_LEN] = {0};
1176:bme280.c      **** 
ARM GAS  C:\Users\corne\AppData\Local\Temp\cc0fqrF9.s 			page 40


1177:bme280.c      **** 	/* Read the calibration data from the sensor */
1178:bme280.c      **** 	rslt = bme280_get_regs(reg_addr, calib_data, BME280_TEMP_PRESS_CALIB_DATA_LEN, dev);
1179:bme280.c      **** 
1180:bme280.c      **** 	if (rslt == BME280_OK) {
1181:bme280.c      **** 		/* Parse temperature and pressure calibration data and store
1182:bme280.c      **** 		   it in device structure */
1183:bme280.c      **** 		parse_temp_press_calib_data(calib_data, dev);
1184:bme280.c      **** 
1185:bme280.c      **** 		reg_addr = BME280_HUMIDITY_CALIB_DATA_ADDR;
1186:bme280.c      **** 		/* Read the humidity calibration data from the sensor */
1187:bme280.c      **** 		rslt = bme280_get_regs(reg_addr, calib_data, BME280_HUMIDITY_CALIB_DATA_LEN, dev);
1188:bme280.c      **** 		if (rslt == BME280_OK) {
1189:bme280.c      **** 			/* Parse humidity calibration data and store it in
1190:bme280.c      **** 			   device structure */
1191:bme280.c      **** 			parse_humidity_calib_data(calib_data, dev);
1192:bme280.c      **** 		}
1193:bme280.c      **** 	}
1194:bme280.c      **** 
1195:bme280.c      **** 	return rslt;
1196:bme280.c      **** }
1197:bme280.c      **** 
1198:bme280.c      **** /*!
1199:bme280.c      ****  * @brief This internal API interleaves the register address between the
1200:bme280.c      ****  * register data buffer for burst write operation.
1201:bme280.c      ****  */
1202:bme280.c      **** static void interleave_reg_addr(const uint8_t *reg_addr, uint8_t *temp_buff, const uint8_t *reg_dat
1203:bme280.c      **** {
 1028              		.loc 1 1203 0
 1029              		.cfi_startproc
 1030              		@ args = 0, pretend = 0, frame = 0
 1031              		@ frame_needed = 0, uses_anonymous_args = 0
 1032              	.LVL143:
 1033 0000 F0B5     		push	{r4, r5, r6, r7, lr}
 1034              		.cfi_def_cfa_offset 20
 1035              		.cfi_offset 4, -20
 1036              		.cfi_offset 5, -16
 1037              		.cfi_offset 6, -12
 1038              		.cfi_offset 7, -8
 1039              		.cfi_offset 14, -4
 1040              	.LVL144:
1204:bme280.c      **** 	uint8_t index;
1205:bme280.c      **** 
1206:bme280.c      **** 	for (index = 1; index < len; index++) {
 1041              		.loc 1 1206 0
 1042 0002 0124     		movs	r4, #1
 1043 0004 07E0     		b	.L37
 1044              	.LVL145:
 1045              	.L38:
1207:bme280.c      **** 		temp_buff[(index * 2) - 1] = reg_addr[index];
 1046              		.loc 1 1207 0 discriminator 3
 1047 0006 6500     		lsls	r5, r4, #1
 1048 0008 6E1E     		subs	r6, r5, #1
 1049 000a 075D     		ldrb	r7, [r0, r4]
 1050 000c 8F55     		strb	r7, [r1, r6]
1208:bme280.c      **** 		temp_buff[index * 2] = reg_data[index];
 1051              		.loc 1 1208 0 discriminator 3
 1052 000e 165D     		ldrb	r6, [r2, r4]
ARM GAS  C:\Users\corne\AppData\Local\Temp\cc0fqrF9.s 			page 41


 1053 0010 4E55     		strb	r6, [r1, r5]
1206:bme280.c      **** 		temp_buff[(index * 2) - 1] = reg_addr[index];
 1054              		.loc 1 1206 0 discriminator 3
 1055 0012 0134     		adds	r4, r4, #1
 1056              	.LVL146:
 1057 0014 E4B2     		uxtb	r4, r4
 1058              	.LVL147:
 1059              	.L37:
1206:bme280.c      **** 		temp_buff[(index * 2) - 1] = reg_addr[index];
 1060              		.loc 1 1206 0 is_stmt 0 discriminator 1
 1061 0016 9C42     		cmp	r4, r3
 1062 0018 F5D3     		bcc	.L38
1209:bme280.c      **** 	}
1210:bme280.c      **** }
 1063              		.loc 1 1210 0 is_stmt 1
 1064              		@ sp needed
 1065              	.LVL148:
 1066 001a F0BD     		pop	{r4, r5, r6, r7, pc}
 1067              		.cfi_endproc
 1068              	.LFE28:
 1069              		.size	interleave_reg_addr, .-interleave_reg_addr
 1070              		.section	.text.parse_temp_press_calib_data,"ax",%progbits
 1071              		.align	2
 1072              		.code	16
 1073              		.thumb_func
 1074              		.type	parse_temp_press_calib_data, %function
 1075              	parse_temp_press_calib_data:
 1076              	.LFB29:
1211:bme280.c      **** 
1212:bme280.c      **** /*!
1213:bme280.c      ****  *  @brief This internal API is used to parse the temperature and
1214:bme280.c      ****  *  pressure calibration data and store it in device structure.
1215:bme280.c      ****  */
1216:bme280.c      **** static void parse_temp_press_calib_data(const uint8_t *reg_data,  bme280_dev *dev)
1217:bme280.c      **** {
 1077              		.loc 1 1217 0
 1078              		.cfi_startproc
 1079              		@ args = 0, pretend = 0, frame = 0
 1080              		@ frame_needed = 0, uses_anonymous_args = 0
 1081              		@ link register save eliminated.
 1082              	.LVL149:
1218:bme280.c      **** 	 bme280_calib_data *calib_data = &dev->calib_data;
1219:bme280.c      **** 
1220:bme280.c      **** 	calib_data->dig_T1 = BME280_CONCAT_BYTES(reg_data[1], reg_data[0]);
 1083              		.loc 1 1220 0
 1084 0000 4378     		ldrb	r3, [r0, #1]
 1085 0002 1B02     		lsls	r3, r3, #8
 1086 0004 0278     		ldrb	r2, [r0]
 1087 0006 1343     		orrs	r3, r2
 1088 0008 0B82     		strh	r3, [r1, #16]
1221:bme280.c      **** 	calib_data->dig_T2 = (int16_t)BME280_CONCAT_BYTES(reg_data[3], reg_data[2]);
 1089              		.loc 1 1221 0
 1090 000a C378     		ldrb	r3, [r0, #3]
 1091 000c 1B02     		lsls	r3, r3, #8
 1092 000e 8278     		ldrb	r2, [r0, #2]
 1093 0010 1343     		orrs	r3, r2
 1094 0012 4B82     		strh	r3, [r1, #18]
ARM GAS  C:\Users\corne\AppData\Local\Temp\cc0fqrF9.s 			page 42


1222:bme280.c      **** 	calib_data->dig_T3 = (int16_t)BME280_CONCAT_BYTES(reg_data[5], reg_data[4]);
 1095              		.loc 1 1222 0
 1096 0014 4379     		ldrb	r3, [r0, #5]
 1097 0016 1B02     		lsls	r3, r3, #8
 1098 0018 0279     		ldrb	r2, [r0, #4]
 1099 001a 1343     		orrs	r3, r2
 1100 001c 8B82     		strh	r3, [r1, #20]
1223:bme280.c      **** 	calib_data->dig_P1 = BME280_CONCAT_BYTES(reg_data[7], reg_data[6]);
 1101              		.loc 1 1223 0
 1102 001e C379     		ldrb	r3, [r0, #7]
 1103 0020 1B02     		lsls	r3, r3, #8
 1104 0022 8279     		ldrb	r2, [r0, #6]
 1105 0024 1343     		orrs	r3, r2
 1106 0026 CB82     		strh	r3, [r1, #22]
1224:bme280.c      **** 	calib_data->dig_P2 = (int16_t)BME280_CONCAT_BYTES(reg_data[9], reg_data[8]);
 1107              		.loc 1 1224 0
 1108 0028 437A     		ldrb	r3, [r0, #9]
 1109 002a 1B02     		lsls	r3, r3, #8
 1110 002c 027A     		ldrb	r2, [r0, #8]
 1111 002e 1343     		orrs	r3, r2
 1112 0030 0B83     		strh	r3, [r1, #24]
1225:bme280.c      **** 	calib_data->dig_P3 = (int16_t)BME280_CONCAT_BYTES(reg_data[11], reg_data[10]);
 1113              		.loc 1 1225 0
 1114 0032 C37A     		ldrb	r3, [r0, #11]
 1115 0034 1B02     		lsls	r3, r3, #8
 1116 0036 827A     		ldrb	r2, [r0, #10]
 1117 0038 1343     		orrs	r3, r2
 1118 003a 4B83     		strh	r3, [r1, #26]
1226:bme280.c      **** 	calib_data->dig_P4 = (int16_t)BME280_CONCAT_BYTES(reg_data[13], reg_data[12]);
 1119              		.loc 1 1226 0
 1120 003c 437B     		ldrb	r3, [r0, #13]
 1121 003e 1B02     		lsls	r3, r3, #8
 1122 0040 027B     		ldrb	r2, [r0, #12]
 1123 0042 1343     		orrs	r3, r2
 1124 0044 8B83     		strh	r3, [r1, #28]
1227:bme280.c      **** 	calib_data->dig_P5 = (int16_t)BME280_CONCAT_BYTES(reg_data[15], reg_data[14]);
 1125              		.loc 1 1227 0
 1126 0046 C37B     		ldrb	r3, [r0, #15]
 1127 0048 1B02     		lsls	r3, r3, #8
 1128 004a 827B     		ldrb	r2, [r0, #14]
 1129 004c 1343     		orrs	r3, r2
 1130 004e CB83     		strh	r3, [r1, #30]
1228:bme280.c      **** 	calib_data->dig_P6 = (int16_t)BME280_CONCAT_BYTES(reg_data[17], reg_data[16]);
 1131              		.loc 1 1228 0
 1132 0050 437C     		ldrb	r3, [r0, #17]
 1133 0052 1B02     		lsls	r3, r3, #8
 1134 0054 027C     		ldrb	r2, [r0, #16]
 1135 0056 1343     		orrs	r3, r2
 1136 0058 0B84     		strh	r3, [r1, #32]
1229:bme280.c      **** 	calib_data->dig_P7 = (int16_t)BME280_CONCAT_BYTES(reg_data[19], reg_data[18]);
 1137              		.loc 1 1229 0
 1138 005a C37C     		ldrb	r3, [r0, #19]
 1139 005c 1B02     		lsls	r3, r3, #8
 1140 005e 827C     		ldrb	r2, [r0, #18]
 1141 0060 1343     		orrs	r3, r2
 1142 0062 4B84     		strh	r3, [r1, #34]
1230:bme280.c      **** 	calib_data->dig_P8 = (int16_t)BME280_CONCAT_BYTES(reg_data[21], reg_data[20]);
ARM GAS  C:\Users\corne\AppData\Local\Temp\cc0fqrF9.s 			page 43


 1143              		.loc 1 1230 0
 1144 0064 437D     		ldrb	r3, [r0, #21]
 1145 0066 1B02     		lsls	r3, r3, #8
 1146 0068 027D     		ldrb	r2, [r0, #20]
 1147 006a 1343     		orrs	r3, r2
 1148 006c 8B84     		strh	r3, [r1, #36]
1231:bme280.c      **** 	calib_data->dig_P9 = (int16_t)BME280_CONCAT_BYTES(reg_data[23], reg_data[22]);
 1149              		.loc 1 1231 0
 1150 006e C37D     		ldrb	r3, [r0, #23]
 1151 0070 1B02     		lsls	r3, r3, #8
 1152 0072 827D     		ldrb	r2, [r0, #22]
 1153 0074 1343     		orrs	r3, r2
 1154 0076 CB84     		strh	r3, [r1, #38]
1232:bme280.c      **** 	calib_data->dig_H1 = reg_data[25];
 1155              		.loc 1 1232 0
 1156 0078 427E     		ldrb	r2, [r0, #25]
 1157 007a 2823     		movs	r3, #40
 1158 007c CA54     		strb	r2, [r1, r3]
1233:bme280.c      **** 
1234:bme280.c      **** }
 1159              		.loc 1 1234 0
 1160              		@ sp needed
 1161 007e 7047     		bx	lr
 1162              		.cfi_endproc
 1163              	.LFE29:
 1164              		.size	parse_temp_press_calib_data, .-parse_temp_press_calib_data
 1165              		.section	.text.parse_humidity_calib_data,"ax",%progbits
 1166              		.align	2
 1167              		.code	16
 1168              		.thumb_func
 1169              		.type	parse_humidity_calib_data, %function
 1170              	parse_humidity_calib_data:
 1171              	.LFB30:
1235:bme280.c      **** 
1236:bme280.c      **** /*!
1237:bme280.c      ****  *  @brief This internal API is used to parse the humidity calibration data
1238:bme280.c      ****  *  and store it in device structure.
1239:bme280.c      ****  */
1240:bme280.c      **** static void parse_humidity_calib_data(const uint8_t *reg_data,  bme280_dev *dev)
1241:bme280.c      **** {
 1172              		.loc 1 1241 0
 1173              		.cfi_startproc
 1174              		@ args = 0, pretend = 0, frame = 0
 1175              		@ frame_needed = 0, uses_anonymous_args = 0
 1176              	.LVL150:
 1177 0000 10B5     		push	{r4, lr}
 1178              		.cfi_def_cfa_offset 8
 1179              		.cfi_offset 4, -8
 1180              		.cfi_offset 14, -4
 1181              	.LVL151:
1242:bme280.c      **** 	 bme280_calib_data *calib_data = &dev->calib_data;
1243:bme280.c      **** 	int16_t dig_H4_lsb;
1244:bme280.c      **** 	int16_t dig_H4_msb;
1245:bme280.c      **** 	int16_t dig_H5_lsb;
1246:bme280.c      **** 	int16_t dig_H5_msb;
1247:bme280.c      **** 
1248:bme280.c      **** 	calib_data->dig_H2 = (int16_t)BME280_CONCAT_BYTES(reg_data[1], reg_data[0]);
ARM GAS  C:\Users\corne\AppData\Local\Temp\cc0fqrF9.s 			page 44


 1182              		.loc 1 1248 0
 1183 0002 4378     		ldrb	r3, [r0, #1]
 1184 0004 1B02     		lsls	r3, r3, #8
 1185 0006 0278     		ldrb	r2, [r0]
 1186 0008 1343     		orrs	r3, r2
 1187 000a 4B85     		strh	r3, [r1, #42]
1249:bme280.c      **** 	calib_data->dig_H3 = reg_data[2];
 1188              		.loc 1 1249 0
 1189 000c 8278     		ldrb	r2, [r0, #2]
 1190 000e 2C23     		movs	r3, #44
 1191 0010 CA54     		strb	r2, [r1, r3]
1250:bme280.c      **** 
1251:bme280.c      **** 	dig_H4_msb = (int16_t)(int8_t)reg_data[3] * 16;
 1192              		.loc 1 1251 0
 1193 0012 0323     		movs	r3, #3
 1194 0014 C356     		ldrsb	r3, [r0, r3]
 1195 0016 1C01     		lsls	r4, r3, #4
 1196              	.LVL152:
1252:bme280.c      **** 	dig_H4_lsb = (int16_t)(reg_data[4] & 0x0F);
 1197              		.loc 1 1252 0
 1198 0018 0279     		ldrb	r2, [r0, #4]
 1199 001a 0F23     		movs	r3, #15
 1200 001c 1340     		ands	r3, r2
 1201              	.LVL153:
1253:bme280.c      **** 	calib_data->dig_H4 = dig_H4_msb | dig_H4_lsb;
 1202              		.loc 1 1253 0
 1203 001e 2343     		orrs	r3, r4
 1204              	.LVL154:
 1205 0020 CB85     		strh	r3, [r1, #46]
1254:bme280.c      **** 
1255:bme280.c      **** 	dig_H5_msb = (int16_t)(int8_t)reg_data[5] * 16;
 1206              		.loc 1 1255 0
 1207 0022 0523     		movs	r3, #5
 1208 0024 C356     		ldrsb	r3, [r0, r3]
 1209 0026 1A01     		lsls	r2, r3, #4
 1210              	.LVL155:
1256:bme280.c      **** 	dig_H5_lsb = (int16_t)(reg_data[4] >> 4);
 1211              		.loc 1 1256 0
 1212 0028 0379     		ldrb	r3, [r0, #4]
 1213 002a 1B09     		lsrs	r3, r3, #4
 1214              	.LVL156:
1257:bme280.c      **** 	calib_data->dig_H5 = dig_H5_msb | dig_H5_lsb;
 1215              		.loc 1 1257 0
 1216 002c 1343     		orrs	r3, r2
 1217              	.LVL157:
 1218 002e 0B86     		strh	r3, [r1, #48]
 1219              	.LVL158:
1258:bme280.c      **** 	calib_data->dig_H6 = (int8_t)reg_data[6];
 1220              		.loc 1 1258 0
 1221 0030 0622     		movs	r2, #6
 1222              	.LVL159:
 1223 0032 8256     		ldrsb	r2, [r0, r2]
 1224 0034 3223     		movs	r3, #50
 1225 0036 CA54     		strb	r2, [r1, r3]
1259:bme280.c      **** }
 1226              		.loc 1 1259 0
 1227              		@ sp needed
ARM GAS  C:\Users\corne\AppData\Local\Temp\cc0fqrF9.s 			page 45


 1228              	.LVL160:
 1229 0038 10BD     		pop	{r4, pc}
 1230              		.cfi_endproc
 1231              	.LFE30:
 1232              		.size	parse_humidity_calib_data, .-parse_humidity_calib_data
 1233 003a C046     		.section	.text.are_settings_changed,"ax",%progbits
 1234              		.align	2
 1235              		.code	16
 1236              		.thumb_func
 1237              		.type	are_settings_changed, %function
 1238              	are_settings_changed:
 1239              	.LFB31:
1260:bme280.c      **** 
1261:bme280.c      **** /*!
1262:bme280.c      ****  * @brief This internal API is used to identify the settings which the user
1263:bme280.c      ****  * wants to modify in the sensor.
1264:bme280.c      ****  */
1265:bme280.c      **** static uint8_t are_settings_changed(uint8_t sub_settings, uint8_t desired_settings)
1266:bme280.c      **** {
 1240              		.loc 1 1266 0
 1241              		.cfi_startproc
 1242              		@ args = 0, pretend = 0, frame = 0
 1243              		@ frame_needed = 0, uses_anonymous_args = 0
 1244              		@ link register save eliminated.
 1245              	.LVL161:
1267:bme280.c      **** 	uint8_t settings_changed = FALSE;
1268:bme280.c      **** 
1269:bme280.c      **** 	if (sub_settings & desired_settings) {
 1246              		.loc 1 1269 0
 1247 0000 0142     		tst	r1, r0
 1248 0002 01D0     		beq	.L43
1270:bme280.c      **** 		/* User wants to modify this particular settings */
1271:bme280.c      **** 		settings_changed = TRUE;
 1249              		.loc 1 1271 0
 1250 0004 0120     		movs	r0, #1
 1251              	.LVL162:
 1252 0006 00E0     		b	.L42
 1253              	.LVL163:
 1254              	.L43:
1272:bme280.c      **** 	} else {
1273:bme280.c      **** 		/* User don't want to modify this particular settings */
1274:bme280.c      **** 		settings_changed = FALSE;
 1255              		.loc 1 1274 0
 1256 0008 0020     		movs	r0, #0
 1257              	.LVL164:
 1258              	.L42:
1275:bme280.c      **** 	}
1276:bme280.c      **** 
1277:bme280.c      **** 	return settings_changed;
1278:bme280.c      **** }
 1259              		.loc 1 1278 0
 1260              		@ sp needed
 1261 000a 7047     		bx	lr
 1262              		.cfi_endproc
 1263              	.LFE31:
 1264              		.size	are_settings_changed, .-are_settings_changed
 1265              		.section	.text.null_ptr_check,"ax",%progbits
ARM GAS  C:\Users\corne\AppData\Local\Temp\cc0fqrF9.s 			page 46


 1266              		.align	2
 1267              		.code	16
 1268              		.thumb_func
 1269              		.type	null_ptr_check, %function
 1270              	null_ptr_check:
 1271              	.LFB32:
1279:bme280.c      **** 
1280:bme280.c      **** /*!
1281:bme280.c      ****  * @brief This internal API is used to validate the device structure pointer for
1282:bme280.c      ****  * null conditions.
1283:bme280.c      ****  */
1284:bme280.c      **** static int8_t null_ptr_check(const  bme280_dev *dev)
1285:bme280.c      **** {
 1272              		.loc 1 1285 0
 1273              		.cfi_startproc
 1274              		@ args = 0, pretend = 0, frame = 0
 1275              		@ frame_needed = 0, uses_anonymous_args = 0
 1276              		@ link register save eliminated.
 1277              	.LVL165:
1286:bme280.c      **** 	int8_t rslt;
1287:bme280.c      **** 
1288:bme280.c      **** 	if ((dev == NULL) || (dev->read == NULL) || (dev->write == NULL) || (dev->delay_ms == NULL)) {
 1278              		.loc 1 1288 0
 1279 0000 0028     		cmp	r0, #0
 1280 0002 0BD0     		beq	.L46
 1281              		.loc 1 1288 0 is_stmt 0 discriminator 1
 1282 0004 4368     		ldr	r3, [r0, #4]
 1283 0006 002B     		cmp	r3, #0
 1284 0008 0BD0     		beq	.L47
 1285              		.loc 1 1288 0 discriminator 2
 1286 000a 8368     		ldr	r3, [r0, #8]
 1287 000c 002B     		cmp	r3, #0
 1288 000e 0BD0     		beq	.L48
 1289              		.loc 1 1288 0 discriminator 3
 1290 0010 C368     		ldr	r3, [r0, #12]
 1291 0012 002B     		cmp	r3, #0
 1292 0014 0BD1     		bne	.L49
1289:bme280.c      **** 		/* Device structure pointer is not valid */
1290:bme280.c      **** 		rslt = BME280_E_NULL_PTR;
 1293              		.loc 1 1290 0 is_stmt 1
 1294 0016 0120     		movs	r0, #1
 1295              	.LVL166:
 1296 0018 4042     		rsbs	r0, r0, #0
 1297 001a 09E0     		b	.L45
 1298              	.LVL167:
 1299              	.L46:
 1300 001c 0120     		movs	r0, #1
 1301              	.LVL168:
 1302 001e 4042     		rsbs	r0, r0, #0
 1303 0020 06E0     		b	.L45
 1304              	.LVL169:
 1305              	.L47:
 1306 0022 0120     		movs	r0, #1
 1307              	.LVL170:
 1308 0024 4042     		rsbs	r0, r0, #0
 1309 0026 03E0     		b	.L45
 1310              	.LVL171:
ARM GAS  C:\Users\corne\AppData\Local\Temp\cc0fqrF9.s 			page 47


 1311              	.L48:
 1312 0028 0120     		movs	r0, #1
 1313              	.LVL172:
 1314 002a 4042     		rsbs	r0, r0, #0
 1315 002c 00E0     		b	.L45
 1316              	.LVL173:
 1317              	.L49:
1291:bme280.c      **** 	} else {
1292:bme280.c      **** 		/* Device structure is fine */
1293:bme280.c      **** 		rslt = BME280_OK;
 1318              		.loc 1 1293 0
 1319 002e 0020     		movs	r0, #0
 1320              	.LVL174:
 1321              	.L45:
1294:bme280.c      **** 	}
1295:bme280.c      **** 
1296:bme280.c      **** 	return rslt;
1297:bme280.c      **** }
 1322              		.loc 1 1297 0
 1323              		@ sp needed
 1324 0030 7047     		bx	lr
 1325              		.cfi_endproc
 1326              	.LFE32:
 1327              		.size	null_ptr_check, .-null_ptr_check
 1328 0032 C046     		.section	.text.bme280_get_regs,"ax",%progbits
 1329              		.align	2
 1330              		.global	bme280_get_regs
 1331              		.code	16
 1332              		.thumb_func
 1333              		.type	bme280_get_regs, %function
 1334              	bme280_get_regs:
 1335              	.LFB2:
 421:bme280.c      **** 	int8_t rslt;
 1336              		.loc 1 421 0
 1337              		.cfi_startproc
 1338              		@ args = 0, pretend = 0, frame = 8
 1339              		@ frame_needed = 0, uses_anonymous_args = 0
 1340              	.LVL175:
 1341 0000 F0B5     		push	{r4, r5, r6, r7, lr}
 1342              		.cfi_def_cfa_offset 20
 1343              		.cfi_offset 4, -20
 1344              		.cfi_offset 5, -16
 1345              		.cfi_offset 6, -12
 1346              		.cfi_offset 7, -8
 1347              		.cfi_offset 14, -4
 1348 0002 83B0     		sub	sp, sp, #12
 1349              		.cfi_def_cfa_offset 32
 1350 0004 0400     		movs	r4, r0
 1351 0006 0191     		str	r1, [sp, #4]
 1352 0008 1600     		movs	r6, r2
 1353 000a 1F00     		movs	r7, r3
 425:bme280.c      **** 	/* Proceed if null check is fine */
 1354              		.loc 1 425 0
 1355 000c 1800     		movs	r0, r3
 1356              	.LVL176:
 1357 000e FFF7FEFF 		bl	null_ptr_check
 1358              	.LVL177:
ARM GAS  C:\Users\corne\AppData\Local\Temp\cc0fqrF9.s 			page 48


 427:bme280.c      **** 		/* If interface selected is SPI */
 1359              		.loc 1 427 0
 1360 0012 0028     		cmp	r0, #0
 1361 0014 10D1     		bne	.L51
 429:bme280.c      **** 			reg_addr = reg_addr | 0x80;
 1362              		.loc 1 429 0
 1363 0016 BB78     		ldrb	r3, [r7, #2]
 1364 0018 012B     		cmp	r3, #1
 1365 001a 03D0     		beq	.L52
 430:bme280.c      **** 		/* Read the data  */
 1366              		.loc 1 430 0
 1367 001c 8023     		movs	r3, #128
 1368 001e 5B42     		rsbs	r3, r3, #0
 1369 0020 1C43     		orrs	r4, r3
 1370 0022 E4B2     		uxtb	r4, r4
 1371              	.LVL178:
 1372              	.L52:
 432:bme280.c      **** 		/* Check for communication error */
 1373              		.loc 1 432 0
 1374 0024 7D68     		ldr	r5, [r7, #4]
 1375 0026 7878     		ldrb	r0, [r7, #1]
 1376              	.LVL179:
 1377 0028 3300     		movs	r3, r6
 1378 002a 019A     		ldr	r2, [sp, #4]
 1379 002c 2100     		movs	r1, r4
 1380 002e A847     		blx	r5
 1381              	.LVL180:
 434:bme280.c      **** 			rslt = BME280_E_COMM_FAIL;
 1382              		.loc 1 434 0
 1383 0030 0028     		cmp	r0, #0
 1384 0032 01D0     		beq	.L51
 435:bme280.c      **** 	}
 1385              		.loc 1 435 0
 1386 0034 0420     		movs	r0, #4
 1387              	.LVL181:
 1388 0036 4042     		rsbs	r0, r0, #0
 1389              	.LVL182:
 1390              	.L51:
 439:bme280.c      **** 
 1391              		.loc 1 439 0
 1392 0038 03B0     		add	sp, sp, #12
 1393              		@ sp needed
 1394              	.LVL183:
 1395 003a F0BD     		pop	{r4, r5, r6, r7, pc}
 1396              		.cfi_endproc
 1397              	.LFE2:
 1398              		.size	bme280_get_regs, .-bme280_get_regs
 1399              		.section	.text.get_calib_data,"ax",%progbits
 1400              		.align	2
 1401              		.code	16
 1402              		.thumb_func
 1403              		.type	get_calib_data, %function
 1404              	get_calib_data:
 1405              	.LFB27:
1171:bme280.c      **** 	int8_t rslt;
 1406              		.loc 1 1171 0
 1407              		.cfi_startproc
ARM GAS  C:\Users\corne\AppData\Local\Temp\cc0fqrF9.s 			page 49


 1408              		@ args = 0, pretend = 0, frame = 32
 1409              		@ frame_needed = 0, uses_anonymous_args = 0
 1410              	.LVL184:
 1411 0000 30B5     		push	{r4, r5, lr}
 1412              		.cfi_def_cfa_offset 12
 1413              		.cfi_offset 4, -12
 1414              		.cfi_offset 5, -8
 1415              		.cfi_offset 14, -4
 1416 0002 89B0     		sub	sp, sp, #36
 1417              		.cfi_def_cfa_offset 48
 1418 0004 0500     		movs	r5, r0
 1419              	.LVL185:
1175:bme280.c      **** 
 1420              		.loc 1 1175 0
 1421 0006 1A22     		movs	r2, #26
 1422 0008 0021     		movs	r1, #0
 1423 000a 01A8     		add	r0, sp, #4
 1424              	.LVL186:
 1425 000c FFF7FEFF 		bl	memset
 1426              	.LVL187:
1178:bme280.c      **** 
 1427              		.loc 1 1178 0
 1428 0010 2B00     		movs	r3, r5
 1429 0012 1A22     		movs	r2, #26
 1430 0014 01A9     		add	r1, sp, #4
 1431 0016 8820     		movs	r0, #136
 1432 0018 FFF7FEFF 		bl	bme280_get_regs
 1433              	.LVL188:
 1434 001c 041E     		subs	r4, r0, #0
 1435              	.LVL189:
1180:bme280.c      **** 		/* Parse temperature and pressure calibration data and store
 1436              		.loc 1 1180 0
 1437 001e 0FD1     		bne	.L55
1183:bme280.c      **** 
 1438              		.loc 1 1183 0
 1439 0020 2900     		movs	r1, r5
 1440 0022 01A8     		add	r0, sp, #4
 1441              	.LVL190:
 1442 0024 FFF7FEFF 		bl	parse_temp_press_calib_data
 1443              	.LVL191:
1187:bme280.c      **** 		if (rslt == BME280_OK) {
 1444              		.loc 1 1187 0
 1445 0028 2B00     		movs	r3, r5
 1446 002a 0722     		movs	r2, #7
 1447 002c 01A9     		add	r1, sp, #4
 1448 002e E120     		movs	r0, #225
 1449 0030 FFF7FEFF 		bl	bme280_get_regs
 1450              	.LVL192:
 1451 0034 041E     		subs	r4, r0, #0
 1452              	.LVL193:
1188:bme280.c      **** 			/* Parse humidity calibration data and store it in
 1453              		.loc 1 1188 0
 1454 0036 03D1     		bne	.L55
1191:bme280.c      **** 		}
 1455              		.loc 1 1191 0
 1456 0038 2900     		movs	r1, r5
 1457 003a 01A8     		add	r0, sp, #4
ARM GAS  C:\Users\corne\AppData\Local\Temp\cc0fqrF9.s 			page 50


 1458              	.LVL194:
 1459 003c FFF7FEFF 		bl	parse_humidity_calib_data
 1460              	.LVL195:
 1461              	.L55:
1196:bme280.c      **** 
 1462              		.loc 1 1196 0
 1463 0040 2000     		movs	r0, r4
 1464 0042 09B0     		add	sp, sp, #36
 1465              		@ sp needed
 1466              	.LVL196:
 1467              	.LVL197:
 1468 0044 30BD     		pop	{r4, r5, pc}
 1469              		.cfi_endproc
 1470              	.LFE27:
 1471              		.size	get_calib_data, .-get_calib_data
 1472 0046 C046     		.section	.text.bme280_set_regs,"ax",%progbits
 1473              		.align	2
 1474              		.global	bme280_set_regs
 1475              		.code	16
 1476              		.thumb_func
 1477              		.type	bme280_set_regs, %function
 1478              	bme280_set_regs:
 1479              	.LFB3:
 446:bme280.c      **** 	int8_t rslt;
 1480              		.loc 1 446 0
 1481              		.cfi_startproc
 1482              		@ args = 0, pretend = 0, frame = 8
 1483              		@ frame_needed = 1, uses_anonymous_args = 0
 1484              	.LVL198:
 1485 0000 F0B5     		push	{r4, r5, r6, r7, lr}
 1486              		.cfi_def_cfa_offset 20
 1487              		.cfi_offset 4, -20
 1488              		.cfi_offset 5, -16
 1489              		.cfi_offset 6, -12
 1490              		.cfi_offset 7, -8
 1491              		.cfi_offset 14, -4
 1492 0002 4F46     		mov	r7, r9
 1493 0004 80B4     		push	{r7}
 1494              		.cfi_def_cfa_offset 24
 1495              		.cfi_offset 9, -24
 1496 0006 82B0     		sub	sp, sp, #8
 1497              		.cfi_def_cfa_offset 32
 1498 0008 00AF     		add	r7, sp, #0
 1499              		.cfi_def_cfa_register 7
 1500 000a 0600     		movs	r6, r0
 1501 000c 8946     		mov	r9, r1
 1502 000e 1500     		movs	r5, r2
 1503 0010 1C00     		movs	r4, r3
 448:bme280.c      **** 	uint16_t temp_len;
 1504              		.loc 1 448 0
 1505 0012 5300     		lsls	r3, r2, #1
 1506              	.LVL199:
 1507 0014 0733     		adds	r3, r3, #7
 1508              	.LVL200:
 1509 0016 DB08     		lsrs	r3, r3, #3
 1510              	.LVL201:
 1511 0018 DB00     		lsls	r3, r3, #3
ARM GAS  C:\Users\corne\AppData\Local\Temp\cc0fqrF9.s 			page 51


 1512 001a 6A46     		mov	r2, sp
 1513              	.LVL202:
 1514 001c D31A     		subs	r3, r2, r3
 1515 001e 9D46     		mov	sp, r3
 1516 0020 7B60     		str	r3, [r7, #4]
 1517              	.LVL203:
 453:bme280.c      **** 	/* Check for arguments validity */
 1518              		.loc 1 453 0
 1519 0022 2000     		movs	r0, r4
 1520              	.LVL204:
 1521 0024 FFF7FEFF 		bl	null_ptr_check
 1522              	.LVL205:
 455:bme280.c      **** 		if (len != 0) {
 1523              		.loc 1 455 0
 1524 0028 0028     		cmp	r0, #0
 1525 002a 2BD1     		bne	.L63
 455:bme280.c      **** 		if (len != 0) {
 1526              		.loc 1 455 0 is_stmt 0 discriminator 1
 1527 002c 002E     		cmp	r6, #0
 1528 002e 2CD0     		beq	.L64
 455:bme280.c      **** 		if (len != 0) {
 1529              		.loc 1 455 0 discriminator 2
 1530 0030 4946     		mov	r1, r9
 1531 0032 0029     		cmp	r1, #0
 1532 0034 2CD0     		beq	.L65
 456:bme280.c      **** 			temp_buff[0] = reg_data[0];
 1533              		.loc 1 456 0 is_stmt 1
 1534 0036 002D     		cmp	r5, #0
 1535 0038 2DD0     		beq	.L66
 457:bme280.c      **** 			/* If interface selected is SPI */
 1536              		.loc 1 457 0
 1537 003a 0B78     		ldrb	r3, [r1]
 1538 003c 7A68     		ldr	r2, [r7, #4]
 1539 003e 1370     		strb	r3, [r2]
 459:bme280.c      **** 				for (reg_addr_cnt = 0; reg_addr_cnt < len; reg_addr_cnt++)
 1540              		.loc 1 459 0
 1541 0040 A378     		ldrb	r3, [r4, #2]
 1542 0042 012B     		cmp	r3, #1
 1543 0044 08D1     		bne	.L67
 1544 0046 0AE0     		b	.L59
 1545              	.LVL206:
 1546              	.L60:
 461:bme280.c      **** 			}
 1547              		.loc 1 461 0 discriminator 3
 1548 0048 B118     		adds	r1, r6, r2
 1549 004a 0B78     		ldrb	r3, [r1]
 1550 004c 7F20     		movs	r0, #127
 1551 004e 0340     		ands	r3, r0
 1552 0050 0B70     		strb	r3, [r1]
 460:bme280.c      **** 					reg_addr[reg_addr_cnt] = reg_addr[reg_addr_cnt] & 0x7F;
 1553              		.loc 1 460 0 discriminator 3
 1554 0052 0132     		adds	r2, r2, #1
 1555              	.LVL207:
 1556 0054 D2B2     		uxtb	r2, r2
 1557              	.LVL208:
 1558 0056 00E0     		b	.L58
 1559              	.LVL209:
ARM GAS  C:\Users\corne\AppData\Local\Temp\cc0fqrF9.s 			page 52


 1560              	.L67:
 1561 0058 0022     		movs	r2, #0
 1562              	.LVL210:
 1563              	.L58:
 460:bme280.c      **** 					reg_addr[reg_addr_cnt] = reg_addr[reg_addr_cnt] & 0x7F;
 1564              		.loc 1 460 0 is_stmt 0 discriminator 1
 1565 005a AA42     		cmp	r2, r5
 1566 005c F4D3     		bcc	.L60
 1567              	.LVL211:
 1568              	.L59:
 464:bme280.c      **** 				/* Interleave register address w.r.t data for
 1569              		.loc 1 464 0 is_stmt 1
 1570 005e 012D     		cmp	r5, #1
 1571 0060 07D9     		bls	.L61
 467:bme280.c      **** 				temp_len = len * 2;
 1572              		.loc 1 467 0
 1573 0062 2B00     		movs	r3, r5
 1574 0064 4A46     		mov	r2, r9
 1575 0066 7968     		ldr	r1, [r7, #4]
 1576 0068 3000     		movs	r0, r6
 1577 006a FFF7FEFF 		bl	interleave_reg_addr
 1578              	.LVL212:
 468:bme280.c      **** 			} else {
 1579              		.loc 1 468 0
 1580 006e 6B00     		lsls	r3, r5, #1
 1581              	.LVL213:
 1582 0070 00E0     		b	.L62
 1583              	.LVL214:
 1584              	.L61:
 470:bme280.c      **** 			}
 1585              		.loc 1 470 0
 1586 0072 ABB2     		uxth	r3, r5
 1587              	.LVL215:
 1588              	.L62:
 472:bme280.c      **** 			/* Check for communication error */
 1589              		.loc 1 472 0
 1590 0074 A568     		ldr	r5, [r4, #8]
 1591              	.LVL216:
 1592 0076 6078     		ldrb	r0, [r4, #1]
 1593 0078 3178     		ldrb	r1, [r6]
 1594 007a 7A68     		ldr	r2, [r7, #4]
 1595 007c A847     		blx	r5
 1596              	.LVL217:
 474:bme280.c      **** 				rslt = BME280_E_COMM_FAIL;
 1597              		.loc 1 474 0
 1598 007e 0028     		cmp	r0, #0
 1599 0080 0ED0     		beq	.L57
 1600 0082 0BE0     		b	.L68
 1601              	.LVL218:
 1602              	.L63:
 480:bme280.c      **** 	}
 1603              		.loc 1 480 0
 1604 0084 0120     		movs	r0, #1
 1605              	.LVL219:
 1606 0086 4042     		rsbs	r0, r0, #0
 1607 0088 0AE0     		b	.L57
 1608              	.LVL220:
ARM GAS  C:\Users\corne\AppData\Local\Temp\cc0fqrF9.s 			page 53


 1609              	.L64:
 1610 008a 0120     		movs	r0, #1
 1611              	.LVL221:
 1612 008c 4042     		rsbs	r0, r0, #0
 1613 008e 07E0     		b	.L57
 1614              	.LVL222:
 1615              	.L65:
 1616 0090 0120     		movs	r0, #1
 1617              	.LVL223:
 1618 0092 4042     		rsbs	r0, r0, #0
 1619 0094 04E0     		b	.L57
 1620              	.LVL224:
 1621              	.L66:
 477:bme280.c      **** 		}
 1622              		.loc 1 477 0
 1623 0096 0320     		movs	r0, #3
 1624              	.LVL225:
 1625 0098 4042     		rsbs	r0, r0, #0
 1626 009a 01E0     		b	.L57
 1627              	.LVL226:
 1628              	.L68:
 475:bme280.c      **** 		} else {
 1629              		.loc 1 475 0
 1630 009c 0420     		movs	r0, #4
 1631              	.LVL227:
 1632 009e 4042     		rsbs	r0, r0, #0
 1633              	.L57:
 1634              	.LVL228:
 485:bme280.c      **** 
 1635              		.loc 1 485 0
 1636 00a0 BD46     		mov	sp, r7
 1637              	.LVL229:
 1638 00a2 02B0     		add	sp, sp, #8
 1639              		@ sp needed
 1640              	.LVL230:
 1641              	.LVL231:
 1642              	.LVL232:
 1643              	.LVL233:
 1644 00a4 04BC     		pop	{r2}
 1645 00a6 9146     		mov	r9, r2
 1646 00a8 F0BD     		pop	{r4, r5, r6, r7, pc}
 1647              		.cfi_endproc
 1648              	.LFE3:
 1649              		.size	bme280_set_regs, .-bme280_set_regs
 1650 00aa C046     		.section	.text.set_osr_humidity_settings,"ax",%progbits
 1651              		.align	2
 1652              		.code	16
 1653              		.thumb_func
 1654              		.type	set_osr_humidity_settings, %function
 1655              	set_osr_humidity_settings:
 1656              	.LFB11:
 662:bme280.c      **** 	int8_t rslt;
 1657              		.loc 1 662 0
 1658              		.cfi_startproc
 1659              		@ args = 0, pretend = 0, frame = 8
 1660              		@ frame_needed = 0, uses_anonymous_args = 0
 1661              	.LVL234:
ARM GAS  C:\Users\corne\AppData\Local\Temp\cc0fqrF9.s 			page 54


 1662 0000 10B5     		push	{r4, lr}
 1663              		.cfi_def_cfa_offset 8
 1664              		.cfi_offset 4, -8
 1665              		.cfi_offset 14, -4
 1666 0002 82B0     		sub	sp, sp, #8
 1667              		.cfi_def_cfa_offset 16
 1668 0004 0300     		movs	r3, r0
 1669 0006 0C00     		movs	r4, r1
 666:bme280.c      **** 
 1670              		.loc 1 666 0
 1671 0008 6A46     		mov	r2, sp
 1672 000a 501D     		adds	r0, r2, #5
 1673              	.LVL235:
 1674 000c F222     		movs	r2, #242
 1675 000e 0270     		strb	r2, [r0]
 668:bme280.c      **** 	/* Write the humidity control value in the register */
 1676              		.loc 1 668 0
 1677 0010 9B78     		ldrb	r3, [r3, #2]
 1678              	.LVL236:
 1679 0012 6A46     		mov	r2, sp
 1680 0014 D11D     		adds	r1, r2, #7
 1681              	.LVL237:
 1682 0016 0722     		movs	r2, #7
 1683 0018 1340     		ands	r3, r2
 1684 001a 0B70     		strb	r3, [r1]
 670:bme280.c      **** 	/* Humidity related changes will be only effective after a
 1685              		.loc 1 670 0
 1686 001c 2300     		movs	r3, r4
 1687 001e 063A     		subs	r2, r2, #6
 1688 0020 FFF7FEFF 		bl	bme280_set_regs
 1689              	.LVL238:
 673:bme280.c      **** 		reg_addr = BME280_CTRL_MEAS_ADDR;
 1690              		.loc 1 673 0
 1691 0024 0028     		cmp	r0, #0
 1692 0026 13D1     		bne	.L70
 674:bme280.c      **** 		rslt = bme280_get_regs(reg_addr, &ctrl_meas, 1, dev);
 1693              		.loc 1 674 0
 1694 0028 F422     		movs	r2, #244
 1695 002a 6B46     		mov	r3, sp
 1696 002c 5A71     		strb	r2, [r3, #5]
 675:bme280.c      **** 		if (rslt == BME280_OK)
 1697              		.loc 1 675 0
 1698 002e 2300     		movs	r3, r4
 1699 0030 F33A     		subs	r2, r2, #243
 1700 0032 6946     		mov	r1, sp
 1701 0034 0631     		adds	r1, r1, #6
 1702 0036 F430     		adds	r0, r0, #244
 1703              	.LVL239:
 1704 0038 FFF7FEFF 		bl	bme280_get_regs
 1705              	.LVL240:
 676:bme280.c      **** 			rslt = bme280_set_regs(&reg_addr, &ctrl_meas, 1, dev);
 1706              		.loc 1 676 0
 1707 003c 0028     		cmp	r0, #0
 1708 003e 07D1     		bne	.L70
 677:bme280.c      **** 	}
 1709              		.loc 1 677 0
 1710 0040 2300     		movs	r3, r4
ARM GAS  C:\Users\corne\AppData\Local\Temp\cc0fqrF9.s 			page 55


 1711 0042 0122     		movs	r2, #1
 1712 0044 6946     		mov	r1, sp
 1713 0046 0631     		adds	r1, r1, #6
 1714 0048 6846     		mov	r0, sp
 1715              	.LVL241:
 1716 004a 0530     		adds	r0, r0, #5
 1717 004c FFF7FEFF 		bl	bme280_set_regs
 1718              	.LVL242:
 1719              	.L70:
 681:bme280.c      **** 
 1720              		.loc 1 681 0
 1721 0050 02B0     		add	sp, sp, #8
 1722              		@ sp needed
 1723              	.LVL243:
 1724 0052 10BD     		pop	{r4, pc}
 1725              		.cfi_endproc
 1726              	.LFE11:
 1727              		.size	set_osr_humidity_settings, .-set_osr_humidity_settings
 1728              		.section	.text.set_osr_press_temp_settings,"ax",%progbits
 1729              		.align	2
 1730              		.code	16
 1731              		.thumb_func
 1732              		.type	set_osr_press_temp_settings, %function
 1733              	set_osr_press_temp_settings:
 1734              	.LFB12:
 689:bme280.c      **** 	int8_t rslt;
 1735              		.loc 1 689 0
 1736              		.cfi_startproc
 1737              		@ args = 0, pretend = 0, frame = 8
 1738              		@ frame_needed = 0, uses_anonymous_args = 0
 1739              	.LVL244:
 1740 0000 70B5     		push	{r4, r5, r6, lr}
 1741              		.cfi_def_cfa_offset 16
 1742              		.cfi_offset 4, -16
 1743              		.cfi_offset 5, -12
 1744              		.cfi_offset 6, -8
 1745              		.cfi_offset 14, -4
 1746 0002 82B0     		sub	sp, sp, #8
 1747              		.cfi_def_cfa_offset 24
 1748 0004 0600     		movs	r6, r0
 1749 0006 0D00     		movs	r5, r1
 1750 0008 1400     		movs	r4, r2
 691:bme280.c      **** 	uint8_t reg_data;
 1751              		.loc 1 691 0
 1752 000a F422     		movs	r2, #244
 1753              	.LVL245:
 1754 000c 6B46     		mov	r3, sp
 1755 000e DA71     		strb	r2, [r3, #7]
 694:bme280.c      **** 
 1756              		.loc 1 694 0
 1757 0010 2300     		movs	r3, r4
 1758 0012 F33A     		subs	r2, r2, #243
 1759 0014 6946     		mov	r1, sp
 1760              	.LVL246:
 1761 0016 0631     		adds	r1, r1, #6
 1762 0018 F420     		movs	r0, #244
 1763              	.LVL247:
ARM GAS  C:\Users\corne\AppData\Local\Temp\cc0fqrF9.s 			page 56


 1764 001a FFF7FEFF 		bl	bme280_get_regs
 1765              	.LVL248:
 696:bme280.c      **** 		if (desired_settings & BME280_OSR_PRESS_SEL)
 1766              		.loc 1 696 0
 1767 001e 0028     		cmp	r0, #0
 1768 0020 15D1     		bne	.L72
 697:bme280.c      **** 			fill_osr_press_settings(&reg_data, settings);
 1769              		.loc 1 697 0
 1770 0022 F307     		lsls	r3, r6, #31
 1771 0024 04D5     		bpl	.L73
 698:bme280.c      **** 		if (desired_settings & BME280_OSR_TEMP_SEL)
 1772              		.loc 1 698 0
 1773 0026 2900     		movs	r1, r5
 1774 0028 6B46     		mov	r3, sp
 1775 002a 981D     		adds	r0, r3, #6
 1776              	.LVL249:
 1777 002c FFF7FEFF 		bl	fill_osr_press_settings
 1778              	.LVL250:
 1779              	.L73:
 699:bme280.c      **** 			fill_osr_temp_settings(&reg_data, settings);
 1780              		.loc 1 699 0
 1781 0030 B307     		lsls	r3, r6, #30
 1782 0032 04D5     		bpl	.L74
 700:bme280.c      **** 		/* Write the oversampling settings in the register */
 1783              		.loc 1 700 0
 1784 0034 2900     		movs	r1, r5
 1785 0036 6B46     		mov	r3, sp
 1786 0038 981D     		adds	r0, r3, #6
 1787 003a FFF7FEFF 		bl	fill_osr_temp_settings
 1788              	.LVL251:
 1789              	.L74:
 702:bme280.c      **** 	}
 1790              		.loc 1 702 0
 1791 003e 2300     		movs	r3, r4
 1792 0040 0122     		movs	r2, #1
 1793 0042 6946     		mov	r1, sp
 1794 0044 0631     		adds	r1, r1, #6
 1795 0046 6846     		mov	r0, sp
 1796 0048 0730     		adds	r0, r0, #7
 1797 004a FFF7FEFF 		bl	bme280_set_regs
 1798              	.LVL252:
 1799              	.L72:
 706:bme280.c      **** 
 1800              		.loc 1 706 0
 1801 004e 02B0     		add	sp, sp, #8
 1802              		@ sp needed
 1803              	.LVL253:
 1804              	.LVL254:
 1805 0050 70BD     		pop	{r4, r5, r6, pc}
 1806              		.cfi_endproc
 1807              	.LFE12:
 1808              		.size	set_osr_press_temp_settings, .-set_osr_press_temp_settings
 1809 0052 C046     		.section	.text.set_osr_settings,"ax",%progbits
 1810              		.align	2
 1811              		.code	16
 1812              		.thumb_func
 1813              		.type	set_osr_settings, %function
ARM GAS  C:\Users\corne\AppData\Local\Temp\cc0fqrF9.s 			page 57


 1814              	set_osr_settings:
 1815              	.LFB10:
 647:bme280.c      **** 	int8_t rslt = BME280_W_INVALID_OSR_MACRO;
 1816              		.loc 1 647 0
 1817              		.cfi_startproc
 1818              		@ args = 0, pretend = 0, frame = 0
 1819              		@ frame_needed = 0, uses_anonymous_args = 0
 1820              	.LVL255:
 1821 0000 70B5     		push	{r4, r5, r6, lr}
 1822              		.cfi_def_cfa_offset 16
 1823              		.cfi_offset 4, -16
 1824              		.cfi_offset 5, -12
 1825              		.cfi_offset 6, -8
 1826              		.cfi_offset 14, -4
 1827 0002 0600     		movs	r6, r0
 1828 0004 0C00     		movs	r4, r1
 1829 0006 1500     		movs	r5, r2
 1830              	.LVL256:
 650:bme280.c      **** 		rslt = set_osr_humidity_settings(settings, dev);
 1831              		.loc 1 650 0
 1832 0008 4307     		lsls	r3, r0, #29
 1833 000a 04D5     		bpl	.L78
 651:bme280.c      **** 	if (desired_settings & (BME280_OSR_PRESS_SEL | BME280_OSR_TEMP_SEL))
 1834              		.loc 1 651 0
 1835 000c 1100     		movs	r1, r2
 1836              	.LVL257:
 1837 000e 2000     		movs	r0, r4
 1838              	.LVL258:
 1839 0010 FFF7FEFF 		bl	set_osr_humidity_settings
 1840              	.LVL259:
 1841 0014 00E0     		b	.L76
 1842              	.LVL260:
 1843              	.L78:
 648:bme280.c      **** 
 1844              		.loc 1 648 0
 1845 0016 0120     		movs	r0, #1
 1846              	.LVL261:
 1847              	.L76:
 652:bme280.c      **** 		rslt = set_osr_press_temp_settings(desired_settings, settings, dev);
 1848              		.loc 1 652 0
 1849 0018 B307     		lsls	r3, r6, #30
 1850 001a 04D0     		beq	.L77
 653:bme280.c      **** 
 1851              		.loc 1 653 0
 1852 001c 2A00     		movs	r2, r5
 1853 001e 2100     		movs	r1, r4
 1854 0020 3000     		movs	r0, r6
 1855              	.LVL262:
 1856 0022 FFF7FEFF 		bl	set_osr_press_temp_settings
 1857              	.LVL263:
 1858              	.L77:
 656:bme280.c      **** 
 1859              		.loc 1 656 0
 1860              		@ sp needed
 1861              	.LVL264:
 1862              	.LVL265:
 1863 0026 70BD     		pop	{r4, r5, r6, pc}
ARM GAS  C:\Users\corne\AppData\Local\Temp\cc0fqrF9.s 			page 58


 1864              		.cfi_endproc
 1865              	.LFE10:
 1866              		.size	set_osr_settings, .-set_osr_settings
 1867              		.section	.text.set_filter_standby_settings,"ax",%progbits
 1868              		.align	2
 1869              		.code	16
 1870              		.thumb_func
 1871              		.type	set_filter_standby_settings, %function
 1872              	set_filter_standby_settings:
 1873              	.LFB13:
 714:bme280.c      **** 	int8_t rslt;
 1874              		.loc 1 714 0
 1875              		.cfi_startproc
 1876              		@ args = 0, pretend = 0, frame = 8
 1877              		@ frame_needed = 0, uses_anonymous_args = 0
 1878              	.LVL266:
 1879 0000 70B5     		push	{r4, r5, r6, lr}
 1880              		.cfi_def_cfa_offset 16
 1881              		.cfi_offset 4, -16
 1882              		.cfi_offset 5, -12
 1883              		.cfi_offset 6, -8
 1884              		.cfi_offset 14, -4
 1885 0002 82B0     		sub	sp, sp, #8
 1886              		.cfi_def_cfa_offset 24
 1887 0004 0600     		movs	r6, r0
 1888 0006 0D00     		movs	r5, r1
 1889 0008 1400     		movs	r4, r2
 716:bme280.c      **** 	uint8_t reg_data;
 1890              		.loc 1 716 0
 1891 000a F522     		movs	r2, #245
 1892              	.LVL267:
 1893 000c 6B46     		mov	r3, sp
 1894 000e DA71     		strb	r2, [r3, #7]
 719:bme280.c      **** 
 1895              		.loc 1 719 0
 1896 0010 2300     		movs	r3, r4
 1897 0012 F43A     		subs	r2, r2, #244
 1898 0014 6946     		mov	r1, sp
 1899              	.LVL268:
 1900 0016 0631     		adds	r1, r1, #6
 1901 0018 F520     		movs	r0, #245
 1902              	.LVL269:
 1903 001a FFF7FEFF 		bl	bme280_get_regs
 1904              	.LVL270:
 721:bme280.c      **** 		if (desired_settings & BME280_FILTER_SEL)
 1905              		.loc 1 721 0
 1906 001e 0028     		cmp	r0, #0
 1907 0020 15D1     		bne	.L80
 722:bme280.c      **** 			fill_filter_settings(&reg_data, settings);
 1908              		.loc 1 722 0
 1909 0022 3307     		lsls	r3, r6, #28
 1910 0024 04D5     		bpl	.L81
 723:bme280.c      **** 		if (desired_settings & BME280_STANDBY_SEL)
 1911              		.loc 1 723 0
 1912 0026 2900     		movs	r1, r5
 1913 0028 6B46     		mov	r3, sp
 1914 002a 981D     		adds	r0, r3, #6
ARM GAS  C:\Users\corne\AppData\Local\Temp\cc0fqrF9.s 			page 59


 1915              	.LVL271:
 1916 002c FFF7FEFF 		bl	fill_filter_settings
 1917              	.LVL272:
 1918              	.L81:
 724:bme280.c      **** 			fill_standby_settings(&reg_data, settings);
 1919              		.loc 1 724 0
 1920 0030 F306     		lsls	r3, r6, #27
 1921 0032 04D5     		bpl	.L82
 725:bme280.c      **** 		/* Write the oversampling settings in the register */
 1922              		.loc 1 725 0
 1923 0034 2900     		movs	r1, r5
 1924 0036 6B46     		mov	r3, sp
 1925 0038 981D     		adds	r0, r3, #6
 1926 003a FFF7FEFF 		bl	fill_standby_settings
 1927              	.LVL273:
 1928              	.L82:
 727:bme280.c      **** 	}
 1929              		.loc 1 727 0
 1930 003e 2300     		movs	r3, r4
 1931 0040 0122     		movs	r2, #1
 1932 0042 6946     		mov	r1, sp
 1933 0044 0631     		adds	r1, r1, #6
 1934 0046 6846     		mov	r0, sp
 1935 0048 0730     		adds	r0, r0, #7
 1936 004a FFF7FEFF 		bl	bme280_set_regs
 1937              	.LVL274:
 1938              	.L80:
 731:bme280.c      **** 
 1939              		.loc 1 731 0
 1940 004e 02B0     		add	sp, sp, #8
 1941              		@ sp needed
 1942              	.LVL275:
 1943              	.LVL276:
 1944 0050 70BD     		pop	{r4, r5, r6, pc}
 1945              		.cfi_endproc
 1946              	.LFE13:
 1947              		.size	set_filter_standby_settings, .-set_filter_standby_settings
 1948 0052 C046     		.section	.text.reload_device_settings,"ax",%progbits
 1949              		.align	2
 1950              		.code	16
 1951              		.thumb_func
 1952              		.type	reload_device_settings, %function
 1953              	reload_device_settings:
 1954              	.LFB21:
 829:bme280.c      **** 	int8_t rslt;
 1955              		.loc 1 829 0
 1956              		.cfi_startproc
 1957              		@ args = 0, pretend = 0, frame = 0
 1958              		@ frame_needed = 0, uses_anonymous_args = 0
 1959              	.LVL277:
 1960 0000 70B5     		push	{r4, r5, r6, lr}
 1961              		.cfi_def_cfa_offset 16
 1962              		.cfi_offset 4, -16
 1963              		.cfi_offset 5, -12
 1964              		.cfi_offset 6, -8
 1965              		.cfi_offset 14, -4
 1966 0002 0400     		movs	r4, r0
ARM GAS  C:\Users\corne\AppData\Local\Temp\cc0fqrF9.s 			page 60


 1967 0004 0D00     		movs	r5, r1
 832:bme280.c      **** 	if (rslt == BME280_OK)
 1968              		.loc 1 832 0
 1969 0006 0A00     		movs	r2, r1
 1970 0008 0100     		movs	r1, r0
 1971              	.LVL278:
 1972 000a 1F20     		movs	r0, #31
 1973              	.LVL279:
 1974 000c FFF7FEFF 		bl	set_osr_settings
 1975              	.LVL280:
 833:bme280.c      **** 		rslt = set_filter_standby_settings(BME280_ALL_SETTINGS_SEL, settings, dev);
 1976              		.loc 1 833 0
 1977 0010 0028     		cmp	r0, #0
 1978 0012 04D1     		bne	.L84
 834:bme280.c      **** 
 1979              		.loc 1 834 0
 1980 0014 2A00     		movs	r2, r5
 1981 0016 2100     		movs	r1, r4
 1982 0018 1F30     		adds	r0, r0, #31
 1983              	.LVL281:
 1984 001a FFF7FEFF 		bl	set_filter_standby_settings
 1985              	.LVL282:
 1986              	.L84:
 837:bme280.c      **** 
 1987              		.loc 1 837 0
 1988              		@ sp needed
 1989              	.LVL283:
 1990              	.LVL284:
 1991 001e 70BD     		pop	{r4, r5, r6, pc}
 1992              		.cfi_endproc
 1993              	.LFE21:
 1994              		.size	reload_device_settings, .-reload_device_settings
 1995              		.section	.text.write_power_mode,"ax",%progbits
 1996              		.align	2
 1997              		.code	16
 1998              		.thumb_func
 1999              		.type	write_power_mode, %function
 2000              	write_power_mode:
 2001              	.LFB19:
 786:bme280.c      **** 	int8_t rslt;
 2002              		.loc 1 786 0
 2003              		.cfi_startproc
 2004              		@ args = 0, pretend = 0, frame = 8
 2005              		@ frame_needed = 0, uses_anonymous_args = 0
 2006              	.LVL285:
 2007 0000 30B5     		push	{r4, r5, lr}
 2008              		.cfi_def_cfa_offset 12
 2009              		.cfi_offset 4, -12
 2010              		.cfi_offset 5, -8
 2011              		.cfi_offset 14, -4
 2012 0002 83B0     		sub	sp, sp, #12
 2013              		.cfi_def_cfa_offset 24
 2014 0004 0400     		movs	r4, r0
 2015 0006 0D00     		movs	r5, r1
 788:bme280.c      **** 	/* Variable to store the value read from power mode register */
 2016              		.loc 1 788 0
 2017 0008 F422     		movs	r2, #244
ARM GAS  C:\Users\corne\AppData\Local\Temp\cc0fqrF9.s 			page 61


 2018 000a 6B46     		mov	r3, sp
 2019 000c DA71     		strb	r2, [r3, #7]
 793:bme280.c      **** 	/* Set the power mode */
 2020              		.loc 1 793 0
 2021 000e 0B00     		movs	r3, r1
 2022 0010 F33A     		subs	r2, r2, #243
 2023 0012 6946     		mov	r1, sp
 2024              	.LVL286:
 2025 0014 0631     		adds	r1, r1, #6
 2026 0016 F420     		movs	r0, #244
 2027              	.LVL287:
 2028 0018 FFF7FEFF 		bl	bme280_get_regs
 2029              	.LVL288:
 795:bme280.c      **** 		sensor_mode_reg_val = BME280_SET_BITS_POS_0(sensor_mode_reg_val, BME280_SENSOR_MODE, sensor_mode)
 2030              		.loc 1 795 0
 2031 001c 0028     		cmp	r0, #0
 2032 001e 0DD1     		bne	.L86
 796:bme280.c      **** 		/* Write the power mode in the register */
 2033              		.loc 1 796 0
 2034 0020 6B46     		mov	r3, sp
 2035 0022 991D     		adds	r1, r3, #6
 2036 0024 0B78     		ldrb	r3, [r1]
 2037 0026 0322     		movs	r2, #3
 2038 0028 9343     		bics	r3, r2
 2039 002a 1440     		ands	r4, r2
 2040 002c 1C43     		orrs	r4, r3
 2041 002e 0C70     		strb	r4, [r1]
 798:bme280.c      **** 	}
 2042              		.loc 1 798 0
 2043 0030 2B00     		movs	r3, r5
 2044 0032 023A     		subs	r2, r2, #2
 2045 0034 6846     		mov	r0, sp
 2046              	.LVL289:
 2047 0036 0730     		adds	r0, r0, #7
 2048 0038 FFF7FEFF 		bl	bme280_set_regs
 2049              	.LVL290:
 2050              	.L86:
 802:bme280.c      **** 
 2051              		.loc 1 802 0
 2052 003c 03B0     		add	sp, sp, #12
 2053              		@ sp needed
 2054              	.LVL291:
 2055 003e 30BD     		pop	{r4, r5, pc}
 2056              		.cfi_endproc
 2057              	.LFE19:
 2058              		.size	write_power_mode, .-write_power_mode
 2059              		.section	.text.bme280_get_sensor_settings,"ax",%progbits
 2060              		.align	2
 2061              		.global	bme280_get_sensor_settings
 2062              		.code	16
 2063              		.thumb_func
 2064              		.type	bme280_get_sensor_settings, %function
 2065              	bme280_get_sensor_settings:
 2066              	.LFB5:
 523:bme280.c      **** 	int8_t rslt;
 2067              		.loc 1 523 0
 2068              		.cfi_startproc
ARM GAS  C:\Users\corne\AppData\Local\Temp\cc0fqrF9.s 			page 62


 2069              		@ args = 0, pretend = 0, frame = 8
 2070              		@ frame_needed = 0, uses_anonymous_args = 0
 2071              	.LVL292:
 2072 0000 30B5     		push	{r4, r5, lr}
 2073              		.cfi_def_cfa_offset 12
 2074              		.cfi_offset 4, -12
 2075              		.cfi_offset 5, -8
 2076              		.cfi_offset 14, -4
 2077 0002 83B0     		sub	sp, sp, #12
 2078              		.cfi_def_cfa_offset 24
 2079 0004 0500     		movs	r5, r0
 528:bme280.c      **** 	/* Proceed if null check is fine */
 2080              		.loc 1 528 0
 2081 0006 FFF7FEFF 		bl	null_ptr_check
 2082              	.LVL293:
 2083 000a 041E     		subs	r4, r0, #0
 2084              	.LVL294:
 530:bme280.c      **** 		rslt = bme280_get_regs(BME280_CTRL_HUM_ADDR, reg_data, 4, dev);
 2085              		.loc 1 530 0
 2086 000c 0CD1     		bne	.L88
 531:bme280.c      **** 		if (rslt == BME280_OK)
 2087              		.loc 1 531 0
 2088 000e 2B00     		movs	r3, r5
 2089 0010 0422     		movs	r2, #4
 2090 0012 01A9     		add	r1, sp, #4
 2091 0014 F220     		movs	r0, #242
 2092              	.LVL295:
 2093 0016 FFF7FEFF 		bl	bme280_get_regs
 2094              	.LVL296:
 2095 001a 041E     		subs	r4, r0, #0
 2096              	.LVL297:
 532:bme280.c      **** 			parse_device_settings(reg_data, &dev->settings);
 2097              		.loc 1 532 0
 2098 001c 04D1     		bne	.L88
 533:bme280.c      **** 	}
 2099              		.loc 1 533 0
 2100 001e 2900     		movs	r1, r5
 2101 0020 3831     		adds	r1, r1, #56
 2102 0022 01A8     		add	r0, sp, #4
 2103              	.LVL298:
 2104 0024 FFF7FEFF 		bl	parse_device_settings
 2105              	.LVL299:
 2106              	.L88:
 537:bme280.c      **** 
 2107              		.loc 1 537 0
 2108 0028 2000     		movs	r0, r4
 2109 002a 03B0     		add	sp, sp, #12
 2110              		@ sp needed
 2111              	.LVL300:
 2112              	.LVL301:
 2113 002c 30BD     		pop	{r4, r5, pc}
 2114              		.cfi_endproc
 2115              	.LFE5:
 2116              		.size	bme280_get_sensor_settings, .-bme280_get_sensor_settings
 2117 002e C046     		.section	.text.bme280_get_sensor_mode,"ax",%progbits
 2118              		.align	2
 2119              		.global	bme280_get_sensor_mode
ARM GAS  C:\Users\corne\AppData\Local\Temp\cc0fqrF9.s 			page 63


 2120              		.code	16
 2121              		.thumb_func
 2122              		.type	bme280_get_sensor_mode, %function
 2123              	bme280_get_sensor_mode:
 2124              	.LFB7:
 568:bme280.c      **** 	int8_t rslt;
 2125              		.loc 1 568 0
 2126              		.cfi_startproc
 2127              		@ args = 0, pretend = 0, frame = 0
 2128              		@ frame_needed = 0, uses_anonymous_args = 0
 2129              	.LVL302:
 2130 0000 70B5     		push	{r4, r5, r6, lr}
 2131              		.cfi_def_cfa_offset 16
 2132              		.cfi_offset 4, -16
 2133              		.cfi_offset 5, -12
 2134              		.cfi_offset 6, -8
 2135              		.cfi_offset 14, -4
 2136 0002 0400     		movs	r4, r0
 2137 0004 0D00     		movs	r5, r1
 572:bme280.c      **** 
 2138              		.loc 1 572 0
 2139 0006 0800     		movs	r0, r1
 2140              	.LVL303:
 2141 0008 FFF7FEFF 		bl	null_ptr_check
 2142              	.LVL304:
 574:bme280.c      **** 		/* Read the power mode register */
 2143              		.loc 1 574 0
 2144 000c 0028     		cmp	r0, #0
 2145 000e 09D1     		bne	.L90
 576:bme280.c      **** 		/* Assign the power mode in the device structure */
 2146              		.loc 1 576 0
 2147 0010 2B00     		movs	r3, r5
 2148 0012 0122     		movs	r2, #1
 2149 0014 2100     		movs	r1, r4
 2150 0016 F430     		adds	r0, r0, #244
 2151              	.LVL305:
 2152 0018 FFF7FEFF 		bl	bme280_get_regs
 2153              	.LVL306:
 578:bme280.c      **** 	}
 2154              		.loc 1 578 0
 2155 001c 2378     		ldrb	r3, [r4]
 2156 001e 0322     		movs	r2, #3
 2157 0020 1340     		ands	r3, r2
 2158 0022 2370     		strb	r3, [r4]
 2159              	.LVL307:
 2160              	.L90:
 582:bme280.c      **** 
 2161              		.loc 1 582 0
 2162              		@ sp needed
 2163              	.LVL308:
 2164              	.LVL309:
 2165 0024 70BD     		pop	{r4, r5, r6, pc}
 2166              		.cfi_endproc
 2167              	.LFE7:
 2168              		.size	bme280_get_sensor_mode, .-bme280_get_sensor_mode
 2169 0026 C046     		.section	.text.bme280_soft_reset,"ax",%progbits
 2170              		.align	2
ARM GAS  C:\Users\corne\AppData\Local\Temp\cc0fqrF9.s 			page 64


 2171              		.global	bme280_soft_reset
 2172              		.code	16
 2173              		.thumb_func
 2174              		.type	bme280_soft_reset, %function
 2175              	bme280_soft_reset:
 2176              	.LFB8:
 588:bme280.c      **** 	int8_t rslt;
 2177              		.loc 1 588 0
 2178              		.cfi_startproc
 2179              		@ args = 0, pretend = 0, frame = 8
 2180              		@ frame_needed = 0, uses_anonymous_args = 0
 2181              	.LVL310:
 2182 0000 30B5     		push	{r4, r5, lr}
 2183              		.cfi_def_cfa_offset 12
 2184              		.cfi_offset 4, -12
 2185              		.cfi_offset 5, -8
 2186              		.cfi_offset 14, -4
 2187 0002 83B0     		sub	sp, sp, #12
 2188              		.cfi_def_cfa_offset 24
 2189 0004 0500     		movs	r5, r0
 590:bme280.c      **** 	/* 0xB6 is the soft reset command */
 2190              		.loc 1 590 0
 2191 0006 E022     		movs	r2, #224
 2192 0008 6B46     		mov	r3, sp
 2193 000a DA71     		strb	r2, [r3, #7]
 592:bme280.c      **** 
 2194              		.loc 1 592 0
 2195 000c 2A3A     		subs	r2, r2, #42
 2196 000e 6B46     		mov	r3, sp
 2197 0010 9A71     		strb	r2, [r3, #6]
 595:bme280.c      **** 	/* Proceed if null check is fine */
 2198              		.loc 1 595 0
 2199 0012 FFF7FEFF 		bl	null_ptr_check
 2200              	.LVL311:
 2201 0016 041E     		subs	r4, r0, #0
 2202              	.LVL312:
 597:bme280.c      **** 		/* Write the soft reset command in the sensor */
 2203              		.loc 1 597 0
 2204 0018 0BD1     		bne	.L92
 599:bme280.c      **** 		/* As per data sheet, startup time is 2 ms. */
 2205              		.loc 1 599 0
 2206 001a 2B00     		movs	r3, r5
 2207 001c 0122     		movs	r2, #1
 2208 001e 6946     		mov	r1, sp
 2209 0020 0631     		adds	r1, r1, #6
 2210 0022 6846     		mov	r0, sp
 2211              	.LVL313:
 2212 0024 0730     		adds	r0, r0, #7
 2213 0026 FFF7FEFF 		bl	bme280_set_regs
 2214              	.LVL314:
 2215 002a 0400     		movs	r4, r0
 2216              	.LVL315:
 601:bme280.c      **** 	}
 2217              		.loc 1 601 0
 2218 002c EB68     		ldr	r3, [r5, #12]
 2219 002e 0220     		movs	r0, #2
 2220              	.LVL316:
ARM GAS  C:\Users\corne\AppData\Local\Temp\cc0fqrF9.s 			page 65


 2221 0030 9847     		blx	r3
 2222              	.LVL317:
 2223              	.L92:
 605:bme280.c      **** 
 2224              		.loc 1 605 0
 2225 0032 2000     		movs	r0, r4
 2226 0034 03B0     		add	sp, sp, #12
 2227              		@ sp needed
 2228              	.LVL318:
 2229              	.LVL319:
 2230 0036 30BD     		pop	{r4, r5, pc}
 2231              		.cfi_endproc
 2232              	.LFE8:
 2233              		.size	bme280_soft_reset, .-bme280_soft_reset
 2234              		.section	.text.bme280_init,"ax",%progbits
 2235              		.align	2
 2236              		.global	bme280_init
 2237              		.code	16
 2238              		.thumb_func
 2239              		.type	bme280_init, %function
 2240              	bme280_init:
 2241              	.LFB1:
 381:bme280.c      **** 	int8_t rslt;
 2242              		.loc 1 381 0
 2243              		.cfi_startproc
 2244              		@ args = 0, pretend = 0, frame = 8
 2245              		@ frame_needed = 0, uses_anonymous_args = 0
 2246              	.LVL320:
 2247 0000 70B5     		push	{r4, r5, r6, lr}
 2248              		.cfi_def_cfa_offset 16
 2249              		.cfi_offset 4, -16
 2250              		.cfi_offset 5, -12
 2251              		.cfi_offset 6, -8
 2252              		.cfi_offset 14, -4
 2253 0002 82B0     		sub	sp, sp, #8
 2254              		.cfi_def_cfa_offset 24
 2255 0004 0600     		movs	r6, r0
 2256              	.LVL321:
 385:bme280.c      **** 
 2257              		.loc 1 385 0
 2258 0006 0022     		movs	r2, #0
 2259 0008 6B46     		mov	r3, sp
 2260 000a DA71     		strb	r2, [r3, #7]
 388:bme280.c      **** 	/* Proceed if null check is fine */
 2261              		.loc 1 388 0
 2262 000c FFF7FEFF 		bl	null_ptr_check
 2263              	.LVL322:
 2264 0010 041E     		subs	r4, r0, #0
 2265              	.LVL323:
 390:bme280.c      **** 		while (try_count) {
 2266              		.loc 1 390 0
 2267 0012 1FD0     		beq	.L99
 2268 0014 25E0     		b	.L95
 2269              	.LVL324:
 2270              	.L98:
 393:bme280.c      **** 			/* Check for chip id validity */
 2271              		.loc 1 393 0
ARM GAS  C:\Users\corne\AppData\Local\Temp\cc0fqrF9.s 			page 66


 2272 0016 3300     		movs	r3, r6
 2273 0018 0122     		movs	r2, #1
 2274 001a 6946     		mov	r1, sp
 2275 001c 0731     		adds	r1, r1, #7
 2276 001e D020     		movs	r0, #208
 2277 0020 FFF7FEFF 		bl	bme280_get_regs
 2278              	.LVL325:
 2279 0024 041E     		subs	r4, r0, #0
 2280              	.LVL326:
 395:bme280.c      **** 				dev->chip_id = chip_id;
 2281              		.loc 1 395 0
 2282 0026 0FD1     		bne	.L96
 395:bme280.c      **** 				dev->chip_id = chip_id;
 2283              		.loc 1 395 0 is_stmt 0 discriminator 1
 2284 0028 6B46     		mov	r3, sp
 2285 002a 0733     		adds	r3, r3, #7
 2286 002c 1B78     		ldrb	r3, [r3]
 2287 002e 602B     		cmp	r3, #96
 2288 0030 0AD1     		bne	.L96
 396:bme280.c      **** 				/* Reset the sensor */
 2289              		.loc 1 396 0 is_stmt 1
 2290 0032 3370     		strb	r3, [r6]
 398:bme280.c      **** 				if (rslt == BME280_OK) {
 2291              		.loc 1 398 0
 2292 0034 3000     		movs	r0, r6
 2293              	.LVL327:
 2294 0036 FFF7FEFF 		bl	bme280_soft_reset
 2295              	.LVL328:
 2296 003a 041E     		subs	r4, r0, #0
 2297              	.LVL329:
 399:bme280.c      **** 					/* Read the calibration data */
 2298              		.loc 1 399 0
 2299 003c 0DD1     		bne	.L97
 401:bme280.c      **** 				}
 2300              		.loc 1 401 0
 2301 003e 3000     		movs	r0, r6
 2302              	.LVL330:
 2303 0040 FFF7FEFF 		bl	get_calib_data
 2304              	.LVL331:
 2305 0044 0400     		movs	r4, r0
 2306              	.LVL332:
 2307 0046 08E0     		b	.L97
 2308              	.L96:
 406:bme280.c      **** 			--try_count;
 2309              		.loc 1 406 0
 2310 0048 0120     		movs	r0, #1
 2311              	.LVL333:
 2312 004a F368     		ldr	r3, [r6, #12]
 2313 004c 9847     		blx	r3
 2314              	.LVL334:
 407:bme280.c      **** 		}
 2315              		.loc 1 407 0
 2316 004e 013D     		subs	r5, r5, #1
 2317              	.LVL335:
 2318 0050 EDB2     		uxtb	r5, r5
 2319              	.LVL336:
 2320 0052 00E0     		b	.L94
ARM GAS  C:\Users\corne\AppData\Local\Temp\cc0fqrF9.s 			page 67


 2321              	.LVL337:
 2322              	.L99:
 2323 0054 0525     		movs	r5, #5
 2324              	.LVL338:
 2325              	.L94:
 391:bme280.c      **** 			/* Read the chip-id of bme280 sensor */
 2326              		.loc 1 391 0
 2327 0056 002D     		cmp	r5, #0
 2328 0058 DDD1     		bne	.L98
 2329              	.LVL339:
 2330              	.L97:
 410:bme280.c      **** 			rslt = BME280_E_DEV_NOT_FOUND;
 2331              		.loc 1 410 0
 2332 005a 002D     		cmp	r5, #0
 2333 005c 01D1     		bne	.L95
 411:bme280.c      **** 	}
 2334              		.loc 1 411 0
 2335 005e 0224     		movs	r4, #2
 2336              	.LVL340:
 2337 0060 6442     		rsbs	r4, r4, #0
 2338              	.LVL341:
 2339              	.L95:
 415:bme280.c      **** 
 2340              		.loc 1 415 0
 2341 0062 2000     		movs	r0, r4
 2342 0064 02B0     		add	sp, sp, #8
 2343              		@ sp needed
 2344              	.LVL342:
 2345              	.LVL343:
 2346 0066 70BD     		pop	{r4, r5, r6, pc}
 2347              		.cfi_endproc
 2348              	.LFE1:
 2349              		.size	bme280_init, .-bme280_init
 2350              		.section	.text.put_device_to_sleep,"ax",%progbits
 2351              		.align	2
 2352              		.code	16
 2353              		.thumb_func
 2354              		.type	put_device_to_sleep, %function
 2355              	put_device_to_sleep:
 2356              	.LFB20:
 808:bme280.c      **** 	int8_t rslt;
 2357              		.loc 1 808 0
 2358              		.cfi_startproc
 2359              		@ args = 0, pretend = 0, frame = 16
 2360              		@ frame_needed = 0, uses_anonymous_args = 0
 2361              	.LVL344:
 2362 0000 10B5     		push	{r4, lr}
 2363              		.cfi_def_cfa_offset 8
 2364              		.cfi_offset 4, -8
 2365              		.cfi_offset 14, -4
 2366 0002 84B0     		sub	sp, sp, #16
 2367              		.cfi_def_cfa_offset 24
 2368 0004 0400     		movs	r4, r0
 813:bme280.c      **** 	if (rslt == BME280_OK) {
 2369              		.loc 1 813 0
 2370 0006 0300     		movs	r3, r0
 2371 0008 0422     		movs	r2, #4
ARM GAS  C:\Users\corne\AppData\Local\Temp\cc0fqrF9.s 			page 68


 2372 000a 03A9     		add	r1, sp, #12
 2373 000c F220     		movs	r0, #242
 2374              	.LVL345:
 2375 000e FFF7FEFF 		bl	bme280_get_regs
 2376              	.LVL346:
 814:bme280.c      **** 		parse_device_settings(reg_data, &settings);
 2377              		.loc 1 814 0
 2378 0012 0028     		cmp	r0, #0
 2379 0014 0CD1     		bne	.L102
 815:bme280.c      **** 		rslt = bme280_soft_reset(dev);
 2380              		.loc 1 815 0
 2381 0016 01A9     		add	r1, sp, #4
 2382 0018 03A8     		add	r0, sp, #12
 2383              	.LVL347:
 2384 001a FFF7FEFF 		bl	parse_device_settings
 2385              	.LVL348:
 816:bme280.c      **** 		if (rslt == BME280_OK)
 2386              		.loc 1 816 0
 2387 001e 2000     		movs	r0, r4
 2388 0020 FFF7FEFF 		bl	bme280_soft_reset
 2389              	.LVL349:
 817:bme280.c      **** 			rslt = reload_device_settings(&settings, dev);
 2390              		.loc 1 817 0
 2391 0024 0028     		cmp	r0, #0
 2392 0026 03D1     		bne	.L102
 818:bme280.c      **** 	}
 2393              		.loc 1 818 0
 2394 0028 2100     		movs	r1, r4
 2395 002a 01A8     		add	r0, sp, #4
 2396              	.LVL350:
 2397 002c FFF7FEFF 		bl	reload_device_settings
 2398              	.LVL351:
 2399              	.L102:
 822:bme280.c      **** 
 2400              		.loc 1 822 0
 2401 0030 04B0     		add	sp, sp, #16
 2402              		@ sp needed
 2403              	.LVL352:
 2404 0032 10BD     		pop	{r4, pc}
 2405              		.cfi_endproc
 2406              	.LFE20:
 2407              		.size	put_device_to_sleep, .-put_device_to_sleep
 2408              		.section	.text.bme280_set_sensor_settings,"ax",%progbits
 2409              		.align	2
 2410              		.global	bme280_set_sensor_settings
 2411              		.code	16
 2412              		.thumb_func
 2413              		.type	bme280_set_sensor_settings, %function
 2414              	bme280_set_sensor_settings:
 2415              	.LFB4:
 492:bme280.c      **** 	int8_t rslt;
 2416              		.loc 1 492 0
 2417              		.cfi_startproc
 2418              		@ args = 0, pretend = 0, frame = 8
 2419              		@ frame_needed = 0, uses_anonymous_args = 0
 2420              	.LVL353:
 2421 0000 70B5     		push	{r4, r5, r6, lr}
ARM GAS  C:\Users\corne\AppData\Local\Temp\cc0fqrF9.s 			page 69


 2422              		.cfi_def_cfa_offset 16
 2423              		.cfi_offset 4, -16
 2424              		.cfi_offset 5, -12
 2425              		.cfi_offset 6, -8
 2426              		.cfi_offset 14, -4
 2427 0002 82B0     		sub	sp, sp, #8
 2428              		.cfi_def_cfa_offset 24
 2429 0004 0600     		movs	r6, r0
 2430 0006 0D00     		movs	r5, r1
 497:bme280.c      **** 	/* Proceed if null check is fine */
 2431              		.loc 1 497 0
 2432 0008 0800     		movs	r0, r1
 2433              	.LVL354:
 2434 000a FFF7FEFF 		bl	null_ptr_check
 2435              	.LVL355:
 2436 000e 041E     		subs	r4, r0, #0
 2437              	.LVL356:
 499:bme280.c      **** 		rslt = bme280_get_sensor_mode(&sensor_mode, dev);
 2438              		.loc 1 499 0
 2439 0010 2DD1     		bne	.L104
 500:bme280.c      **** 		if ((rslt == BME280_OK) && (sensor_mode != BME280_SLEEP_MODE))
 2440              		.loc 1 500 0
 2441 0012 2900     		movs	r1, r5
 2442 0014 6B46     		mov	r3, sp
 2443 0016 D81D     		adds	r0, r3, #7
 2444              	.LVL357:
 2445 0018 FFF7FEFF 		bl	bme280_get_sensor_mode
 2446              	.LVL358:
 2447 001c 041E     		subs	r4, r0, #0
 2448              	.LVL359:
 501:bme280.c      **** 			rslt = put_device_to_sleep(dev);
 2449              		.loc 1 501 0
 2450 001e 08D1     		bne	.L105
 501:bme280.c      **** 			rslt = put_device_to_sleep(dev);
 2451              		.loc 1 501 0 is_stmt 0 discriminator 1
 2452 0020 6B46     		mov	r3, sp
 2453 0022 0733     		adds	r3, r3, #7
 2454 0024 1B78     		ldrb	r3, [r3]
 2455 0026 002B     		cmp	r3, #0
 2456 0028 03D0     		beq	.L105
 502:bme280.c      **** 		if (rslt == BME280_OK) {
 2457              		.loc 1 502 0 is_stmt 1
 2458 002a 2800     		movs	r0, r5
 2459              	.LVL360:
 2460 002c FFF7FEFF 		bl	put_device_to_sleep
 2461              	.LVL361:
 2462 0030 0400     		movs	r4, r0
 2463              	.LVL362:
 2464              	.L105:
 503:bme280.c      **** 			/* Check if user wants to change oversampling
 2465              		.loc 1 503 0
 2466 0032 002C     		cmp	r4, #0
 2467 0034 1BD1     		bne	.L104
 506:bme280.c      **** 				rslt = set_osr_settings(desired_settings, &dev->settings, dev);
 2468              		.loc 1 506 0
 2469 0036 3100     		movs	r1, r6
 2470 0038 0720     		movs	r0, #7
ARM GAS  C:\Users\corne\AppData\Local\Temp\cc0fqrF9.s 			page 70


 2471 003a FFF7FEFF 		bl	are_settings_changed
 2472              	.LVL363:
 2473 003e 0028     		cmp	r0, #0
 2474 0040 06D0     		beq	.L106
 507:bme280.c      **** 			/* Check if user wants to change filter and/or
 2475              		.loc 1 507 0
 2476 0042 2900     		movs	r1, r5
 2477 0044 3831     		adds	r1, r1, #56
 2478 0046 2A00     		movs	r2, r5
 2479 0048 3000     		movs	r0, r6
 2480 004a FFF7FEFF 		bl	set_osr_settings
 2481              	.LVL364:
 2482 004e 0400     		movs	r4, r0
 2483              	.LVL365:
 2484              	.L106:
 510:bme280.c      **** 				rslt = set_filter_standby_settings(desired_settings, &dev->settings, dev);
 2485              		.loc 1 510 0
 2486 0050 002C     		cmp	r4, #0
 2487 0052 0CD1     		bne	.L104
 510:bme280.c      **** 				rslt = set_filter_standby_settings(desired_settings, &dev->settings, dev);
 2488              		.loc 1 510 0 is_stmt 0 discriminator 1
 2489 0054 3100     		movs	r1, r6
 2490 0056 1820     		movs	r0, #24
 2491 0058 FFF7FEFF 		bl	are_settings_changed
 2492              	.LVL366:
 2493 005c 0028     		cmp	r0, #0
 2494 005e 06D0     		beq	.L104
 511:bme280.c      **** 		}
 2495              		.loc 1 511 0 is_stmt 1
 2496 0060 2900     		movs	r1, r5
 2497 0062 3831     		adds	r1, r1, #56
 2498 0064 2A00     		movs	r2, r5
 2499 0066 3000     		movs	r0, r6
 2500 0068 FFF7FEFF 		bl	set_filter_standby_settings
 2501              	.LVL367:
 2502 006c 0400     		movs	r4, r0
 2503              	.LVL368:
 2504              	.L104:
 516:bme280.c      **** 
 2505              		.loc 1 516 0
 2506 006e 2000     		movs	r0, r4
 2507 0070 02B0     		add	sp, sp, #8
 2508              		@ sp needed
 2509              	.LVL369:
 2510              	.LVL370:
 2511 0072 70BD     		pop	{r4, r5, r6, pc}
 2512              		.cfi_endproc
 2513              	.LFE4:
 2514              		.size	bme280_set_sensor_settings, .-bme280_set_sensor_settings
 2515              		.section	.text.bme280_set_sensor_mode,"ax",%progbits
 2516              		.align	2
 2517              		.global	bme280_set_sensor_mode
 2518              		.code	16
 2519              		.thumb_func
 2520              		.type	bme280_set_sensor_mode, %function
 2521              	bme280_set_sensor_mode:
 2522              	.LFB6:
ARM GAS  C:\Users\corne\AppData\Local\Temp\cc0fqrF9.s 			page 71


 543:bme280.c      **** 	int8_t rslt;
 2523              		.loc 1 543 0
 2524              		.cfi_startproc
 2525              		@ args = 0, pretend = 0, frame = 8
 2526              		@ frame_needed = 0, uses_anonymous_args = 0
 2527              	.LVL371:
 2528 0000 30B5     		push	{r4, r5, lr}
 2529              		.cfi_def_cfa_offset 12
 2530              		.cfi_offset 4, -12
 2531              		.cfi_offset 5, -8
 2532              		.cfi_offset 14, -4
 2533 0002 83B0     		sub	sp, sp, #12
 2534              		.cfi_def_cfa_offset 24
 2535 0004 0500     		movs	r5, r0
 2536 0006 0C00     		movs	r4, r1
 548:bme280.c      **** 
 2537              		.loc 1 548 0
 2538 0008 0800     		movs	r0, r1
 2539              	.LVL372:
 2540 000a FFF7FEFF 		bl	null_ptr_check
 2541              	.LVL373:
 550:bme280.c      **** 		rslt = bme280_get_sensor_mode(&last_set_mode, dev);
 2542              		.loc 1 550 0
 2543 000e 0028     		cmp	r0, #0
 2544 0010 14D1     		bne	.L108
 551:bme280.c      **** 		/* If the sensor is not in sleep mode put the device to sleep
 2545              		.loc 1 551 0
 2546 0012 2100     		movs	r1, r4
 2547 0014 6B46     		mov	r3, sp
 2548 0016 D81D     		adds	r0, r3, #7
 2549              	.LVL374:
 2550 0018 FFF7FEFF 		bl	bme280_get_sensor_mode
 2551              	.LVL375:
 554:bme280.c      **** 			rslt = put_device_to_sleep(dev);
 2552              		.loc 1 554 0
 2553 001c 0028     		cmp	r0, #0
 2554 001e 07D1     		bne	.L109
 554:bme280.c      **** 			rslt = put_device_to_sleep(dev);
 2555              		.loc 1 554 0 is_stmt 0 discriminator 1
 2556 0020 6B46     		mov	r3, sp
 2557 0022 0733     		adds	r3, r3, #7
 2558 0024 1B78     		ldrb	r3, [r3]
 2559 0026 002B     		cmp	r3, #0
 2560 0028 02D0     		beq	.L109
 555:bme280.c      **** 		/* Set the power mode */
 2561              		.loc 1 555 0 is_stmt 1
 2562 002a 2000     		movs	r0, r4
 2563              	.LVL376:
 2564 002c FFF7FEFF 		bl	put_device_to_sleep
 2565              	.LVL377:
 2566              	.L109:
 557:bme280.c      **** 			rslt = write_power_mode(sensor_mode, dev);
 2567              		.loc 1 557 0
 2568 0030 0028     		cmp	r0, #0
 2569 0032 03D1     		bne	.L108
 558:bme280.c      **** 	}
 2570              		.loc 1 558 0
ARM GAS  C:\Users\corne\AppData\Local\Temp\cc0fqrF9.s 			page 72


 2571 0034 2100     		movs	r1, r4
 2572 0036 2800     		movs	r0, r5
 2573              	.LVL378:
 2574 0038 FFF7FEFF 		bl	write_power_mode
 2575              	.LVL379:
 2576              	.L108:
 562:bme280.c      **** 
 2577              		.loc 1 562 0
 2578 003c 03B0     		add	sp, sp, #12
 2579              		@ sp needed
 2580              	.LVL380:
 2581 003e 30BD     		pop	{r4, r5, pc}
 2582              		.cfi_endproc
 2583              	.LFE6:
 2584              		.size	bme280_set_sensor_mode, .-bme280_set_sensor_mode
 2585              		.section	.text.bme280_get_sensor_data,"ax",%progbits
 2586              		.align	2
 2587              		.global	bme280_get_sensor_data
 2588              		.code	16
 2589              		.thumb_func
 2590              		.type	bme280_get_sensor_data, %function
 2591              	bme280_get_sensor_data:
 2592              	.LFB9:
 613:bme280.c      **** 	int8_t rslt;
 2593              		.loc 1 613 0
 2594              		.cfi_startproc
 2595              		@ args = 0, pretend = 0, frame = 24
 2596              		@ frame_needed = 0, uses_anonymous_args = 0
 2597              	.LVL381:
 2598 0000 70B5     		push	{r4, r5, r6, lr}
 2599              		.cfi_def_cfa_offset 16
 2600              		.cfi_offset 4, -16
 2601              		.cfi_offset 5, -12
 2602              		.cfi_offset 6, -8
 2603              		.cfi_offset 14, -4
 2604 0002 86B0     		sub	sp, sp, #24
 2605              		.cfi_def_cfa_offset 40
 2606 0004 0600     		movs	r6, r0
 2607 0006 0D00     		movs	r5, r1
 2608 0008 1400     		movs	r4, r2
 617:bme280.c      **** 	 bme280_uncomp_data uncomp_data = {0};
 2609              		.loc 1 617 0
 2610 000a 0822     		movs	r2, #8
 2611              	.LVL382:
 2612 000c 0021     		movs	r1, #0
 2613              	.LVL383:
 2614 000e 04A8     		add	r0, sp, #16
 2615              	.LVL384:
 2616 0010 FFF7FEFF 		bl	memset
 2617              	.LVL385:
 618:bme280.c      **** 
 2618              		.loc 1 618 0
 2619 0014 0C22     		movs	r2, #12
 2620 0016 0021     		movs	r1, #0
 2621 0018 01A8     		add	r0, sp, #4
 2622 001a FFF7FEFF 		bl	memset
 2623              	.LVL386:
ARM GAS  C:\Users\corne\AppData\Local\Temp\cc0fqrF9.s 			page 73


 621:bme280.c      **** 
 2624              		.loc 1 621 0
 2625 001e 2000     		movs	r0, r4
 2626 0020 FFF7FEFF 		bl	null_ptr_check
 2627              	.LVL387:
 623:bme280.c      **** 		/* Read the pressure and temperature data from the sensor */
 2628              		.loc 1 623 0
 2629 0024 0028     		cmp	r0, #0
 2630 0026 15D1     		bne	.L112
 623:bme280.c      **** 		/* Read the pressure and temperature data from the sensor */
 2631              		.loc 1 623 0 is_stmt 0 discriminator 1
 2632 0028 002D     		cmp	r5, #0
 2633 002a 16D0     		beq	.L113
 625:bme280.c      **** 
 2634              		.loc 1 625 0 is_stmt 1
 2635 002c 2300     		movs	r3, r4
 2636 002e 0822     		movs	r2, #8
 2637 0030 04A9     		add	r1, sp, #16
 2638 0032 F730     		adds	r0, r0, #247
 2639              	.LVL388:
 2640 0034 FFF7FEFF 		bl	bme280_get_regs
 2641              	.LVL389:
 627:bme280.c      **** 			/* Parse the read data from the sensor */
 2642              		.loc 1 627 0
 2643 0038 0028     		cmp	r0, #0
 2644 003a 10D1     		bne	.L111
 629:bme280.c      **** 			/* Compensate the pressure and/or temperature and/or
 2645              		.loc 1 629 0
 2646 003c 01A9     		add	r1, sp, #4
 2647 003e 04A8     		add	r0, sp, #16
 2648              	.LVL390:
 2649 0040 FFF7FEFF 		bl	parse_sensor_data
 2650              	.LVL391:
 632:bme280.c      **** 		}
 2651              		.loc 1 632 0
 2652 0044 2300     		movs	r3, r4
 2653 0046 1033     		adds	r3, r3, #16
 2654 0048 2A00     		movs	r2, r5
 2655 004a 01A9     		add	r1, sp, #4
 2656 004c 3000     		movs	r0, r6
 2657 004e FFF7FEFF 		bl	compensate_data
 2658              	.LVL392:
 2659 0052 04E0     		b	.L111
 2660              	.L112:
 635:bme280.c      **** 	}
 2661              		.loc 1 635 0
 2662 0054 0120     		movs	r0, #1
 2663              	.LVL393:
 2664 0056 4042     		rsbs	r0, r0, #0
 2665 0058 01E0     		b	.L111
 2666              	.LVL394:
 2667              	.L113:
 2668 005a 0120     		movs	r0, #1
 2669              	.LVL395:
 2670 005c 4042     		rsbs	r0, r0, #0
 2671              	.L111:
 2672              	.LVL396:
ARM GAS  C:\Users\corne\AppData\Local\Temp\cc0fqrF9.s 			page 74


 639:bme280.c      **** 
 2673              		.loc 1 639 0
 2674 005e 06B0     		add	sp, sp, #24
 2675              		@ sp needed
 2676              	.LVL397:
 2677              	.LVL398:
 2678 0060 70BD     		pop	{r4, r5, r6, pc}
 2679              		.cfi_endproc
 2680              	.LFE9:
 2681              		.size	bme280_get_sensor_data, .-bme280_get_sensor_data
 2682 0062 C046     		.text
 2683              	.Letext0:
 2684              		.file 2 "c:\\program files (x86)\\cypress\\psoc creator\\4.1\\psoc creator\\import\\gnu\\arm\\5.4.
 2685              		.file 3 "c:\\program files (x86)\\cypress\\psoc creator\\4.1\\psoc creator\\import\\gnu\\arm\\5.4.
 2686              		.file 4 "bme280_defs.h"