ARM GAS  C:\Users\corne\AppData\Local\Temp\ccof4EPi.s 			page 1


   1              		.syntax unified
   2              		.cpu cortex-m0
   3              		.fpu softvfp
   4              		.eabi_attribute 20, 1
   5              		.eabi_attribute 21, 1
   6              		.eabi_attribute 23, 3
   7              		.eabi_attribute 24, 1
   8              		.eabi_attribute 25, 1
   9              		.eabi_attribute 26, 1
  10              		.eabi_attribute 30, 1
  11              		.eabi_attribute 34, 0
  12              		.eabi_attribute 18, 4
  13              		.thumb
  14              		.syntax unified
  15              		.file	"cyfitter_cfg.c"
  16              		.text
  17              	.Ltext0:
  18              		.cfi_sections	.debug_frame
  19              		.section	.text.CyClockStartupError,"ax",%progbits
  20              		.align	2
  21              		.code	16
  22              		.thumb_func
  23              		.type	CyClockStartupError, %function
  24              	CyClockStartupError:
  25              	.LFB4:
  26              		.file 1 "Generated_Source\\PSoC4\\cyfitter_cfg.c"
   1:Generated_Source\PSoC4/cyfitter_cfg.c **** 
   2:Generated_Source\PSoC4/cyfitter_cfg.c **** /*******************************************************************************
   3:Generated_Source\PSoC4/cyfitter_cfg.c **** * File Name: cyfitter_cfg.c
   4:Generated_Source\PSoC4/cyfitter_cfg.c **** * 
   5:Generated_Source\PSoC4/cyfitter_cfg.c **** * PSoC Creator  4.1
   6:Generated_Source\PSoC4/cyfitter_cfg.c **** *
   7:Generated_Source\PSoC4/cyfitter_cfg.c **** * Description:
   8:Generated_Source\PSoC4/cyfitter_cfg.c **** * This file contains device initialization code.
   9:Generated_Source\PSoC4/cyfitter_cfg.c **** * Except for the user defined sections in CyClockStartupError(), this file should not be modified.
  10:Generated_Source\PSoC4/cyfitter_cfg.c **** * This file is automatically generated by PSoC Creator.
  11:Generated_Source\PSoC4/cyfitter_cfg.c **** *
  12:Generated_Source\PSoC4/cyfitter_cfg.c **** ********************************************************************************
  13:Generated_Source\PSoC4/cyfitter_cfg.c **** * Copyright (c) 2007-2017 Cypress Semiconductor.  All rights reserved.
  14:Generated_Source\PSoC4/cyfitter_cfg.c **** * You may use this file only in accordance with the license, terms, conditions, 
  15:Generated_Source\PSoC4/cyfitter_cfg.c **** * disclaimers, and limitations in the end user license agreement accompanying 
  16:Generated_Source\PSoC4/cyfitter_cfg.c **** * the software package with which this file was provided.
  17:Generated_Source\PSoC4/cyfitter_cfg.c **** ********************************************************************************/
  18:Generated_Source\PSoC4/cyfitter_cfg.c **** 
  19:Generated_Source\PSoC4/cyfitter_cfg.c **** #include <string.h>
  20:Generated_Source\PSoC4/cyfitter_cfg.c **** #include "cytypes.h"
  21:Generated_Source\PSoC4/cyfitter_cfg.c **** #include "cydevice_trm.h"
  22:Generated_Source\PSoC4/cyfitter_cfg.c **** #include "cyfitter.h"
  23:Generated_Source\PSoC4/cyfitter_cfg.c **** #include "CyLib.h"
  24:Generated_Source\PSoC4/cyfitter_cfg.c **** #include "CyLFClk.h"
  25:Generated_Source\PSoC4/cyfitter_cfg.c **** #include "cyfitter_cfg.h"
  26:Generated_Source\PSoC4/cyfitter_cfg.c **** #include "cyapicallbacks.h"
  27:Generated_Source\PSoC4/cyfitter_cfg.c **** 
  28:Generated_Source\PSoC4/cyfitter_cfg.c **** #define CY_NEED_CYCLOCKSTARTUPERROR 1
  29:Generated_Source\PSoC4/cyfitter_cfg.c **** 
  30:Generated_Source\PSoC4/cyfitter_cfg.c **** 
  31:Generated_Source\PSoC4/cyfitter_cfg.c **** #if defined(__GNUC__) || defined(__ARMCC_VERSION)
ARM GAS  C:\Users\corne\AppData\Local\Temp\ccof4EPi.s 			page 2


  32:Generated_Source\PSoC4/cyfitter_cfg.c ****     #define CYPACKED 
  33:Generated_Source\PSoC4/cyfitter_cfg.c ****     #define CYPACKED_ATTR __attribute__ ((packed))
  34:Generated_Source\PSoC4/cyfitter_cfg.c ****     #define CYALIGNED __attribute__ ((aligned))
  35:Generated_Source\PSoC4/cyfitter_cfg.c ****     #define CY_CFG_UNUSED __attribute__ ((unused))
  36:Generated_Source\PSoC4/cyfitter_cfg.c ****     #ifndef CY_CFG_SECTION
  37:Generated_Source\PSoC4/cyfitter_cfg.c ****         #define CY_CFG_SECTION __attribute__ ((section(".psocinit")))
  38:Generated_Source\PSoC4/cyfitter_cfg.c ****     #endif
  39:Generated_Source\PSoC4/cyfitter_cfg.c ****     
  40:Generated_Source\PSoC4/cyfitter_cfg.c ****     #if defined(__ARMCC_VERSION)
  41:Generated_Source\PSoC4/cyfitter_cfg.c ****         #define CY_CFG_MEMORY_BARRIER() __memory_changed()
  42:Generated_Source\PSoC4/cyfitter_cfg.c ****     #else
  43:Generated_Source\PSoC4/cyfitter_cfg.c ****         #define CY_CFG_MEMORY_BARRIER() __sync_synchronize()
  44:Generated_Source\PSoC4/cyfitter_cfg.c ****     #endif
  45:Generated_Source\PSoC4/cyfitter_cfg.c ****     
  46:Generated_Source\PSoC4/cyfitter_cfg.c **** #elif defined(__ICCARM__)
  47:Generated_Source\PSoC4/cyfitter_cfg.c ****     #include <intrinsics.h>
  48:Generated_Source\PSoC4/cyfitter_cfg.c **** 
  49:Generated_Source\PSoC4/cyfitter_cfg.c ****     #define CYPACKED __packed
  50:Generated_Source\PSoC4/cyfitter_cfg.c ****     #define CYPACKED_ATTR 
  51:Generated_Source\PSoC4/cyfitter_cfg.c ****     #define CYALIGNED _Pragma("data_alignment=4")
  52:Generated_Source\PSoC4/cyfitter_cfg.c ****     #define CY_CFG_UNUSED _Pragma("diag_suppress=Pe177")
  53:Generated_Source\PSoC4/cyfitter_cfg.c ****     #define CY_CFG_SECTION _Pragma("location=\".psocinit\"")
  54:Generated_Source\PSoC4/cyfitter_cfg.c ****     
  55:Generated_Source\PSoC4/cyfitter_cfg.c ****     #define CY_CFG_MEMORY_BARRIER() __DMB()
  56:Generated_Source\PSoC4/cyfitter_cfg.c ****     
  57:Generated_Source\PSoC4/cyfitter_cfg.c **** #else
  58:Generated_Source\PSoC4/cyfitter_cfg.c ****     #error Unsupported toolchain
  59:Generated_Source\PSoC4/cyfitter_cfg.c **** #endif
  60:Generated_Source\PSoC4/cyfitter_cfg.c **** 
  61:Generated_Source\PSoC4/cyfitter_cfg.c **** #ifndef CYCODE
  62:Generated_Source\PSoC4/cyfitter_cfg.c ****     #define CYCODE
  63:Generated_Source\PSoC4/cyfitter_cfg.c **** #endif
  64:Generated_Source\PSoC4/cyfitter_cfg.c **** #ifndef CYDATA
  65:Generated_Source\PSoC4/cyfitter_cfg.c ****     #define CYDATA
  66:Generated_Source\PSoC4/cyfitter_cfg.c **** #endif
  67:Generated_Source\PSoC4/cyfitter_cfg.c **** #ifndef CYFAR
  68:Generated_Source\PSoC4/cyfitter_cfg.c ****     #define CYFAR
  69:Generated_Source\PSoC4/cyfitter_cfg.c **** #endif
  70:Generated_Source\PSoC4/cyfitter_cfg.c **** #ifndef CYXDATA
  71:Generated_Source\PSoC4/cyfitter_cfg.c ****     #define CYXDATA
  72:Generated_Source\PSoC4/cyfitter_cfg.c **** #endif
  73:Generated_Source\PSoC4/cyfitter_cfg.c **** 
  74:Generated_Source\PSoC4/cyfitter_cfg.c **** 
  75:Generated_Source\PSoC4/cyfitter_cfg.c **** CY_CFG_UNUSED
  76:Generated_Source\PSoC4/cyfitter_cfg.c **** static void CYMEMZERO(void *s, size_t n);
  77:Generated_Source\PSoC4/cyfitter_cfg.c **** CY_CFG_UNUSED
  78:Generated_Source\PSoC4/cyfitter_cfg.c **** static void CYMEMZERO(void *s, size_t n)
  79:Generated_Source\PSoC4/cyfitter_cfg.c **** {
  80:Generated_Source\PSoC4/cyfitter_cfg.c **** 	(void)memset(s, 0, n);
  81:Generated_Source\PSoC4/cyfitter_cfg.c **** }
  82:Generated_Source\PSoC4/cyfitter_cfg.c **** CY_CFG_UNUSED
  83:Generated_Source\PSoC4/cyfitter_cfg.c **** static void CYCONFIGCPY(void *dest, const void *src, size_t n);
  84:Generated_Source\PSoC4/cyfitter_cfg.c **** CY_CFG_UNUSED
  85:Generated_Source\PSoC4/cyfitter_cfg.c **** static void CYCONFIGCPY(void *dest, const void *src, size_t n)
  86:Generated_Source\PSoC4/cyfitter_cfg.c **** {
  87:Generated_Source\PSoC4/cyfitter_cfg.c **** 	(void)memcpy(dest, src, n);
  88:Generated_Source\PSoC4/cyfitter_cfg.c **** }
ARM GAS  C:\Users\corne\AppData\Local\Temp\ccof4EPi.s 			page 3


  89:Generated_Source\PSoC4/cyfitter_cfg.c **** CY_CFG_UNUSED
  90:Generated_Source\PSoC4/cyfitter_cfg.c **** static void CYCONFIGCPYCODE(void *dest, const void *src, size_t n);
  91:Generated_Source\PSoC4/cyfitter_cfg.c **** CY_CFG_UNUSED
  92:Generated_Source\PSoC4/cyfitter_cfg.c **** static void CYCONFIGCPYCODE(void *dest, const void *src, size_t n)
  93:Generated_Source\PSoC4/cyfitter_cfg.c **** {
  94:Generated_Source\PSoC4/cyfitter_cfg.c **** 	(void)memcpy(dest, src, n);
  95:Generated_Source\PSoC4/cyfitter_cfg.c **** }
  96:Generated_Source\PSoC4/cyfitter_cfg.c **** 
  97:Generated_Source\PSoC4/cyfitter_cfg.c **** 
  98:Generated_Source\PSoC4/cyfitter_cfg.c **** 
  99:Generated_Source\PSoC4/cyfitter_cfg.c **** 
 100:Generated_Source\PSoC4/cyfitter_cfg.c **** /* Clock startup error codes                                                   */
 101:Generated_Source\PSoC4/cyfitter_cfg.c **** #define CYCLOCKSTART_NO_ERROR    0u
 102:Generated_Source\PSoC4/cyfitter_cfg.c **** #define CYCLOCKSTART_XTAL_ERROR  1u
 103:Generated_Source\PSoC4/cyfitter_cfg.c **** #define CYCLOCKSTART_32KHZ_ERROR 2u
 104:Generated_Source\PSoC4/cyfitter_cfg.c **** #define CYCLOCKSTART_PLL_ERROR   3u
 105:Generated_Source\PSoC4/cyfitter_cfg.c **** #define CYCLOCKSTART_FLL_ERROR   4u
 106:Generated_Source\PSoC4/cyfitter_cfg.c **** 
 107:Generated_Source\PSoC4/cyfitter_cfg.c **** 
 108:Generated_Source\PSoC4/cyfitter_cfg.c **** #ifdef CY_NEED_CYCLOCKSTARTUPERROR
 109:Generated_Source\PSoC4/cyfitter_cfg.c **** /*******************************************************************************
 110:Generated_Source\PSoC4/cyfitter_cfg.c **** * Function Name: CyClockStartupError
 111:Generated_Source\PSoC4/cyfitter_cfg.c **** ********************************************************************************
 112:Generated_Source\PSoC4/cyfitter_cfg.c **** * Summary:
 113:Generated_Source\PSoC4/cyfitter_cfg.c **** *  If an error is encountered during clock configuration (crystal startup error,
 114:Generated_Source\PSoC4/cyfitter_cfg.c **** *  PLL lock error, etc.), the system will end up here.  Unless reimplemented by
 115:Generated_Source\PSoC4/cyfitter_cfg.c **** *  the customer, this function will stop in an infinite loop.
 116:Generated_Source\PSoC4/cyfitter_cfg.c **** *
 117:Generated_Source\PSoC4/cyfitter_cfg.c **** * Parameters:
 118:Generated_Source\PSoC4/cyfitter_cfg.c **** *   void
 119:Generated_Source\PSoC4/cyfitter_cfg.c **** *
 120:Generated_Source\PSoC4/cyfitter_cfg.c **** * Return:
 121:Generated_Source\PSoC4/cyfitter_cfg.c **** *   void
 122:Generated_Source\PSoC4/cyfitter_cfg.c **** *
 123:Generated_Source\PSoC4/cyfitter_cfg.c **** *******************************************************************************/
 124:Generated_Source\PSoC4/cyfitter_cfg.c **** CY_CFG_UNUSED
 125:Generated_Source\PSoC4/cyfitter_cfg.c **** static void CyClockStartupError(uint8 errorCode);
 126:Generated_Source\PSoC4/cyfitter_cfg.c **** CY_CFG_UNUSED
 127:Generated_Source\PSoC4/cyfitter_cfg.c **** static void CyClockStartupError(uint8 errorCode)
 128:Generated_Source\PSoC4/cyfitter_cfg.c **** {
  27              		.loc 1 128 0
  28              		.cfi_startproc
  29              		@ Volatile: function does not return.
  30              		@ args = 0, pretend = 0, frame = 0
  31              		@ frame_needed = 0, uses_anonymous_args = 0
  32              		@ link register save eliminated.
  33              	.LVL0:
  34              	.L2:
  35 0000 FEE7     		b	.L2
  36              		.cfi_endproc
  37              	.LFE4:
  38              		.size	CyClockStartupError, .-CyClockStartupError
  39 0002 C046     		.section	.text.cfg_write_bytes32,"ax",%progbits
  40              		.align	2
  41              		.code	16
  42              		.thumb_func
  43              		.type	cfg_write_bytes32, %function
ARM GAS  C:\Users\corne\AppData\Local\Temp\ccof4EPi.s 			page 4


  44              	cfg_write_bytes32:
  45              	.LFB5:
 129:Generated_Source\PSoC4/cyfitter_cfg.c ****     /* To remove the compiler warning if errorCode not used. */
 130:Generated_Source\PSoC4/cyfitter_cfg.c **** #if defined(CY_PSOC3) && (CY_PSOC3)
 131:Generated_Source\PSoC4/cyfitter_cfg.c ****     errorCode = errorCode;
 132:Generated_Source\PSoC4/cyfitter_cfg.c **** #else
 133:Generated_Source\PSoC4/cyfitter_cfg.c ****     (void)errorCode;
 134:Generated_Source\PSoC4/cyfitter_cfg.c **** #endif /* CY_PSOC3 */
 135:Generated_Source\PSoC4/cyfitter_cfg.c **** 
 136:Generated_Source\PSoC4/cyfitter_cfg.c ****     /* If we have a clock startup error (bad MHz crystal, PLL lock, etc.),  */
 137:Generated_Source\PSoC4/cyfitter_cfg.c ****     /* we will end up here to allow the customer to implement something to  */
 138:Generated_Source\PSoC4/cyfitter_cfg.c ****     /* deal with the clock condition.                                       */
 139:Generated_Source\PSoC4/cyfitter_cfg.c **** 
 140:Generated_Source\PSoC4/cyfitter_cfg.c **** #ifdef CY_CFG_CLOCK_STARTUP_ERROR_CALLBACK
 141:Generated_Source\PSoC4/cyfitter_cfg.c ****     CY_CFG_Clock_Startup_ErrorCallback();
 142:Generated_Source\PSoC4/cyfitter_cfg.c **** #else
 143:Generated_Source\PSoC4/cyfitter_cfg.c ****     /*  If not using CY_CFG_CLOCK_STARTUP_ERROR_CALLBACK, place your clock startup code here. */
 144:Generated_Source\PSoC4/cyfitter_cfg.c ****     /* `#START CyClockStartupError` */
 145:Generated_Source\PSoC4/cyfitter_cfg.c **** 
 146:Generated_Source\PSoC4/cyfitter_cfg.c **** 
 147:Generated_Source\PSoC4/cyfitter_cfg.c **** 
 148:Generated_Source\PSoC4/cyfitter_cfg.c ****     /* `#END` */
 149:Generated_Source\PSoC4/cyfitter_cfg.c **** 
 150:Generated_Source\PSoC4/cyfitter_cfg.c ****     while(1) {}
 151:Generated_Source\PSoC4/cyfitter_cfg.c **** #endif /* CY_CFG_CLOCK_STARTUP_ERROR_CALLBACK */
 152:Generated_Source\PSoC4/cyfitter_cfg.c **** }
 153:Generated_Source\PSoC4/cyfitter_cfg.c **** #endif
 154:Generated_Source\PSoC4/cyfitter_cfg.c **** 
 155:Generated_Source\PSoC4/cyfitter_cfg.c **** #define CY_CFG_BASE_ADDR_COUNT 15u
 156:Generated_Source\PSoC4/cyfitter_cfg.c **** CYPACKED typedef struct
 157:Generated_Source\PSoC4/cyfitter_cfg.c **** {
 158:Generated_Source\PSoC4/cyfitter_cfg.c **** 	uint8 offset;
 159:Generated_Source\PSoC4/cyfitter_cfg.c **** 	uint8 value;
 160:Generated_Source\PSoC4/cyfitter_cfg.c **** } CYPACKED_ATTR cy_cfg_addrvalue_t;
 161:Generated_Source\PSoC4/cyfitter_cfg.c **** 
 162:Generated_Source\PSoC4/cyfitter_cfg.c **** 
 163:Generated_Source\PSoC4/cyfitter_cfg.c **** 
 164:Generated_Source\PSoC4/cyfitter_cfg.c **** /*******************************************************************************
 165:Generated_Source\PSoC4/cyfitter_cfg.c **** * Function Name: cfg_write_bytes32
 166:Generated_Source\PSoC4/cyfitter_cfg.c **** ********************************************************************************
 167:Generated_Source\PSoC4/cyfitter_cfg.c **** * Summary:
 168:Generated_Source\PSoC4/cyfitter_cfg.c **** *  This function is used for setting up the chip configuration areas that
 169:Generated_Source\PSoC4/cyfitter_cfg.c **** *  contain relatively sparse data.
 170:Generated_Source\PSoC4/cyfitter_cfg.c **** *
 171:Generated_Source\PSoC4/cyfitter_cfg.c **** * Parameters:
 172:Generated_Source\PSoC4/cyfitter_cfg.c **** *   void
 173:Generated_Source\PSoC4/cyfitter_cfg.c **** *
 174:Generated_Source\PSoC4/cyfitter_cfg.c **** * Return:
 175:Generated_Source\PSoC4/cyfitter_cfg.c **** *   void
 176:Generated_Source\PSoC4/cyfitter_cfg.c **** *
 177:Generated_Source\PSoC4/cyfitter_cfg.c **** *******************************************************************************/
 178:Generated_Source\PSoC4/cyfitter_cfg.c **** static void cfg_write_bytes32(const uint32 addr_table[], const cy_cfg_addrvalue_t data_table[]);
 179:Generated_Source\PSoC4/cyfitter_cfg.c **** static void cfg_write_bytes32(const uint32 addr_table[], const cy_cfg_addrvalue_t data_table[])
 180:Generated_Source\PSoC4/cyfitter_cfg.c **** {
  46              		.loc 1 180 0
  47              		.cfi_startproc
  48              		@ args = 0, pretend = 0, frame = 0
ARM GAS  C:\Users\corne\AppData\Local\Temp\ccof4EPi.s 			page 5


  49              		@ frame_needed = 0, uses_anonymous_args = 0
  50              	.LVL1:
  51              		.loc 1 180 0
  52 0000 F0B5     		push	{r4, r5, r6, r7, lr}
  53              		.cfi_def_cfa_offset 20
  54              		.cfi_offset 4, -20
  55              		.cfi_offset 5, -16
  56              		.cfi_offset 6, -12
  57              		.cfi_offset 7, -8
  58              		.cfi_offset 14, -4
  59              	.LVL2:
 181:Generated_Source\PSoC4/cyfitter_cfg.c **** 	/* For 32-bit little-endian architectures */
 182:Generated_Source\PSoC4/cyfitter_cfg.c **** 	uint32 i, j = 0u;
  60              		.loc 1 182 0
  61 0002 0025     		movs	r5, #0
 183:Generated_Source\PSoC4/cyfitter_cfg.c **** 	for (i = 0u; i < CY_CFG_BASE_ADDR_COUNT; i++)
  62              		.loc 1 183 0
  63 0004 0027     		movs	r7, #0
  64 0006 11E0     		b	.L4
  65              	.LVL3:
  66              	.L7:
  67              	.LBB2:
 184:Generated_Source\PSoC4/cyfitter_cfg.c **** 	{
 185:Generated_Source\PSoC4/cyfitter_cfg.c **** 		uint32 baseAddr = addr_table[i];
  68              		.loc 1 185 0
  69 0008 BB00     		lsls	r3, r7, #2
  70 000a C658     		ldr	r6, [r0, r3]
  71              	.LVL4:
 186:Generated_Source\PSoC4/cyfitter_cfg.c **** 		uint8 count = (uint8)baseAddr;
  72              		.loc 1 186 0
  73 000c F3B2     		uxtb	r3, r6
  74              	.LVL5:
 187:Generated_Source\PSoC4/cyfitter_cfg.c **** 		baseAddr &= 0xFFFFFF00u;
  75              		.loc 1 187 0
  76 000e FF22     		movs	r2, #255
  77 0010 9643     		bics	r6, r2
  78              	.LVL6:
 188:Generated_Source\PSoC4/cyfitter_cfg.c **** 		while (count != 0u)
  79              		.loc 1 188 0
  80 0012 08E0     		b	.L5
  81              	.L6:
 189:Generated_Source\PSoC4/cyfitter_cfg.c **** 		{
 190:Generated_Source\PSoC4/cyfitter_cfg.c **** 			CY_SET_REG8((void *)(baseAddr + data_table[j].offset), data_table[j].value);
  82              		.loc 1 190 0
  83 0014 6A00     		lsls	r2, r5, #1
  84 0016 8A18     		adds	r2, r1, r2
  85 0018 1478     		ldrb	r4, [r2]
  86 001a A419     		adds	r4, r4, r6
  87 001c 5278     		ldrb	r2, [r2, #1]
  88 001e 2270     		strb	r2, [r4]
 191:Generated_Source\PSoC4/cyfitter_cfg.c **** 			j++;
  89              		.loc 1 191 0
  90 0020 0135     		adds	r5, r5, #1
  91              	.LVL7:
 192:Generated_Source\PSoC4/cyfitter_cfg.c **** 			count--;
  92              		.loc 1 192 0
  93 0022 013B     		subs	r3, r3, #1
ARM GAS  C:\Users\corne\AppData\Local\Temp\ccof4EPi.s 			page 6


  94              	.LVL8:
  95 0024 DBB2     		uxtb	r3, r3
  96              	.LVL9:
  97              	.L5:
 188:Generated_Source\PSoC4/cyfitter_cfg.c **** 		{
  98              		.loc 1 188 0
  99 0026 002B     		cmp	r3, #0
 100 0028 F4D1     		bne	.L6
 101              	.LBE2:
 183:Generated_Source\PSoC4/cyfitter_cfg.c **** 	{
 102              		.loc 1 183 0 discriminator 2
 103 002a 0137     		adds	r7, r7, #1
 104              	.LVL10:
 105              	.L4:
 183:Generated_Source\PSoC4/cyfitter_cfg.c **** 	{
 106              		.loc 1 183 0 is_stmt 0 discriminator 1
 107 002c 0E2F     		cmp	r7, #14
 108 002e EBD9     		bls	.L7
 193:Generated_Source\PSoC4/cyfitter_cfg.c **** 		}
 194:Generated_Source\PSoC4/cyfitter_cfg.c **** 	}
 195:Generated_Source\PSoC4/cyfitter_cfg.c **** }
 109              		.loc 1 195 0 is_stmt 1
 110              		@ sp needed
 111              	.LVL11:
 112              	.LVL12:
 113 0030 F0BD     		pop	{r4, r5, r6, r7, pc}
 114              		.cfi_endproc
 115              	.LFE5:
 116              		.size	cfg_write_bytes32, .-cfg_write_bytes32
 117 0032 C046     		.section	.text.CYMEMZERO,"ax",%progbits
 118              		.align	2
 119              		.code	16
 120              		.thumb_func
 121              		.type	CYMEMZERO, %function
 122              	CYMEMZERO:
 123              	.LFB1:
  79:Generated_Source\PSoC4/cyfitter_cfg.c **** 	(void)memset(s, 0, n);
 124              		.loc 1 79 0
 125              		.cfi_startproc
 126              		@ args = 0, pretend = 0, frame = 0
 127              		@ frame_needed = 0, uses_anonymous_args = 0
 128              	.LVL13:
 129 0000 10B5     		push	{r4, lr}
 130              		.cfi_def_cfa_offset 8
 131              		.cfi_offset 4, -8
 132              		.cfi_offset 14, -4
 133 0002 0A00     		movs	r2, r1
  80:Generated_Source\PSoC4/cyfitter_cfg.c **** }
 134              		.loc 1 80 0
 135 0004 0021     		movs	r1, #0
 136              	.LVL14:
 137 0006 FFF7FEFF 		bl	memset
 138              	.LVL15:
  81:Generated_Source\PSoC4/cyfitter_cfg.c **** CY_CFG_UNUSED
 139              		.loc 1 81 0
 140              		@ sp needed
 141 000a 10BD     		pop	{r4, pc}
ARM GAS  C:\Users\corne\AppData\Local\Temp\ccof4EPi.s 			page 7


 142              		.cfi_endproc
 143              	.LFE1:
 144              		.size	CYMEMZERO, .-CYMEMZERO
 145              		.section	.text.CYCONFIGCPYCODE,"ax",%progbits
 146              		.align	2
 147              		.code	16
 148              		.thumb_func
 149              		.type	CYCONFIGCPYCODE, %function
 150              	CYCONFIGCPYCODE:
 151              	.LFB3:
  93:Generated_Source\PSoC4/cyfitter_cfg.c **** 	(void)memcpy(dest, src, n);
 152              		.loc 1 93 0
 153              		.cfi_startproc
 154              		@ args = 0, pretend = 0, frame = 0
 155              		@ frame_needed = 0, uses_anonymous_args = 0
 156              	.LVL16:
 157 0000 10B5     		push	{r4, lr}
 158              		.cfi_def_cfa_offset 8
 159              		.cfi_offset 4, -8
 160              		.cfi_offset 14, -4
  94:Generated_Source\PSoC4/cyfitter_cfg.c **** }
 161              		.loc 1 94 0
 162 0002 FFF7FEFF 		bl	memcpy
 163              	.LVL17:
  95:Generated_Source\PSoC4/cyfitter_cfg.c **** 
 164              		.loc 1 95 0
 165              		@ sp needed
 166 0006 10BD     		pop	{r4, pc}
 167              		.cfi_endproc
 168              	.LFE3:
 169              		.size	CYCONFIGCPYCODE, .-CYCONFIGCPYCODE
 170              		.section	.psocinit,"ax",%progbits
 171              		.align	2
 172              		.code	16
 173              		.thumb_func
 174              		.type	ClockSetup, %function
 175              	ClockSetup:
 176              	.LFB6:
 196:Generated_Source\PSoC4/cyfitter_cfg.c **** 
 197:Generated_Source\PSoC4/cyfitter_cfg.c **** 
 198:Generated_Source\PSoC4/cyfitter_cfg.c **** /*******************************************************************************
 199:Generated_Source\PSoC4/cyfitter_cfg.c **** * Function Name: ClockSetup
 200:Generated_Source\PSoC4/cyfitter_cfg.c **** ********************************************************************************
 201:Generated_Source\PSoC4/cyfitter_cfg.c **** *
 202:Generated_Source\PSoC4/cyfitter_cfg.c **** * Summary:
 203:Generated_Source\PSoC4/cyfitter_cfg.c **** *   Performs the initialization of all of the clocks in the device based on the
 204:Generated_Source\PSoC4/cyfitter_cfg.c **** *   settings in the Clock tab of the DWR.  This includes enabling the requested
 205:Generated_Source\PSoC4/cyfitter_cfg.c **** *   clocks and setting the necessary dividers to produce the desired frequency. 
 206:Generated_Source\PSoC4/cyfitter_cfg.c **** *
 207:Generated_Source\PSoC4/cyfitter_cfg.c **** * Parameters:
 208:Generated_Source\PSoC4/cyfitter_cfg.c **** *   void
 209:Generated_Source\PSoC4/cyfitter_cfg.c **** *
 210:Generated_Source\PSoC4/cyfitter_cfg.c **** * Return:
 211:Generated_Source\PSoC4/cyfitter_cfg.c **** *   void
 212:Generated_Source\PSoC4/cyfitter_cfg.c **** *
 213:Generated_Source\PSoC4/cyfitter_cfg.c **** *******************************************************************************/
 214:Generated_Source\PSoC4/cyfitter_cfg.c **** static void ClockSetup(void);
ARM GAS  C:\Users\corne\AppData\Local\Temp\ccof4EPi.s 			page 8


 215:Generated_Source\PSoC4/cyfitter_cfg.c **** CY_CFG_SECTION
 216:Generated_Source\PSoC4/cyfitter_cfg.c **** static void ClockSetup(void)
 217:Generated_Source\PSoC4/cyfitter_cfg.c **** {
 177              		.loc 1 217 0
 178              		.cfi_startproc
 179              		@ args = 0, pretend = 0, frame = 0
 180              		@ frame_needed = 0, uses_anonymous_args = 0
 181 0000 10B5     		push	{r4, lr}
 182              		.cfi_def_cfa_offset 8
 183              		.cfi_offset 4, -8
 184              		.cfi_offset 14, -4
 218:Generated_Source\PSoC4/cyfitter_cfg.c **** 	uint8 ecoStatus;
 219:Generated_Source\PSoC4/cyfitter_cfg.c **** 	uint8 pllTimeout;
 220:Generated_Source\PSoC4/cyfitter_cfg.c **** 
 221:Generated_Source\PSoC4/cyfitter_cfg.c **** 	/* Set Flash Cycles based on max possible frequency in case a glitch occurs during ClockSetup(). *
 222:Generated_Source\PSoC4/cyfitter_cfg.c **** 	CY_SET_REG32((void CYXDATA *)(CYREG_CPUSS_FLASH_CTL), (0x0012u));
 185              		.loc 1 222 0
 186 0002 1222     		movs	r2, #18
 187 0004 564B     		ldr	r3, .L17
 188 0006 1A60     		str	r2, [r3]
 223:Generated_Source\PSoC4/cyfitter_cfg.c **** 
 224:Generated_Source\PSoC4/cyfitter_cfg.c **** 	/* Start the WCO */
 225:Generated_Source\PSoC4/cyfitter_cfg.c **** 	CySysClkWcoStart();
 189              		.loc 1 225 0
 190 0008 FFF7FEFF 		bl	CySysClkWcoStart
 191              	.LVL18:
 226:Generated_Source\PSoC4/cyfitter_cfg.c **** 	CyDelayCycles(12000000u); /* WCO may take up to 500ms to start */
 192              		.loc 1 226 0
 193 000c 5548     		ldr	r0, .L17+4
 194 000e FFF7FEFF 		bl	CyDelayCycles
 195              	.LVL19:
 227:Generated_Source\PSoC4/cyfitter_cfg.c **** 
 228:Generated_Source\PSoC4/cyfitter_cfg.c **** 	/* Setup and trim IMO based on desired frequency. */
 229:Generated_Source\PSoC4/cyfitter_cfg.c **** 	CySysClkWriteImoFreq(48u);
 196              		.loc 1 229 0
 197 0012 3020     		movs	r0, #48
 198 0014 FFF7FEFF 		bl	CySysClkWriteImoFreq
 199              	.LVL20:
 230:Generated_Source\PSoC4/cyfitter_cfg.c **** 	/* CYDEV_CLK_ILO_CONFIG Starting address: CYDEV_CLK_ILO_CONFIG */
 231:Generated_Source\PSoC4/cyfitter_cfg.c **** 	CY_SET_REG32((void *)(CYREG_CLK_ILO_CONFIG), 0x80000006u);
 200              		.loc 1 231 0
 201 0018 534A     		ldr	r2, .L17+8
 202 001a 544B     		ldr	r3, .L17+12
 203 001c 1A60     		str	r2, [r3]
 232:Generated_Source\PSoC4/cyfitter_cfg.c **** 
 233:Generated_Source\PSoC4/cyfitter_cfg.c **** 	/* CYDEV_WDT_CONFIG Starting address: CYDEV_WDT_CONFIG */
 234:Generated_Source\PSoC4/cyfitter_cfg.c **** 	CY_SET_REG32((void *)(CYREG_WDT_CONFIG), 0x40000000u);
 204              		.loc 1 234 0
 205 001e 8022     		movs	r2, #128
 206 0020 D205     		lsls	r2, r2, #23
 207 0022 534B     		ldr	r3, .L17+16
 208 0024 1A60     		str	r2, [r3]
 235:Generated_Source\PSoC4/cyfitter_cfg.c **** 
 236:Generated_Source\PSoC4/cyfitter_cfg.c **** 
 237:Generated_Source\PSoC4/cyfitter_cfg.c **** 	/* Configure ECO trim */
 238:Generated_Source\PSoC4/cyfitter_cfg.c **** 	CY_SET_REG32((void CYXDATA *)(CYREG_CLK_ECO_CONFIG), (0x00000002u));
 209              		.loc 1 238 0
ARM GAS  C:\Users\corne\AppData\Local\Temp\ccof4EPi.s 			page 9


 210 0026 0222     		movs	r2, #2
 211 0028 524B     		ldr	r3, .L17+20
 212 002a 1A60     		str	r2, [r3]
 239:Generated_Source\PSoC4/cyfitter_cfg.c **** 	CY_SET_REG32((void CYXDATA *)(CYREG_CLK_ECO_TRIM0), (0x00000009u));
 213              		.loc 1 239 0
 214 002c 0732     		adds	r2, r2, #7
 215 002e 524B     		ldr	r3, .L17+24
 216 0030 1A60     		str	r2, [r3]
 240:Generated_Source\PSoC4/cyfitter_cfg.c **** 	CY_SET_REG32((void CYXDATA *)(CYREG_CLK_ECO_TRIM1), (0x0000000Au));
 217              		.loc 1 240 0
 218 0032 0132     		adds	r2, r2, #1
 219 0034 514B     		ldr	r3, .L17+28
 220 0036 1A60     		str	r2, [r3]
 241:Generated_Source\PSoC4/cyfitter_cfg.c **** 	/* Start the ECO and check status since it is needed for HFCLK */
 242:Generated_Source\PSoC4/cyfitter_cfg.c **** 	ecoStatus = CySysClkEcoStart(2000u);
 221              		.loc 1 242 0
 222 0038 FA20     		movs	r0, #250
 223 003a C000     		lsls	r0, r0, #3
 224 003c FFF7FEFF 		bl	CySysClkEcoStart
 225              	.LVL21:
 226 0040 C0B2     		uxtb	r0, r0
 227              	.LVL22:
 243:Generated_Source\PSoC4/cyfitter_cfg.c **** 	if (ecoStatus != CYRET_SUCCESS)
 228              		.loc 1 243 0
 229 0042 0028     		cmp	r0, #0
 230 0044 02D0     		beq	.L11
 244:Generated_Source\PSoC4/cyfitter_cfg.c **** 	{
 245:Generated_Source\PSoC4/cyfitter_cfg.c **** 		CyClockStartupError(CYCLOCKSTART_XTAL_ERROR);
 231              		.loc 1 245 0
 232 0046 0120     		movs	r0, #1
 233              	.LVL23:
 234 0048 FFF7FEFF 		bl	CyClockStartupError
 235              	.LVL24:
 236              	.L11:
 246:Generated_Source\PSoC4/cyfitter_cfg.c **** 	}
 247:Generated_Source\PSoC4/cyfitter_cfg.c **** 	CyDelayUs(1500u); /* Wait to stabilize */
 237              		.loc 1 247 0
 238 004c 4C48     		ldr	r0, .L17+32
 239              	.LVL25:
 240 004e FFF7FEFF 		bl	CyDelayUs
 241              	.LVL26:
 248:Generated_Source\PSoC4/cyfitter_cfg.c **** 	CY_SET_REG32(CYREG_CLK_SELECT, ((CY_GET_REG32(CYREG_CLK_SELECT) & 0xFFFFFE07u) | 0x00000010u));
 242              		.loc 1 248 0
 243 0052 4C49     		ldr	r1, .L17+36
 244 0054 0A68     		ldr	r2, [r1]
 245 0056 4C4B     		ldr	r3, .L17+40
 246 0058 1340     		ands	r3, r2
 247 005a 1022     		movs	r2, #16
 248 005c 1343     		orrs	r3, r2
 249 005e 0B60     		str	r3, [r1]
 249:Generated_Source\PSoC4/cyfitter_cfg.c **** 	CY_SET_REG32(CYREG_CLK_PLL1_CONFIG, 0x80020710u);
 250              		.loc 1 249 0
 251 0060 4A4C     		ldr	r4, .L17+44
 252 0062 4B4B     		ldr	r3, .L17+48
 253 0064 2360     		str	r3, [r4]
 250:Generated_Source\PSoC4/cyfitter_cfg.c **** 	CyDelayCycles(240u);
 254              		.loc 1 250 0
ARM GAS  C:\Users\corne\AppData\Local\Temp\ccof4EPi.s 			page 10


 255 0066 F020     		movs	r0, #240
 256 0068 FFF7FEFF 		bl	CyDelayCycles
 257              	.LVL27:
 251:Generated_Source\PSoC4/cyfitter_cfg.c **** 	CY_SET_REG32(CYREG_CLK_PLL1_CONFIG, 0xC0020710u);
 258              		.loc 1 251 0
 259 006c 494B     		ldr	r3, .L17+52
 260 006e 2360     		str	r3, [r4]
 261              	.LVL28:
 252:Generated_Source\PSoC4/cyfitter_cfg.c **** 	for (pllTimeout = 0u; (pllTimeout < 25u) && (CY_GET_REG32(CYREG_CLK_PLL1_STATUS) == 0u); pllTimeou
 262              		.loc 1 252 0
 263 0070 0024     		movs	r4, #0
 264 0072 05E0     		b	.L12
 265              	.LVL29:
 266              	.L14:
 253:Generated_Source\PSoC4/cyfitter_cfg.c **** 	{
 254:Generated_Source\PSoC4/cyfitter_cfg.c **** 		CyDelayCycles(480u);
 267              		.loc 1 254 0 discriminator 4
 268 0074 F020     		movs	r0, #240
 269 0076 4000     		lsls	r0, r0, #1
 270 0078 FFF7FEFF 		bl	CyDelayCycles
 271              	.LVL30:
 252:Generated_Source\PSoC4/cyfitter_cfg.c **** 	for (pllTimeout = 0u; (pllTimeout < 25u) && (CY_GET_REG32(CYREG_CLK_PLL1_STATUS) == 0u); pllTimeou
 272              		.loc 1 252 0 discriminator 4
 273 007c 0134     		adds	r4, r4, #1
 274              	.LVL31:
 275 007e E4B2     		uxtb	r4, r4
 276              	.LVL32:
 277              	.L12:
 252:Generated_Source\PSoC4/cyfitter_cfg.c **** 	for (pllTimeout = 0u; (pllTimeout < 25u) && (CY_GET_REG32(CYREG_CLK_PLL1_STATUS) == 0u); pllTimeou
 278              		.loc 1 252 0 is_stmt 0 discriminator 1
 279 0080 182C     		cmp	r4, #24
 280 0082 03D8     		bhi	.L13
 252:Generated_Source\PSoC4/cyfitter_cfg.c **** 	for (pllTimeout = 0u; (pllTimeout < 25u) && (CY_GET_REG32(CYREG_CLK_PLL1_STATUS) == 0u); pllTimeou
 281              		.loc 1 252 0 discriminator 3
 282 0084 444B     		ldr	r3, .L17+56
 283 0086 1B68     		ldr	r3, [r3]
 284 0088 002B     		cmp	r3, #0
 285 008a F3D0     		beq	.L14
 286              	.L13:
 255:Generated_Source\PSoC4/cyfitter_cfg.c **** 	}
 256:Generated_Source\PSoC4/cyfitter_cfg.c **** 	if (CY_GET_REG32(CYREG_CLK_PLL1_STATUS) == 0u)
 287              		.loc 1 256 0 is_stmt 1
 288 008c 424B     		ldr	r3, .L17+56
 289 008e 1B68     		ldr	r3, [r3]
 290 0090 002B     		cmp	r3, #0
 291 0092 02D1     		bne	.L15
 257:Generated_Source\PSoC4/cyfitter_cfg.c **** 	{
 258:Generated_Source\PSoC4/cyfitter_cfg.c **** 		CyClockStartupError(CYCLOCKSTART_PLL_ERROR);
 292              		.loc 1 258 0
 293 0094 0320     		movs	r0, #3
 294 0096 FFF7FEFF 		bl	CyClockStartupError
 295              	.LVL33:
 296              	.L15:
 259:Generated_Source\PSoC4/cyfitter_cfg.c **** 	}
 260:Generated_Source\PSoC4/cyfitter_cfg.c **** 
 261:Generated_Source\PSoC4/cyfitter_cfg.c **** 	/* Setup phase aligned clocks */
 262:Generated_Source\PSoC4/cyfitter_cfg.c **** 	CY_SET_REG32((void *)CYREG_PERI_DIV_16_CTL4, 0x00007700u);
ARM GAS  C:\Users\corne\AppData\Local\Temp\ccof4EPi.s 			page 11


 297              		.loc 1 262 0
 298 009a EE22     		movs	r2, #238
 299 009c D201     		lsls	r2, r2, #7
 300 009e 3F4B     		ldr	r3, .L17+60
 301 00a0 1A60     		str	r2, [r3]
 263:Generated_Source\PSoC4/cyfitter_cfg.c **** 	CY_SET_REG32((void *)CYREG_PERI_DIV_CMD, 0x8000FF44u);
 302              		.loc 1 263 0
 303 00a2 3F4B     		ldr	r3, .L17+64
 304 00a4 3F4A     		ldr	r2, .L17+68
 305 00a6 1A60     		str	r2, [r3]
 264:Generated_Source\PSoC4/cyfitter_cfg.c **** 	CY_SET_REG32((void *)CYREG_PERI_DIV_24_5_CTL, 0xFFFFFF00u);
 306              		.loc 1 264 0
 307 00a8 3F49     		ldr	r1, .L17+72
 308 00aa 404A     		ldr	r2, .L17+76
 309 00ac 1160     		str	r1, [r2]
 265:Generated_Source\PSoC4/cyfitter_cfg.c **** 	CY_SET_REG32((void *)CYREG_PERI_DIV_CMD, 0x8000FFC0u);
 310              		.loc 1 265 0
 311 00ae 404A     		ldr	r2, .L17+80
 312 00b0 1A60     		str	r2, [r3]
 266:Generated_Source\PSoC4/cyfitter_cfg.c **** 	CY_SET_REG32((void *)CYREG_PERI_DIV_16_CTL6, 0x00BB7F00u);
 313              		.loc 1 266 0
 314 00b2 404A     		ldr	r2, .L17+84
 315 00b4 4049     		ldr	r1, .L17+88
 316 00b6 0A60     		str	r2, [r1]
 267:Generated_Source\PSoC4/cyfitter_cfg.c **** 	CY_SET_REG32((void *)CYREG_PERI_DIV_CMD, 0x8000FF46u);
 317              		.loc 1 267 0
 318 00b8 4049     		ldr	r1, .L17+92
 319 00ba 1960     		str	r1, [r3]
 268:Generated_Source\PSoC4/cyfitter_cfg.c **** 	CY_SET_REG32((void *)CYREG_PERI_DIV_16_CTL5, 0x00BB7F00u);
 320              		.loc 1 268 0
 321 00bc 4049     		ldr	r1, .L17+96
 322 00be 0A60     		str	r2, [r1]
 269:Generated_Source\PSoC4/cyfitter_cfg.c **** 	CY_SET_REG32((void *)CYREG_PERI_DIV_CMD, 0x8000FF45u);
 323              		.loc 1 269 0
 324 00c0 404A     		ldr	r2, .L17+100
 325 00c2 1A60     		str	r2, [r3]
 270:Generated_Source\PSoC4/cyfitter_cfg.c **** 	CY_SET_REG32((void *)CYREG_PERI_DIV_16_CTL3, 0x00002F00u);
 326              		.loc 1 270 0
 327 00c4 BC21     		movs	r1, #188
 328 00c6 8901     		lsls	r1, r1, #6
 329 00c8 3F4A     		ldr	r2, .L17+104
 330 00ca 1160     		str	r1, [r2]
 271:Generated_Source\PSoC4/cyfitter_cfg.c **** 	CY_SET_REG32((void *)CYREG_PERI_DIV_CMD, 0x8000FF43u);
 331              		.loc 1 271 0
 332 00cc 3F4A     		ldr	r2, .L17+108
 333 00ce 1A60     		str	r2, [r3]
 272:Generated_Source\PSoC4/cyfitter_cfg.c **** 	CY_SET_REG32((void *)CYREG_PERI_DIV_16_CTL2, 0x00002200u);
 334              		.loc 1 272 0
 335 00d0 8821     		movs	r1, #136
 336 00d2 8901     		lsls	r1, r1, #6
 337 00d4 3E4A     		ldr	r2, .L17+112
 338 00d6 1160     		str	r1, [r2]
 273:Generated_Source\PSoC4/cyfitter_cfg.c **** 	CY_SET_REG32((void *)CYREG_PERI_DIV_CMD, 0x8000FF42u);
 339              		.loc 1 273 0
 340 00d8 3E4A     		ldr	r2, .L17+116
 341 00da 1A60     		str	r2, [r3]
 274:Generated_Source\PSoC4/cyfitter_cfg.c **** 	CY_SET_REG32((void *)CYREG_PERI_DIV_16_CTL1, 0x00001D00u);
ARM GAS  C:\Users\corne\AppData\Local\Temp\ccof4EPi.s 			page 12


 342              		.loc 1 274 0
 343 00dc E821     		movs	r1, #232
 344 00de 4901     		lsls	r1, r1, #5
 345 00e0 3D4A     		ldr	r2, .L17+120
 346 00e2 1160     		str	r1, [r2]
 275:Generated_Source\PSoC4/cyfitter_cfg.c **** 	CY_SET_REG32((void *)CYREG_PERI_DIV_CMD, 0x8000FF41u);
 347              		.loc 1 275 0
 348 00e4 3D4A     		ldr	r2, .L17+124
 349 00e6 1A60     		str	r2, [r3]
 276:Generated_Source\PSoC4/cyfitter_cfg.c **** 	CY_SET_REG32((void *)CYREG_PERI_DIV_16_CTL0, 0x00000200u);
 350              		.loc 1 276 0
 351 00e8 8021     		movs	r1, #128
 352 00ea 8900     		lsls	r1, r1, #2
 353 00ec 3C4A     		ldr	r2, .L17+128
 354 00ee 1160     		str	r1, [r2]
 277:Generated_Source\PSoC4/cyfitter_cfg.c **** 	CY_SET_REG32((void *)CYREG_PERI_DIV_CMD, 0x8000FF40u);
 355              		.loc 1 277 0
 356 00f0 3C4A     		ldr	r2, .L17+132
 357 00f2 1A60     		str	r2, [r3]
 278:Generated_Source\PSoC4/cyfitter_cfg.c **** 
 279:Generated_Source\PSoC4/cyfitter_cfg.c **** 	/* CYDEV_CLK_SELECT Starting address: CYDEV_CLK_SELECT */
 280:Generated_Source\PSoC4/cyfitter_cfg.c **** 	CY_SET_REG32((void *)(CYREG_CLK_SELECT), 0x00050010u);
 358              		.loc 1 280 0
 359 00f4 3C4A     		ldr	r2, .L17+136
 360 00f6 234B     		ldr	r3, .L17+36
 361 00f8 1A60     		str	r2, [r3]
 281:Generated_Source\PSoC4/cyfitter_cfg.c **** 
 282:Generated_Source\PSoC4/cyfitter_cfg.c **** 	/* CYDEV_CLK_IMO_CONFIG Starting address: CYDEV_CLK_IMO_CONFIG */
 283:Generated_Source\PSoC4/cyfitter_cfg.c **** 	CY_SET_REG32((void *)(CYREG_CLK_IMO_CONFIG), 0x82000000u);
 362              		.loc 1 283 0
 363 00fa 8222     		movs	r2, #130
 364 00fc 1206     		lsls	r2, r2, #24
 365 00fe 3B4B     		ldr	r3, .L17+140
 366 0100 1A60     		str	r2, [r3]
 284:Generated_Source\PSoC4/cyfitter_cfg.c **** 
 285:Generated_Source\PSoC4/cyfitter_cfg.c **** 	/* CYDEV_PERI_PCLK_CTL22 Starting address: CYDEV_PERI_PCLK_CTL22 */
 286:Generated_Source\PSoC4/cyfitter_cfg.c **** 	CY_SET_REG32((void *)(CYREG_PERI_PCLK_CTL22), 0x00000044u);
 367              		.loc 1 286 0
 368 0102 4422     		movs	r2, #68
 369 0104 3A4B     		ldr	r3, .L17+144
 370 0106 1A60     		str	r2, [r3]
 287:Generated_Source\PSoC4/cyfitter_cfg.c **** 
 288:Generated_Source\PSoC4/cyfitter_cfg.c **** 	/* CYDEV_PERI_PCLK_CTL20 Starting address: CYDEV_PERI_PCLK_CTL20 */
 289:Generated_Source\PSoC4/cyfitter_cfg.c **** 	CY_SET_REG32((void *)(CYREG_PERI_PCLK_CTL20), 0x000000C0u);
 371              		.loc 1 289 0
 372 0108 7C32     		adds	r2, r2, #124
 373 010a 3A4B     		ldr	r3, .L17+148
 374 010c 1A60     		str	r2, [r3]
 290:Generated_Source\PSoC4/cyfitter_cfg.c **** 
 291:Generated_Source\PSoC4/cyfitter_cfg.c **** 	/* CYDEV_PERI_PCLK_CTL12 Starting address: CYDEV_PERI_PCLK_CTL12 */
 292:Generated_Source\PSoC4/cyfitter_cfg.c **** 	CY_SET_REG32((void *)(CYREG_PERI_PCLK_CTL12), 0x00000046u);
 375              		.loc 1 292 0
 376 010e 7A3A     		subs	r2, r2, #122
 377 0110 394B     		ldr	r3, .L17+152
 378 0112 1A60     		str	r2, [r3]
 293:Generated_Source\PSoC4/cyfitter_cfg.c **** 
 294:Generated_Source\PSoC4/cyfitter_cfg.c **** 	/* CYDEV_PERI_PCLK_CTL11 Starting address: CYDEV_PERI_PCLK_CTL11 */
ARM GAS  C:\Users\corne\AppData\Local\Temp\ccof4EPi.s 			page 13


 295:Generated_Source\PSoC4/cyfitter_cfg.c **** 	CY_SET_REG32((void *)(CYREG_PERI_PCLK_CTL11), 0x00000045u);
 379              		.loc 1 295 0
 380 0114 013A     		subs	r2, r2, #1
 381 0116 394B     		ldr	r3, .L17+156
 382 0118 1A60     		str	r2, [r3]
 296:Generated_Source\PSoC4/cyfitter_cfg.c **** 
 297:Generated_Source\PSoC4/cyfitter_cfg.c **** 	/* CYDEV_PERI_PCLK_CTL10 Starting address: CYDEV_PERI_PCLK_CTL10 */
 298:Generated_Source\PSoC4/cyfitter_cfg.c **** 	CY_SET_REG32((void *)(CYREG_PERI_PCLK_CTL10), 0x00000043u);
 383              		.loc 1 298 0
 384 011a 023A     		subs	r2, r2, #2
 385 011c 384B     		ldr	r3, .L17+160
 386 011e 1A60     		str	r2, [r3]
 299:Generated_Source\PSoC4/cyfitter_cfg.c **** 
 300:Generated_Source\PSoC4/cyfitter_cfg.c **** 	/* CYDEV_PERI_PCLK_CTL5 Starting address: CYDEV_PERI_PCLK_CTL5 */
 301:Generated_Source\PSoC4/cyfitter_cfg.c **** 	CY_SET_REG32((void *)(CYREG_PERI_PCLK_CTL5), 0x00000042u);
 387              		.loc 1 301 0
 388 0120 013A     		subs	r2, r2, #1
 389 0122 384B     		ldr	r3, .L17+164
 390 0124 1A60     		str	r2, [r3]
 302:Generated_Source\PSoC4/cyfitter_cfg.c **** 
 303:Generated_Source\PSoC4/cyfitter_cfg.c **** 	/* CYDEV_PERI_PCLK_CTL4 Starting address: CYDEV_PERI_PCLK_CTL4 */
 304:Generated_Source\PSoC4/cyfitter_cfg.c **** 	CY_SET_REG32((void *)(CYREG_PERI_PCLK_CTL4), 0x00000041u);
 391              		.loc 1 304 0
 392 0126 013A     		subs	r2, r2, #1
 393 0128 374B     		ldr	r3, .L17+168
 394 012a 1A60     		str	r2, [r3]
 305:Generated_Source\PSoC4/cyfitter_cfg.c **** 
 306:Generated_Source\PSoC4/cyfitter_cfg.c **** 	/* CYDEV_PERI_PCLK_CTL2 Starting address: CYDEV_PERI_PCLK_CTL2 */
 307:Generated_Source\PSoC4/cyfitter_cfg.c **** 	CY_SET_REG32((void *)(CYREG_PERI_PCLK_CTL2), 0x00000040u);
 395              		.loc 1 307 0
 396 012c 013A     		subs	r2, r2, #1
 397 012e 374B     		ldr	r3, .L17+172
 398 0130 1A60     		str	r2, [r3]
 308:Generated_Source\PSoC4/cyfitter_cfg.c **** 
 309:Generated_Source\PSoC4/cyfitter_cfg.c **** 	(void)CyIntSetVector(8u, &CySysWdtIsr);
 399              		.loc 1 309 0
 400 0132 3749     		ldr	r1, .L17+176
 401 0134 0820     		movs	r0, #8
 402 0136 FFF7FEFF 		bl	CyIntSetVector
 403              	.LVL34:
 310:Generated_Source\PSoC4/cyfitter_cfg.c **** 	CyIntEnable(8u);
 404              		.loc 1 310 0
 405 013a 0820     		movs	r0, #8
 406 013c FFF7FEFF 		bl	CyIntEnable
 407              	.LVL35:
 311:Generated_Source\PSoC4/cyfitter_cfg.c **** 	CY_SET_REG32((void *)(CYREG_WDT_CONFIG), 0x4F010000u);
 408              		.loc 1 311 0
 409 0140 344A     		ldr	r2, .L17+180
 410 0142 0B4B     		ldr	r3, .L17+16
 411 0144 1A60     		str	r2, [r3]
 312:Generated_Source\PSoC4/cyfitter_cfg.c **** 	CY_SET_REG32((void *)(CYREG_WDT_CONTROL), 0x00080000u);
 412              		.loc 1 312 0
 413 0146 8022     		movs	r2, #128
 414 0148 1203     		lsls	r2, r2, #12
 415 014a 334B     		ldr	r3, .L17+184
 416 014c 1A60     		str	r2, [r3]
 417              	.L16:
ARM GAS  C:\Users\corne\AppData\Local\Temp\ccof4EPi.s 			page 14


 313:Generated_Source\PSoC4/cyfitter_cfg.c **** 	while ((CY_GET_XTND_REG32((void CYFAR *)(CYREG_WDT_CONTROL)) & 0x00080000u) != 0u) { }
 418              		.loc 1 313 0 discriminator 1
 419 014e 324B     		ldr	r3, .L17+184
 420 0150 1B68     		ldr	r3, [r3]
 421 0152 1B03     		lsls	r3, r3, #12
 422 0154 FBD4     		bmi	.L16
 314:Generated_Source\PSoC4/cyfitter_cfg.c **** 	CY_SET_REG32((void *)(CYREG_WDT_CONTROL), 0x00010000u);
 423              		.loc 1 314 0
 424 0156 8022     		movs	r2, #128
 425 0158 5202     		lsls	r2, r2, #9
 426 015a 2F4B     		ldr	r3, .L17+184
 427 015c 1A60     		str	r2, [r3]
 315:Generated_Source\PSoC4/cyfitter_cfg.c **** }
 428              		.loc 1 315 0
 429              		@ sp needed
 430              	.LVL36:
 431 015e 10BD     		pop	{r4, pc}
 432              	.L18:
 433              		.align	2
 434              	.L17:
 435 0160 30001040 		.word	1074790448
 436 0164 001BB700 		.word	12000000
 437 0168 06000080 		.word	-2147483642
 438 016c 04010B40 		.word	1074462980
 439 0170 0C020B40 		.word	1074463244
 440 0174 08000C40 		.word	1074528264
 441 0178 0CFF0C40 		.word	1074593548
 442 017c 10FF0C40 		.word	1074593552
 443 0180 DC050000 		.word	1500
 444 0184 00010B40 		.word	1074462976
 445 0188 07FEFFFF 		.word	-505
 446 018c 20000C40 		.word	1074528288
 447 0190 10070280 		.word	-2147350768
 448 0194 100702C0 		.word	-1073608944
 449 0198 24000C40 		.word	1074528292
 450 019c 10030140 		.word	1073808144
 451 01a0 00000140 		.word	1073807360
 452 01a4 44FF0080 		.word	-2147418300
 453 01a8 00FFFFFF 		.word	-256
 454 01ac 00050140 		.word	1073808640
 455 01b0 C0FF0080 		.word	-2147418176
 456 01b4 007FBB00 		.word	12287744
 457 01b8 18030140 		.word	1073808152
 458 01bc 46FF0080 		.word	-2147418298
 459 01c0 14030140 		.word	1073808148
 460 01c4 45FF0080 		.word	-2147418299
 461 01c8 0C030140 		.word	1073808140
 462 01cc 43FF0080 		.word	-2147418301
 463 01d0 08030140 		.word	1073808136
 464 01d4 42FF0080 		.word	-2147418302
 465 01d8 04030140 		.word	1073808132
 466 01dc 41FF0080 		.word	-2147418303
 467 01e0 00030140 		.word	1073808128
 468 01e4 40FF0080 		.word	-2147418304
 469 01e8 10000500 		.word	327696
 470 01ec 08010B40 		.word	1074462984
 471 01f0 58010140 		.word	1073807704
ARM GAS  C:\Users\corne\AppData\Local\Temp\ccof4EPi.s 			page 15


 472 01f4 50010140 		.word	1073807696
 473 01f8 30010140 		.word	1073807664
 474 01fc 2C010140 		.word	1073807660
 475 0200 28010140 		.word	1073807656
 476 0204 14010140 		.word	1073807636
 477 0208 10010140 		.word	1073807632
 478 020c 08010140 		.word	1073807624
 479 0210 00000000 		.word	CySysWdtIsr
 480 0214 0000014F 		.word	1325465600
 481 0218 10020B40 		.word	1074463248
 482              		.cfi_endproc
 483              	.LFE6:
 484              		.size	ClockSetup, .-ClockSetup
 485              		.section	.text.SetAnalogRoutingPumps,"ax",%progbits
 486              		.align	2
 487              		.global	SetAnalogRoutingPumps
 488              		.code	16
 489              		.thumb_func
 490              		.type	SetAnalogRoutingPumps, %function
 491              	SetAnalogRoutingPumps:
 492              	.LFB8:
 316:Generated_Source\PSoC4/cyfitter_cfg.c **** 
 317:Generated_Source\PSoC4/cyfitter_cfg.c **** 
 318:Generated_Source\PSoC4/cyfitter_cfg.c **** /* Analog API Functions */
 319:Generated_Source\PSoC4/cyfitter_cfg.c **** 
 320:Generated_Source\PSoC4/cyfitter_cfg.c **** 
 321:Generated_Source\PSoC4/cyfitter_cfg.c **** /*******************************************************************************
 322:Generated_Source\PSoC4/cyfitter_cfg.c **** * Function Name: AnalogSetDefault
 323:Generated_Source\PSoC4/cyfitter_cfg.c **** ********************************************************************************
 324:Generated_Source\PSoC4/cyfitter_cfg.c **** *
 325:Generated_Source\PSoC4/cyfitter_cfg.c **** * Summary:
 326:Generated_Source\PSoC4/cyfitter_cfg.c **** *  Sets up the analog portions of the chip to default values based on chip
 327:Generated_Source\PSoC4/cyfitter_cfg.c **** *  configuration options from the project.
 328:Generated_Source\PSoC4/cyfitter_cfg.c **** *
 329:Generated_Source\PSoC4/cyfitter_cfg.c **** * Parameters:
 330:Generated_Source\PSoC4/cyfitter_cfg.c **** *  void
 331:Generated_Source\PSoC4/cyfitter_cfg.c **** *
 332:Generated_Source\PSoC4/cyfitter_cfg.c **** * Return:
 333:Generated_Source\PSoC4/cyfitter_cfg.c **** *  void
 334:Generated_Source\PSoC4/cyfitter_cfg.c **** *
 335:Generated_Source\PSoC4/cyfitter_cfg.c **** *******************************************************************************/
 336:Generated_Source\PSoC4/cyfitter_cfg.c **** static void AnalogSetDefault(void);
 337:Generated_Source\PSoC4/cyfitter_cfg.c **** static void AnalogSetDefault(void)
 338:Generated_Source\PSoC4/cyfitter_cfg.c **** {
 339:Generated_Source\PSoC4/cyfitter_cfg.c **** 	CY_SET_XTND_REG32((void CYFAR *)CYREG_HSIOM_AMUX_SPLIT_CTL0, 0x00000003u);
 340:Generated_Source\PSoC4/cyfitter_cfg.c **** 	CY_SET_XTND_REG32((void CYFAR *)CYREG_CTBM0_DFT_CTRL, 0x00000003u);
 341:Generated_Source\PSoC4/cyfitter_cfg.c **** 	CY_SET_XTND_REG32((void CYFAR *)CYREG_CTBM1_DFT_CTRL, 0x00000003u);
 342:Generated_Source\PSoC4/cyfitter_cfg.c **** 	CY_SET_XTND_REG32((void CYFAR *)CYREG_SAR_CTRL, 0x80000000u);
 343:Generated_Source\PSoC4/cyfitter_cfg.c **** 	CY_SET_XTND_REG32((void CYFAR *)CYREG_SAR_MUX_SWITCH0, 0x00040080u);
 344:Generated_Source\PSoC4/cyfitter_cfg.c **** 	CY_SET_XTND_REG32((void CYFAR *)CYREG_SAR_MUX_SWITCH_HW_CTRL, 0x00040080u);
 345:Generated_Source\PSoC4/cyfitter_cfg.c **** 	CY_SET_XTND_REG32((void CYFAR *)CYREG_PASS_DSAB_DSAB_CTRL, 0x00000000u);
 346:Generated_Source\PSoC4/cyfitter_cfg.c **** 	SetAnalogRoutingPumps(1);
 347:Generated_Source\PSoC4/cyfitter_cfg.c **** }
 348:Generated_Source\PSoC4/cyfitter_cfg.c **** 
 349:Generated_Source\PSoC4/cyfitter_cfg.c **** 
 350:Generated_Source\PSoC4/cyfitter_cfg.c **** /*******************************************************************************
 351:Generated_Source\PSoC4/cyfitter_cfg.c **** * Function Name: SetAnalogRoutingPumps
ARM GAS  C:\Users\corne\AppData\Local\Temp\ccof4EPi.s 			page 16


 352:Generated_Source\PSoC4/cyfitter_cfg.c **** ********************************************************************************
 353:Generated_Source\PSoC4/cyfitter_cfg.c **** *
 354:Generated_Source\PSoC4/cyfitter_cfg.c **** * Summary:
 355:Generated_Source\PSoC4/cyfitter_cfg.c **** * Enables or disables the analog pumps feeding analog routing switches.
 356:Generated_Source\PSoC4/cyfitter_cfg.c **** * Intended to be called at startup, based on the Vdda system configuration;
 357:Generated_Source\PSoC4/cyfitter_cfg.c **** * may be called during operation when the user informs us that the Vdda voltage crossed the pump th
 358:Generated_Source\PSoC4/cyfitter_cfg.c **** *
 359:Generated_Source\PSoC4/cyfitter_cfg.c **** * Parameters:
 360:Generated_Source\PSoC4/cyfitter_cfg.c **** *  enabled - 1 to enable the pumps, 0 to disable the pumps
 361:Generated_Source\PSoC4/cyfitter_cfg.c **** *
 362:Generated_Source\PSoC4/cyfitter_cfg.c **** * Return:
 363:Generated_Source\PSoC4/cyfitter_cfg.c **** *  void
 364:Generated_Source\PSoC4/cyfitter_cfg.c **** *
 365:Generated_Source\PSoC4/cyfitter_cfg.c **** *******************************************************************************/
 366:Generated_Source\PSoC4/cyfitter_cfg.c **** void SetAnalogRoutingPumps(uint8 enabled)
 367:Generated_Source\PSoC4/cyfitter_cfg.c **** {
 493              		.loc 1 367 0
 494              		.cfi_startproc
 495              		@ args = 0, pretend = 0, frame = 0
 496              		@ frame_needed = 0, uses_anonymous_args = 0
 497              		@ link register save eliminated.
 498              	.LVL37:
 368:Generated_Source\PSoC4/cyfitter_cfg.c **** 	uint32 regValue = CY_GET_XTND_REG32((void *)(CYREG_SAR_PUMP_CTRL));
 499              		.loc 1 368 0
 500 0000 064B     		ldr	r3, .L22
 501 0002 1B68     		ldr	r3, [r3]
 502              	.LVL38:
 369:Generated_Source\PSoC4/cyfitter_cfg.c **** 	if (enabled != 0u)
 503              		.loc 1 369 0
 504 0004 0028     		cmp	r0, #0
 505 0006 03D0     		beq	.L20
 370:Generated_Source\PSoC4/cyfitter_cfg.c **** 	{
 371:Generated_Source\PSoC4/cyfitter_cfg.c **** 		regValue |= 0x80000000u;
 506              		.loc 1 371 0
 507 0008 8022     		movs	r2, #128
 508 000a 1206     		lsls	r2, r2, #24
 509 000c 1343     		orrs	r3, r2
 510              	.LVL39:
 511 000e 01E0     		b	.L21
 512              	.L20:
 372:Generated_Source\PSoC4/cyfitter_cfg.c **** 	}
 373:Generated_Source\PSoC4/cyfitter_cfg.c **** 	else
 374:Generated_Source\PSoC4/cyfitter_cfg.c **** 	{
 375:Generated_Source\PSoC4/cyfitter_cfg.c **** 		regValue &= ~0x80000000u;
 513              		.loc 1 375 0
 514 0010 5B00     		lsls	r3, r3, #1
 515              	.LVL40:
 516 0012 5B08     		lsrs	r3, r3, #1
 517              	.LVL41:
 518              	.L21:
 376:Generated_Source\PSoC4/cyfitter_cfg.c **** 	}
 377:Generated_Source\PSoC4/cyfitter_cfg.c **** 	CY_SET_XTND_REG32((void *)(CYREG_SAR_PUMP_CTRL), regValue);
 519              		.loc 1 377 0
 520 0014 014A     		ldr	r2, .L22
 521 0016 1360     		str	r3, [r2]
 378:Generated_Source\PSoC4/cyfitter_cfg.c **** }
 522              		.loc 1 378 0
ARM GAS  C:\Users\corne\AppData\Local\Temp\ccof4EPi.s 			page 17


 523              		@ sp needed
 524 0018 7047     		bx	lr
 525              	.L23:
 526 001a C046     		.align	2
 527              	.L22:
 528 001c 80033A40 		.word	1077543808
 529              		.cfi_endproc
 530              	.LFE8:
 531              		.size	SetAnalogRoutingPumps, .-SetAnalogRoutingPumps
 532              		.section	.text.AnalogSetDefault,"ax",%progbits
 533              		.align	2
 534              		.code	16
 535              		.thumb_func
 536              		.type	AnalogSetDefault, %function
 537              	AnalogSetDefault:
 538              	.LFB7:
 338:Generated_Source\PSoC4/cyfitter_cfg.c **** 	CY_SET_XTND_REG32((void CYFAR *)CYREG_HSIOM_AMUX_SPLIT_CTL0, 0x00000003u);
 539              		.loc 1 338 0
 540              		.cfi_startproc
 541              		@ args = 0, pretend = 0, frame = 0
 542              		@ frame_needed = 0, uses_anonymous_args = 0
 543 0000 10B5     		push	{r4, lr}
 544              		.cfi_def_cfa_offset 8
 545              		.cfi_offset 4, -8
 546              		.cfi_offset 14, -4
 339:Generated_Source\PSoC4/cyfitter_cfg.c **** 	CY_SET_XTND_REG32((void CYFAR *)CYREG_CTBM0_DFT_CTRL, 0x00000003u);
 547              		.loc 1 339 0
 548 0002 0323     		movs	r3, #3
 549 0004 0A4A     		ldr	r2, .L25
 550 0006 1360     		str	r3, [r2]
 340:Generated_Source\PSoC4/cyfitter_cfg.c **** 	CY_SET_XTND_REG32((void CYFAR *)CYREG_CTBM1_DFT_CTRL, 0x00000003u);
 551              		.loc 1 340 0
 552 0008 0A4A     		ldr	r2, .L25+4
 553 000a 1360     		str	r3, [r2]
 341:Generated_Source\PSoC4/cyfitter_cfg.c **** 	CY_SET_XTND_REG32((void CYFAR *)CYREG_SAR_CTRL, 0x80000000u);
 554              		.loc 1 341 0
 555 000c 0A4A     		ldr	r2, .L25+8
 556 000e 1360     		str	r3, [r2]
 342:Generated_Source\PSoC4/cyfitter_cfg.c **** 	CY_SET_XTND_REG32((void CYFAR *)CYREG_SAR_MUX_SWITCH0, 0x00040080u);
 557              		.loc 1 342 0
 558 0010 8022     		movs	r2, #128
 559 0012 1206     		lsls	r2, r2, #24
 560 0014 094B     		ldr	r3, .L25+12
 561 0016 1A60     		str	r2, [r3]
 343:Generated_Source\PSoC4/cyfitter_cfg.c **** 	CY_SET_XTND_REG32((void CYFAR *)CYREG_SAR_MUX_SWITCH_HW_CTRL, 0x00040080u);
 562              		.loc 1 343 0
 563 0018 094B     		ldr	r3, .L25+16
 564 001a 0A4A     		ldr	r2, .L25+20
 565 001c 1360     		str	r3, [r2]
 344:Generated_Source\PSoC4/cyfitter_cfg.c **** 	CY_SET_XTND_REG32((void CYFAR *)CYREG_PASS_DSAB_DSAB_CTRL, 0x00000000u);
 566              		.loc 1 344 0
 567 001e 0A4A     		ldr	r2, .L25+24
 568 0020 1360     		str	r3, [r2]
 345:Generated_Source\PSoC4/cyfitter_cfg.c **** 	SetAnalogRoutingPumps(1);
 569              		.loc 1 345 0
 570 0022 0022     		movs	r2, #0
 571 0024 094B     		ldr	r3, .L25+28
ARM GAS  C:\Users\corne\AppData\Local\Temp\ccof4EPi.s 			page 18


 572 0026 1A60     		str	r2, [r3]
 346:Generated_Source\PSoC4/cyfitter_cfg.c **** }
 573              		.loc 1 346 0
 574 0028 0120     		movs	r0, #1
 575 002a FFF7FEFF 		bl	SetAnalogRoutingPumps
 576              	.LVL42:
 347:Generated_Source\PSoC4/cyfitter_cfg.c **** 
 577              		.loc 1 347 0
 578              		@ sp needed
 579 002e 10BD     		pop	{r4, pc}
 580              	.L26:
 581              		.align	2
 582              	.L25:
 583 0030 00210240 		.word	1073881344
 584 0034 30003040 		.word	1076887600
 585 0038 30003140 		.word	1076953136
 586 003c 00003A40 		.word	1077542912
 587 0040 80000400 		.word	262272
 588 0044 00033A40 		.word	1077543680
 589 0048 40033A40 		.word	1077543744
 590 004c 000E3F40 		.word	1077874176
 591              		.cfi_endproc
 592              	.LFE7:
 593              		.size	AnalogSetDefault, .-AnalogSetDefault
 594              		.section	.psocinit
 595              		.align	2
 596              		.global	cyfitter_cfg
 597              		.code	16
 598              		.thumb_func
 599              		.type	cyfitter_cfg, %function
 600              	cyfitter_cfg:
 601              	.LFB9:
 379:Generated_Source\PSoC4/cyfitter_cfg.c **** 
 380:Generated_Source\PSoC4/cyfitter_cfg.c **** 
 381:Generated_Source\PSoC4/cyfitter_cfg.c **** 
 382:Generated_Source\PSoC4/cyfitter_cfg.c **** 
 383:Generated_Source\PSoC4/cyfitter_cfg.c **** /*******************************************************************************
 384:Generated_Source\PSoC4/cyfitter_cfg.c **** * Function Name: cyfitter_cfg
 385:Generated_Source\PSoC4/cyfitter_cfg.c **** ********************************************************************************
 386:Generated_Source\PSoC4/cyfitter_cfg.c **** * Summary:
 387:Generated_Source\PSoC4/cyfitter_cfg.c **** *  This function is called by the start-up code for the selected device. It
 388:Generated_Source\PSoC4/cyfitter_cfg.c **** *  performs all of the necessary device configuration based on the design
 389:Generated_Source\PSoC4/cyfitter_cfg.c **** *  settings.  This includes settings from the Design Wide Resources (DWR) such
 390:Generated_Source\PSoC4/cyfitter_cfg.c **** *  as Clocks and Pins as well as any component configuration that is necessary.
 391:Generated_Source\PSoC4/cyfitter_cfg.c **** *
 392:Generated_Source\PSoC4/cyfitter_cfg.c **** * Parameters:
 393:Generated_Source\PSoC4/cyfitter_cfg.c **** *   void
 394:Generated_Source\PSoC4/cyfitter_cfg.c **** *
 395:Generated_Source\PSoC4/cyfitter_cfg.c **** * Return:
 396:Generated_Source\PSoC4/cyfitter_cfg.c **** *   void
 397:Generated_Source\PSoC4/cyfitter_cfg.c **** *
 398:Generated_Source\PSoC4/cyfitter_cfg.c **** *******************************************************************************/
 399:Generated_Source\PSoC4/cyfitter_cfg.c **** CY_CFG_SECTION
 400:Generated_Source\PSoC4/cyfitter_cfg.c **** void cyfitter_cfg(void)
 401:Generated_Source\PSoC4/cyfitter_cfg.c **** {
 602              		.loc 1 401 0
 603              		.cfi_startproc
ARM GAS  C:\Users\corne\AppData\Local\Temp\ccof4EPi.s 			page 19


 604              		@ args = 0, pretend = 0, frame = 0
 605              		@ frame_needed = 0, uses_anonymous_args = 0
 606 021c 70B5     		push	{r4, r5, r6, lr}
 607              		.cfi_def_cfa_offset 16
 608              		.cfi_offset 4, -16
 609              		.cfi_offset 5, -12
 610              		.cfi_offset 6, -8
 611              		.cfi_offset 14, -4
 402:Generated_Source\PSoC4/cyfitter_cfg.c **** 	/* Disable interrupts by default. Let user enable if/when they want. */
 403:Generated_Source\PSoC4/cyfitter_cfg.c **** 	CyGlobalIntDisable;
 612              		.loc 1 403 0
 613              		.syntax divided
 614              	@ 403 "Generated_Source\PSoC4\cyfitter_cfg.c" 1
 615 021e 72B6     		CPSID   i
 616              	@ 0 "" 2
 404:Generated_Source\PSoC4/cyfitter_cfg.c **** 
 405:Generated_Source\PSoC4/cyfitter_cfg.c **** 	/* Enable the clock in the interrupt controller for the routed interrupts */
 406:Generated_Source\PSoC4/cyfitter_cfg.c **** 	CY_SET_REG8((void *)CYREG_UDB_UDB_INT_CLK_CTL, 0x01u);
 617              		.loc 1 406 0
 618              		.thumb
 619              		.syntax unified
 620 0220 0122     		movs	r2, #1
 621 0222 514B     		ldr	r3, .L32
 622 0224 1A70     		strb	r2, [r3]
 623              	.LVL43:
 624              	.LBB3:
 407:Generated_Source\PSoC4/cyfitter_cfg.c **** 	{
 408:Generated_Source\PSoC4/cyfitter_cfg.c **** 		static const uint32 CYCODE cy_cfg_addr_table[] = {
 409:Generated_Source\PSoC4/cyfitter_cfg.c **** 			0x400F0001u, /* Base address: 0x400F0000 Count: 1 */
 410:Generated_Source\PSoC4/cyfitter_cfg.c **** 			0x400F3004u, /* Base address: 0x400F3000 Count: 4 */
 411:Generated_Source\PSoC4/cyfitter_cfg.c **** 			0x400F3104u, /* Base address: 0x400F3100 Count: 4 */
 412:Generated_Source\PSoC4/cyfitter_cfg.c **** 			0x400F320Au, /* Base address: 0x400F3200 Count: 10 */
 413:Generated_Source\PSoC4/cyfitter_cfg.c **** 			0x400F3336u, /* Base address: 0x400F3300 Count: 54 */
 414:Generated_Source\PSoC4/cyfitter_cfg.c **** 			0x400F345Fu, /* Base address: 0x400F3400 Count: 95 */
 415:Generated_Source\PSoC4/cyfitter_cfg.c **** 			0x400F3544u, /* Base address: 0x400F3500 Count: 68 */
 416:Generated_Source\PSoC4/cyfitter_cfg.c **** 			0x400F3703u, /* Base address: 0x400F3700 Count: 3 */
 417:Generated_Source\PSoC4/cyfitter_cfg.c **** 			0x400F400Bu, /* Base address: 0x400F4000 Count: 11 */
 418:Generated_Source\PSoC4/cyfitter_cfg.c **** 			0x400F4107u, /* Base address: 0x400F4100 Count: 7 */
 419:Generated_Source\PSoC4/cyfitter_cfg.c **** 			0x400F420Eu, /* Base address: 0x400F4200 Count: 14 */
 420:Generated_Source\PSoC4/cyfitter_cfg.c **** 			0x400F4303u, /* Base address: 0x400F4300 Count: 3 */
 421:Generated_Source\PSoC4/cyfitter_cfg.c **** 			0x400F4505u, /* Base address: 0x400F4500 Count: 5 */
 422:Generated_Source\PSoC4/cyfitter_cfg.c **** 			0x400F4601u, /* Base address: 0x400F4600 Count: 1 */
 423:Generated_Source\PSoC4/cyfitter_cfg.c **** 			0x400F6004u, /* Base address: 0x400F6000 Count: 4 */
 424:Generated_Source\PSoC4/cyfitter_cfg.c **** 		};
 425:Generated_Source\PSoC4/cyfitter_cfg.c **** 
 426:Generated_Source\PSoC4/cyfitter_cfg.c **** 		static const cy_cfg_addrvalue_t CYCODE cy_cfg_data_table[] = {
 427:Generated_Source\PSoC4/cyfitter_cfg.c **** 			{0x83u, 0x0Fu},
 428:Generated_Source\PSoC4/cyfitter_cfg.c **** 			{0x34u, 0x01u},
 429:Generated_Source\PSoC4/cyfitter_cfg.c **** 			{0x3Eu, 0x10u},
 430:Generated_Source\PSoC4/cyfitter_cfg.c **** 			{0x58u, 0x04u},
 431:Generated_Source\PSoC4/cyfitter_cfg.c **** 			{0x5Fu, 0x01u},
 432:Generated_Source\PSoC4/cyfitter_cfg.c **** 			{0x18u, 0x08u},
 433:Generated_Source\PSoC4/cyfitter_cfg.c **** 			{0x87u, 0x40u},
 434:Generated_Source\PSoC4/cyfitter_cfg.c **** 			{0x8Cu, 0x04u},
 435:Generated_Source\PSoC4/cyfitter_cfg.c **** 			{0xE2u, 0x10u},
 436:Generated_Source\PSoC4/cyfitter_cfg.c **** 			{0x1Eu, 0x01u},
 437:Generated_Source\PSoC4/cyfitter_cfg.c **** 			{0x30u, 0x01u},
ARM GAS  C:\Users\corne\AppData\Local\Temp\ccof4EPi.s 			page 20


 438:Generated_Source\PSoC4/cyfitter_cfg.c **** 			{0x3Au, 0xC2u},
 439:Generated_Source\PSoC4/cyfitter_cfg.c **** 			{0x54u, 0x40u},
 440:Generated_Source\PSoC4/cyfitter_cfg.c **** 			{0x56u, 0x04u},
 441:Generated_Source\PSoC4/cyfitter_cfg.c **** 			{0x58u, 0x04u},
 442:Generated_Source\PSoC4/cyfitter_cfg.c **** 			{0x5Bu, 0x04u},
 443:Generated_Source\PSoC4/cyfitter_cfg.c **** 			{0x5Cu, 0x01u},
 444:Generated_Source\PSoC4/cyfitter_cfg.c **** 			{0x5Du, 0x30u},
 445:Generated_Source\PSoC4/cyfitter_cfg.c **** 			{0x5Fu, 0x01u},
 446:Generated_Source\PSoC4/cyfitter_cfg.c **** 			{0x00u, 0x04u},
 447:Generated_Source\PSoC4/cyfitter_cfg.c **** 			{0x01u, 0xC0u},
 448:Generated_Source\PSoC4/cyfitter_cfg.c **** 			{0x03u, 0x08u},
 449:Generated_Source\PSoC4/cyfitter_cfg.c **** 			{0x08u, 0x01u},
 450:Generated_Source\PSoC4/cyfitter_cfg.c **** 			{0x09u, 0x08u},
 451:Generated_Source\PSoC4/cyfitter_cfg.c **** 			{0x0Au, 0x46u},
 452:Generated_Source\PSoC4/cyfitter_cfg.c **** 			{0x0Eu, 0x02u},
 453:Generated_Source\PSoC4/cyfitter_cfg.c **** 			{0x10u, 0x40u},
 454:Generated_Source\PSoC4/cyfitter_cfg.c **** 			{0x11u, 0x10u},
 455:Generated_Source\PSoC4/cyfitter_cfg.c **** 			{0x13u, 0x02u},
 456:Generated_Source\PSoC4/cyfitter_cfg.c **** 			{0x18u, 0x40u},
 457:Generated_Source\PSoC4/cyfitter_cfg.c **** 			{0x19u, 0x81u},
 458:Generated_Source\PSoC4/cyfitter_cfg.c **** 			{0x1Bu, 0x18u},
 459:Generated_Source\PSoC4/cyfitter_cfg.c **** 			{0x1Eu, 0x82u},
 460:Generated_Source\PSoC4/cyfitter_cfg.c **** 			{0x22u, 0x08u},
 461:Generated_Source\PSoC4/cyfitter_cfg.c **** 			{0x23u, 0x01u},
 462:Generated_Source\PSoC4/cyfitter_cfg.c **** 			{0x28u, 0x41u},
 463:Generated_Source\PSoC4/cyfitter_cfg.c **** 			{0x2Bu, 0x08u},
 464:Generated_Source\PSoC4/cyfitter_cfg.c **** 			{0x31u, 0x20u},
 465:Generated_Source\PSoC4/cyfitter_cfg.c **** 			{0x32u, 0x0Au},
 466:Generated_Source\PSoC4/cyfitter_cfg.c **** 			{0x33u, 0x40u},
 467:Generated_Source\PSoC4/cyfitter_cfg.c **** 			{0x38u, 0x80u},
 468:Generated_Source\PSoC4/cyfitter_cfg.c **** 			{0x39u, 0x14u},
 469:Generated_Source\PSoC4/cyfitter_cfg.c **** 			{0x3Bu, 0x01u},
 470:Generated_Source\PSoC4/cyfitter_cfg.c **** 			{0x40u, 0x44u},
 471:Generated_Source\PSoC4/cyfitter_cfg.c **** 			{0x41u, 0x20u},
 472:Generated_Source\PSoC4/cyfitter_cfg.c **** 			{0x43u, 0x08u},
 473:Generated_Source\PSoC4/cyfitter_cfg.c **** 			{0x48u, 0x08u},
 474:Generated_Source\PSoC4/cyfitter_cfg.c **** 			{0x49u, 0x86u},
 475:Generated_Source\PSoC4/cyfitter_cfg.c **** 			{0x4Au, 0x02u},
 476:Generated_Source\PSoC4/cyfitter_cfg.c **** 			{0x4Bu, 0x02u},
 477:Generated_Source\PSoC4/cyfitter_cfg.c **** 			{0x50u, 0x40u},
 478:Generated_Source\PSoC4/cyfitter_cfg.c **** 			{0x51u, 0x08u},
 479:Generated_Source\PSoC4/cyfitter_cfg.c **** 			{0x52u, 0x10u},
 480:Generated_Source\PSoC4/cyfitter_cfg.c **** 			{0x63u, 0x01u},
 481:Generated_Source\PSoC4/cyfitter_cfg.c **** 			{0x66u, 0x10u},
 482:Generated_Source\PSoC4/cyfitter_cfg.c **** 			{0x67u, 0x62u},
 483:Generated_Source\PSoC4/cyfitter_cfg.c **** 			{0x69u, 0x15u},
 484:Generated_Source\PSoC4/cyfitter_cfg.c **** 			{0x6Au, 0xC6u},
 485:Generated_Source\PSoC4/cyfitter_cfg.c **** 			{0x6Bu, 0x40u},
 486:Generated_Source\PSoC4/cyfitter_cfg.c **** 			{0x73u, 0x02u},
 487:Generated_Source\PSoC4/cyfitter_cfg.c **** 			{0x86u, 0x40u},
 488:Generated_Source\PSoC4/cyfitter_cfg.c **** 			{0x8Eu, 0x01u},
 489:Generated_Source\PSoC4/cyfitter_cfg.c **** 			{0x97u, 0x40u},
 490:Generated_Source\PSoC4/cyfitter_cfg.c **** 			{0xC0u, 0x07u},
 491:Generated_Source\PSoC4/cyfitter_cfg.c **** 			{0xC2u, 0x8Fu},
 492:Generated_Source\PSoC4/cyfitter_cfg.c **** 			{0xC4u, 0x0Au},
 493:Generated_Source\PSoC4/cyfitter_cfg.c **** 			{0xCAu, 0x0Du},
 494:Generated_Source\PSoC4/cyfitter_cfg.c **** 			{0xCCu, 0x0Fu},
ARM GAS  C:\Users\corne\AppData\Local\Temp\ccof4EPi.s 			page 21


 495:Generated_Source\PSoC4/cyfitter_cfg.c **** 			{0xCEu, 0x0Fu},
 496:Generated_Source\PSoC4/cyfitter_cfg.c **** 			{0xD0u, 0x07u},
 497:Generated_Source\PSoC4/cyfitter_cfg.c **** 			{0xD2u, 0x0Cu},
 498:Generated_Source\PSoC4/cyfitter_cfg.c **** 			{0xD8u, 0xF8u},
 499:Generated_Source\PSoC4/cyfitter_cfg.c **** 			{0xE2u, 0x10u},
 500:Generated_Source\PSoC4/cyfitter_cfg.c **** 			{0x00u, 0x12u},
 501:Generated_Source\PSoC4/cyfitter_cfg.c **** 			{0x04u, 0xC1u},
 502:Generated_Source\PSoC4/cyfitter_cfg.c **** 			{0x05u, 0x02u},
 503:Generated_Source\PSoC4/cyfitter_cfg.c **** 			{0x06u, 0x34u},
 504:Generated_Source\PSoC4/cyfitter_cfg.c **** 			{0x07u, 0x04u},
 505:Generated_Source\PSoC4/cyfitter_cfg.c **** 			{0x09u, 0x0Du},
 506:Generated_Source\PSoC4/cyfitter_cfg.c **** 			{0x0Cu, 0x60u},
 507:Generated_Source\PSoC4/cyfitter_cfg.c **** 			{0x0Du, 0x02u},
 508:Generated_Source\PSoC4/cyfitter_cfg.c **** 			{0x0Fu, 0x08u},
 509:Generated_Source\PSoC4/cyfitter_cfg.c **** 			{0x10u, 0x02u},
 510:Generated_Source\PSoC4/cyfitter_cfg.c **** 			{0x11u, 0x02u},
 511:Generated_Source\PSoC4/cyfitter_cfg.c **** 			{0x12u, 0x10u},
 512:Generated_Source\PSoC4/cyfitter_cfg.c **** 			{0x13u, 0x0Du},
 513:Generated_Source\PSoC4/cyfitter_cfg.c **** 			{0x14u, 0x02u},
 514:Generated_Source\PSoC4/cyfitter_cfg.c **** 			{0x15u, 0x01u},
 515:Generated_Source\PSoC4/cyfitter_cfg.c **** 			{0x17u, 0x02u},
 516:Generated_Source\PSoC4/cyfitter_cfg.c **** 			{0x18u, 0x12u},
 517:Generated_Source\PSoC4/cyfitter_cfg.c **** 			{0x19u, 0x0Du},
 518:Generated_Source\PSoC4/cyfitter_cfg.c **** 			{0x1Cu, 0xA3u},
 519:Generated_Source\PSoC4/cyfitter_cfg.c **** 			{0x1Du, 0x0Du},
 520:Generated_Source\PSoC4/cyfitter_cfg.c **** 			{0x1Eu, 0x4Cu},
 521:Generated_Source\PSoC4/cyfitter_cfg.c **** 			{0x20u, 0x12u},
 522:Generated_Source\PSoC4/cyfitter_cfg.c **** 			{0x21u, 0x0Du},
 523:Generated_Source\PSoC4/cyfitter_cfg.c **** 			{0x28u, 0x10u},
 524:Generated_Source\PSoC4/cyfitter_cfg.c **** 			{0x2Au, 0x02u},
 525:Generated_Source\PSoC4/cyfitter_cfg.c **** 			{0x2Cu, 0x03u},
 526:Generated_Source\PSoC4/cyfitter_cfg.c **** 			{0x2Du, 0x0Du},
 527:Generated_Source\PSoC4/cyfitter_cfg.c **** 			{0x2Eu, 0x98u},
 528:Generated_Source\PSoC4/cyfitter_cfg.c **** 			{0x30u, 0xE0u},
 529:Generated_Source\PSoC4/cyfitter_cfg.c **** 			{0x31u, 0x0Fu},
 530:Generated_Source\PSoC4/cyfitter_cfg.c **** 			{0x34u, 0x1Fu},
 531:Generated_Source\PSoC4/cyfitter_cfg.c **** 			{0x36u, 0x01u},
 532:Generated_Source\PSoC4/cyfitter_cfg.c **** 			{0x38u, 0x22u},
 533:Generated_Source\PSoC4/cyfitter_cfg.c **** 			{0x3Bu, 0x02u},
 534:Generated_Source\PSoC4/cyfitter_cfg.c **** 			{0x3Eu, 0x40u},
 535:Generated_Source\PSoC4/cyfitter_cfg.c **** 			{0x40u, 0x05u},
 536:Generated_Source\PSoC4/cyfitter_cfg.c **** 			{0x49u, 0xFFu},
 537:Generated_Source\PSoC4/cyfitter_cfg.c **** 			{0x4Au, 0xFFu},
 538:Generated_Source\PSoC4/cyfitter_cfg.c **** 			{0x4Bu, 0xFFu},
 539:Generated_Source\PSoC4/cyfitter_cfg.c **** 			{0x4Cu, 0x02u},
 540:Generated_Source\PSoC4/cyfitter_cfg.c **** 			{0x4Du, 0x0Cu},
 541:Generated_Source\PSoC4/cyfitter_cfg.c **** 			{0x4Eu, 0xF8u},
 542:Generated_Source\PSoC4/cyfitter_cfg.c **** 			{0x54u, 0x09u},
 543:Generated_Source\PSoC4/cyfitter_cfg.c **** 			{0x56u, 0x04u},
 544:Generated_Source\PSoC4/cyfitter_cfg.c **** 			{0x58u, 0x04u},
 545:Generated_Source\PSoC4/cyfitter_cfg.c **** 			{0x59u, 0x04u},
 546:Generated_Source\PSoC4/cyfitter_cfg.c **** 			{0x5Au, 0x0Bu},
 547:Generated_Source\PSoC4/cyfitter_cfg.c **** 			{0x5Bu, 0x04u},
 548:Generated_Source\PSoC4/cyfitter_cfg.c **** 			{0x5Cu, 0x33u},
 549:Generated_Source\PSoC4/cyfitter_cfg.c **** 			{0x5Du, 0x39u},
 550:Generated_Source\PSoC4/cyfitter_cfg.c **** 			{0x5Fu, 0x01u},
 551:Generated_Source\PSoC4/cyfitter_cfg.c **** 			{0x62u, 0x48u},
ARM GAS  C:\Users\corne\AppData\Local\Temp\ccof4EPi.s 			page 22


 552:Generated_Source\PSoC4/cyfitter_cfg.c **** 			{0x63u, 0xA1u},
 553:Generated_Source\PSoC4/cyfitter_cfg.c **** 			{0x68u, 0xF0u},
 554:Generated_Source\PSoC4/cyfitter_cfg.c **** 			{0x6Au, 0xF0u},
 555:Generated_Source\PSoC4/cyfitter_cfg.c **** 			{0x6Cu, 0xF0u},
 556:Generated_Source\PSoC4/cyfitter_cfg.c **** 			{0x6Eu, 0xF0u},
 557:Generated_Source\PSoC4/cyfitter_cfg.c **** 			{0x82u, 0x01u},
 558:Generated_Source\PSoC4/cyfitter_cfg.c **** 			{0x86u, 0x02u},
 559:Generated_Source\PSoC4/cyfitter_cfg.c **** 			{0x88u, 0x02u},
 560:Generated_Source\PSoC4/cyfitter_cfg.c **** 			{0x8Bu, 0x01u},
 561:Generated_Source\PSoC4/cyfitter_cfg.c **** 			{0x8Cu, 0x01u},
 562:Generated_Source\PSoC4/cyfitter_cfg.c **** 			{0x92u, 0x01u},
 563:Generated_Source\PSoC4/cyfitter_cfg.c **** 			{0x98u, 0x01u},
 564:Generated_Source\PSoC4/cyfitter_cfg.c **** 			{0xA0u, 0x01u},
 565:Generated_Source\PSoC4/cyfitter_cfg.c **** 			{0xA8u, 0x01u},
 566:Generated_Source\PSoC4/cyfitter_cfg.c **** 			{0xACu, 0x02u},
 567:Generated_Source\PSoC4/cyfitter_cfg.c **** 			{0xAFu, 0x01u},
 568:Generated_Source\PSoC4/cyfitter_cfg.c **** 			{0xB4u, 0x01u},
 569:Generated_Source\PSoC4/cyfitter_cfg.c **** 			{0xB5u, 0x01u},
 570:Generated_Source\PSoC4/cyfitter_cfg.c **** 			{0xB6u, 0x02u},
 571:Generated_Source\PSoC4/cyfitter_cfg.c **** 			{0xB7u, 0x01u},
 572:Generated_Source\PSoC4/cyfitter_cfg.c **** 			{0xB8u, 0x80u},
 573:Generated_Source\PSoC4/cyfitter_cfg.c **** 			{0xBEu, 0x10u},
 574:Generated_Source\PSoC4/cyfitter_cfg.c **** 			{0xBFu, 0x50u},
 575:Generated_Source\PSoC4/cyfitter_cfg.c **** 			{0xC0u, 0x05u},
 576:Generated_Source\PSoC4/cyfitter_cfg.c **** 			{0xC9u, 0xFFu},
 577:Generated_Source\PSoC4/cyfitter_cfg.c **** 			{0xCAu, 0xFFu},
 578:Generated_Source\PSoC4/cyfitter_cfg.c **** 			{0xCBu, 0xFFu},
 579:Generated_Source\PSoC4/cyfitter_cfg.c **** 			{0xCCu, 0x03u},
 580:Generated_Source\PSoC4/cyfitter_cfg.c **** 			{0xCDu, 0x0Cu},
 581:Generated_Source\PSoC4/cyfitter_cfg.c **** 			{0xCEu, 0xF4u},
 582:Generated_Source\PSoC4/cyfitter_cfg.c **** 			{0xD8u, 0x04u},
 583:Generated_Source\PSoC4/cyfitter_cfg.c **** 			{0xD9u, 0x04u},
 584:Generated_Source\PSoC4/cyfitter_cfg.c **** 			{0xDAu, 0x0Au},
 585:Generated_Source\PSoC4/cyfitter_cfg.c **** 			{0xDBu, 0x04u},
 586:Generated_Source\PSoC4/cyfitter_cfg.c **** 			{0xDCu, 0x03u},
 587:Generated_Source\PSoC4/cyfitter_cfg.c **** 			{0xDDu, 0x09u},
 588:Generated_Source\PSoC4/cyfitter_cfg.c **** 			{0xDFu, 0x01u},
 589:Generated_Source\PSoC4/cyfitter_cfg.c **** 			{0xE2u, 0x48u},
 590:Generated_Source\PSoC4/cyfitter_cfg.c **** 			{0xE3u, 0xA1u},
 591:Generated_Source\PSoC4/cyfitter_cfg.c **** 			{0xE8u, 0xF0u},
 592:Generated_Source\PSoC4/cyfitter_cfg.c **** 			{0xEAu, 0xF0u},
 593:Generated_Source\PSoC4/cyfitter_cfg.c **** 			{0xECu, 0xF0u},
 594:Generated_Source\PSoC4/cyfitter_cfg.c **** 			{0xEEu, 0xF0u},
 595:Generated_Source\PSoC4/cyfitter_cfg.c **** 			{0x00u, 0x44u},
 596:Generated_Source\PSoC4/cyfitter_cfg.c **** 			{0x01u, 0x01u},
 597:Generated_Source\PSoC4/cyfitter_cfg.c **** 			{0x04u, 0x04u},
 598:Generated_Source\PSoC4/cyfitter_cfg.c **** 			{0x05u, 0x82u},
 599:Generated_Source\PSoC4/cyfitter_cfg.c **** 			{0x07u, 0x06u},
 600:Generated_Source\PSoC4/cyfitter_cfg.c **** 			{0x08u, 0x10u},
 601:Generated_Source\PSoC4/cyfitter_cfg.c **** 			{0x09u, 0x88u},
 602:Generated_Source\PSoC4/cyfitter_cfg.c **** 			{0x0Au, 0x64u},
 603:Generated_Source\PSoC4/cyfitter_cfg.c **** 			{0x0Eu, 0x44u},
 604:Generated_Source\PSoC4/cyfitter_cfg.c **** 			{0x11u, 0x50u},
 605:Generated_Source\PSoC4/cyfitter_cfg.c **** 			{0x13u, 0x02u},
 606:Generated_Source\PSoC4/cyfitter_cfg.c **** 			{0x14u, 0x40u},
 607:Generated_Source\PSoC4/cyfitter_cfg.c **** 			{0x15u, 0x51u},
 608:Generated_Source\PSoC4/cyfitter_cfg.c **** 			{0x18u, 0x44u},
ARM GAS  C:\Users\corne\AppData\Local\Temp\ccof4EPi.s 			page 23


 609:Generated_Source\PSoC4/cyfitter_cfg.c **** 			{0x19u, 0x40u},
 610:Generated_Source\PSoC4/cyfitter_cfg.c **** 			{0x1Fu, 0x50u},
 611:Generated_Source\PSoC4/cyfitter_cfg.c **** 			{0x21u, 0x02u},
 612:Generated_Source\PSoC4/cyfitter_cfg.c **** 			{0x26u, 0x60u},
 613:Generated_Source\PSoC4/cyfitter_cfg.c **** 			{0x28u, 0x40u},
 614:Generated_Source\PSoC4/cyfitter_cfg.c **** 			{0x29u, 0x80u},
 615:Generated_Source\PSoC4/cyfitter_cfg.c **** 			{0x2Cu, 0x02u},
 616:Generated_Source\PSoC4/cyfitter_cfg.c **** 			{0x30u, 0x10u},
 617:Generated_Source\PSoC4/cyfitter_cfg.c **** 			{0x31u, 0x02u},
 618:Generated_Source\PSoC4/cyfitter_cfg.c **** 			{0x32u, 0x40u},
 619:Generated_Source\PSoC4/cyfitter_cfg.c **** 			{0x33u, 0x0Cu},
 620:Generated_Source\PSoC4/cyfitter_cfg.c **** 			{0x38u, 0x04u},
 621:Generated_Source\PSoC4/cyfitter_cfg.c **** 			{0x39u, 0x50u},
 622:Generated_Source\PSoC4/cyfitter_cfg.c **** 			{0x3Eu, 0x10u},
 623:Generated_Source\PSoC4/cyfitter_cfg.c **** 			{0x48u, 0x02u},
 624:Generated_Source\PSoC4/cyfitter_cfg.c **** 			{0x4Cu, 0x02u},
 625:Generated_Source\PSoC4/cyfitter_cfg.c **** 			{0x58u, 0x80u},
 626:Generated_Source\PSoC4/cyfitter_cfg.c **** 			{0x59u, 0x05u},
 627:Generated_Source\PSoC4/cyfitter_cfg.c **** 			{0x5Au, 0x20u},
 628:Generated_Source\PSoC4/cyfitter_cfg.c **** 			{0x61u, 0x40u},
 629:Generated_Source\PSoC4/cyfitter_cfg.c **** 			{0x63u, 0x40u},
 630:Generated_Source\PSoC4/cyfitter_cfg.c **** 			{0x6Cu, 0x02u},
 631:Generated_Source\PSoC4/cyfitter_cfg.c **** 			{0x6Eu, 0x10u},
 632:Generated_Source\PSoC4/cyfitter_cfg.c **** 			{0x7Au, 0x40u},
 633:Generated_Source\PSoC4/cyfitter_cfg.c **** 			{0x7Eu, 0x20u},
 634:Generated_Source\PSoC4/cyfitter_cfg.c **** 			{0x87u, 0x40u},
 635:Generated_Source\PSoC4/cyfitter_cfg.c **** 			{0x88u, 0x08u},
 636:Generated_Source\PSoC4/cyfitter_cfg.c **** 			{0x91u, 0x51u},
 637:Generated_Source\PSoC4/cyfitter_cfg.c **** 			{0x92u, 0xC4u},
 638:Generated_Source\PSoC4/cyfitter_cfg.c **** 			{0x94u, 0x04u},
 639:Generated_Source\PSoC4/cyfitter_cfg.c **** 			{0x97u, 0x20u},
 640:Generated_Source\PSoC4/cyfitter_cfg.c **** 			{0x98u, 0x80u},
 641:Generated_Source\PSoC4/cyfitter_cfg.c **** 			{0x99u, 0x07u},
 642:Generated_Source\PSoC4/cyfitter_cfg.c **** 			{0x9Bu, 0x02u},
 643:Generated_Source\PSoC4/cyfitter_cfg.c **** 			{0xA1u, 0x88u},
 644:Generated_Source\PSoC4/cyfitter_cfg.c **** 			{0xA3u, 0x08u},
 645:Generated_Source\PSoC4/cyfitter_cfg.c **** 			{0xA4u, 0x08u},
 646:Generated_Source\PSoC4/cyfitter_cfg.c **** 			{0xAAu, 0x08u},
 647:Generated_Source\PSoC4/cyfitter_cfg.c **** 			{0xADu, 0x80u},
 648:Generated_Source\PSoC4/cyfitter_cfg.c **** 			{0xAFu, 0x08u},
 649:Generated_Source\PSoC4/cyfitter_cfg.c **** 			{0xB4u, 0x80u},
 650:Generated_Source\PSoC4/cyfitter_cfg.c **** 			{0xB7u, 0x10u},
 651:Generated_Source\PSoC4/cyfitter_cfg.c **** 			{0xC0u, 0xFDu},
 652:Generated_Source\PSoC4/cyfitter_cfg.c **** 			{0xC2u, 0x5Fu},
 653:Generated_Source\PSoC4/cyfitter_cfg.c **** 			{0xC4u, 0xDBu},
 654:Generated_Source\PSoC4/cyfitter_cfg.c **** 			{0xCAu, 0x19u},
 655:Generated_Source\PSoC4/cyfitter_cfg.c **** 			{0xCCu, 0x0Fu},
 656:Generated_Source\PSoC4/cyfitter_cfg.c **** 			{0xCEu, 0x2Eu},
 657:Generated_Source\PSoC4/cyfitter_cfg.c **** 			{0xD2u, 0x18u},
 658:Generated_Source\PSoC4/cyfitter_cfg.c **** 			{0xD6u, 0x0Fu},
 659:Generated_Source\PSoC4/cyfitter_cfg.c **** 			{0xD8u, 0x09u},
 660:Generated_Source\PSoC4/cyfitter_cfg.c **** 			{0xDEu, 0x41u},
 661:Generated_Source\PSoC4/cyfitter_cfg.c **** 			{0xE4u, 0x20u},
 662:Generated_Source\PSoC4/cyfitter_cfg.c **** 			{0xEAu, 0x08u},
 663:Generated_Source\PSoC4/cyfitter_cfg.c **** 			{0xAFu, 0x40u},
 664:Generated_Source\PSoC4/cyfitter_cfg.c **** 			{0xB4u, 0x40u},
 665:Generated_Source\PSoC4/cyfitter_cfg.c **** 			{0xEAu, 0x40u},
ARM GAS  C:\Users\corne\AppData\Local\Temp\ccof4EPi.s 			page 24


 666:Generated_Source\PSoC4/cyfitter_cfg.c **** 			{0x57u, 0x08u},
 667:Generated_Source\PSoC4/cyfitter_cfg.c **** 			{0x59u, 0x20u},
 668:Generated_Source\PSoC4/cyfitter_cfg.c **** 			{0x5Fu, 0x48u},
 669:Generated_Source\PSoC4/cyfitter_cfg.c **** 			{0x68u, 0x04u},
 670:Generated_Source\PSoC4/cyfitter_cfg.c **** 			{0x6Eu, 0x80u},
 671:Generated_Source\PSoC4/cyfitter_cfg.c **** 			{0x84u, 0x04u},
 672:Generated_Source\PSoC4/cyfitter_cfg.c **** 			{0x8Fu, 0x08u},
 673:Generated_Source\PSoC4/cyfitter_cfg.c **** 			{0xD4u, 0xC0u},
 674:Generated_Source\PSoC4/cyfitter_cfg.c **** 			{0xD6u, 0xA0u},
 675:Generated_Source\PSoC4/cyfitter_cfg.c **** 			{0xDAu, 0xC0u},
 676:Generated_Source\PSoC4/cyfitter_cfg.c **** 			{0xE6u, 0x40u},
 677:Generated_Source\PSoC4/cyfitter_cfg.c **** 			{0x87u, 0x40u},
 678:Generated_Source\PSoC4/cyfitter_cfg.c **** 			{0x8Du, 0x20u},
 679:Generated_Source\PSoC4/cyfitter_cfg.c **** 			{0x97u, 0x40u},
 680:Generated_Source\PSoC4/cyfitter_cfg.c **** 			{0x9Du, 0x20u},
 681:Generated_Source\PSoC4/cyfitter_cfg.c **** 			{0x9Fu, 0x08u},
 682:Generated_Source\PSoC4/cyfitter_cfg.c **** 			{0xA6u, 0x40u},
 683:Generated_Source\PSoC4/cyfitter_cfg.c **** 			{0xE6u, 0x40u},
 684:Generated_Source\PSoC4/cyfitter_cfg.c **** 			{0x07u, 0x80u},
 685:Generated_Source\PSoC4/cyfitter_cfg.c **** 			{0x53u, 0x82u},
 686:Generated_Source\PSoC4/cyfitter_cfg.c **** 			{0x54u, 0x02u},
 687:Generated_Source\PSoC4/cyfitter_cfg.c **** 			{0x86u, 0x40u},
 688:Generated_Source\PSoC4/cyfitter_cfg.c **** 			{0x8Bu, 0x80u},
 689:Generated_Source\PSoC4/cyfitter_cfg.c **** 			{0xA0u, 0x02u},
 690:Generated_Source\PSoC4/cyfitter_cfg.c **** 			{0xA6u, 0x40u},
 691:Generated_Source\PSoC4/cyfitter_cfg.c **** 			{0xA8u, 0x02u},
 692:Generated_Source\PSoC4/cyfitter_cfg.c **** 			{0xAFu, 0x08u},
 693:Generated_Source\PSoC4/cyfitter_cfg.c **** 			{0xC0u, 0x20u},
 694:Generated_Source\PSoC4/cyfitter_cfg.c **** 			{0xD4u, 0xA0u},
 695:Generated_Source\PSoC4/cyfitter_cfg.c **** 			{0xD6u, 0x20u},
 696:Generated_Source\PSoC4/cyfitter_cfg.c **** 			{0xE6u, 0x40u},
 697:Generated_Source\PSoC4/cyfitter_cfg.c **** 			{0xEAu, 0x30u},
 698:Generated_Source\PSoC4/cyfitter_cfg.c **** 			{0xAFu, 0x02u},
 699:Generated_Source\PSoC4/cyfitter_cfg.c **** 			{0xB7u, 0x80u},
 700:Generated_Source\PSoC4/cyfitter_cfg.c **** 			{0xEAu, 0x10u},
 701:Generated_Source\PSoC4/cyfitter_cfg.c **** 			{0x08u, 0x01u},
 702:Generated_Source\PSoC4/cyfitter_cfg.c **** 			{0x0Bu, 0x80u},
 703:Generated_Source\PSoC4/cyfitter_cfg.c **** 			{0x44u, 0x01u},
 704:Generated_Source\PSoC4/cyfitter_cfg.c **** 			{0xC2u, 0x08u},
 705:Generated_Source\PSoC4/cyfitter_cfg.c **** 			{0xD0u, 0x04u},
 706:Generated_Source\PSoC4/cyfitter_cfg.c **** 			{0xAFu, 0x40u},
 707:Generated_Source\PSoC4/cyfitter_cfg.c **** 			{0x10u, 0x0Au},
 708:Generated_Source\PSoC4/cyfitter_cfg.c **** 			{0x11u, 0x01u},
 709:Generated_Source\PSoC4/cyfitter_cfg.c **** 			{0x12u, 0x08u},
 710:Generated_Source\PSoC4/cyfitter_cfg.c **** 			{0x13u, 0x01u},
 711:Generated_Source\PSoC4/cyfitter_cfg.c **** 		};
 712:Generated_Source\PSoC4/cyfitter_cfg.c **** 
 713:Generated_Source\PSoC4/cyfitter_cfg.c **** 
 714:Generated_Source\PSoC4/cyfitter_cfg.c **** 
 715:Generated_Source\PSoC4/cyfitter_cfg.c **** 		CYPACKED typedef struct {
 716:Generated_Source\PSoC4/cyfitter_cfg.c **** 			void CYFAR *address;
 717:Generated_Source\PSoC4/cyfitter_cfg.c **** 			uint16 size;
 718:Generated_Source\PSoC4/cyfitter_cfg.c **** 		} CYPACKED_ATTR cfg_memset_t;
 719:Generated_Source\PSoC4/cyfitter_cfg.c **** 
 720:Generated_Source\PSoC4/cyfitter_cfg.c **** 
 721:Generated_Source\PSoC4/cyfitter_cfg.c **** 		CYPACKED typedef struct {
 722:Generated_Source\PSoC4/cyfitter_cfg.c **** 			void CYFAR *dest;
ARM GAS  C:\Users\corne\AppData\Local\Temp\ccof4EPi.s 			page 25


 723:Generated_Source\PSoC4/cyfitter_cfg.c **** 			const void CYCODE *src;
 724:Generated_Source\PSoC4/cyfitter_cfg.c **** 			uint16 size;
 725:Generated_Source\PSoC4/cyfitter_cfg.c **** 		} CYPACKED_ATTR cfg_memcpy_t;
 726:Generated_Source\PSoC4/cyfitter_cfg.c **** 
 727:Generated_Source\PSoC4/cyfitter_cfg.c **** 		static const cfg_memset_t CYCODE cfg_memset_list[] = {
 728:Generated_Source\PSoC4/cyfitter_cfg.c **** 			/* address, size */
 729:Generated_Source\PSoC4/cyfitter_cfg.c **** 			{(void CYFAR *)(CYDEV_UDB_P0_U0_BASE), 640u},
 730:Generated_Source\PSoC4/cyfitter_cfg.c **** 			{(void CYFAR *)(CYDEV_UDB_P1_ROUTE_BASE), 1280u},
 731:Generated_Source\PSoC4/cyfitter_cfg.c **** 			{(void CYFAR *)(CYDEV_UDB_DSI0_BASE), 2048u},
 732:Generated_Source\PSoC4/cyfitter_cfg.c **** 		};
 733:Generated_Source\PSoC4/cyfitter_cfg.c **** 
 734:Generated_Source\PSoC4/cyfitter_cfg.c **** 		/* UDB_0_2_0_CONFIG Address: CYDEV_UDB_P1_U1_BASE Size (bytes): 128 */
 735:Generated_Source\PSoC4/cyfitter_cfg.c **** 		static const uint8 CYCODE BS_UDB_0_2_0_CONFIG_VAL[] = {
 736:Generated_Source\PSoC4/cyfitter_cfg.c **** 			0x00u, 0x02u, 0x00u, 0x1Du, 0x14u, 0x10u, 0x23u, 0x00u, 0x03u, 0x10u, 0x0Cu, 0x00u, 0x39u, 0x00u
 737:Generated_Source\PSoC4/cyfitter_cfg.c **** 			0x21u, 0xC1u, 0x42u, 0x3Au, 0x21u, 0x00u, 0x10u, 0x60u, 0x63u, 0x43u, 0x00u, 0x94u, 0x63u, 0x10u
 738:Generated_Source\PSoC4/cyfitter_cfg.c **** 			0x63u, 0x10u, 0x00u, 0x00u, 0x00u, 0x00u, 0x00u, 0x00u, 0x42u, 0xA3u, 0x21u, 0x4Cu, 0x00u, 0x00u
 739:Generated_Source\PSoC4/cyfitter_cfg.c **** 			0x40u, 0x00u, 0x03u, 0xE0u, 0x04u, 0x00u, 0x3Au, 0x1Fu, 0x00u, 0x00u, 0xC0u, 0x80u, 0x00u, 0x00u
 740:Generated_Source\PSoC4/cyfitter_cfg.c **** 			0x25u, 0x03u, 0x40u, 0x00u, 0x06u, 0xDEu, 0xFBu, 0x0Cu, 0x1Fu, 0xFFu, 0xFFu, 0xFFu, 0x22u, 0x00u
 741:Generated_Source\PSoC4/cyfitter_cfg.c **** 			0x04u, 0x00u, 0x00u, 0x00u, 0x00u, 0x00u, 0x02u, 0x20u, 0x04u, 0x04u, 0x04u, 0x04u, 0x33u, 0x33u
 742:Generated_Source\PSoC4/cyfitter_cfg.c **** 			0x00u, 0x00u, 0xC0u, 0x00u, 0x40u, 0x01u, 0x10u, 0x11u, 0xC0u, 0x01u, 0x00u, 0x11u, 0x40u, 0x01u
 743:Generated_Source\PSoC4/cyfitter_cfg.c **** 			0x00u, 0x00u, 0x00u, 0x00u, 0x00u, 0x00u, 0x00u, 0x00u, 0x00u, 0x00u, 0x00u, 0x00u, 0x00u, 0x00u
 744:Generated_Source\PSoC4/cyfitter_cfg.c **** 
 745:Generated_Source\PSoC4/cyfitter_cfg.c **** 		static const cfg_memcpy_t CYCODE cfg_memcpy_list [] = {
 746:Generated_Source\PSoC4/cyfitter_cfg.c **** 			/* dest, src, size */
 747:Generated_Source\PSoC4/cyfitter_cfg.c **** 			{(void CYFAR *)(CYDEV_UDB_P1_U1_BASE), BS_UDB_0_2_0_CONFIG_VAL, 128u},
 748:Generated_Source\PSoC4/cyfitter_cfg.c **** 		};
 749:Generated_Source\PSoC4/cyfitter_cfg.c **** 
 750:Generated_Source\PSoC4/cyfitter_cfg.c **** 		uint8 CYDATA i;
 751:Generated_Source\PSoC4/cyfitter_cfg.c **** 
 752:Generated_Source\PSoC4/cyfitter_cfg.c **** 		/* Zero out critical memory blocks before beginning configuration */
 753:Generated_Source\PSoC4/cyfitter_cfg.c **** 		for (i = 0u; i < (sizeof(cfg_memset_list)/sizeof(cfg_memset_list[0])); i++)
 625              		.loc 1 753 0
 626 0226 0024     		movs	r4, #0
 627 0228 0FE0     		b	.L28
 628              	.LVL44:
 629              	.L29:
 630              	.LBB4:
 754:Generated_Source\PSoC4/cyfitter_cfg.c **** 		{
 755:Generated_Source\PSoC4/cyfitter_cfg.c **** 			const cfg_memset_t CYCODE * CYDATA ms = &cfg_memset_list[i];
 756:Generated_Source\PSoC4/cyfitter_cfg.c **** 			CYMEMZERO(ms->address, (size_t)(uint32)(ms->size));
 631              		.loc 1 756 0 discriminator 3
 632 022a 5048     		ldr	r0, .L32+4
 633 022c 6200     		lsls	r2, r4, #1
 634 022e 1319     		adds	r3, r2, r4
 635 0230 5900     		lsls	r1, r3, #1
 636 0232 0B00     		movs	r3, r1
 637 0234 4118     		adds	r1, r0, r1
 638 0236 8988     		ldrh	r1, [r1, #4]
 639 0238 1A5A     		ldrh	r2, [r3, r0]
 640 023a C318     		adds	r3, r0, r3
 641 023c 5888     		ldrh	r0, [r3, #2]
 642 023e 0004     		lsls	r0, r0, #16
 643 0240 1043     		orrs	r0, r2
 644 0242 FFF7FEFF 		bl	CYMEMZERO
 645              	.LVL45:
 646              	.LBE4:
 753:Generated_Source\PSoC4/cyfitter_cfg.c **** 		{
ARM GAS  C:\Users\corne\AppData\Local\Temp\ccof4EPi.s 			page 26


 647              		.loc 1 753 0 discriminator 3
 648 0246 0134     		adds	r4, r4, #1
 649              	.LVL46:
 650 0248 E4B2     		uxtb	r4, r4
 651              	.LVL47:
 652              	.L28:
 753:Generated_Source\PSoC4/cyfitter_cfg.c **** 		{
 653              		.loc 1 753 0 is_stmt 0 discriminator 1
 654 024a 022C     		cmp	r4, #2
 655 024c EDD9     		bls	.L29
 656 024e 0024     		movs	r4, #0
 657              	.LVL48:
 658 0250 11E0     		b	.L30
 659              	.LVL49:
 660              	.L31:
 661              	.LBB5:
 757:Generated_Source\PSoC4/cyfitter_cfg.c **** 		}
 758:Generated_Source\PSoC4/cyfitter_cfg.c **** 
 759:Generated_Source\PSoC4/cyfitter_cfg.c **** 		/* Copy device configuration data into registers */
 760:Generated_Source\PSoC4/cyfitter_cfg.c **** 		for (i = 0u; i < (sizeof(cfg_memcpy_list)/sizeof(cfg_memcpy_list[0])); i++)
 761:Generated_Source\PSoC4/cyfitter_cfg.c **** 		{
 762:Generated_Source\PSoC4/cyfitter_cfg.c **** 			const cfg_memcpy_t CYCODE * CYDATA mc = &cfg_memcpy_list[i];
 763:Generated_Source\PSoC4/cyfitter_cfg.c **** 			void * CYDATA destPtr = mc->dest;
 662              		.loc 1 763 0 is_stmt 1 discriminator 3
 663 0252 464E     		ldr	r6, .L32+4
 664 0254 A200     		lsls	r2, r4, #2
 665 0256 1319     		adds	r3, r2, r4
 666 0258 5900     		lsls	r1, r3, #1
 667 025a 7118     		adds	r1, r6, r1
 668 025c 8D8A     		ldrh	r5, [r1, #20]
 669 025e C88A     		ldrh	r0, [r1, #22]
 670 0260 0004     		lsls	r0, r0, #16
 671 0262 2843     		orrs	r0, r5
 672              	.LVL50:
 764:Generated_Source\PSoC4/cyfitter_cfg.c **** 			const void CYCODE * CYDATA srcPtr = mc->src;
 673              		.loc 1 764 0 discriminator 3
 674 0264 0A8B     		ldrh	r2, [r1, #24]
 675 0266 498B     		ldrh	r1, [r1, #26]
 676 0268 0904     		lsls	r1, r1, #16
 677 026a 1143     		orrs	r1, r2
 678              	.LVL51:
 765:Generated_Source\PSoC4/cyfitter_cfg.c **** 			uint16 CYDATA numBytes = mc->size;
 766:Generated_Source\PSoC4/cyfitter_cfg.c **** 			CYCONFIGCPYCODE(destPtr, srcPtr, numBytes);
 679              		.loc 1 766 0 discriminator 3
 680 026c 8022     		movs	r2, #128
 681 026e FFF7FEFF 		bl	CYCONFIGCPYCODE
 682              	.LVL52:
 683              	.LBE5:
 760:Generated_Source\PSoC4/cyfitter_cfg.c **** 		{
 684              		.loc 1 760 0 discriminator 3
 685 0272 0134     		adds	r4, r4, #1
 686              	.LVL53:
 687 0274 E4B2     		uxtb	r4, r4
 688              	.LVL54:
 689              	.L30:
 760:Generated_Source\PSoC4/cyfitter_cfg.c **** 		{
 690              		.loc 1 760 0 is_stmt 0 discriminator 1
ARM GAS  C:\Users\corne\AppData\Local\Temp\ccof4EPi.s 			page 27


 691 0276 002C     		cmp	r4, #0
 692 0278 EBD0     		beq	.L31
 767:Generated_Source\PSoC4/cyfitter_cfg.c **** 		}
 768:Generated_Source\PSoC4/cyfitter_cfg.c **** 
 769:Generated_Source\PSoC4/cyfitter_cfg.c **** 		cfg_write_bytes32(cy_cfg_addr_table, cy_cfg_data_table);
 693              		.loc 1 769 0 is_stmt 1
 694 027a 3C49     		ldr	r1, .L32+4
 695 027c 2031     		adds	r1, r1, #32
 696 027e 3C48     		ldr	r0, .L32+8
 697 0280 5830     		adds	r0, r0, #88
 698 0282 FFF7FEFF 		bl	cfg_write_bytes32
 699              	.LVL55:
 770:Generated_Source\PSoC4/cyfitter_cfg.c **** 
 771:Generated_Source\PSoC4/cyfitter_cfg.c **** 		/* Perform normal device configuration. Order is not critical for these items. */
 772:Generated_Source\PSoC4/cyfitter_cfg.c **** 		CY_SET_REG16((void *)(CYREG_UDB_BCTL0_DRV), 0x0A00u);
 700              		.loc 1 772 0
 701 0286 A022     		movs	r2, #160
 702 0288 1201     		lsls	r2, r2, #4
 703 028a 3A4B     		ldr	r3, .L32+12
 704 028c 1A80     		strh	r2, [r3]
 773:Generated_Source\PSoC4/cyfitter_cfg.c **** 		CY_SET_REG8((void *)(CYREG_UDB_BCTL0_DRV + 0x2u), 0x01u);
 705              		.loc 1 773 0
 706 028e 0121     		movs	r1, #1
 707 0290 394B     		ldr	r3, .L32+16
 708 0292 1970     		strb	r1, [r3]
 774:Generated_Source\PSoC4/cyfitter_cfg.c **** 
 775:Generated_Source\PSoC4/cyfitter_cfg.c **** 		/* HSIOM Starting address: CYDEV_HSIOM_BASE */
 776:Generated_Source\PSoC4/cyfitter_cfg.c **** 		CY_SET_REG32((void *)(CYREG_HSIOM_PORT_SEL1), 0x0000FFFFu);
 709              		.loc 1 776 0
 710 0294 394A     		ldr	r2, .L32+20
 711 0296 3A4B     		ldr	r3, .L32+24
 712 0298 1A60     		str	r2, [r3]
 777:Generated_Source\PSoC4/cyfitter_cfg.c **** 		CY_SET_REG32((void *)(CYREG_HSIOM_PORT_SEL2), 0x00003303u);
 713              		.loc 1 777 0
 714 029a 3A4A     		ldr	r2, .L32+28
 715 029c 3A4B     		ldr	r3, .L32+32
 716 029e 1A60     		str	r2, [r3]
 778:Generated_Source\PSoC4/cyfitter_cfg.c **** 		CY_SET_REG32((void *)(CYREG_HSIOM_PORT_SEL3), 0x0000EE00u);
 717              		.loc 1 778 0
 718 02a0 EE22     		movs	r2, #238
 719 02a2 1202     		lsls	r2, r2, #8
 720 02a4 394B     		ldr	r3, .L32+36
 721 02a6 1A60     		str	r2, [r3]
 779:Generated_Source\PSoC4/cyfitter_cfg.c **** 		CY_SET_REG32((void *)(CYREG_HSIOM_PORT_SEL5), 0x003033E6u);
 722              		.loc 1 779 0
 723 02a8 394A     		ldr	r2, .L32+40
 724 02aa 3A4B     		ldr	r3, .L32+44
 725 02ac 1A60     		str	r2, [r3]
 780:Generated_Source\PSoC4/cyfitter_cfg.c **** 		CY_SET_REG32((void *)(CYREG_HSIOM_PORT_SEL6), 0x00000E99u);
 726              		.loc 1 780 0
 727 02ae 3A4A     		ldr	r2, .L32+48
 728 02b0 3A4B     		ldr	r3, .L32+52
 729 02b2 1A60     		str	r2, [r3]
 781:Generated_Source\PSoC4/cyfitter_cfg.c **** 
 782:Generated_Source\PSoC4/cyfitter_cfg.c **** 		/* UDB_PA_0 Starting address: CYDEV_UDB_PA0_BASE */
 783:Generated_Source\PSoC4/cyfitter_cfg.c **** 		CY_SET_REG32((void *)(CYDEV_UDB_PA0_BASE), 0x00990000u);
 730              		.loc 1 783 0
ARM GAS  C:\Users\corne\AppData\Local\Temp\ccof4EPi.s 			page 28


 731 02b4 9923     		movs	r3, #153
 732 02b6 1B04     		lsls	r3, r3, #16
 733 02b8 394A     		ldr	r2, .L32+56
 734 02ba 1360     		str	r3, [r2]
 784:Generated_Source\PSoC4/cyfitter_cfg.c **** 		CY_SET_REG32((void *)(CYREG_UDB_PA0_CFG8), 0x04E10000u);
 735              		.loc 1 784 0
 736 02bc 3948     		ldr	r0, .L32+60
 737 02be 3A4A     		ldr	r2, .L32+64
 738 02c0 1060     		str	r0, [r2]
 785:Generated_Source\PSoC4/cyfitter_cfg.c **** 
 786:Generated_Source\PSoC4/cyfitter_cfg.c **** 		/* UDB_PA_1 Starting address: CYDEV_UDB_PA1_BASE */
 787:Generated_Source\PSoC4/cyfitter_cfg.c **** 		CY_SET_REG32((void *)(CYDEV_UDB_PA1_BASE), 0x00990000u);
 739              		.loc 1 787 0
 740 02c2 3A4A     		ldr	r2, .L32+68
 741 02c4 1360     		str	r3, [r2]
 788:Generated_Source\PSoC4/cyfitter_cfg.c **** 
 789:Generated_Source\PSoC4/cyfitter_cfg.c **** 		/* UDB_PA_2 Starting address: CYDEV_UDB_PA2_BASE */
 790:Generated_Source\PSoC4/cyfitter_cfg.c **** 		CY_SET_REG32((void *)(CYDEV_UDB_PA2_BASE), 0x00990000u);
 742              		.loc 1 790 0
 743 02c6 3A4A     		ldr	r2, .L32+72
 744 02c8 1360     		str	r3, [r2]
 791:Generated_Source\PSoC4/cyfitter_cfg.c **** 		CY_SET_REG32((void *)(CYREG_UDB_PA2_CFG8), 0x00270000u);
 745              		.loc 1 791 0
 746 02ca 9C20     		movs	r0, #156
 747 02cc 8003     		lsls	r0, r0, #14
 748 02ce 394A     		ldr	r2, .L32+76
 749 02d0 1060     		str	r0, [r2]
 792:Generated_Source\PSoC4/cyfitter_cfg.c **** 
 793:Generated_Source\PSoC4/cyfitter_cfg.c **** 		/* UDB_PA_4 Starting address: CYDEV_UDB_PA4_BASE */
 794:Generated_Source\PSoC4/cyfitter_cfg.c **** 		CY_SET_REG32((void *)(CYDEV_UDB_PA4_BASE), 0x00990000u);
 750              		.loc 1 794 0
 751 02d2 394A     		ldr	r2, .L32+80
 752 02d4 1360     		str	r3, [r2]
 795:Generated_Source\PSoC4/cyfitter_cfg.c **** 
 796:Generated_Source\PSoC4/cyfitter_cfg.c **** 		/* UDB_PA_5 Starting address: CYDEV_UDB_PA5_BASE */
 797:Generated_Source\PSoC4/cyfitter_cfg.c **** 		CY_SET_REG32((void *)(CYDEV_UDB_PA5_BASE), 0x00990000u);
 753              		.loc 1 797 0
 754 02d6 394A     		ldr	r2, .L32+84
 755 02d8 1360     		str	r3, [r2]
 798:Generated_Source\PSoC4/cyfitter_cfg.c **** 
 799:Generated_Source\PSoC4/cyfitter_cfg.c **** 		/* UDB_PA_7 Starting address: CYDEV_UDB_PA7_BASE */
 800:Generated_Source\PSoC4/cyfitter_cfg.c **** 		CY_SET_REG32((void *)(CYDEV_UDB_PA7_BASE), 0x00990000u);
 756              		.loc 1 800 0
 757 02da 394A     		ldr	r2, .L32+88
 758 02dc 1360     		str	r3, [r2]
 801:Generated_Source\PSoC4/cyfitter_cfg.c **** 
 802:Generated_Source\PSoC4/cyfitter_cfg.c **** 		/* TCPWM_CNT0 Starting address: CYDEV_TCPWM_CNT0_TR_CTRL0 */
 803:Generated_Source\PSoC4/cyfitter_cfg.c **** 		CY_SET_REG32((void *)(CYREG_TCPWM_CNT0_TR_CTRL0), 0x0000001Au);
 759              		.loc 1 803 0
 760 02de 1A22     		movs	r2, #26
 761 02e0 384B     		ldr	r3, .L32+92
 762 02e2 1A60     		str	r2, [r3]
 804:Generated_Source\PSoC4/cyfitter_cfg.c **** 
 805:Generated_Source\PSoC4/cyfitter_cfg.c **** 		/* INT_SELECT Starting address: CYDEV_CPUSS_INT_SEL */
 806:Generated_Source\PSoC4/cyfitter_cfg.c **** 		CY_SET_REG32((void *)(CYREG_CPUSS_INT_SEL), 0x00000003u);
 763              		.loc 1 806 0
 764 02e4 0323     		movs	r3, #3
ARM GAS  C:\Users\corne\AppData\Local\Temp\ccof4EPi.s 			page 29


 765 02e6 384A     		ldr	r2, .L32+96
 766 02e8 1360     		str	r3, [r2]
 807:Generated_Source\PSoC4/cyfitter_cfg.c **** 
 808:Generated_Source\PSoC4/cyfitter_cfg.c **** 		/* INT_CONFIG Starting address: CYDEV_UDB_INT_CFG */
 809:Generated_Source\PSoC4/cyfitter_cfg.c **** 		CY_SET_REG32((void *)(CYREG_UDB_INT_CFG), 0x00000003u);
 767              		.loc 1 809 0
 768 02ea 384A     		ldr	r2, .L32+100
 769 02ec 1360     		str	r3, [r2]
 810:Generated_Source\PSoC4/cyfitter_cfg.c **** 
 811:Generated_Source\PSoC4/cyfitter_cfg.c **** 		/* Enable UDB array and digital routing */
 812:Generated_Source\PSoC4/cyfitter_cfg.c **** 		CY_SET_XTND_REG8((void *)CYREG_UDB_UDB_WAIT_CFG, (uint8)((CY_GET_XTND_REG8((void *)CYREG_UDB_UDB_
 770              		.loc 1 812 0
 771 02ee 3848     		ldr	r0, .L32+104
 772 02f0 0378     		ldrb	r3, [r0]
 773 02f2 3C22     		movs	r2, #60
 774 02f4 9343     		bics	r3, r2
 775 02f6 1422     		movs	r2, #20
 776 02f8 1343     		orrs	r3, r2
 777 02fa DBB2     		uxtb	r3, r3
 778 02fc 0370     		strb	r3, [r0]
 813:Generated_Source\PSoC4/cyfitter_cfg.c **** 		CY_SET_XTND_REG8((void *)CYREG_UDB_UDB_BANK_CTL, (uint8)(CY_GET_XTND_REG8((void *)CYREG_UDB_UDB_B
 779              		.loc 1 813 0
 780 02fe 354A     		ldr	r2, .L32+108
 781 0300 1078     		ldrb	r0, [r2]
 782 0302 1623     		movs	r3, #22
 783 0304 0343     		orrs	r3, r0
 784 0306 DBB2     		uxtb	r3, r3
 785 0308 1370     		strb	r3, [r2]
 786              	.LBE3:
 814:Generated_Source\PSoC4/cyfitter_cfg.c **** 	}
 815:Generated_Source\PSoC4/cyfitter_cfg.c **** 
 816:Generated_Source\PSoC4/cyfitter_cfg.c **** 	/* Perform second pass device configuration. These items must be configured in specific order afte
 817:Generated_Source\PSoC4/cyfitter_cfg.c **** 	/* IOPINS0_0 Starting address: CYDEV_GPIO_PRT0_BASE */
 818:Generated_Source\PSoC4/cyfitter_cfg.c **** 	CY_SET_REG32((void *)(CYREG_GPIO_PRT0_PC), 0x00000006u);
 787              		.loc 1 818 0
 788 030a 0623     		movs	r3, #6
 789 030c 324A     		ldr	r2, .L32+112
 790 030e 1360     		str	r3, [r2]
 819:Generated_Source\PSoC4/cyfitter_cfg.c **** 
 820:Generated_Source\PSoC4/cyfitter_cfg.c **** 	/* IOPINS0_1 Starting address: CYDEV_GPIO_PRT1_BASE */
 821:Generated_Source\PSoC4/cyfitter_cfg.c **** 	CY_SET_REG32((void *)(CYDEV_GPIO_PRT1_BASE), 0x0000000Du);
 791              		.loc 1 821 0
 792 0310 0D22     		movs	r2, #13
 793 0312 3248     		ldr	r0, .L32+116
 794 0314 0260     		str	r2, [r0]
 822:Generated_Source\PSoC4/cyfitter_cfg.c **** 	CY_SET_REG32((void *)(CYREG_GPIO_PRT1_PC), 0x001B6D8Eu);
 795              		.loc 1 822 0
 796 0316 324C     		ldr	r4, .L32+120
 797              	.LVL56:
 798 0318 3248     		ldr	r0, .L32+124
 799 031a 0460     		str	r4, [r0]
 823:Generated_Source\PSoC4/cyfitter_cfg.c **** 	CY_SET_REG32((void *)(CYREG_GPIO_PRT1_PC2), 0x0000000Du);
 800              		.loc 1 823 0
 801 031c 3248     		ldr	r0, .L32+128
 802 031e 0260     		str	r2, [r0]
 824:Generated_Source\PSoC4/cyfitter_cfg.c **** 
 825:Generated_Source\PSoC4/cyfitter_cfg.c **** 	/* IOPINS0_2 Starting address: CYDEV_GPIO_PRT2_BASE */
ARM GAS  C:\Users\corne\AppData\Local\Temp\ccof4EPi.s 			page 30


 826:Generated_Source\PSoC4/cyfitter_cfg.c **** 	CY_SET_REG32((void *)(CYDEV_GPIO_PRT2_BASE), 0x0000008Du);
 803              		.loc 1 826 0
 804 0320 8D20     		movs	r0, #141
 805 0322 324A     		ldr	r2, .L32+132
 806 0324 1060     		str	r0, [r2]
 827:Generated_Source\PSoC4/cyfitter_cfg.c **** 	CY_SET_REG32((void *)(CYREG_GPIO_PRT2_PC), 0x00000D8Eu);
 807              		.loc 1 827 0
 808 0326 3248     		ldr	r0, .L32+136
 809 0328 324A     		ldr	r2, .L32+140
 810 032a 1060     		str	r0, [r2]
 828:Generated_Source\PSoC4/cyfitter_cfg.c **** 	CY_SET_REG32((void *)(CYREG_GPIO_PRT2_PC2), 0x00000080u);
 811              		.loc 1 828 0
 812 032c 8020     		movs	r0, #128
 813 032e 324A     		ldr	r2, .L32+144
 814 0330 1060     		str	r0, [r2]
 829:Generated_Source\PSoC4/cyfitter_cfg.c **** 
 830:Generated_Source\PSoC4/cyfitter_cfg.c **** 	/* IOPINS0_3 Starting address: CYDEV_GPIO_PRT3_BASE */
 831:Generated_Source\PSoC4/cyfitter_cfg.c **** 	CY_SET_REG32((void *)(CYREG_GPIO_PRT3_PC), 0x00C00D86u);
 815              		.loc 1 831 0
 816 0332 3248     		ldr	r0, .L32+148
 817 0334 324A     		ldr	r2, .L32+152
 818 0336 1060     		str	r0, [r2]
 832:Generated_Source\PSoC4/cyfitter_cfg.c **** 
 833:Generated_Source\PSoC4/cyfitter_cfg.c **** 	/* IOPINS0_4 Starting address: CYDEV_GPIO_PRT4_BASE */
 834:Generated_Source\PSoC4/cyfitter_cfg.c **** 	CY_SET_REG32((void *)(CYREG_GPIO_PRT4_PC), 0x00041DB6u);
 819              		.loc 1 834 0
 820 0338 3248     		ldr	r0, .L32+156
 821 033a 334A     		ldr	r2, .L32+160
 822 033c 1060     		str	r0, [r2]
 835:Generated_Source\PSoC4/cyfitter_cfg.c **** 
 836:Generated_Source\PSoC4/cyfitter_cfg.c **** 	/* IOPINS0_5 Starting address: CYDEV_GPIO_PRT5_BASE */
 837:Generated_Source\PSoC4/cyfitter_cfg.c **** 	CY_SET_REG32((void *)(CYDEV_GPIO_PRT5_BASE), 0x0000002Fu);
 823              		.loc 1 837 0
 824 033e 2F20     		movs	r0, #47
 825 0340 324A     		ldr	r2, .L32+164
 826 0342 1060     		str	r0, [r2]
 838:Generated_Source\PSoC4/cyfitter_cfg.c **** 	CY_SET_REG32((void *)(CYREG_GPIO_PRT5_PC), 0x00030DA0u);
 827              		.loc 1 838 0
 828 0344 3248     		ldr	r0, .L32+168
 829 0346 334A     		ldr	r2, .L32+172
 830 0348 1060     		str	r0, [r2]
 839:Generated_Source\PSoC4/cyfitter_cfg.c **** 	CY_SET_REG32((void *)(CYREG_GPIO_PRT5_PC2), 0x00000001u);
 831              		.loc 1 839 0
 832 034a 334A     		ldr	r2, .L32+176
 833 034c 1160     		str	r1, [r2]
 840:Generated_Source\PSoC4/cyfitter_cfg.c **** 
 841:Generated_Source\PSoC4/cyfitter_cfg.c **** 	/* IOPINS0_6 Starting address: CYDEV_GPIO_PRT6_BASE */
 842:Generated_Source\PSoC4/cyfitter_cfg.c **** 	CY_SET_REG32((void *)(CYDEV_GPIO_PRT6_BASE), 0x00000006u);
 834              		.loc 1 842 0
 835 034e 334A     		ldr	r2, .L32+180
 836 0350 1360     		str	r3, [r2]
 843:Generated_Source\PSoC4/cyfitter_cfg.c **** 	CY_SET_REG32((void *)(CYREG_GPIO_PRT6_PC), 0x00006131u);
 837              		.loc 1 843 0
 838 0352 334A     		ldr	r2, .L32+184
 839 0354 334B     		ldr	r3, .L32+188
 840 0356 1A60     		str	r2, [r3]
 844:Generated_Source\PSoC4/cyfitter_cfg.c **** 	CY_SET_REG32((void *)(CYREG_GPIO_PRT6_PC2), 0x00000002u);
ARM GAS  C:\Users\corne\AppData\Local\Temp\ccof4EPi.s 			page 31


 841              		.loc 1 844 0
 842 0358 0222     		movs	r2, #2
 843 035a 334B     		ldr	r3, .L32+192
 844 035c 1A60     		str	r2, [r3]
 845:Generated_Source\PSoC4/cyfitter_cfg.c **** 
 846:Generated_Source\PSoC4/cyfitter_cfg.c **** 
 847:Generated_Source\PSoC4/cyfitter_cfg.c **** 	/* Setup clocks based on selections from Clock DWR */
 848:Generated_Source\PSoC4/cyfitter_cfg.c **** 	ClockSetup();
 845              		.loc 1 848 0
 846 035e FFF74FFE 		bl	ClockSetup
 847              	.LVL57:
 849:Generated_Source\PSoC4/cyfitter_cfg.c **** 
 850:Generated_Source\PSoC4/cyfitter_cfg.c **** 	/* Perform basic analog initialization to defaults */
 851:Generated_Source\PSoC4/cyfitter_cfg.c **** 	AnalogSetDefault();
 848              		.loc 1 851 0
 849 0362 FFF7FEFF 		bl	AnalogSetDefault
 850              	.LVL58:
 852:Generated_Source\PSoC4/cyfitter_cfg.c **** 
 853:Generated_Source\PSoC4/cyfitter_cfg.c **** }
 851              		.loc 1 853 0
 852              		@ sp needed
 853 0366 70BD     		pop	{r4, r5, r6, pc}
 854              	.L33:
 855              		.align	2
 856              	.L32:
 857 0368 1C700F40 		.word	1074753564
 858 036c 00000000 		.word	.LANCHOR0
 859 0370 00020000 		.word	.LANCHOR1
 860 0374 00600F40 		.word	1074749440
 861 0378 02600F40 		.word	1074749442
 862 037c FFFF0000 		.word	65535
 863 0380 00010240 		.word	1073873152
 864 0384 03330000 		.word	13059
 865 0388 00020240 		.word	1073873408
 866 038c 00030240 		.word	1073873664
 867 0390 E6333000 		.word	3159014
 868 0394 00050240 		.word	1073874176
 869 0398 990E0000 		.word	3737
 870 039c 00060240 		.word	1073874432
 871 03a0 00500F40 		.word	1074745344
 872 03a4 0000E104 		.word	81854464
 873 03a8 08500F40 		.word	1074745352
 874 03ac 10500F40 		.word	1074745360
 875 03b0 20500F40 		.word	1074745376
 876 03b4 28500F40 		.word	1074745384
 877 03b8 40500F40 		.word	1074745408
 878 03bc 50500F40 		.word	1074745424
 879 03c0 70500F40 		.word	1074745456
 880 03c4 20012040 		.word	1075839264
 881 03c8 20001040 		.word	1074790432
 882 03cc 00800F40 		.word	1074757632
 883 03d0 01700F40 		.word	1074753537
 884 03d4 00700F40 		.word	1074753536
 885 03d8 08000440 		.word	1074003976
 886 03dc 00010440 		.word	1074004224
 887 03e0 8E6D1B00 		.word	1797518
 888 03e4 08010440 		.word	1074004232
ARM GAS  C:\Users\corne\AppData\Local\Temp\ccof4EPi.s 			page 32


 889 03e8 18010440 		.word	1074004248
 890 03ec 00020440 		.word	1074004480
 891 03f0 8E0D0000 		.word	3470
 892 03f4 08020440 		.word	1074004488
 893 03f8 18020440 		.word	1074004504
 894 03fc 860DC000 		.word	12586374
 895 0400 08030440 		.word	1074004744
 896 0404 B61D0400 		.word	269750
 897 0408 08040440 		.word	1074005000
 898 040c 00050440 		.word	1074005248
 899 0410 A00D0300 		.word	200096
 900 0414 08050440 		.word	1074005256
 901 0418 18050440 		.word	1074005272
 902 041c 00060440 		.word	1074005504
 903 0420 31610000 		.word	24881
 904 0424 08060440 		.word	1074005512
 905 0428 18060440 		.word	1074005528
 906              		.cfi_endproc
 907              	.LFE9:
 908              		.size	cyfitter_cfg, .-cyfitter_cfg
 909              		.section	.rodata
 910              		.align	2
 911              		.set	.LANCHOR0,. + 0
 912              		.set	.LANCHOR1,. + 512
 913              		.type	cfg_memset_list.4996, %object
 914              		.size	cfg_memset_list.4996, 18
 915              	cfg_memset_list.4996:
 916 0000 00300F40 		.word	1074737152
 917 0004 8002     		.short	640
 918 0006 00330F40 		.4byte	1074737920
 919 000a 0005     		.short	1280
 920 000c 00400F40 		.word	1074741248
 921 0010 0008     		.short	2048
 922 0012 0000     		.space	2
 923              		.type	cfg_memcpy_list.4998, %object
 924              		.size	cfg_memcpy_list.4998, 10
 925              	cfg_memcpy_list.4998:
 926 0014 80320F40 		.word	1074737792
 927 0018 94020000 		.word	BS_UDB_0_2_0_CONFIG_VAL.4997
 928 001c 8000     		.short	128
 929 001e 0000     		.space	2
 930              		.type	cy_cfg_data_table.4986, %object
 931              		.size	cy_cfg_data_table.4986, 568
 932              	cy_cfg_data_table.4986:
 933 0020 83       		.byte	-125
 934 0021 0F       		.byte	15
 935 0022 34       		.byte	52
 936 0023 01       		.byte	1
 937 0024 3E       		.byte	62
 938 0025 10       		.byte	16
 939 0026 58       		.byte	88
 940 0027 04       		.byte	4
 941 0028 5F       		.byte	95
 942 0029 01       		.byte	1
 943 002a 18       		.byte	24
 944 002b 08       		.byte	8
 945 002c 87       		.byte	-121
ARM GAS  C:\Users\corne\AppData\Local\Temp\ccof4EPi.s 			page 33


 946 002d 40       		.byte	64
 947 002e 8C       		.byte	-116
 948 002f 04       		.byte	4
 949 0030 E2       		.byte	-30
 950 0031 10       		.byte	16
 951 0032 1E       		.byte	30
 952 0033 01       		.byte	1
 953 0034 30       		.byte	48
 954 0035 01       		.byte	1
 955 0036 3A       		.byte	58
 956 0037 C2       		.byte	-62
 957 0038 54       		.byte	84
 958 0039 40       		.byte	64
 959 003a 56       		.byte	86
 960 003b 04       		.byte	4
 961 003c 58       		.byte	88
 962 003d 04       		.byte	4
 963 003e 5B       		.byte	91
 964 003f 04       		.byte	4
 965 0040 5C       		.byte	92
 966 0041 01       		.byte	1
 967 0042 5D       		.byte	93
 968 0043 30       		.byte	48
 969 0044 5F       		.byte	95
 970 0045 01       		.byte	1
 971 0046 00       		.byte	0
 972 0047 04       		.byte	4
 973 0048 01       		.byte	1
 974 0049 C0       		.byte	-64
 975 004a 03       		.byte	3
 976 004b 08       		.byte	8
 977 004c 08       		.byte	8
 978 004d 01       		.byte	1
 979 004e 09       		.byte	9
 980 004f 08       		.byte	8
 981 0050 0A       		.byte	10
 982 0051 46       		.byte	70
 983 0052 0E       		.byte	14
 984 0053 02       		.byte	2
 985 0054 10       		.byte	16
 986 0055 40       		.byte	64
 987 0056 11       		.byte	17
 988 0057 10       		.byte	16
 989 0058 13       		.byte	19
 990 0059 02       		.byte	2
 991 005a 18       		.byte	24
 992 005b 40       		.byte	64
 993 005c 19       		.byte	25
 994 005d 81       		.byte	-127
 995 005e 1B       		.byte	27
 996 005f 18       		.byte	24
 997 0060 1E       		.byte	30
 998 0061 82       		.byte	-126
 999 0062 22       		.byte	34
 1000 0063 08       		.byte	8
 1001 0064 23       		.byte	35
 1002 0065 01       		.byte	1
ARM GAS  C:\Users\corne\AppData\Local\Temp\ccof4EPi.s 			page 34


 1003 0066 28       		.byte	40
 1004 0067 41       		.byte	65
 1005 0068 2B       		.byte	43
 1006 0069 08       		.byte	8
 1007 006a 31       		.byte	49
 1008 006b 20       		.byte	32
 1009 006c 32       		.byte	50
 1010 006d 0A       		.byte	10
 1011 006e 33       		.byte	51
 1012 006f 40       		.byte	64
 1013 0070 38       		.byte	56
 1014 0071 80       		.byte	-128
 1015 0072 39       		.byte	57
 1016 0073 14       		.byte	20
 1017 0074 3B       		.byte	59
 1018 0075 01       		.byte	1
 1019 0076 40       		.byte	64
 1020 0077 44       		.byte	68
 1021 0078 41       		.byte	65
 1022 0079 20       		.byte	32
 1023 007a 43       		.byte	67
 1024 007b 08       		.byte	8
 1025 007c 48       		.byte	72
 1026 007d 08       		.byte	8
 1027 007e 49       		.byte	73
 1028 007f 86       		.byte	-122
 1029 0080 4A       		.byte	74
 1030 0081 02       		.byte	2
 1031 0082 4B       		.byte	75
 1032 0083 02       		.byte	2
 1033 0084 50       		.byte	80
 1034 0085 40       		.byte	64
 1035 0086 51       		.byte	81
 1036 0087 08       		.byte	8
 1037 0088 52       		.byte	82
 1038 0089 10       		.byte	16
 1039 008a 63       		.byte	99
 1040 008b 01       		.byte	1
 1041 008c 66       		.byte	102
 1042 008d 10       		.byte	16
 1043 008e 67       		.byte	103
 1044 008f 62       		.byte	98
 1045 0090 69       		.byte	105
 1046 0091 15       		.byte	21
 1047 0092 6A       		.byte	106
 1048 0093 C6       		.byte	-58
 1049 0094 6B       		.byte	107
 1050 0095 40       		.byte	64
 1051 0096 73       		.byte	115
 1052 0097 02       		.byte	2
 1053 0098 86       		.byte	-122
 1054 0099 40       		.byte	64
 1055 009a 8E       		.byte	-114
 1056 009b 01       		.byte	1
 1057 009c 97       		.byte	-105
 1058 009d 40       		.byte	64
 1059 009e C0       		.byte	-64
ARM GAS  C:\Users\corne\AppData\Local\Temp\ccof4EPi.s 			page 35


 1060 009f 07       		.byte	7
 1061 00a0 C2       		.byte	-62
 1062 00a1 8F       		.byte	-113
 1063 00a2 C4       		.byte	-60
 1064 00a3 0A       		.byte	10
 1065 00a4 CA       		.byte	-54
 1066 00a5 0D       		.byte	13
 1067 00a6 CC       		.byte	-52
 1068 00a7 0F       		.byte	15
 1069 00a8 CE       		.byte	-50
 1070 00a9 0F       		.byte	15
 1071 00aa D0       		.byte	-48
 1072 00ab 07       		.byte	7
 1073 00ac D2       		.byte	-46
 1074 00ad 0C       		.byte	12
 1075 00ae D8       		.byte	-40
 1076 00af F8       		.byte	-8
 1077 00b0 E2       		.byte	-30
 1078 00b1 10       		.byte	16
 1079 00b2 00       		.byte	0
 1080 00b3 12       		.byte	18
 1081 00b4 04       		.byte	4
 1082 00b5 C1       		.byte	-63
 1083 00b6 05       		.byte	5
 1084 00b7 02       		.byte	2
 1085 00b8 06       		.byte	6
 1086 00b9 34       		.byte	52
 1087 00ba 07       		.byte	7
 1088 00bb 04       		.byte	4
 1089 00bc 09       		.byte	9
 1090 00bd 0D       		.byte	13
 1091 00be 0C       		.byte	12
 1092 00bf 60       		.byte	96
 1093 00c0 0D       		.byte	13
 1094 00c1 02       		.byte	2
 1095 00c2 0F       		.byte	15
 1096 00c3 08       		.byte	8
 1097 00c4 10       		.byte	16
 1098 00c5 02       		.byte	2
 1099 00c6 11       		.byte	17
 1100 00c7 02       		.byte	2
 1101 00c8 12       		.byte	18
 1102 00c9 10       		.byte	16
 1103 00ca 13       		.byte	19
 1104 00cb 0D       		.byte	13
 1105 00cc 14       		.byte	20
 1106 00cd 02       		.byte	2
 1107 00ce 15       		.byte	21
 1108 00cf 01       		.byte	1
 1109 00d0 17       		.byte	23
 1110 00d1 02       		.byte	2
 1111 00d2 18       		.byte	24
 1112 00d3 12       		.byte	18
 1113 00d4 19       		.byte	25
 1114 00d5 0D       		.byte	13
 1115 00d6 1C       		.byte	28
 1116 00d7 A3       		.byte	-93
ARM GAS  C:\Users\corne\AppData\Local\Temp\ccof4EPi.s 			page 36


 1117 00d8 1D       		.byte	29
 1118 00d9 0D       		.byte	13
 1119 00da 1E       		.byte	30
 1120 00db 4C       		.byte	76
 1121 00dc 20       		.byte	32
 1122 00dd 12       		.byte	18
 1123 00de 21       		.byte	33
 1124 00df 0D       		.byte	13
 1125 00e0 28       		.byte	40
 1126 00e1 10       		.byte	16
 1127 00e2 2A       		.byte	42
 1128 00e3 02       		.byte	2
 1129 00e4 2C       		.byte	44
 1130 00e5 03       		.byte	3
 1131 00e6 2D       		.byte	45
 1132 00e7 0D       		.byte	13
 1133 00e8 2E       		.byte	46
 1134 00e9 98       		.byte	-104
 1135 00ea 30       		.byte	48
 1136 00eb E0       		.byte	-32
 1137 00ec 31       		.byte	49
 1138 00ed 0F       		.byte	15
 1139 00ee 34       		.byte	52
 1140 00ef 1F       		.byte	31
 1141 00f0 36       		.byte	54
 1142 00f1 01       		.byte	1
 1143 00f2 38       		.byte	56
 1144 00f3 22       		.byte	34
 1145 00f4 3B       		.byte	59
 1146 00f5 02       		.byte	2
 1147 00f6 3E       		.byte	62
 1148 00f7 40       		.byte	64
 1149 00f8 40       		.byte	64
 1150 00f9 05       		.byte	5
 1151 00fa 49       		.byte	73
 1152 00fb FF       		.byte	-1
 1153 00fc 4A       		.byte	74
 1154 00fd FF       		.byte	-1
 1155 00fe 4B       		.byte	75
 1156 00ff FF       		.byte	-1
 1157 0100 4C       		.byte	76
 1158 0101 02       		.byte	2
 1159 0102 4D       		.byte	77
 1160 0103 0C       		.byte	12
 1161 0104 4E       		.byte	78
 1162 0105 F8       		.byte	-8
 1163 0106 54       		.byte	84
 1164 0107 09       		.byte	9
 1165 0108 56       		.byte	86
 1166 0109 04       		.byte	4
 1167 010a 58       		.byte	88
 1168 010b 04       		.byte	4
 1169 010c 59       		.byte	89
 1170 010d 04       		.byte	4
 1171 010e 5A       		.byte	90
 1172 010f 0B       		.byte	11
 1173 0110 5B       		.byte	91
ARM GAS  C:\Users\corne\AppData\Local\Temp\ccof4EPi.s 			page 37


 1174 0111 04       		.byte	4
 1175 0112 5C       		.byte	92
 1176 0113 33       		.byte	51
 1177 0114 5D       		.byte	93
 1178 0115 39       		.byte	57
 1179 0116 5F       		.byte	95
 1180 0117 01       		.byte	1
 1181 0118 62       		.byte	98
 1182 0119 48       		.byte	72
 1183 011a 63       		.byte	99
 1184 011b A1       		.byte	-95
 1185 011c 68       		.byte	104
 1186 011d F0       		.byte	-16
 1187 011e 6A       		.byte	106
 1188 011f F0       		.byte	-16
 1189 0120 6C       		.byte	108
 1190 0121 F0       		.byte	-16
 1191 0122 6E       		.byte	110
 1192 0123 F0       		.byte	-16
 1193 0124 82       		.byte	-126
 1194 0125 01       		.byte	1
 1195 0126 86       		.byte	-122
 1196 0127 02       		.byte	2
 1197 0128 88       		.byte	-120
 1198 0129 02       		.byte	2
 1199 012a 8B       		.byte	-117
 1200 012b 01       		.byte	1
 1201 012c 8C       		.byte	-116
 1202 012d 01       		.byte	1
 1203 012e 92       		.byte	-110
 1204 012f 01       		.byte	1
 1205 0130 98       		.byte	-104
 1206 0131 01       		.byte	1
 1207 0132 A0       		.byte	-96
 1208 0133 01       		.byte	1
 1209 0134 A8       		.byte	-88
 1210 0135 01       		.byte	1
 1211 0136 AC       		.byte	-84
 1212 0137 02       		.byte	2
 1213 0138 AF       		.byte	-81
 1214 0139 01       		.byte	1
 1215 013a B4       		.byte	-76
 1216 013b 01       		.byte	1
 1217 013c B5       		.byte	-75
 1218 013d 01       		.byte	1
 1219 013e B6       		.byte	-74
 1220 013f 02       		.byte	2
 1221 0140 B7       		.byte	-73
 1222 0141 01       		.byte	1
 1223 0142 B8       		.byte	-72
 1224 0143 80       		.byte	-128
 1225 0144 BE       		.byte	-66
 1226 0145 10       		.byte	16
 1227 0146 BF       		.byte	-65
 1228 0147 50       		.byte	80
 1229 0148 C0       		.byte	-64
 1230 0149 05       		.byte	5
ARM GAS  C:\Users\corne\AppData\Local\Temp\ccof4EPi.s 			page 38


 1231 014a C9       		.byte	-55
 1232 014b FF       		.byte	-1
 1233 014c CA       		.byte	-54
 1234 014d FF       		.byte	-1
 1235 014e CB       		.byte	-53
 1236 014f FF       		.byte	-1
 1237 0150 CC       		.byte	-52
 1238 0151 03       		.byte	3
 1239 0152 CD       		.byte	-51
 1240 0153 0C       		.byte	12
 1241 0154 CE       		.byte	-50
 1242 0155 F4       		.byte	-12
 1243 0156 D8       		.byte	-40
 1244 0157 04       		.byte	4
 1245 0158 D9       		.byte	-39
 1246 0159 04       		.byte	4
 1247 015a DA       		.byte	-38
 1248 015b 0A       		.byte	10
 1249 015c DB       		.byte	-37
 1250 015d 04       		.byte	4
 1251 015e DC       		.byte	-36
 1252 015f 03       		.byte	3
 1253 0160 DD       		.byte	-35
 1254 0161 09       		.byte	9
 1255 0162 DF       		.byte	-33
 1256 0163 01       		.byte	1
 1257 0164 E2       		.byte	-30
 1258 0165 48       		.byte	72
 1259 0166 E3       		.byte	-29
 1260 0167 A1       		.byte	-95
 1261 0168 E8       		.byte	-24
 1262 0169 F0       		.byte	-16
 1263 016a EA       		.byte	-22
 1264 016b F0       		.byte	-16
 1265 016c EC       		.byte	-20
 1266 016d F0       		.byte	-16
 1267 016e EE       		.byte	-18
 1268 016f F0       		.byte	-16
 1269 0170 00       		.byte	0
 1270 0171 44       		.byte	68
 1271 0172 01       		.byte	1
 1272 0173 01       		.byte	1
 1273 0174 04       		.byte	4
 1274 0175 04       		.byte	4
 1275 0176 05       		.byte	5
 1276 0177 82       		.byte	-126
 1277 0178 07       		.byte	7
 1278 0179 06       		.byte	6
 1279 017a 08       		.byte	8
 1280 017b 10       		.byte	16
 1281 017c 09       		.byte	9
 1282 017d 88       		.byte	-120
 1283 017e 0A       		.byte	10
 1284 017f 64       		.byte	100
 1285 0180 0E       		.byte	14
 1286 0181 44       		.byte	68
 1287 0182 11       		.byte	17
ARM GAS  C:\Users\corne\AppData\Local\Temp\ccof4EPi.s 			page 39


 1288 0183 50       		.byte	80
 1289 0184 13       		.byte	19
 1290 0185 02       		.byte	2
 1291 0186 14       		.byte	20
 1292 0187 40       		.byte	64
 1293 0188 15       		.byte	21
 1294 0189 51       		.byte	81
 1295 018a 18       		.byte	24
 1296 018b 44       		.byte	68
 1297 018c 19       		.byte	25
 1298 018d 40       		.byte	64
 1299 018e 1F       		.byte	31
 1300 018f 50       		.byte	80
 1301 0190 21       		.byte	33
 1302 0191 02       		.byte	2
 1303 0192 26       		.byte	38
 1304 0193 60       		.byte	96
 1305 0194 28       		.byte	40
 1306 0195 40       		.byte	64
 1307 0196 29       		.byte	41
 1308 0197 80       		.byte	-128
 1309 0198 2C       		.byte	44
 1310 0199 02       		.byte	2
 1311 019a 30       		.byte	48
 1312 019b 10       		.byte	16
 1313 019c 31       		.byte	49
 1314 019d 02       		.byte	2
 1315 019e 32       		.byte	50
 1316 019f 40       		.byte	64
 1317 01a0 33       		.byte	51
 1318 01a1 0C       		.byte	12
 1319 01a2 38       		.byte	56
 1320 01a3 04       		.byte	4
 1321 01a4 39       		.byte	57
 1322 01a5 50       		.byte	80
 1323 01a6 3E       		.byte	62
 1324 01a7 10       		.byte	16
 1325 01a8 48       		.byte	72
 1326 01a9 02       		.byte	2
 1327 01aa 4C       		.byte	76
 1328 01ab 02       		.byte	2
 1329 01ac 58       		.byte	88
 1330 01ad 80       		.byte	-128
 1331 01ae 59       		.byte	89
 1332 01af 05       		.byte	5
 1333 01b0 5A       		.byte	90
 1334 01b1 20       		.byte	32
 1335 01b2 61       		.byte	97
 1336 01b3 40       		.byte	64
 1337 01b4 63       		.byte	99
 1338 01b5 40       		.byte	64
 1339 01b6 6C       		.byte	108
 1340 01b7 02       		.byte	2
 1341 01b8 6E       		.byte	110
 1342 01b9 10       		.byte	16
 1343 01ba 7A       		.byte	122
 1344 01bb 40       		.byte	64
ARM GAS  C:\Users\corne\AppData\Local\Temp\ccof4EPi.s 			page 40


 1345 01bc 7E       		.byte	126
 1346 01bd 20       		.byte	32
 1347 01be 87       		.byte	-121
 1348 01bf 40       		.byte	64
 1349 01c0 88       		.byte	-120
 1350 01c1 08       		.byte	8
 1351 01c2 91       		.byte	-111
 1352 01c3 51       		.byte	81
 1353 01c4 92       		.byte	-110
 1354 01c5 C4       		.byte	-60
 1355 01c6 94       		.byte	-108
 1356 01c7 04       		.byte	4
 1357 01c8 97       		.byte	-105
 1358 01c9 20       		.byte	32
 1359 01ca 98       		.byte	-104
 1360 01cb 80       		.byte	-128
 1361 01cc 99       		.byte	-103
 1362 01cd 07       		.byte	7
 1363 01ce 9B       		.byte	-101
 1364 01cf 02       		.byte	2
 1365 01d0 A1       		.byte	-95
 1366 01d1 88       		.byte	-120
 1367 01d2 A3       		.byte	-93
 1368 01d3 08       		.byte	8
 1369 01d4 A4       		.byte	-92
 1370 01d5 08       		.byte	8
 1371 01d6 AA       		.byte	-86
 1372 01d7 08       		.byte	8
 1373 01d8 AD       		.byte	-83
 1374 01d9 80       		.byte	-128
 1375 01da AF       		.byte	-81
 1376 01db 08       		.byte	8
 1377 01dc B4       		.byte	-76
 1378 01dd 80       		.byte	-128
 1379 01de B7       		.byte	-73
 1380 01df 10       		.byte	16
 1381 01e0 C0       		.byte	-64
 1382 01e1 FD       		.byte	-3
 1383 01e2 C2       		.byte	-62
 1384 01e3 5F       		.byte	95
 1385 01e4 C4       		.byte	-60
 1386 01e5 DB       		.byte	-37
 1387 01e6 CA       		.byte	-54
 1388 01e7 19       		.byte	25
 1389 01e8 CC       		.byte	-52
 1390 01e9 0F       		.byte	15
 1391 01ea CE       		.byte	-50
 1392 01eb 2E       		.byte	46
 1393 01ec D2       		.byte	-46
 1394 01ed 18       		.byte	24
 1395 01ee D6       		.byte	-42
 1396 01ef 0F       		.byte	15
 1397 01f0 D8       		.byte	-40
 1398 01f1 09       		.byte	9
 1399 01f2 DE       		.byte	-34
 1400 01f3 41       		.byte	65
 1401 01f4 E4       		.byte	-28
ARM GAS  C:\Users\corne\AppData\Local\Temp\ccof4EPi.s 			page 41


 1402 01f5 20       		.byte	32
 1403 01f6 EA       		.byte	-22
 1404 01f7 08       		.byte	8
 1405 01f8 AF       		.byte	-81
 1406 01f9 40       		.byte	64
 1407 01fa B4       		.byte	-76
 1408 01fb 40       		.byte	64
 1409 01fc EA       		.byte	-22
 1410 01fd 40       		.byte	64
 1411 01fe 57       		.byte	87
 1412 01ff 08       		.byte	8
 1413 0200 59       		.byte	89
 1414 0201 20       		.byte	32
 1415 0202 5F       		.byte	95
 1416 0203 48       		.byte	72
 1417 0204 68       		.byte	104
 1418 0205 04       		.byte	4
 1419 0206 6E       		.byte	110
 1420 0207 80       		.byte	-128
 1421 0208 84       		.byte	-124
 1422 0209 04       		.byte	4
 1423 020a 8F       		.byte	-113
 1424 020b 08       		.byte	8
 1425 020c D4       		.byte	-44
 1426 020d C0       		.byte	-64
 1427 020e D6       		.byte	-42
 1428 020f A0       		.byte	-96
 1429 0210 DA       		.byte	-38
 1430 0211 C0       		.byte	-64
 1431 0212 E6       		.byte	-26
 1432 0213 40       		.byte	64
 1433 0214 87       		.byte	-121
 1434 0215 40       		.byte	64
 1435 0216 8D       		.byte	-115
 1436 0217 20       		.byte	32
 1437 0218 97       		.byte	-105
 1438 0219 40       		.byte	64
 1439 021a 9D       		.byte	-99
 1440 021b 20       		.byte	32
 1441 021c 9F       		.byte	-97
 1442 021d 08       		.byte	8
 1443 021e A6       		.byte	-90
 1444 021f 40       		.byte	64
 1445 0220 E6       		.byte	-26
 1446 0221 40       		.byte	64
 1447 0222 07       		.byte	7
 1448 0223 80       		.byte	-128
 1449 0224 53       		.byte	83
 1450 0225 82       		.byte	-126
 1451 0226 54       		.byte	84
 1452 0227 02       		.byte	2
 1453 0228 86       		.byte	-122
 1454 0229 40       		.byte	64
 1455 022a 8B       		.byte	-117
 1456 022b 80       		.byte	-128
 1457 022c A0       		.byte	-96
 1458 022d 02       		.byte	2
ARM GAS  C:\Users\corne\AppData\Local\Temp\ccof4EPi.s 			page 42


 1459 022e A6       		.byte	-90
 1460 022f 40       		.byte	64
 1461 0230 A8       		.byte	-88
 1462 0231 02       		.byte	2
 1463 0232 AF       		.byte	-81
 1464 0233 08       		.byte	8
 1465 0234 C0       		.byte	-64
 1466 0235 20       		.byte	32
 1467 0236 D4       		.byte	-44
 1468 0237 A0       		.byte	-96
 1469 0238 D6       		.byte	-42
 1470 0239 20       		.byte	32
 1471 023a E6       		.byte	-26
 1472 023b 40       		.byte	64
 1473 023c EA       		.byte	-22
 1474 023d 30       		.byte	48
 1475 023e AF       		.byte	-81
 1476 023f 02       		.byte	2
 1477 0240 B7       		.byte	-73
 1478 0241 80       		.byte	-128
 1479 0242 EA       		.byte	-22
 1480 0243 10       		.byte	16
 1481 0244 08       		.byte	8
 1482 0245 01       		.byte	1
 1483 0246 0B       		.byte	11
 1484 0247 80       		.byte	-128
 1485 0248 44       		.byte	68
 1486 0249 01       		.byte	1
 1487 024a C2       		.byte	-62
 1488 024b 08       		.byte	8
 1489 024c D0       		.byte	-48
 1490 024d 04       		.byte	4
 1491 024e AF       		.byte	-81
 1492 024f 40       		.byte	64
 1493 0250 10       		.byte	16
 1494 0251 0A       		.byte	10
 1495 0252 11       		.byte	17
 1496 0253 01       		.byte	1
 1497 0254 12       		.byte	18
 1498 0255 08       		.byte	8
 1499 0256 13       		.byte	19
 1500 0257 01       		.byte	1
 1501              		.type	cy_cfg_addr_table.4985, %object
 1502              		.size	cy_cfg_addr_table.4985, 60
 1503              	cy_cfg_addr_table.4985:
 1504 0258 01000F40 		.word	1074724865
 1505 025c 04300F40 		.word	1074737156
 1506 0260 04310F40 		.word	1074737412
 1507 0264 0A320F40 		.word	1074737674
 1508 0268 36330F40 		.word	1074737974
 1509 026c 5F340F40 		.word	1074738271
 1510 0270 44350F40 		.word	1074738500
 1511 0274 03370F40 		.word	1074738947
 1512 0278 0B400F40 		.word	1074741259
 1513 027c 07410F40 		.word	1074741511
 1514 0280 0E420F40 		.word	1074741774
 1515 0284 03430F40 		.word	1074742019
ARM GAS  C:\Users\corne\AppData\Local\Temp\ccof4EPi.s 			page 43


 1516 0288 05450F40 		.word	1074742533
 1517 028c 01460F40 		.word	1074742785
 1518 0290 04600F40 		.word	1074749444
 1519              		.type	BS_UDB_0_2_0_CONFIG_VAL.4997, %object
 1520              		.size	BS_UDB_0_2_0_CONFIG_VAL.4997, 128
 1521              	BS_UDB_0_2_0_CONFIG_VAL.4997:
 1522 0294 00       		.byte	0
 1523 0295 02       		.byte	2
 1524 0296 00       		.byte	0
 1525 0297 1D       		.byte	29
 1526 0298 14       		.byte	20
 1527 0299 10       		.byte	16
 1528 029a 23       		.byte	35
 1529 029b 00       		.byte	0
 1530 029c 03       		.byte	3
 1531 029d 10       		.byte	16
 1532 029e 0C       		.byte	12
 1533 029f 00       		.byte	0
 1534 02a0 39       		.byte	57
 1535 02a1 00       		.byte	0
 1536 02a2 06       		.byte	6
 1537 02a3 80       		.byte	-128
 1538 02a4 21       		.byte	33
 1539 02a5 C1       		.byte	-63
 1540 02a6 42       		.byte	66
 1541 02a7 3A       		.byte	58
 1542 02a8 21       		.byte	33
 1543 02a9 00       		.byte	0
 1544 02aa 10       		.byte	16
 1545 02ab 60       		.byte	96
 1546 02ac 63       		.byte	99
 1547 02ad 43       		.byte	67
 1548 02ae 00       		.byte	0
 1549 02af 94       		.byte	-108
 1550 02b0 63       		.byte	99
 1551 02b1 10       		.byte	16
 1552 02b2 00       		.byte	0
 1553 02b3 00       		.byte	0
 1554 02b4 63       		.byte	99
 1555 02b5 10       		.byte	16
 1556 02b6 00       		.byte	0
 1557 02b7 00       		.byte	0
 1558 02b8 00       		.byte	0
 1559 02b9 00       		.byte	0
 1560 02ba 00       		.byte	0
 1561 02bb 00       		.byte	0
 1562 02bc 42       		.byte	66
 1563 02bd A3       		.byte	-93
 1564 02be 21       		.byte	33
 1565 02bf 4C       		.byte	76
 1566 02c0 00       		.byte	0
 1567 02c1 00       		.byte	0
 1568 02c2 00       		.byte	0
 1569 02c3 10       		.byte	16
 1570 02c4 40       		.byte	64
 1571 02c5 00       		.byte	0
 1572 02c6 03       		.byte	3
ARM GAS  C:\Users\corne\AppData\Local\Temp\ccof4EPi.s 			page 44


 1573 02c7 E0       		.byte	-32
 1574 02c8 04       		.byte	4
 1575 02c9 00       		.byte	0
 1576 02ca 3A       		.byte	58
 1577 02cb 1F       		.byte	31
 1578 02cc 00       		.byte	0
 1579 02cd 00       		.byte	0
 1580 02ce C0       		.byte	-64
 1581 02cf 80       		.byte	-128
 1582 02d0 00       		.byte	0
 1583 02d1 00       		.byte	0
 1584 02d2 11       		.byte	17
 1585 02d3 00       		.byte	0
 1586 02d4 25       		.byte	37
 1587 02d5 03       		.byte	3
 1588 02d6 40       		.byte	64
 1589 02d7 00       		.byte	0
 1590 02d8 06       		.byte	6
 1591 02d9 DE       		.byte	-34
 1592 02da FB       		.byte	-5
 1593 02db 0C       		.byte	12
 1594 02dc 1F       		.byte	31
 1595 02dd FF       		.byte	-1
 1596 02de FF       		.byte	-1
 1597 02df FF       		.byte	-1
 1598 02e0 22       		.byte	34
 1599 02e1 00       		.byte	0
 1600 02e2 F0       		.byte	-16
 1601 02e3 0C       		.byte	12
 1602 02e4 04       		.byte	4
 1603 02e5 00       		.byte	0
 1604 02e6 00       		.byte	0
 1605 02e7 00       		.byte	0
 1606 02e8 00       		.byte	0
 1607 02e9 00       		.byte	0
 1608 02ea 02       		.byte	2
 1609 02eb 20       		.byte	32
 1610 02ec 04       		.byte	4
 1611 02ed 04       		.byte	4
 1612 02ee 04       		.byte	4
 1613 02ef 04       		.byte	4
 1614 02f0 33       		.byte	51
 1615 02f1 33       		.byte	51
 1616 02f2 00       		.byte	0
 1617 02f3 01       		.byte	1
 1618 02f4 00       		.byte	0
 1619 02f5 00       		.byte	0
 1620 02f6 C0       		.byte	-64
 1621 02f7 00       		.byte	0
 1622 02f8 40       		.byte	64
 1623 02f9 01       		.byte	1
 1624 02fa 10       		.byte	16
 1625 02fb 11       		.byte	17
 1626 02fc C0       		.byte	-64
 1627 02fd 01       		.byte	1
 1628 02fe 00       		.byte	0
 1629 02ff 11       		.byte	17
ARM GAS  C:\Users\corne\AppData\Local\Temp\ccof4EPi.s 			page 45


 1630 0300 40       		.byte	64
 1631 0301 01       		.byte	1
 1632 0302 40       		.byte	64
 1633 0303 01       		.byte	1
 1634 0304 00       		.byte	0
 1635 0305 00       		.byte	0
 1636 0306 00       		.byte	0
 1637 0307 00       		.byte	0
 1638 0308 00       		.byte	0
 1639 0309 00       		.byte	0
 1640 030a 00       		.byte	0
 1641 030b 00       		.byte	0
 1642 030c 00       		.byte	0
 1643 030d 00       		.byte	0
 1644 030e 00       		.byte	0
 1645 030f 00       		.byte	0
 1646 0310 00       		.byte	0
 1647 0311 00       		.byte	0
 1648 0312 00       		.byte	0
 1649 0313 00       		.byte	0
 1650              		.text
 1651              	.Letext0:
 1652              		.file 2 "c:\\program files (x86)\\cypress\\psoc creator\\4.1\\psoc creator\\import\\gnu\\arm\\5.4.
 1653              		.file 3 "Generated_Source\\PSoC4\\cytypes.h"
 1654              		.file 4 "Generated_Source\\PSoC4\\CyLFClk.h"
 1655              		.file 5 "Generated_Source\\PSoC4\\CyLib.h"