ARM GAS  C:\Users\corne\AppData\Local\Temp\cczZFaNz.s 			page 1


   1              		.syntax unified
   2              		.cpu cortex-m0
   3              		.fpu softvfp
   4              		.eabi_attribute 20, 1
   5              		.eabi_attribute 21, 1
   6              		.eabi_attribute 23, 3
   7              		.eabi_attribute 24, 1
   8              		.eabi_attribute 25, 1
   9              		.eabi_attribute 26, 1
  10              		.eabi_attribute 30, 1
  11              		.eabi_attribute 34, 0
  12              		.eabi_attribute 18, 4
  13              		.thumb
  14              		.syntax unified
  15              		.file	"EEPROM.c"
  16              		.text
  17              	.Ltext0:
  18              		.cfi_sections	.debug_frame
  19              		.section	.text.EEPROM_WriteBuf,"ax",%progbits
  20              		.align	2
  21              		.global	EEPROM_WriteBuf
  22              		.code	16
  23              		.thumb_func
  24              		.type	EEPROM_WriteBuf, %function
  25              	EEPROM_WriteBuf:
  26              	.LFB65:
  27              		.file 1 "EEPROM.c"
   1:EEPROM.c      **** /* ========================================
   2:EEPROM.c      ****  *
   3:EEPROM.c      ****  * Copyright YOUR COMPANY, THE YEAR
   4:EEPROM.c      ****  * All Rights Reserved
   5:EEPROM.c      ****  * UNPUBLISHED, LICENSED SOFTWARE.
   6:EEPROM.c      ****  *
   7:EEPROM.c      ****  * CONFIDENTIAL AND PROPRIETARY INFORMATION
   8:EEPROM.c      ****  * WHICH IS THE PROPERTY OF your company.
   9:EEPROM.c      ****  *
  10:EEPROM.c      ****  * ========================================
  11:EEPROM.c      **** */
  12:EEPROM.c      **** 
  13:EEPROM.c      **** /* [] END OF FILE */
  14:EEPROM.c      **** 
  15:EEPROM.c      **** #include "EEPROM.h"
  16:EEPROM.c      **** 
  17:EEPROM.c      **** #ifdef old
  18:EEPROM.c      **** void EEPROM_WriteBuf(uint8_t addr, uint16_t subaddr, uint8_t *data, uint8_t len)
  19:EEPROM.c      **** {
  28              		.loc 1 19 0
  29              		.cfi_startproc
  30              		@ args = 0, pretend = 0, frame = 0
  31              		@ frame_needed = 0, uses_anonymous_args = 0
  32              	.LVL0:
  33 0000 F8B5     		push	{r3, r4, r5, r6, r7, lr}
  34              		.cfi_def_cfa_offset 24
  35              		.cfi_offset 3, -24
  36              		.cfi_offset 4, -20
  37              		.cfi_offset 5, -16
  38              		.cfi_offset 6, -12
ARM GAS  C:\Users\corne\AppData\Local\Temp\cczZFaNz.s 			page 2


  39              		.cfi_offset 7, -8
  40              		.cfi_offset 14, -4
  41 0002 0700     		movs	r7, r0
  42 0004 0C00     		movs	r4, r1
  43 0006 1600     		movs	r6, r2
  44 0008 1D00     		movs	r5, r3
  20:EEPROM.c      ****     EEPROM_WC_Write(0);
  45              		.loc 1 20 0
  46 000a 0020     		movs	r0, #0
  47              	.LVL1:
  48 000c FFF7FEFF 		bl	EEPROM_WC_Write
  49              	.LVL2:
  21:EEPROM.c      ****     //I2C_I2CMasterWriteBuf(addr, data, len, I2C_I2C_MODE_COMPLETE_XFER);
  22:EEPROM.c      ****     I2C_I2CMasterSendStart(addr, I2C_I2C_WRITE_XFER_MODE);
  50              		.loc 1 22 0
  51 0010 0021     		movs	r1, #0
  52 0012 3800     		movs	r0, r7
  53 0014 FFF7FEFF 		bl	I2C_I2CMasterSendStart
  54              	.LVL3:
  23:EEPROM.c      ****     uint8_t HighByte, LowByte;
  24:EEPROM.c      ****     HighByte = ((subaddr >> 8)&0xFF);
  55              		.loc 1 24 0
  56 0018 200A     		lsrs	r0, r4, #8
  57              	.LVL4:
  25:EEPROM.c      ****     LowByte = (subaddr & 0xFF);
  58              		.loc 1 25 0
  59 001a E4B2     		uxtb	r4, r4
  60              	.LVL5:
  26:EEPROM.c      ****     I2C_I2CMasterWriteByte(HighByte);
  61              		.loc 1 26 0
  62 001c FFF7FEFF 		bl	I2C_I2CMasterWriteByte
  63              	.LVL6:
  27:EEPROM.c      ****     I2C_I2CMasterWriteByte(LowByte);
  64              		.loc 1 27 0
  65 0020 2000     		movs	r0, r4
  66 0022 FFF7FEFF 		bl	I2C_I2CMasterWriteByte
  67              	.LVL7:
  28:EEPROM.c      ****     while(len--)
  68              		.loc 1 28 0
  69 0026 04E0     		b	.L2
  70              	.LVL8:
  71              	.L3:
  29:EEPROM.c      ****     {
  30:EEPROM.c      ****         I2C_I2CMasterWriteByte((uint32_t)*data);
  72              		.loc 1 30 0
  73 0028 3078     		ldrb	r0, [r6]
  74 002a FFF7FEFF 		bl	I2C_I2CMasterWriteByte
  75              	.LVL9:
  31:EEPROM.c      ****         data++;
  76              		.loc 1 31 0
  77 002e 0136     		adds	r6, r6, #1
  78              	.LVL10:
  28:EEPROM.c      ****     while(len--)
  79              		.loc 1 28 0
  80 0030 2500     		movs	r5, r4
  81              	.LVL11:
  82              	.L2:
ARM GAS  C:\Users\corne\AppData\Local\Temp\cczZFaNz.s 			page 3


  83 0032 6B1E     		subs	r3, r5, #1
  84 0034 DCB2     		uxtb	r4, r3
  85              	.LVL12:
  86 0036 002D     		cmp	r5, #0
  87 0038 F6D1     		bne	.L3
  32:EEPROM.c      ****     }
  33:EEPROM.c      ****     I2C_I2CMasterSendStop();
  88              		.loc 1 33 0
  89 003a FFF7FEFF 		bl	I2C_I2CMasterSendStop
  90              	.LVL13:
  34:EEPROM.c      ****     
  35:EEPROM.c      **** }
  91              		.loc 1 35 0
  92              		@ sp needed
  93              	.LVL14:
  94              	.LVL15:
  95              	.LVL16:
  96 003e F8BD     		pop	{r3, r4, r5, r6, r7, pc}
  97              		.cfi_endproc
  98              	.LFE65:
  99              		.size	EEPROM_WriteBuf, .-EEPROM_WriteBuf
 100              		.section	.text.EEPROM_ReadBuf,"ax",%progbits
 101              		.align	2
 102              		.global	EEPROM_ReadBuf
 103              		.code	16
 104              		.thumb_func
 105              		.type	EEPROM_ReadBuf, %function
 106              	EEPROM_ReadBuf:
 107              	.LFB66:
  36:EEPROM.c      **** 
  37:EEPROM.c      **** uint8_t EEPROM_ReadBuf(uint8_t addr, uint16_t subaddr, uint8_t *data, uint8_t len)
  38:EEPROM.c      **** {
 108              		.loc 1 38 0
 109              		.cfi_startproc
 110              		@ args = 0, pretend = 0, frame = 0
 111              		@ frame_needed = 0, uses_anonymous_args = 0
 112              	.LVL17:
 113 0000 F8B5     		push	{r3, r4, r5, r6, r7, lr}
 114              		.cfi_def_cfa_offset 24
 115              		.cfi_offset 3, -24
 116              		.cfi_offset 4, -20
 117              		.cfi_offset 5, -16
 118              		.cfi_offset 6, -12
 119              		.cfi_offset 7, -8
 120              		.cfi_offset 14, -4
 121 0002 0700     		movs	r7, r0
 122 0004 0E00     		movs	r6, r1
 123 0006 1500     		movs	r5, r2
 124 0008 1C00     		movs	r4, r3
  39:EEPROM.c      ****     //I2C_I2CMasterWriteBuf(addr, data, len, I2C_I2C_MODE_COMPLETE_XFER);
  40:EEPROM.c      ****     I2C_I2CMasterSendStart(addr, I2C_I2C_WRITE_XFER_MODE);
 125              		.loc 1 40 0
 126 000a 0021     		movs	r1, #0
 127              	.LVL18:
 128 000c FFF7FEFF 		bl	I2C_I2CMasterSendStart
 129              	.LVL19:
  41:EEPROM.c      ****     uint8_t HighByte, LowByte;
ARM GAS  C:\Users\corne\AppData\Local\Temp\cczZFaNz.s 			page 4


  42:EEPROM.c      ****     HighByte = ((subaddr >> 8)&0xFF);
 130              		.loc 1 42 0
 131 0010 300A     		lsrs	r0, r6, #8
 132              	.LVL20:
  43:EEPROM.c      ****     LowByte = (subaddr & 0xFF);
 133              		.loc 1 43 0
 134 0012 F6B2     		uxtb	r6, r6
 135              	.LVL21:
  44:EEPROM.c      ****     I2C_I2CMasterWriteByte(HighByte);
 136              		.loc 1 44 0
 137 0014 FFF7FEFF 		bl	I2C_I2CMasterWriteByte
 138              	.LVL22:
  45:EEPROM.c      ****     I2C_I2CMasterWriteByte(LowByte);
 139              		.loc 1 45 0
 140 0018 3000     		movs	r0, r6
 141 001a FFF7FEFF 		bl	I2C_I2CMasterWriteByte
 142              	.LVL23:
  46:EEPROM.c      ****     I2C_I2CMasterSendRestart(addr, I2C_I2C_READ_XFER_MODE);
 143              		.loc 1 46 0
 144 001e 0121     		movs	r1, #1
 145 0020 3800     		movs	r0, r7
 146 0022 FFF7FEFF 		bl	I2C_I2CMasterSendRestart
 147              	.LVL24:
  47:EEPROM.c      ****     len--;
 148              		.loc 1 47 0
 149 0026 013C     		subs	r4, r4, #1
 150 0028 E3B2     		uxtb	r3, r4
 151              	.LVL25:
  48:EEPROM.c      ****     while(len--)
 152              		.loc 1 48 0
 153 002a 05E0     		b	.L5
 154              	.LVL26:
 155              	.L6:
  49:EEPROM.c      ****     {
  50:EEPROM.c      ****         *data = I2C_I2CMasterReadByte(I2C_I2C_ACK_DATA);
 156              		.loc 1 50 0
 157 002c 0020     		movs	r0, #0
 158 002e FFF7FEFF 		bl	I2C_I2CMasterReadByte
 159              	.LVL27:
 160 0032 2870     		strb	r0, [r5]
  51:EEPROM.c      ****         data++;
 161              		.loc 1 51 0
 162 0034 0135     		adds	r5, r5, #1
 163              	.LVL28:
  48:EEPROM.c      ****     while(len--)
 164              		.loc 1 48 0
 165 0036 2300     		movs	r3, r4
 166              	.LVL29:
 167              	.L5:
 168 0038 5A1E     		subs	r2, r3, #1
 169 003a D4B2     		uxtb	r4, r2
 170              	.LVL30:
 171 003c 002B     		cmp	r3, #0
 172 003e F5D1     		bne	.L6
  52:EEPROM.c      ****     }
  53:EEPROM.c      ****     *data = I2C_I2CMasterReadByte(I2C_I2C_NAK_DATA);
 173              		.loc 1 53 0
ARM GAS  C:\Users\corne\AppData\Local\Temp\cczZFaNz.s 			page 5


 174 0040 0120     		movs	r0, #1
 175 0042 FFF7FEFF 		bl	I2C_I2CMasterReadByte
 176              	.LVL31:
 177 0046 2870     		strb	r0, [r5]
  54:EEPROM.c      ****     I2C_I2CMasterSendStop();
 178              		.loc 1 54 0
 179 0048 FFF7FEFF 		bl	I2C_I2CMasterSendStop
 180              	.LVL32:
  55:EEPROM.c      ****     return 0;
  56:EEPROM.c      **** }
 181              		.loc 1 56 0
 182 004c 0020     		movs	r0, #0
 183              		@ sp needed
 184              	.LVL33:
 185              	.LVL34:
 186              	.LVL35:
 187 004e F8BD     		pop	{r3, r4, r5, r6, r7, pc}
 188              		.cfi_endproc
 189              	.LFE66:
 190              		.size	EEPROM_ReadBuf, .-EEPROM_ReadBuf
 191              		.section	.text.EEPROM_WriteByte,"ax",%progbits
 192              		.align	2
 193              		.global	EEPROM_WriteByte
 194              		.code	16
 195              		.thumb_func
 196              		.type	EEPROM_WriteByte, %function
 197              	EEPROM_WriteByte:
 198              	.LFB67:
  57:EEPROM.c      **** #endif
  58:EEPROM.c      **** 
  59:EEPROM.c      **** 
  60:EEPROM.c      **** void EEPROM_WriteByte(uint16_t addr, uint16_t subaddr, uint8_t data)
  61:EEPROM.c      **** {
 199              		.loc 1 61 0
 200              		.cfi_startproc
 201              		@ args = 0, pretend = 0, frame = 8
 202              		@ frame_needed = 0, uses_anonymous_args = 0
 203              	.LVL36:
 204 0000 10B5     		push	{r4, lr}
 205              		.cfi_def_cfa_offset 8
 206              		.cfi_offset 4, -8
 207              		.cfi_offset 14, -4
 208 0002 82B0     		sub	sp, sp, #8
 209              		.cfi_def_cfa_offset 16
  62:EEPROM.c      ****     uint8_t EEPROM_Writebuffer[3];
  63:EEPROM.c      ****     //EEPROM_WC_Write(0);
  64:EEPROM.c      ****     EEPROM_Writebuffer[0] = ((subaddr >> 8) & 0xFF);
 210              		.loc 1 64 0
 211 0004 01AC     		add	r4, sp, #4
 212 0006 0B0A     		lsrs	r3, r1, #8
 213 0008 2370     		strb	r3, [r4]
  65:EEPROM.c      ****     EEPROM_Writebuffer[1] = ((subaddr & 0xFF));
 214              		.loc 1 65 0
 215 000a 6170     		strb	r1, [r4, #1]
  66:EEPROM.c      ****     EEPROM_Writebuffer[2] = data;
 216              		.loc 1 66 0
 217 000c A270     		strb	r2, [r4, #2]
ARM GAS  C:\Users\corne\AppData\Local\Temp\cczZFaNz.s 			page 6


  67:EEPROM.c      ****     I2C_I2CMasterWriteBuf(addr, &EEPROM_Writebuffer[0], 3, I2C_I2C_MODE_COMPLETE_XFER);
 218              		.loc 1 67 0
 219 000e 0023     		movs	r3, #0
 220 0010 0322     		movs	r2, #3
 221              	.LVL37:
 222 0012 2100     		movs	r1, r4
 223              	.LVL38:
 224 0014 FFF7FEFF 		bl	I2C_I2CMasterWriteBuf
 225              	.LVL39:
  68:EEPROM.c      ****     //EEPROM_WC_Write(1);
  69:EEPROM.c      **** }
 226              		.loc 1 69 0
 227 0018 02B0     		add	sp, sp, #8
 228              		@ sp needed
 229 001a 10BD     		pop	{r4, pc}
 230              		.cfi_endproc
 231              	.LFE67:
 232              		.size	EEPROM_WriteByte, .-EEPROM_WriteByte
 233              		.section	.text.EEPROM_ReadByte,"ax",%progbits
 234              		.align	2
 235              		.global	EEPROM_ReadByte
 236              		.code	16
 237              		.thumb_func
 238              		.type	EEPROM_ReadByte, %function
 239              	EEPROM_ReadByte:
 240              	.LFB68:
  70:EEPROM.c      **** 
  71:EEPROM.c      **** uint8_t EEPROM_ReadByte(uint16_t addr, uint16_t subaddr)
  72:EEPROM.c      **** {
 241              		.loc 1 72 0
 242              		.cfi_startproc
 243              		@ args = 0, pretend = 0, frame = 0
 244              		@ frame_needed = 0, uses_anonymous_args = 0
 245              	.LVL40:
 246 0000 70B5     		push	{r4, r5, r6, lr}
 247              		.cfi_def_cfa_offset 16
 248              		.cfi_offset 4, -16
 249              		.cfi_offset 5, -12
 250              		.cfi_offset 6, -8
 251              		.cfi_offset 14, -4
 252 0002 0500     		movs	r5, r0
 253 0004 0C00     		movs	r4, r1
  73:EEPROM.c      ****     uint8_t buf;
  74:EEPROM.c      ****     //EEPROM_Writebuffer[2] = data;
  75:EEPROM.c      ****     I2C_I2CMasterSendStart(addr, I2C_I2C_WRITE_XFER_MODE);
 254              		.loc 1 75 0
 255 0006 0021     		movs	r1, #0
 256              	.LVL41:
 257 0008 FFF7FEFF 		bl	I2C_I2CMasterSendStart
 258              	.LVL42:
  76:EEPROM.c      ****     I2C_I2CMasterWriteByte(((subaddr >> 8) & 0xFF));
 259              		.loc 1 76 0
 260 000c 200A     		lsrs	r0, r4, #8
 261 000e FFF7FEFF 		bl	I2C_I2CMasterWriteByte
 262              	.LVL43:
  77:EEPROM.c      ****     I2C_I2CMasterWriteByte(((subaddr & 0xFF)));
 263              		.loc 1 77 0
ARM GAS  C:\Users\corne\AppData\Local\Temp\cczZFaNz.s 			page 7


 264 0012 FF20     		movs	r0, #255
 265 0014 2040     		ands	r0, r4
 266 0016 FFF7FEFF 		bl	I2C_I2CMasterWriteByte
 267              	.LVL44:
  78:EEPROM.c      ****     I2C_I2CMasterSendRestart(addr, I2C_I2C_READ_XFER_MODE);
 268              		.loc 1 78 0
 269 001a 0121     		movs	r1, #1
 270 001c 2800     		movs	r0, r5
 271 001e FFF7FEFF 		bl	I2C_I2CMasterSendRestart
 272              	.LVL45:
  79:EEPROM.c      ****     buf = I2C_I2CMasterReadByte(I2C_I2C_NAK_DATA);
 273              		.loc 1 79 0
 274 0022 0120     		movs	r0, #1
 275 0024 FFF7FEFF 		bl	I2C_I2CMasterReadByte
 276              	.LVL46:
 277 0028 C4B2     		uxtb	r4, r0
 278              	.LVL47:
  80:EEPROM.c      ****     I2C_I2CMasterSendStop();
 279              		.loc 1 80 0
 280 002a FFF7FEFF 		bl	I2C_I2CMasterSendStop
 281              	.LVL48:
  81:EEPROM.c      ****     return buf;
  82:EEPROM.c      **** }
 282              		.loc 1 82 0
 283 002e 2000     		movs	r0, r4
 284              		@ sp needed
 285              	.LVL49:
 286 0030 70BD     		pop	{r4, r5, r6, pc}
 287              		.cfi_endproc
 288              	.LFE68:
 289              		.size	EEPROM_ReadByte, .-EEPROM_ReadByte
 290 0032 C046     		.section	.text.EEPROM_WriteBuffer,"ax",%progbits
 291              		.align	2
 292              		.global	EEPROM_WriteBuffer
 293              		.code	16
 294              		.thumb_func
 295              		.type	EEPROM_WriteBuffer, %function
 296              	EEPROM_WriteBuffer:
 297              	.LFB69:
  83:EEPROM.c      **** 
  84:EEPROM.c      **** void EEPROM_WriteBuffer(uint16_t addr, uint16_t subaddr, uint8_t* data, uint8_t len)
  85:EEPROM.c      **** {
 298              		.loc 1 85 0
 299              		.cfi_startproc
 300              		@ args = 0, pretend = 0, frame = 8
 301              		@ frame_needed = 0, uses_anonymous_args = 0
 302              	.LVL50:
 303 0000 F0B5     		push	{r4, r5, r6, r7, lr}
 304              		.cfi_def_cfa_offset 20
 305              		.cfi_offset 4, -20
 306              		.cfi_offset 5, -16
 307              		.cfi_offset 6, -12
 308              		.cfi_offset 7, -8
 309              		.cfi_offset 14, -4
 310 0002 4746     		mov	r7, r8
 311 0004 80B4     		push	{r7}
 312              		.cfi_def_cfa_offset 24
ARM GAS  C:\Users\corne\AppData\Local\Temp\cczZFaNz.s 			page 8


 313              		.cfi_offset 8, -24
 314 0006 82B0     		sub	sp, sp, #8
 315              		.cfi_def_cfa_offset 32
 316 0008 0D00     		movs	r5, r1
 317 000a 1600     		movs	r6, r2
 318 000c 1F00     		movs	r7, r3
  86:EEPROM.c      ****     uint16_t pageaddr = ((subaddr & 0xFFE0) >> 5);
 319              		.loc 1 86 0
 320 000e 4B09     		lsrs	r3, r1, #5
 321              	.LVL51:
 322 0010 9846     		mov	r8, r3
 323              	.LVL52:
  87:EEPROM.c      ****     uint8_t byteaddr  = (subaddr & 0x1F);
 324              		.loc 1 87 0
 325 0012 1F24     		movs	r4, #31
 326 0014 0C40     		ands	r4, r1
 327              	.LVL53:
  88:EEPROM.c      ****    
  89:EEPROM.c      ****     I2C_I2CMasterSendStart(addr, I2C_I2C_WRITE_XFER_MODE);
 328              		.loc 1 89 0
 329 0016 0190     		str	r0, [sp, #4]
 330 0018 0021     		movs	r1, #0
 331              	.LVL54:
 332 001a FFF7FEFF 		bl	I2C_I2CMasterSendStart
 333              	.LVL55:
  90:EEPROM.c      ****     CyDelayCycles(1);
 334              		.loc 1 90 0
 335 001e 0120     		movs	r0, #1
 336 0020 FFF7FEFF 		bl	CyDelayCycles
 337              	.LVL56:
  91:EEPROM.c      ****     I2C_I2CMasterWriteByte(((subaddr >> 8) & 0xFF));
 338              		.loc 1 91 0
 339 0024 280A     		lsrs	r0, r5, #8
 340 0026 FFF7FEFF 		bl	I2C_I2CMasterWriteByte
 341              	.LVL57:
  92:EEPROM.c      ****     CyDelayCycles(1);
 342              		.loc 1 92 0
 343 002a 0120     		movs	r0, #1
 344 002c FFF7FEFF 		bl	CyDelayCycles
 345              	.LVL58:
  93:EEPROM.c      ****     I2C_I2CMasterWriteByte(((subaddr & 0xFF)));
 346              		.loc 1 93 0
 347 0030 FF20     		movs	r0, #255
 348 0032 2840     		ands	r0, r5
 349 0034 FFF7FEFF 		bl	I2C_I2CMasterWriteByte
 350              	.LVL59:
  94:EEPROM.c      ****     CyDelayCycles(1);
 351              		.loc 1 94 0
 352 0038 0120     		movs	r0, #1
 353 003a FFF7FEFF 		bl	CyDelayCycles
 354              	.LVL60:
  95:EEPROM.c      ****     while(len--)
 355              		.loc 1 95 0
 356 003e 2BE0     		b	.L10
 357              	.LVL61:
 358              	.L12:
  96:EEPROM.c      ****     {
ARM GAS  C:\Users\corne\AppData\Local\Temp\cczZFaNz.s 			page 9


  97:EEPROM.c      ****         I2C_I2CMasterWriteByte(*data);
 359              		.loc 1 97 0
 360 0040 3078     		ldrb	r0, [r6]
 361 0042 FFF7FEFF 		bl	I2C_I2CMasterWriteByte
 362              	.LVL62:
  98:EEPROM.c      ****         CyDelayCycles(1);
 363              		.loc 1 98 0
 364 0046 0120     		movs	r0, #1
 365 0048 FFF7FEFF 		bl	CyDelayCycles
 366              	.LVL63:
  99:EEPROM.c      ****         data++;
 367              		.loc 1 99 0
 368 004c 0136     		adds	r6, r6, #1
 369              	.LVL64:
 100:EEPROM.c      ****         byteaddr++;
 370              		.loc 1 100 0
 371 004e 0134     		adds	r4, r4, #1
 372              	.LVL65:
 373 0050 E4B2     		uxtb	r4, r4
 374              	.LVL66:
 101:EEPROM.c      ****         if(byteaddr == 32 && len>0)
 375              		.loc 1 101 0
 376 0052 202C     		cmp	r4, #32
 377 0054 1FD1     		bne	.L11
 378              		.loc 1 101 0 is_stmt 0 discriminator 1
 379 0056 002D     		cmp	r5, #0
 380 0058 1DD0     		beq	.L11
 381              	.LVL67:
 102:EEPROM.c      ****         {
 103:EEPROM.c      ****             byteaddr = 0;
 104:EEPROM.c      ****             pageaddr++;
 382              		.loc 1 104 0 is_stmt 1
 383 005a 4346     		mov	r3, r8
 384 005c 0133     		adds	r3, r3, #1
 385 005e 9BB2     		uxth	r3, r3
 386 0060 9846     		mov	r8, r3
 387              	.LVL68:
 105:EEPROM.c      ****             I2C_I2CMasterSendStop();
 388              		.loc 1 105 0
 389 0062 FFF7FEFF 		bl	I2C_I2CMasterSendStop
 390              	.LVL69:
 106:EEPROM.c      ****             CyDelay(7);
 391              		.loc 1 106 0
 392 0066 0720     		movs	r0, #7
 393 0068 FFF7FEFF 		bl	CyDelay
 394              	.LVL70:
 107:EEPROM.c      ****             I2C_I2CMasterSendStart(addr, I2C_I2C_WRITE_XFER_MODE);
 395              		.loc 1 107 0
 396 006c 0021     		movs	r1, #0
 397 006e 0198     		ldr	r0, [sp, #4]
 398 0070 FFF7FEFF 		bl	I2C_I2CMasterSendStart
 399              	.LVL71:
 108:EEPROM.c      ****             CyDelayCycles(1);
 400              		.loc 1 108 0
 401 0074 0120     		movs	r0, #1
 402 0076 FFF7FEFF 		bl	CyDelayCycles
 403              	.LVL72:
ARM GAS  C:\Users\corne\AppData\Local\Temp\cczZFaNz.s 			page 10


 109:EEPROM.c      ****             subaddr = (pageaddr << 5);
 404              		.loc 1 109 0
 405 007a 4346     		mov	r3, r8
 406 007c 5C01     		lsls	r4, r3, #5
 407 007e A4B2     		uxth	r4, r4
 408              	.LVL73:
 110:EEPROM.c      ****             I2C_I2CMasterWriteByte(((subaddr >> 8) & 0xFF));
 409              		.loc 1 110 0
 410 0080 200A     		lsrs	r0, r4, #8
 411 0082 FFF7FEFF 		bl	I2C_I2CMasterWriteByte
 412              	.LVL74:
 111:EEPROM.c      ****             CyDelayCycles(1);
 413              		.loc 1 111 0
 414 0086 0120     		movs	r0, #1
 415 0088 FFF7FEFF 		bl	CyDelayCycles
 416              	.LVL75:
 112:EEPROM.c      ****             I2C_I2CMasterWriteByte(((subaddr & 0xFF)));
 417              		.loc 1 112 0
 418 008c FF20     		movs	r0, #255
 419 008e 2040     		ands	r0, r4
 420 0090 FFF7FEFF 		bl	I2C_I2CMasterWriteByte
 421              	.LVL76:
 103:EEPROM.c      ****             pageaddr++;
 422              		.loc 1 103 0
 423 0094 0024     		movs	r4, #0
 424              	.LVL77:
 425              	.L11:
 426 0096 2F00     		movs	r7, r5
 427              	.LVL78:
 428              	.L10:
  95:EEPROM.c      ****     {
 429              		.loc 1 95 0
 430 0098 7D1E     		subs	r5, r7, #1
 431 009a EDB2     		uxtb	r5, r5
 432              	.LVL79:
 433 009c 002F     		cmp	r7, #0
 434 009e CFD1     		bne	.L12
 113:EEPROM.c      ****         }
 114:EEPROM.c      ****     }
 115:EEPROM.c      ****     I2C_I2CMasterSendStop();
 435              		.loc 1 115 0
 436 00a0 FFF7FEFF 		bl	I2C_I2CMasterSendStop
 437              	.LVL80:
 116:EEPROM.c      ****     CyDelay(7);
 438              		.loc 1 116 0
 439 00a4 0720     		movs	r0, #7
 440 00a6 FFF7FEFF 		bl	CyDelay
 441              	.LVL81:
 117:EEPROM.c      **** }
 442              		.loc 1 117 0
 443 00aa 02B0     		add	sp, sp, #8
 444              		@ sp needed
 445              	.LVL82:
 446              	.LVL83:
 447              	.LVL84:
 448              	.LVL85:
 449              	.LVL86:
ARM GAS  C:\Users\corne\AppData\Local\Temp\cczZFaNz.s 			page 11


 450 00ac 04BC     		pop	{r2}
 451 00ae 9046     		mov	r8, r2
 452 00b0 F0BD     		pop	{r4, r5, r6, r7, pc}
 453              		.cfi_endproc
 454              	.LFE69:
 455              		.size	EEPROM_WriteBuffer, .-EEPROM_WriteBuffer
 456 00b2 C046     		.section	.text.EEPROM_ReadBuffer,"ax",%progbits
 457              		.align	2
 458              		.global	EEPROM_ReadBuffer
 459              		.code	16
 460              		.thumb_func
 461              		.type	EEPROM_ReadBuffer, %function
 462              	EEPROM_ReadBuffer:
 463              	.LFB70:
 118:EEPROM.c      **** 
 119:EEPROM.c      **** void EEPROM_ReadBuffer(uint16_t addr, uint16_t subaddr, uint8_t* data, uint8_t len)
 120:EEPROM.c      **** {
 464              		.loc 1 120 0
 465              		.cfi_startproc
 466              		@ args = 0, pretend = 0, frame = 8
 467              		@ frame_needed = 0, uses_anonymous_args = 0
 468              	.LVL87:
 469 0000 F0B5     		push	{r4, r5, r6, r7, lr}
 470              		.cfi_def_cfa_offset 20
 471              		.cfi_offset 4, -20
 472              		.cfi_offset 5, -16
 473              		.cfi_offset 6, -12
 474              		.cfi_offset 7, -8
 475              		.cfi_offset 14, -4
 476 0002 4F46     		mov	r7, r9
 477 0004 4646     		mov	r6, r8
 478 0006 C0B4     		push	{r6, r7}
 479              		.cfi_def_cfa_offset 28
 480              		.cfi_offset 8, -28
 481              		.cfi_offset 9, -24
 482 0008 83B0     		sub	sp, sp, #12
 483              		.cfi_def_cfa_offset 40
 484 000a 0400     		movs	r4, r0
 485 000c 8846     		mov	r8, r1
 486 000e 1600     		movs	r6, r2
 487 0010 1D00     		movs	r5, r3
 121:EEPROM.c      ****     uint16_t pageaddr = ((subaddr & 0xFFE0) >> 5);
 488              		.loc 1 121 0
 489 0012 4B09     		lsrs	r3, r1, #5
 490              	.LVL88:
 491 0014 9946     		mov	r9, r3
 492              	.LVL89:
 122:EEPROM.c      ****     uint8_t byteaddr  = (subaddr & 0x1F);
 493              		.loc 1 122 0
 494 0016 1F27     		movs	r7, #31
 495 0018 0F40     		ands	r7, r1
 496              	.LVL90:
 123:EEPROM.c      ****     I2C_I2CMasterClearReadBuf();
 497              		.loc 1 123 0
 498 001a FFF7FEFF 		bl	I2C_I2CMasterClearReadBuf
 499              	.LVL91:
 124:EEPROM.c      ****     I2C_I2CMasterSendStart(addr, I2C_I2C_WRITE_XFER_MODE);
ARM GAS  C:\Users\corne\AppData\Local\Temp\cczZFaNz.s 			page 12


 500              		.loc 1 124 0
 501 001e 0194     		str	r4, [sp, #4]
 502 0020 0021     		movs	r1, #0
 503 0022 2000     		movs	r0, r4
 504 0024 FFF7FEFF 		bl	I2C_I2CMasterSendStart
 505              	.LVL92:
 125:EEPROM.c      ****     CyDelayCycles(1);
 506              		.loc 1 125 0
 507 0028 0120     		movs	r0, #1
 508 002a FFF7FEFF 		bl	CyDelayCycles
 509              	.LVL93:
 126:EEPROM.c      ****     I2C_I2CMasterWriteByte(((subaddr >> 8) & 0xFF));
 510              		.loc 1 126 0
 511 002e 4346     		mov	r3, r8
 512 0030 180A     		lsrs	r0, r3, #8
 513 0032 FFF7FEFF 		bl	I2C_I2CMasterWriteByte
 514              	.LVL94:
 127:EEPROM.c      ****     CyDelayCycles(1);
 515              		.loc 1 127 0
 516 0036 0120     		movs	r0, #1
 517 0038 FFF7FEFF 		bl	CyDelayCycles
 518              	.LVL95:
 128:EEPROM.c      ****     I2C_I2CMasterWriteByte(((subaddr & 0xFF)));
 519              		.loc 1 128 0
 520 003c FF20     		movs	r0, #255
 521 003e 4346     		mov	r3, r8
 522 0040 1840     		ands	r0, r3
 523 0042 FFF7FEFF 		bl	I2C_I2CMasterWriteByte
 524              	.LVL96:
 129:EEPROM.c      ****     CyDelayCycles(1);
 525              		.loc 1 129 0
 526 0046 0120     		movs	r0, #1
 527 0048 FFF7FEFF 		bl	CyDelayCycles
 528              	.LVL97:
 130:EEPROM.c      ****     I2C_I2CMasterSendRestart(addr, I2C_I2C_READ_XFER_MODE);
 529              		.loc 1 130 0
 530 004c 0121     		movs	r1, #1
 531 004e 2000     		movs	r0, r4
 532 0050 FFF7FEFF 		bl	I2C_I2CMasterSendRestart
 533              	.LVL98:
 131:EEPROM.c      ****     CyDelayCycles(1);
 534              		.loc 1 131 0
 535 0054 0120     		movs	r0, #1
 536 0056 FFF7FEFF 		bl	CyDelayCycles
 537              	.LVL99:
 132:EEPROM.c      ****     while(len--)
 538              		.loc 1 132 0
 539 005a 3EE0     		b	.L14
 540              	.LVL100:
 541              	.L18:
 133:EEPROM.c      ****     {
 134:EEPROM.c      ****         if(len)
 542              		.loc 1 134 0
 543 005c 002C     		cmp	r4, #0
 544 005e 04D0     		beq	.L15
 135:EEPROM.c      ****             *data = I2C_I2CMasterReadByte(I2C_I2C_ACK_DATA);
 545              		.loc 1 135 0
ARM GAS  C:\Users\corne\AppData\Local\Temp\cczZFaNz.s 			page 13


 546 0060 0020     		movs	r0, #0
 547 0062 FFF7FEFF 		bl	I2C_I2CMasterReadByte
 548              	.LVL101:
 549 0066 3070     		strb	r0, [r6]
 550 0068 03E0     		b	.L16
 551              	.L15:
 136:EEPROM.c      ****         else
 137:EEPROM.c      ****             *data = I2C_I2CMasterReadByte(I2C_I2C_NAK_DATA);
 552              		.loc 1 137 0
 553 006a 0120     		movs	r0, #1
 554 006c FFF7FEFF 		bl	I2C_I2CMasterReadByte
 555              	.LVL102:
 556 0070 3070     		strb	r0, [r6]
 557              	.L16:
 138:EEPROM.c      ****         CyDelayCycles(1);
 558              		.loc 1 138 0
 559 0072 0120     		movs	r0, #1
 560 0074 FFF7FEFF 		bl	CyDelayCycles
 561              	.LVL103:
 139:EEPROM.c      ****         data++;
 562              		.loc 1 139 0
 563 0078 0136     		adds	r6, r6, #1
 564              	.LVL104:
 140:EEPROM.c      ****         byteaddr++;
 565              		.loc 1 140 0
 566 007a 0137     		adds	r7, r7, #1
 567              	.LVL105:
 568 007c FFB2     		uxtb	r7, r7
 569              	.LVL106:
 141:EEPROM.c      ****         if(byteaddr == 100 && len>0)
 570              		.loc 1 141 0
 571 007e 642F     		cmp	r7, #100
 572 0080 2AD1     		bne	.L17
 573              		.loc 1 141 0 is_stmt 0 discriminator 1
 574 0082 002C     		cmp	r4, #0
 575 0084 28D0     		beq	.L17
 576              	.LVL107:
 142:EEPROM.c      ****         {
 143:EEPROM.c      ****             byteaddr = 0;
 144:EEPROM.c      ****             pageaddr++;
 577              		.loc 1 144 0 is_stmt 1
 578 0086 4B46     		mov	r3, r9
 579 0088 0133     		adds	r3, r3, #1
 580 008a 9BB2     		uxth	r3, r3
 581 008c 9946     		mov	r9, r3
 582              	.LVL108:
 145:EEPROM.c      ****             I2C_I2CMasterSendStop();
 583              		.loc 1 145 0
 584 008e FFF7FEFF 		bl	I2C_I2CMasterSendStop
 585              	.LVL109:
 146:EEPROM.c      ****             CyDelayCycles(1);
 586              		.loc 1 146 0
 587 0092 0120     		movs	r0, #1
 588 0094 FFF7FEFF 		bl	CyDelayCycles
 589              	.LVL110:
 147:EEPROM.c      ****             I2C_I2CMasterSendStart(addr, I2C_I2C_WRITE_XFER_MODE);
 590              		.loc 1 147 0
ARM GAS  C:\Users\corne\AppData\Local\Temp\cczZFaNz.s 			page 14


 591 0098 0021     		movs	r1, #0
 592 009a 019F     		ldr	r7, [sp, #4]
 593 009c 3800     		movs	r0, r7
 594 009e FFF7FEFF 		bl	I2C_I2CMasterSendStart
 595              	.LVL111:
 148:EEPROM.c      ****             CyDelayCycles(1);
 596              		.loc 1 148 0
 597 00a2 0120     		movs	r0, #1
 598 00a4 FFF7FEFF 		bl	CyDelayCycles
 599              	.LVL112:
 149:EEPROM.c      ****             subaddr = (pageaddr << 5);
 600              		.loc 1 149 0
 601 00a8 4B46     		mov	r3, r9
 602 00aa 5D01     		lsls	r5, r3, #5
 603 00ac ADB2     		uxth	r5, r5
 604              	.LVL113:
 150:EEPROM.c      ****             I2C_I2CMasterWriteByte(((subaddr >> 8) & 0xFF));
 605              		.loc 1 150 0
 606 00ae 280A     		lsrs	r0, r5, #8
 607 00b0 FFF7FEFF 		bl	I2C_I2CMasterWriteByte
 608              	.LVL114:
 151:EEPROM.c      ****             CyDelayCycles(1);
 609              		.loc 1 151 0
 610 00b4 0120     		movs	r0, #1
 611 00b6 FFF7FEFF 		bl	CyDelayCycles
 612              	.LVL115:
 152:EEPROM.c      ****             I2C_I2CMasterWriteByte(((subaddr & 0xFF)));
 613              		.loc 1 152 0
 614 00ba FF20     		movs	r0, #255
 615 00bc 2840     		ands	r0, r5
 616 00be FFF7FEFF 		bl	I2C_I2CMasterWriteByte
 617              	.LVL116:
 153:EEPROM.c      ****             CyDelayCycles(1);
 618              		.loc 1 153 0
 619 00c2 0120     		movs	r0, #1
 620 00c4 FFF7FEFF 		bl	CyDelayCycles
 621              	.LVL117:
 154:EEPROM.c      ****             I2C_I2CMasterSendRestart(addr, I2C_I2C_READ_XFER_MODE);
 622              		.loc 1 154 0
 623 00c8 0121     		movs	r1, #1
 624 00ca 3800     		movs	r0, r7
 625 00cc FFF7FEFF 		bl	I2C_I2CMasterSendRestart
 626              	.LVL118:
 155:EEPROM.c      ****             CyDelayCycles(1);
 627              		.loc 1 155 0
 628 00d0 0120     		movs	r0, #1
 629 00d2 FFF7FEFF 		bl	CyDelayCycles
 630              	.LVL119:
 143:EEPROM.c      ****             pageaddr++;
 631              		.loc 1 143 0
 632 00d6 0027     		movs	r7, #0
 633              	.LVL120:
 634              	.L17:
 635 00d8 2500     		movs	r5, r4
 636              	.LVL121:
 637              	.L14:
 132:EEPROM.c      ****     {
ARM GAS  C:\Users\corne\AppData\Local\Temp\cczZFaNz.s 			page 15


 638              		.loc 1 132 0
 639 00da 6C1E     		subs	r4, r5, #1
 640 00dc E4B2     		uxtb	r4, r4
 641              	.LVL122:
 642 00de 002D     		cmp	r5, #0
 643 00e0 BCD1     		bne	.L18
 156:EEPROM.c      ****         }
 157:EEPROM.c      ****     }
 158:EEPROM.c      ****     I2C_I2CMasterSendStop();
 644              		.loc 1 158 0
 645 00e2 FFF7FEFF 		bl	I2C_I2CMasterSendStop
 646              	.LVL123:
 159:EEPROM.c      **** }
 647              		.loc 1 159 0
 648 00e6 03B0     		add	sp, sp, #12
 649              		@ sp needed
 650              	.LVL124:
 651              	.LVL125:
 652              	.LVL126:
 653              	.LVL127:
 654              	.LVL128:
 655 00e8 0CBC     		pop	{r2, r3}
 656 00ea 9046     		mov	r8, r2
 657 00ec 9946     		mov	r9, r3
 658 00ee F0BD     		pop	{r4, r5, r6, r7, pc}
 659              		.cfi_endproc
 660              	.LFE70:
 661              		.size	EEPROM_ReadBuffer, .-EEPROM_ReadBuffer
 662              		.text
 663              	.Letext0:
 664              		.file 2 "c:\\program files (x86)\\cypress\\psoc creator\\4.1\\psoc creator\\import\\gnu\\arm\\5.4.
 665              		.file 3 "c:\\program files (x86)\\cypress\\psoc creator\\4.1\\psoc creator\\import\\gnu\\arm\\5.4.
 666              		.file 4 "Generated_Source\\PSoC4/EEPROM_WC.h"
 667              		.file 5 "Generated_Source\\PSoC4/I2C_I2C.h"
 668              		.file 6 "Generated_Source\\PSoC4/CyLib.h"