ARM GAS  C:\Users\corne\AppData\Local\Temp\cc5aIYte.s 			page 1


   1              		.syntax unified
   2              		.cpu cortex-m0
   3              		.fpu softvfp
   4              		.eabi_attribute 20, 1
   5              		.eabi_attribute 21, 1
   6              		.eabi_attribute 23, 3
   7              		.eabi_attribute 24, 1
   8              		.eabi_attribute 25, 1
   9              		.eabi_attribute 26, 1
  10              		.eabi_attribute 30, 1
  11              		.eabi_attribute 34, 0
  12              		.eabi_attribute 18, 4
  13              		.thumb
  14              		.syntax unified
  15              		.file	"main.c"
  16              		.text
  17              	.Ltext0:
  18              		.cfi_sections	.debug_frame
  19              		.section	.text.main,"ax",%progbits
  20              		.align	2
  21              		.global	main
  22              		.code	16
  23              		.thumb_func
  24              		.type	main, %function
  25              	main:
  26              	.LFB65:
  27              		.file 1 "main.c"
   1:main.c        **** /* ========================================
   2:main.c        ****  *
   3:main.c        ****  * Copyright YOUR COMPANY, THE YEAR
   4:main.c        ****  * All Rights Reserved
   5:main.c        ****  * UNPUBLISHED, LICENSED SOFTWARE.
   6:main.c        ****  *
   7:main.c        ****  * CONFIDENTIAL AND PROPRIETARY INFORMATION
   8:main.c        ****  * WHICH IS THE PROPERTY OF your company.
   9:main.c        ****  *
  10:main.c        ****  * ========================================
  11:main.c        **** */
  12:main.c        **** #include "project.h"
  13:main.c        **** #include "temp_bme280.h"
  14:main.c        **** #include "weathersensors.h"
  15:main.c        **** #include "stdio.h"
  16:main.c        **** #include "EEPROM.h"
  17:main.c        **** 
  18:main.c        **** 
  19:main.c        **** 
  20:main.c        **** 
  21:main.c        **** 
  22:main.c        **** int main(void)
  23:main.c        **** {
  28              		.loc 1 23 0
  29              		.cfi_startproc
  30              		@ args = 0, pretend = 0, frame = 152
  31              		@ frame_needed = 0, uses_anonymous_args = 0
  32 0000 30B5     		push	{r4, r5, lr}
  33              		.cfi_def_cfa_offset 12
  34              		.cfi_offset 4, -12
ARM GAS  C:\Users\corne\AppData\Local\Temp\cc5aIYte.s 			page 2


  35              		.cfi_offset 5, -8
  36              		.cfi_offset 14, -4
  37 0002 A7B0     		sub	sp, sp, #156
  38              		.cfi_def_cfa_offset 168
  24:main.c        ****     
  25:main.c        **** 
  26:main.c        ****     CyGlobalIntEnable; /* Enable global interrupts. */
  39              		.loc 1 26 0
  40              		.syntax divided
  41              	@ 26 "main.c" 1
  42 0004 62B6     		CPSIE   i
  43              	@ 0 "" 2
  27:main.c        **** 
  28:main.c        ****     BME280_setup();
  44              		.loc 1 28 0
  45              		.thumb
  46              		.syntax unified
  47 0006 FFF7FEFF 		bl	BME280_setup
  48              	.LVL0:
  29:main.c        ****     
  30:main.c        ****     //UART//////////////////////////////////////////////////////
  31:main.c        ****     UART_Start();    
  49              		.loc 1 31 0
  50 000a FFF7FEFF 		bl	UART_Start
  51              	.LVL1:
  32:main.c        ****     UART_UartPutString("\r\n***********************************************************************
  52              		.loc 1 32 0
  53 000e 2348     		ldr	r0, .L7
  54 0010 FFF7FEFF 		bl	UART_UartPutString
  55              	.LVL2:
  33:main.c        ****     UART_UartPutString("Corne Bos Wireless Sensor Node\r\n");
  56              		.loc 1 33 0
  57 0014 2248     		ldr	r0, .L7+4
  58 0016 FFF7FEFF 		bl	UART_UartPutString
  59              	.LVL3:
  34:main.c        ****     UART_UartPutString("\r\n");
  60              		.loc 1 34 0
  61 001a 2248     		ldr	r0, .L7+8
  62 001c FFF7FEFF 		bl	UART_UartPutString
  63              	.LVL4:
  35:main.c        ****     
  36:main.c        ****     //RTC////////////////////////////////////////////////////////
  37:main.c        ****     
  38:main.c        ****     RTC_Start();
  64              		.loc 1 38 0
  65 0020 FFF7FEFF 		bl	RTC_Start
  66              	.LVL5:
  39:main.c        ****     char8 outstring[100];
  40:main.c        ****     sprintf(outstring, "123456789a123456789b123456789c123456789d123456789e123456789");
  67              		.loc 1 40 0
  68 0024 3C22     		movs	r2, #60
  69 0026 2049     		ldr	r1, .L7+12
  70 0028 0DA8     		add	r0, sp, #52
  71 002a FFF7FEFF 		bl	memcpy
  72              	.LVL6:
  41:main.c        ****     //uint8_t txbuf[40] = "Hallo ik ben Corne";
  42:main.c        ****     //txbuf[19] = 0;
ARM GAS  C:\Users\corne\AppData\Local\Temp\cc5aIYte.s 			page 3


  43:main.c        ****     
  44:main.c        ****     char8 rxbuf[100];
  45:main.c        ****     int i;
  46:main.c        ****     for(i=0;i<100;i++)
  73              		.loc 1 46 0
  74 002e 0023     		movs	r3, #0
  75 0030 00E0     		b	.L2
  76              	.LVL7:
  77              	.L3:
  78              		.loc 1 46 0 is_stmt 0 discriminator 3
  79 0032 0133     		adds	r3, r3, #1
  80              	.LVL8:
  81              	.L2:
  82              		.loc 1 46 0 discriminator 1
  83 0034 632B     		cmp	r3, #99
  84 0036 FCDD     		ble	.L3
  47:main.c        ****         rxbuf[i]=0;
  48:main.c        ****     //EEPROM/////////////////////////////////////////////////////
  49:main.c        ****     I2C_Start();
  85              		.loc 1 49 0 is_stmt 1
  86 0038 FFF7FEFF 		bl	I2C_Start
  87              	.LVL9:
  50:main.c        ****     //EEPROM_PULLUP_Write(1);
  51:main.c        ****    
  52:main.c        ****     //ADC//////////////////////////////////////////////////////
  53:main.c        ****     ADC_SAR_Start();
  88              		.loc 1 53 0
  89 003c FFF7FEFF 		bl	ADC_SAR_Start
  90              	.LVL10:
  54:main.c        ****     ADC_SAR_StartConvert();
  91              		.loc 1 54 0
  92 0040 FFF7FEFF 		bl	ADC_SAR_StartConvert
  93              	.LVL11:
  55:main.c        ****    
  56:main.c        **** 
  57:main.c        ****     //LOOP/////////////////////////////////////////////////////////
  58:main.c        ****     
  59:main.c        ****     //get_sensor_data_forced_mode(&dev);
  60:main.c        ****     /* Place your initialization/startup code here (e.g. MyInst_Start()) */
  61:main.c        ****     
  62:main.c        ****     uint64 unixtime=0;
  94              		.loc 1 62 0
  95 0044 0022     		movs	r2, #0
  96 0046 0023     		movs	r3, #0
  97 0048 0A92     		str	r2, [sp, #40]
  98 004a 0B93     		str	r3, [sp, #44]
  63:main.c        ****     //EEPROM_WriteBuffer( 0x50, 0, (uint8_t*)&unixtime, sizeof(unixtime));
  64:main.c        ****     EEPROM_ReadBuffer( 0x50, 0, (uint8_t*)&unixtime, sizeof(unixtime));
  99              		.loc 1 64 0
 100 004c 0823     		movs	r3, #8
 101 004e 0AAA     		add	r2, sp, #40
 102 0050 0021     		movs	r1, #0
 103 0052 5020     		movs	r0, #80
 104 0054 FFF7FEFF 		bl	EEPROM_ReadBuffer
 105              	.LVL12:
  65:main.c        ****     if(unixtime != 0)
 106              		.loc 1 65 0
ARM GAS  C:\Users\corne\AppData\Local\Temp\cc5aIYte.s 			page 4


 107 0058 0A9B     		ldr	r3, [sp, #40]
 108 005a 0B9A     		ldr	r2, [sp, #44]
 109 005c 1343     		orrs	r3, r2
 110 005e 01D0     		beq	.L6
  66:main.c        ****         //RTC_SetUnixTime(unixtime);
  67:main.c        ****     
  68:main.c        ****     WEATHER_Setup();
 111              		.loc 1 68 0
 112 0060 FFF7FEFF 		bl	WEATHER_Setup
 113              	.LVL13:
 114              	.L6:
 115              	.LBB2:
 116              	.LBB3:
  69:main.c        ****     //ConsoleInit();
  70:main.c        ****     for(;;)
  71:main.c        ****     {
  72:main.c        ****         //ConsoleProcess();
  73:main.c        ****         winddirection direction_main;
  74:main.c        ****     for(;;)    
  75:main.c        ****     {    
  76:main.c        ****         const char* directions[] = {"north","northeast","east","southeast","south","southwest","wes
 117              		.loc 1 76 0 discriminator 1
 118 0064 01AC     		add	r4, sp, #4
 119 0066 1149     		ldr	r1, .L7+16
 120 0068 2300     		movs	r3, r4
 121 006a 0A00     		movs	r2, r1
 122 006c 23CA     		ldmia	r2!, {r0, r1, r5}
 123 006e 23C3     		stmia	r3!, {r0, r1, r5}
 124 0070 23CA     		ldmia	r2!, {r0, r1, r5}
 125 0072 23C3     		stmia	r3!, {r0, r1, r5}
 126 0074 23CA     		ldmia	r2!, {r0, r1, r5}
 127 0076 23C3     		stmia	r3!, {r0, r1, r5}
  77:main.c        ****         
  78:main.c        ****         direction_main = WEATHER_getWindDirection();
 128              		.loc 1 78 0 discriminator 1
 129 0078 FFF7FEFF 		bl	WEATHER_getWindDirection
 130              	.LVL14:
  79:main.c        ****         sprintf(outstring,"%s\t", directions[direction_main]);
 131              		.loc 1 79 0 discriminator 1
 132 007c 8000     		lsls	r0, r0, #2
 133              	.LVL15:
 134 007e 0259     		ldr	r2, [r0, r4]
 135 0080 0B49     		ldr	r1, .L7+20
 136 0082 0DA8     		add	r0, sp, #52
 137 0084 FFF7FEFF 		bl	sprintf
 138              	.LVL16:
  80:main.c        ****         UART_UartPutString(outstring);
 139              		.loc 1 80 0 discriminator 1
 140 0088 0DA8     		add	r0, sp, #52
 141 008a FFF7FEFF 		bl	UART_UartPutString
 142              	.LVL17:
  81:main.c        ****         WEATHER_getWindSpeed();
 143              		.loc 1 81 0 discriminator 1
 144 008e FFF7FEFF 		bl	WEATHER_getWindSpeed
 145              	.LVL18:
  82:main.c        ****         CyDelay(1000);
 146              		.loc 1 82 0 discriminator 1
ARM GAS  C:\Users\corne\AppData\Local\Temp\cc5aIYte.s 			page 5


 147 0092 FA20     		movs	r0, #250
 148 0094 8000     		lsls	r0, r0, #2
 149 0096 FFF7FEFF 		bl	CyDelay
 150              	.LVL19:
 151 009a E3E7     		b	.L6
 152              	.L8:
 153              		.align	2
 154              	.L7:
 155 009c 00000000 		.word	.LC10
 156 00a0 58000000 		.word	.LC12
 157 00a4 7C000000 		.word	.LC14
 158 00a8 80000000 		.word	.LC16
 159 00ac 00000000 		.word	.LANCHOR0
 160 00b0 BC000000 		.word	.LC20
 161              	.LBE3:
 162              	.LBE2:
 163              		.cfi_endproc
 164              	.LFE65:
 165              		.size	main, .-main
 166              		.section	.rodata
 167              		.align	2
 168              		.set	.LANCHOR0,. + 0
 169              	.LC18:
 170 0000 C0000000 		.word	.LC0
 171 0004 C8000000 		.word	.LC1
 172 0008 D4000000 		.word	.LC2
 173 000c DC000000 		.word	.LC3
 174 0010 E8000000 		.word	.LC4
 175 0014 F0000000 		.word	.LC5
 176 0018 FC000000 		.word	.LC6
 177 001c 04010000 		.word	.LC7
 178 0020 10010000 		.word	.LC8
 179              		.section	.rodata.str1.4,"aMS",%progbits,1
 180              		.align	2
 181              	.LC10:
 182 0000 0D0A2A2A 		.ascii	"\015\012*******************************************"
 182      2A2A2A2A 
 182      2A2A2A2A 
 182      2A2A2A2A 
 182      2A2A2A2A 
 183 002d 2A2A2A2A 		.ascii	"****************************************\015\012\000"
 183      2A2A2A2A 
 183      2A2A2A2A 
 183      2A2A2A2A 
 183      2A2A2A2A 
 184              	.LC12:
 185 0058 436F726E 		.ascii	"Corne Bos Wireless Sensor Node\015\012\000"
 185      6520426F 
 185      73205769 
 185      72656C65 
 185      73732053 
 186 0079 000000   		.space	3
 187              	.LC14:
 188 007c 0D0A00   		.ascii	"\015\012\000"
 189 007f 00       		.space	1
 190              	.LC16:
 191 0080 31323334 		.ascii	"123456789a123456789b123456789c123456789d123456789e1"
ARM GAS  C:\Users\corne\AppData\Local\Temp\cc5aIYte.s 			page 6


 191      35363738 
 191      39613132 
 191      33343536 
 191      37383962 
 192 00b3 32333435 		.ascii	"23456789\000"
 192      36373839 
 192      00
 193              	.LC20:
 194 00bc 25730900 		.ascii	"%s\011\000"
 195              	.LC0:
 196 00c0 6E6F7274 		.ascii	"north\000"
 196      6800
 197 00c6 0000     		.space	2
 198              	.LC1:
 199 00c8 6E6F7274 		.ascii	"northeast\000"
 199      68656173 
 199      7400
 200 00d2 0000     		.space	2
 201              	.LC2:
 202 00d4 65617374 		.ascii	"east\000"
 202      00
 203 00d9 000000   		.space	3
 204              	.LC3:
 205 00dc 736F7574 		.ascii	"southeast\000"
 205      68656173 
 205      7400
 206 00e6 0000     		.space	2
 207              	.LC4:
 208 00e8 736F7574 		.ascii	"south\000"
 208      6800
 209 00ee 0000     		.space	2
 210              	.LC5:
 211 00f0 736F7574 		.ascii	"southwest\000"
 211      68776573 
 211      7400
 212 00fa 0000     		.space	2
 213              	.LC6:
 214 00fc 77657374 		.ascii	"west\000"
 214      00
 215 0101 000000   		.space	3
 216              	.LC7:
 217 0104 6E6F7274 		.ascii	"northwest\000"
 217      68776573 
 217      7400
 218 010e 0000     		.space	2
 219              	.LC8:
 220 0110 696E7661 		.ascii	"invalid\000"
 220      6C696400 
 221              		.text
 222              	.Letext0:
 223              		.file 2 "c:\\program files (x86)\\cypress\\psoc creator\\4.1\\psoc creator\\import\\gnu\\arm\\5.4.
 224              		.file 3 "c:\\program files (x86)\\cypress\\psoc creator\\4.1\\psoc creator\\import\\gnu\\arm\\5.4.
 225              		.file 4 "Generated_Source\\PSoC4/cytypes.h"
 226              		.file 5 "Generated_Source\\PSoC4/RTC.h"
 227              		.file 6 "weathersensors.h"
 228              		.file 7 "c:\\program files (x86)\\cypress\\psoc creator\\4.1\\psoc creator\\import\\gnu\\arm\\5.4.
 229              		.file 8 "Generated_Source\\PSoC4/UART_SPI_UART.h"
ARM GAS  C:\Users\corne\AppData\Local\Temp\cc5aIYte.s 			page 7


 230              		.file 9 "Generated_Source\\PSoC4/CyLib.h"
 231              		.file 10 "temp_bme280.h"
 232              		.file 11 "Generated_Source\\PSoC4/UART.h"
 233              		.file 12 "Generated_Source\\PSoC4/I2C.h"
 234              		.file 13 "Generated_Source\\PSoC4/ADC_SAR.h"
 235              		.file 14 "EEPROM.h"