ARM GAS  C:\Users\corne\AppData\Local\Temp\ccweVsII.s 			page 1


   1              		.syntax unified
   2              		.cpu cortex-m0
   3              		.fpu softvfp
   4              		.eabi_attribute 20, 1
   5              		.eabi_attribute 21, 1
   6              		.eabi_attribute 23, 3
   7              		.eabi_attribute 24, 1
   8              		.eabi_attribute 25, 1
   9              		.eabi_attribute 26, 1
  10              		.eabi_attribute 30, 1
  11              		.eabi_attribute 34, 0
  12              		.eabi_attribute 18, 4
  13              		.thumb
  14              		.syntax unified
  15              		.file	"MyLeds.c"
  16              		.text
  17              	.Ltext0:
  18              		.cfi_sections	.debug_frame
  19              		.section	.text.ledsInit,"ax",%progbits
  20              		.align	2
  21              		.global	ledsInit
  22              		.code	16
  23              		.thumb_func
  24              		.type	ledsInit, %function
  25              	ledsInit:
  26              	.LFB64:
  27              		.file 1 "MyLeds.c"
   1:MyLeds.c      **** /**
   2:MyLeds.c      ****  * The MySensors Arduino library handles the wireless radio link and protocol
   3:MyLeds.c      ****  * between your home built sensors/actuators and HA controller of choice.
   4:MyLeds.c      ****  * The sensors forms a self healing radio network with optional repeaters. Each
   5:MyLeds.c      ****  * repeater and gateway builds a routing tables in EEPROM which keeps track of the
   6:MyLeds.c      ****  * network topology allowing messages to be routed to nodes.
   7:MyLeds.c      ****  *
   8:MyLeds.c      ****  * Created by Henrik Ekblad <henrik.ekblad@mysensors.org>
   9:MyLeds.c      ****  * Copyright (C) 2013-2015 Sensnology AB
  10:MyLeds.c      ****  * Full contributor list: https://github.com/mysensors/Arduino/graphs/contributors
  11:MyLeds.c      ****  *
  12:MyLeds.c      ****  * Documentation: http://www.mysensors.org
  13:MyLeds.c      ****  * Support Forum: http://forum.mysensors.org
  14:MyLeds.c      ****  *
  15:MyLeds.c      ****  * This program is free software; you can redistribute it and/or
  16:MyLeds.c      ****  * modify it under the terms of the GNU General Public License
  17:MyLeds.c      ****  * version 2 as published by the Free Software Foundation.
  18:MyLeds.c      ****  */
  19:MyLeds.c      **** 
  20:MyLeds.c      **** #include "MyLeds.h"
  21:MyLeds.c      **** 
  22:MyLeds.c      **** #define LED_ON_OFF_RATIO        (4)       // Power of 2 please
  23:MyLeds.c      **** #ifndef MY_DEFAULT_LED_BLINK_PERIOD
  24:MyLeds.c      ****     #define MY_DEFAULT_LED_BLINK_PERIOD 300
  25:MyLeds.c      **** #endif
  26:MyLeds.c      **** #define LED_PROCESS_INTERVAL_MS (MY_DEFAULT_LED_BLINK_PERIOD/LED_ON_OFF_RATIO)
  27:MyLeds.c      **** 
  28:MyLeds.c      **** // these variables don't need to be volatile, since we are not using interrupts
  29:MyLeds.c      **** static uint8_t countRx;
  30:MyLeds.c      **** static uint8_t countTx;
ARM GAS  C:\Users\corne\AppData\Local\Temp\ccweVsII.s 			page 2


  31:MyLeds.c      **** static uint8_t countErr;
  32:MyLeds.c      **** static unsigned long prevTime;
  33:MyLeds.c      **** 
  34:MyLeds.c      **** inline void ledsInit()
  35:MyLeds.c      **** {
  28              		.loc 1 35 0
  29              		.cfi_startproc
  30              		@ args = 0, pretend = 0, frame = 0
  31              		@ frame_needed = 0, uses_anonymous_args = 0
  32              		@ link register save eliminated.
  36:MyLeds.c      **** }
  33              		.loc 1 36 0
  34              		@ sp needed
  35 0000 7047     		bx	lr
  36              		.cfi_endproc
  37              	.LFE64:
  38              		.size	ledsInit, .-ledsInit
  39 0002 C046     		.section	.text.ledsProcess,"ax",%progbits
  40              		.align	2
  41              		.global	ledsProcess
  42              		.code	16
  43              		.thumb_func
  44              		.type	ledsProcess, %function
  45              	ledsProcess:
  46              	.LFB65:
  37:MyLeds.c      **** 
  38:MyLeds.c      **** void ledsProcess()
  39:MyLeds.c      **** {
  47              		.loc 1 39 0
  48              		.cfi_startproc
  49              		@ args = 0, pretend = 0, frame = 0
  50              		@ frame_needed = 0, uses_anonymous_args = 0
  51 0000 10B5     		push	{r4, lr}
  52              		.cfi_def_cfa_offset 8
  53              		.cfi_offset 4, -8
  54              		.cfi_offset 14, -4
  40:MyLeds.c      ****     uint16_t hwMillis = TIMER1_ReadCounter();
  55              		.loc 1 40 0
  56 0002 FFF7FEFF 		bl	TIMER1_ReadCounter
  57              	.LVL0:
  41:MyLeds.c      ****     // Just return if it is not the time...
  42:MyLeds.c      **** 	if ((hwMillis-prevTime) < LED_PROCESS_INTERVAL_MS) {
  58              		.loc 1 42 0
  59 0006 0004     		lsls	r0, r0, #16
  60              	.LVL1:
  61 0008 000C     		lsrs	r0, r0, #16
  62 000a 1B4B     		ldr	r3, .L7
  63 000c 1B68     		ldr	r3, [r3]
  64 000e C01A     		subs	r0, r0, r3
  65 0010 4A28     		cmp	r0, #74
  66 0012 30D9     		bls	.L2
  43:MyLeds.c      **** 		return;
  44:MyLeds.c      **** 	}
  45:MyLeds.c      ****     prevTime = TIMER1_ReadCounter();
  67              		.loc 1 45 0
  68 0014 FFF7FEFF 		bl	TIMER1_ReadCounter
  69              	.LVL2:
ARM GAS  C:\Users\corne\AppData\Local\Temp\ccweVsII.s 			page 3


  70 0018 174B     		ldr	r3, .L7
  71 001a 1860     		str	r0, [r3]
  46:MyLeds.c      **** 
  47:MyLeds.c      **** 	uint8_t state;
  48:MyLeds.c      **** 
  49:MyLeds.c      **** 	// For an On/Off ratio of 4, the pattern repeated will be [on, on, on, off]
  50:MyLeds.c      **** 	// until the counter becomes 0.
  51:MyLeds.c      **** 	if (countRx) {
  72              		.loc 1 51 0
  73 001c 1B79     		ldrb	r3, [r3, #4]
  74 001e 002B     		cmp	r3, #0
  75 0020 02D0     		beq	.L4
  52:MyLeds.c      **** 		--countRx;
  76              		.loc 1 52 0
  77 0022 013B     		subs	r3, r3, #1
  78 0024 144A     		ldr	r2, .L7
  79 0026 1371     		strb	r3, [r2, #4]
  80              	.L4:
  53:MyLeds.c      **** 	}
  54:MyLeds.c      **** 	state = (countRx & (LED_ON_OFF_RATIO-1)) ? LED_ON : LED_OFF;
  81              		.loc 1 54 0
  82 0028 134C     		ldr	r4, .L7
  83 002a 2379     		ldrb	r3, [r4, #4]
  84 002c 0320     		movs	r0, #3
  85 002e 1840     		ands	r0, r3
  86 0030 4342     		rsbs	r3, r0, #0
  87 0032 5841     		adcs	r0, r0, r3
  88 0034 C0B2     		uxtb	r0, r0
  89              	.LVL3:
  55:MyLeds.c      **** 	LED_1_Write(state);
  90              		.loc 1 55 0
  91 0036 FFF7FEFF 		bl	LED_1_Write
  92              	.LVL4:
  56:MyLeds.c      **** 
  57:MyLeds.c      **** 	if (countTx) {
  93              		.loc 1 57 0
  94 003a 6379     		ldrb	r3, [r4, #5]
  95 003c 002B     		cmp	r3, #0
  96 003e 02D0     		beq	.L5
  58:MyLeds.c      **** 		--countTx;
  97              		.loc 1 58 0
  98 0040 013B     		subs	r3, r3, #1
  99 0042 0D4A     		ldr	r2, .L7
 100 0044 5371     		strb	r3, [r2, #5]
 101              	.L5:
  59:MyLeds.c      **** 	}
  60:MyLeds.c      **** 	state = (countTx & (LED_ON_OFF_RATIO-1)) ? LED_ON : LED_OFF;
 102              		.loc 1 60 0
 103 0046 0C4C     		ldr	r4, .L7
 104 0048 6379     		ldrb	r3, [r4, #5]
 105 004a 0320     		movs	r0, #3
 106 004c 1840     		ands	r0, r3
 107 004e 4342     		rsbs	r3, r0, #0
 108 0050 5841     		adcs	r0, r0, r3
 109 0052 C0B2     		uxtb	r0, r0
 110              	.LVL5:
  61:MyLeds.c      **** 	LED_2_Write(state);
ARM GAS  C:\Users\corne\AppData\Local\Temp\ccweVsII.s 			page 4


 111              		.loc 1 61 0
 112 0054 FFF7FEFF 		bl	LED_2_Write
 113              	.LVL6:
  62:MyLeds.c      **** 
  63:MyLeds.c      **** 	if (countErr) {
 114              		.loc 1 63 0
 115 0058 A379     		ldrb	r3, [r4, #6]
 116 005a 002B     		cmp	r3, #0
 117 005c 02D0     		beq	.L6
  64:MyLeds.c      **** 		--countErr;
 118              		.loc 1 64 0
 119 005e 013B     		subs	r3, r3, #1
 120 0060 054A     		ldr	r2, .L7
 121 0062 9371     		strb	r3, [r2, #6]
 122              	.L6:
  65:MyLeds.c      **** 	}
  66:MyLeds.c      **** 	state = (countErr & (LED_ON_OFF_RATIO-1)) ? LED_ON : LED_OFF;
 123              		.loc 1 66 0
 124 0064 044B     		ldr	r3, .L7
 125 0066 9B79     		ldrb	r3, [r3, #6]
 126 0068 0320     		movs	r0, #3
 127 006a 1840     		ands	r0, r3
 128 006c 4342     		rsbs	r3, r0, #0
 129 006e 5841     		adcs	r0, r0, r3
 130 0070 C0B2     		uxtb	r0, r0
 131              	.LVL7:
  67:MyLeds.c      **** 	LED_3_Write(state);
 132              		.loc 1 67 0
 133 0072 FFF7FEFF 		bl	LED_3_Write
 134              	.LVL8:
 135              	.L2:
  68:MyLeds.c      **** 
  69:MyLeds.c      **** }
 136              		.loc 1 69 0
 137              		@ sp needed
 138 0076 10BD     		pop	{r4, pc}
 139              	.L8:
 140              		.align	2
 141              	.L7:
 142 0078 00000000 		.word	.LANCHOR0
 143              		.cfi_endproc
 144              	.LFE65:
 145              		.size	ledsProcess, .-ledsProcess
 146              		.section	.text.ledsBlinkRx,"ax",%progbits
 147              		.align	2
 148              		.global	ledsBlinkRx
 149              		.code	16
 150              		.thumb_func
 151              		.type	ledsBlinkRx, %function
 152              	ledsBlinkRx:
 153              	.LFB66:
  70:MyLeds.c      **** 
  71:MyLeds.c      **** void ledsBlinkRx(uint8_t cnt)
  72:MyLeds.c      **** {
 154              		.loc 1 72 0
 155              		.cfi_startproc
 156              		@ args = 0, pretend = 0, frame = 0
ARM GAS  C:\Users\corne\AppData\Local\Temp\ccweVsII.s 			page 5


 157              		@ frame_needed = 0, uses_anonymous_args = 0
 158              	.LVL9:
 159 0000 10B5     		push	{r4, lr}
 160              		.cfi_def_cfa_offset 8
 161              		.cfi_offset 4, -8
 162              		.cfi_offset 14, -4
  73:MyLeds.c      **** 	if (!countRx) {
 163              		.loc 1 73 0
 164 0002 054B     		ldr	r3, .L11
 165 0004 1B79     		ldrb	r3, [r3, #4]
 166 0006 002B     		cmp	r3, #0
 167 0008 02D1     		bne	.L10
  74:MyLeds.c      **** 		countRx = cnt*LED_ON_OFF_RATIO;
 168              		.loc 1 74 0
 169 000a 8000     		lsls	r0, r0, #2
 170              	.LVL10:
 171 000c 024B     		ldr	r3, .L11
 172 000e 1871     		strb	r0, [r3, #4]
 173              	.L10:
  75:MyLeds.c      **** 	}
  76:MyLeds.c      **** 	ledsProcess();
 174              		.loc 1 76 0
 175 0010 FFF7FEFF 		bl	ledsProcess
 176              	.LVL11:
  77:MyLeds.c      **** }
 177              		.loc 1 77 0
 178              		@ sp needed
 179 0014 10BD     		pop	{r4, pc}
 180              	.L12:
 181 0016 C046     		.align	2
 182              	.L11:
 183 0018 00000000 		.word	.LANCHOR0
 184              		.cfi_endproc
 185              	.LFE66:
 186              		.size	ledsBlinkRx, .-ledsBlinkRx
 187              		.section	.text.ledsBlinkTx,"ax",%progbits
 188              		.align	2
 189              		.global	ledsBlinkTx
 190              		.code	16
 191              		.thumb_func
 192              		.type	ledsBlinkTx, %function
 193              	ledsBlinkTx:
 194              	.LFB67:
  78:MyLeds.c      **** 
  79:MyLeds.c      **** void ledsBlinkTx(uint8_t cnt)
  80:MyLeds.c      **** {
 195              		.loc 1 80 0
 196              		.cfi_startproc
 197              		@ args = 0, pretend = 0, frame = 0
 198              		@ frame_needed = 0, uses_anonymous_args = 0
 199              	.LVL12:
 200 0000 10B5     		push	{r4, lr}
 201              		.cfi_def_cfa_offset 8
 202              		.cfi_offset 4, -8
 203              		.cfi_offset 14, -4
  81:MyLeds.c      **** 	if(!countTx) {
 204              		.loc 1 81 0
ARM GAS  C:\Users\corne\AppData\Local\Temp\ccweVsII.s 			page 6


 205 0002 054B     		ldr	r3, .L15
 206 0004 5B79     		ldrb	r3, [r3, #5]
 207 0006 002B     		cmp	r3, #0
 208 0008 02D1     		bne	.L14
  82:MyLeds.c      **** 		countTx = cnt*LED_ON_OFF_RATIO;
 209              		.loc 1 82 0
 210 000a 8000     		lsls	r0, r0, #2
 211              	.LVL13:
 212 000c 024B     		ldr	r3, .L15
 213 000e 5871     		strb	r0, [r3, #5]
 214              	.L14:
  83:MyLeds.c      **** 	}
  84:MyLeds.c      **** 	ledsProcess();
 215              		.loc 1 84 0
 216 0010 FFF7FEFF 		bl	ledsProcess
 217              	.LVL14:
  85:MyLeds.c      **** }
 218              		.loc 1 85 0
 219              		@ sp needed
 220 0014 10BD     		pop	{r4, pc}
 221              	.L16:
 222 0016 C046     		.align	2
 223              	.L15:
 224 0018 00000000 		.word	.LANCHOR0
 225              		.cfi_endproc
 226              	.LFE67:
 227              		.size	ledsBlinkTx, .-ledsBlinkTx
 228              		.section	.text.ledsBlinkErr,"ax",%progbits
 229              		.align	2
 230              		.global	ledsBlinkErr
 231              		.code	16
 232              		.thumb_func
 233              		.type	ledsBlinkErr, %function
 234              	ledsBlinkErr:
 235              	.LFB68:
  86:MyLeds.c      **** 
  87:MyLeds.c      **** void ledsBlinkErr(uint8_t cnt)
  88:MyLeds.c      **** {
 236              		.loc 1 88 0
 237              		.cfi_startproc
 238              		@ args = 0, pretend = 0, frame = 0
 239              		@ frame_needed = 0, uses_anonymous_args = 0
 240              	.LVL15:
 241 0000 10B5     		push	{r4, lr}
 242              		.cfi_def_cfa_offset 8
 243              		.cfi_offset 4, -8
 244              		.cfi_offset 14, -4
  89:MyLeds.c      **** 	if(!countErr) {
 245              		.loc 1 89 0
 246 0002 054B     		ldr	r3, .L19
 247 0004 9B79     		ldrb	r3, [r3, #6]
 248 0006 002B     		cmp	r3, #0
 249 0008 02D1     		bne	.L18
  90:MyLeds.c      **** 		countErr = cnt*LED_ON_OFF_RATIO;
 250              		.loc 1 90 0
 251 000a 8000     		lsls	r0, r0, #2
 252              	.LVL16:
ARM GAS  C:\Users\corne\AppData\Local\Temp\ccweVsII.s 			page 7


 253 000c 024B     		ldr	r3, .L19
 254 000e 9871     		strb	r0, [r3, #6]
 255              	.L18:
  91:MyLeds.c      **** 	}
  92:MyLeds.c      **** 	ledsProcess();
 256              		.loc 1 92 0
 257 0010 FFF7FEFF 		bl	ledsProcess
 258              	.LVL17:
  93:MyLeds.c      **** }
 259              		.loc 1 93 0
 260              		@ sp needed
 261 0014 10BD     		pop	{r4, pc}
 262              	.L20:
 263 0016 C046     		.align	2
 264              	.L19:
 265 0018 00000000 		.word	.LANCHOR0
 266              		.cfi_endproc
 267              	.LFE68:
 268              		.size	ledsBlinkErr, .-ledsBlinkErr
 269              		.section	.text.ledsBlinking,"ax",%progbits
 270              		.align	2
 271              		.global	ledsBlinking
 272              		.code	16
 273              		.thumb_func
 274              		.type	ledsBlinking, %function
 275              	ledsBlinking:
 276              	.LFB69:
  94:MyLeds.c      **** 
  95:MyLeds.c      **** bool ledsBlinking()
  96:MyLeds.c      **** {
 277              		.loc 1 96 0
 278              		.cfi_startproc
 279              		@ args = 0, pretend = 0, frame = 0
 280              		@ frame_needed = 0, uses_anonymous_args = 0
 281              		@ link register save eliminated.
  97:MyLeds.c      **** 	return countRx || countTx || countErr;
 282              		.loc 1 97 0
 283 0000 0A4B     		ldr	r3, .L26
 284 0002 1B79     		ldrb	r3, [r3, #4]
 285 0004 002B     		cmp	r3, #0
 286 0006 09D1     		bne	.L23
 287              		.loc 1 97 0 is_stmt 0 discriminator 2
 288 0008 084B     		ldr	r3, .L26
 289 000a 5B79     		ldrb	r3, [r3, #5]
 290 000c 002B     		cmp	r3, #0
 291 000e 07D1     		bne	.L24
 292              		.loc 1 97 0 discriminator 4
 293 0010 064B     		ldr	r3, .L26
 294 0012 9B79     		ldrb	r3, [r3, #6]
 295 0014 002B     		cmp	r3, #0
 296 0016 05D0     		beq	.L25
 297              		.loc 1 97 0
 298 0018 0120     		movs	r0, #1
 299 001a 04E0     		b	.L22
 300              	.L23:
 301 001c 0120     		movs	r0, #1
 302 001e 02E0     		b	.L22
ARM GAS  C:\Users\corne\AppData\Local\Temp\ccweVsII.s 			page 8


 303              	.L24:
 304 0020 0120     		movs	r0, #1
 305 0022 00E0     		b	.L22
 306              	.L25:
 307 0024 0020     		movs	r0, #0
 308              	.L22:
 309              		.loc 1 97 0 discriminator 8
 310 0026 C0B2     		uxtb	r0, r0
  98:MyLeds.c      **** }
 311              		.loc 1 98 0 is_stmt 1 discriminator 8
 312              		@ sp needed
 313 0028 7047     		bx	lr
 314              	.L27:
 315 002a C046     		.align	2
 316              	.L26:
 317 002c 00000000 		.word	.LANCHOR0
 318              		.cfi_endproc
 319              	.LFE69:
 320              		.size	ledsBlinking, .-ledsBlinking
 321              		.bss
 322              		.align	2
 323              		.set	.LANCHOR0,. + 0
 324              		.type	prevTime, %object
 325              		.size	prevTime, 4
 326              	prevTime:
 327 0000 00000000 		.space	4
 328              		.type	countRx, %object
 329              		.size	countRx, 1
 330              	countRx:
 331 0004 00       		.space	1
 332              		.type	countTx, %object
 333              		.size	countTx, 1
 334              	countTx:
 335 0005 00       		.space	1
 336              		.type	countErr, %object
 337              		.size	countErr, 1
 338              	countErr:
 339 0006 00       		.space	1
 340              		.text
 341              	.Letext0:
 342              		.file 2 "c:\\program files (x86)\\cypress\\psoc creator\\4.1\\psoc creator\\import\\gnu\\arm\\5.4.
 343              		.file 3 "c:\\program files (x86)\\cypress\\psoc creator\\4.1\\psoc creator\\import\\gnu\\arm\\5.4.
 344              		.file 4 "MyLeds.h"
 345              		.file 5 "Generated_Source\\PSoC4/TIMER1.h"
 346              		.file 6 "Generated_Source\\PSoC4/LED_1.h"
 347              		.file 7 "Generated_Source\\PSoC4/LED_2.h"
 348              		.file 8 "Generated_Source\\PSoC4/LED_3.h"