ARM GAS  C:\Users\corne\AppData\Local\Temp\ccJFv04i.s 			page 1


   1              		.syntax unified
   2              		.cpu cortex-m0
   3              		.fpu softvfp
   4              		.eabi_attribute 20, 1
   5              		.eabi_attribute 21, 1
   6              		.eabi_attribute 23, 3
   7              		.eabi_attribute 24, 1
   8              		.eabi_attribute 25, 1
   9              		.eabi_attribute 26, 1
  10              		.eabi_attribute 30, 1
  11              		.eabi_attribute 34, 0
  12              		.eabi_attribute 18, 4
  13              		.thumb
  14              		.syntax unified
  15              		.file	"PRS.c"
  16              		.text
  17              	.Ltext0:
  18              		.cfi_sections	.debug_frame
  19              		.section	.text.PRS_Enable,"ax",%progbits
  20              		.align	2
  21              		.global	PRS_Enable
  22              		.code	16
  23              		.thumb_func
  24              		.type	PRS_Enable, %function
  25              	PRS_Enable:
  26              	.LFB2:
  27              		.file 1 "Generated_Source\\PSoC4\\PRS.c"
   1:Generated_Source\PSoC4/PRS.c **** /*******************************************************************************
   2:Generated_Source\PSoC4/PRS.c **** * File Name: PRS.c
   3:Generated_Source\PSoC4/PRS.c **** * Version 2.40
   4:Generated_Source\PSoC4/PRS.c **** *
   5:Generated_Source\PSoC4/PRS.c **** * Description:
   6:Generated_Source\PSoC4/PRS.c **** *  This file provides the source code to the API for the PRS component
   7:Generated_Source\PSoC4/PRS.c **** *
   8:Generated_Source\PSoC4/PRS.c **** * Note:
   9:Generated_Source\PSoC4/PRS.c **** *  None
  10:Generated_Source\PSoC4/PRS.c **** *
  11:Generated_Source\PSoC4/PRS.c **** ********************************************************************************
  12:Generated_Source\PSoC4/PRS.c **** * Copyright 2008-2013, Cypress Semiconductor Corporation.  All rights reserved.
  13:Generated_Source\PSoC4/PRS.c **** * You may use this file only in accordance with the license, terms, conditions,
  14:Generated_Source\PSoC4/PRS.c **** * disclaimers, and limitations in the end user license agreement accompanying
  15:Generated_Source\PSoC4/PRS.c **** * the software package with which this file was provided.
  16:Generated_Source\PSoC4/PRS.c **** *******************************************************************************/
  17:Generated_Source\PSoC4/PRS.c **** 
  18:Generated_Source\PSoC4/PRS.c **** #include "PRS.h"
  19:Generated_Source\PSoC4/PRS.c **** 
  20:Generated_Source\PSoC4/PRS.c **** uint8 PRS_initVar = 0u;
  21:Generated_Source\PSoC4/PRS.c **** 
  22:Generated_Source\PSoC4/PRS.c **** PRS_BACKUP_STRUCT PRS_backup =
  23:Generated_Source\PSoC4/PRS.c **** {
  24:Generated_Source\PSoC4/PRS.c ****     0x00u, /* enableState; */
  25:Generated_Source\PSoC4/PRS.c **** 
  26:Generated_Source\PSoC4/PRS.c ****     #if (PRS_WAKEUP_BEHAVIOUR == PRS__RESUMEWORK)
  27:Generated_Source\PSoC4/PRS.c ****         /* Save dff register for time mult */
  28:Generated_Source\PSoC4/PRS.c ****         #if (PRS_TIME_MULTIPLEXING_ENABLE)
  29:Generated_Source\PSoC4/PRS.c ****             PRS_INIT_STATE, /* dffStatus; */
  30:Generated_Source\PSoC4/PRS.c ****         #endif  /* End PRS_TIME_MULTIPLEXING_ENABLE */
ARM GAS  C:\Users\corne\AppData\Local\Temp\ccJFv04i.s 			page 2


  31:Generated_Source\PSoC4/PRS.c **** 
  32:Generated_Source\PSoC4/PRS.c ****         /* Save A0 and A1 registers are none-retention */
  33:Generated_Source\PSoC4/PRS.c ****         #if(PRS_PRS_SIZE <= 32u)
  34:Generated_Source\PSoC4/PRS.c ****             PRS_DEFAULT_SEED, /* seed */
  35:Generated_Source\PSoC4/PRS.c **** 
  36:Generated_Source\PSoC4/PRS.c ****         #else
  37:Generated_Source\PSoC4/PRS.c ****             PRS_DEFAULT_SEED_UPPER, /* seedUpper; */
  38:Generated_Source\PSoC4/PRS.c ****             PRS_DEFAULT_SEED_LOWER, /* seedLower; */
  39:Generated_Source\PSoC4/PRS.c **** 
  40:Generated_Source\PSoC4/PRS.c ****         #endif  /* End (PRS_PRS_SIZE <= 32u) */
  41:Generated_Source\PSoC4/PRS.c **** 
  42:Generated_Source\PSoC4/PRS.c ****     #endif  /* End (PRS_WAKEUP_BEHAVIOUR == PRS__RESUMEWORK) */
  43:Generated_Source\PSoC4/PRS.c **** };
  44:Generated_Source\PSoC4/PRS.c **** 
  45:Generated_Source\PSoC4/PRS.c **** 
  46:Generated_Source\PSoC4/PRS.c **** /*******************************************************************************
  47:Generated_Source\PSoC4/PRS.c **** * Function Name: PRS_Init
  48:Generated_Source\PSoC4/PRS.c **** ********************************************************************************
  49:Generated_Source\PSoC4/PRS.c **** *
  50:Generated_Source\PSoC4/PRS.c **** * Summary:
  51:Generated_Source\PSoC4/PRS.c **** *  Initializes seed and polynomial registers with initial values.
  52:Generated_Source\PSoC4/PRS.c **** *
  53:Generated_Source\PSoC4/PRS.c **** * Parameters:
  54:Generated_Source\PSoC4/PRS.c **** *  void
  55:Generated_Source\PSoC4/PRS.c **** *
  56:Generated_Source\PSoC4/PRS.c **** * Return:
  57:Generated_Source\PSoC4/PRS.c **** *  void
  58:Generated_Source\PSoC4/PRS.c **** *
  59:Generated_Source\PSoC4/PRS.c **** *******************************************************************************/
  60:Generated_Source\PSoC4/PRS.c **** void PRS_Init(void) 
  61:Generated_Source\PSoC4/PRS.c **** {
  62:Generated_Source\PSoC4/PRS.c ****     /* Writes seed value and ponynom value provided for customizer */
  63:Generated_Source\PSoC4/PRS.c ****     #if (PRS_PRS_SIZE <= 32u)
  64:Generated_Source\PSoC4/PRS.c ****         PRS_WritePolynomial(PRS_DEFAULT_POLYNOM);
  65:Generated_Source\PSoC4/PRS.c ****         PRS_WriteSeed(PRS_DEFAULT_SEED);
  66:Generated_Source\PSoC4/PRS.c ****         #if (PRS_RUN_MODE == PRS__CLOCKED)
  67:Generated_Source\PSoC4/PRS.c ****             PRS_ResetSeedInit(PRS_DEFAULT_SEED);
  68:Generated_Source\PSoC4/PRS.c ****         #endif  /* End (PRS_RUN_MODE == PRS__CLOCKED) */
  69:Generated_Source\PSoC4/PRS.c ****             PRS_Enable();
  70:Generated_Source\PSoC4/PRS.c ****     #else
  71:Generated_Source\PSoC4/PRS.c ****         PRS_WritePolynomialUpper(PRS_DEFAULT_POLYNOM_UPPER);
  72:Generated_Source\PSoC4/PRS.c ****         PRS_WritePolynomialLower(PRS_DEFAULT_POLYNOM_LOWER);
  73:Generated_Source\PSoC4/PRS.c ****         PRS_WriteSeedUpper(PRS_DEFAULT_SEED_UPPER);
  74:Generated_Source\PSoC4/PRS.c ****         PRS_WriteSeedLower(PRS_DEFAULT_SEED_LOWER);
  75:Generated_Source\PSoC4/PRS.c ****         #if (PRS_RUN_MODE == PRS__CLOCKED)
  76:Generated_Source\PSoC4/PRS.c ****             PRS_ResetSeedInitUpper(PRS_DEFAULT_SEED_UPPER);
  77:Generated_Source\PSoC4/PRS.c ****             PRS_ResetSeedInitLower(PRS_DEFAULT_SEED_LOWER);
  78:Generated_Source\PSoC4/PRS.c ****         #endif  /* End (PRS_RUN_MODE == PRS__CLOCKED) */
  79:Generated_Source\PSoC4/PRS.c ****             PRS_Enable();
  80:Generated_Source\PSoC4/PRS.c ****     #endif  /* End (PRS_PRS_SIZE <= 32u) */
  81:Generated_Source\PSoC4/PRS.c **** }
  82:Generated_Source\PSoC4/PRS.c **** 
  83:Generated_Source\PSoC4/PRS.c **** 
  84:Generated_Source\PSoC4/PRS.c **** /*******************************************************************************
  85:Generated_Source\PSoC4/PRS.c **** * Function Name: PRS_Enable
  86:Generated_Source\PSoC4/PRS.c **** ********************************************************************************
  87:Generated_Source\PSoC4/PRS.c **** *
ARM GAS  C:\Users\corne\AppData\Local\Temp\ccJFv04i.s 			page 3


  88:Generated_Source\PSoC4/PRS.c **** * Summary:
  89:Generated_Source\PSoC4/PRS.c **** *  Starts PRS computation on rising edge of input clock.
  90:Generated_Source\PSoC4/PRS.c **** *
  91:Generated_Source\PSoC4/PRS.c **** * Parameters:
  92:Generated_Source\PSoC4/PRS.c **** *  void
  93:Generated_Source\PSoC4/PRS.c **** *
  94:Generated_Source\PSoC4/PRS.c **** * Return:
  95:Generated_Source\PSoC4/PRS.c **** *  void
  96:Generated_Source\PSoC4/PRS.c **** *
  97:Generated_Source\PSoC4/PRS.c **** *******************************************************************************/
  98:Generated_Source\PSoC4/PRS.c **** void PRS_Enable(void) 
  99:Generated_Source\PSoC4/PRS.c **** {
  28              		.loc 1 99 0
  29              		.cfi_startproc
  30              		@ args = 0, pretend = 0, frame = 0
  31              		@ frame_needed = 0, uses_anonymous_args = 0
  32              		@ link register save eliminated.
 100:Generated_Source\PSoC4/PRS.c ****         PRS_CONTROL_REG |= PRS_CTRL_ENABLE;
  33              		.loc 1 100 0
  34 0000 034A     		ldr	r2, .L2
  35 0002 1178     		ldrb	r1, [r2]
  36 0004 0123     		movs	r3, #1
  37 0006 0B43     		orrs	r3, r1
  38 0008 DBB2     		uxtb	r3, r3
  39 000a 1370     		strb	r3, [r2]
 101:Generated_Source\PSoC4/PRS.c **** }
  40              		.loc 1 101 0
  41              		@ sp needed
  42 000c 7047     		bx	lr
  43              	.L3:
  44 000e C046     		.align	2
  45              	.L2:
  46 0010 75000F40 		.word	1074724981
  47              		.cfi_endproc
  48              	.LFE2:
  49              		.size	PRS_Enable, .-PRS_Enable
  50              		.section	.text.PRS_Stop,"ax",%progbits
  51              		.align	2
  52              		.global	PRS_Stop
  53              		.code	16
  54              		.thumb_func
  55              		.type	PRS_Stop, %function
  56              	PRS_Stop:
  57              	.LFB4:
 102:Generated_Source\PSoC4/PRS.c **** 
 103:Generated_Source\PSoC4/PRS.c **** 
 104:Generated_Source\PSoC4/PRS.c **** /*******************************************************************************
 105:Generated_Source\PSoC4/PRS.c **** * Function Name: PRS_Start
 106:Generated_Source\PSoC4/PRS.c **** ********************************************************************************
 107:Generated_Source\PSoC4/PRS.c **** *
 108:Generated_Source\PSoC4/PRS.c **** * Summary:
 109:Generated_Source\PSoC4/PRS.c **** *  Initializes seed and polynomial registers with initial values. Computation
 110:Generated_Source\PSoC4/PRS.c **** *  of PRS starts on rising edge of input clock.
 111:Generated_Source\PSoC4/PRS.c **** *
 112:Generated_Source\PSoC4/PRS.c **** * Parameters:
 113:Generated_Source\PSoC4/PRS.c **** *  void
 114:Generated_Source\PSoC4/PRS.c **** *
ARM GAS  C:\Users\corne\AppData\Local\Temp\ccJFv04i.s 			page 4


 115:Generated_Source\PSoC4/PRS.c **** * Return:
 116:Generated_Source\PSoC4/PRS.c **** *  void
 117:Generated_Source\PSoC4/PRS.c **** *
 118:Generated_Source\PSoC4/PRS.c **** * Global variables:
 119:Generated_Source\PSoC4/PRS.c **** *  PRS_initVar: global variable is used to indicate initial
 120:Generated_Source\PSoC4/PRS.c **** *  configuration of this component.  The variable is initialized to zero and set
 121:Generated_Source\PSoC4/PRS.c **** *  to 1 the first time PRS_Start() is called. This allows
 122:Generated_Source\PSoC4/PRS.c **** *  enable/disable component without re-initialization in all subsequent calls
 123:Generated_Source\PSoC4/PRS.c **** *  to the PRS_Start() routine.
 124:Generated_Source\PSoC4/PRS.c **** *
 125:Generated_Source\PSoC4/PRS.c **** *******************************************************************************/
 126:Generated_Source\PSoC4/PRS.c **** void PRS_Start(void) 
 127:Generated_Source\PSoC4/PRS.c **** {
 128:Generated_Source\PSoC4/PRS.c ****     /* Writes seed value and ponynom value provided from customizer */
 129:Generated_Source\PSoC4/PRS.c ****     if (PRS_initVar == 0u)
 130:Generated_Source\PSoC4/PRS.c ****     {
 131:Generated_Source\PSoC4/PRS.c ****         PRS_Init();
 132:Generated_Source\PSoC4/PRS.c ****         PRS_initVar = 1u;
 133:Generated_Source\PSoC4/PRS.c ****     }
 134:Generated_Source\PSoC4/PRS.c **** 
 135:Generated_Source\PSoC4/PRS.c ****     PRS_Enable();
 136:Generated_Source\PSoC4/PRS.c **** }
 137:Generated_Source\PSoC4/PRS.c **** 
 138:Generated_Source\PSoC4/PRS.c **** 
 139:Generated_Source\PSoC4/PRS.c **** /*******************************************************************************
 140:Generated_Source\PSoC4/PRS.c **** * Function Name: PRS_Stop
 141:Generated_Source\PSoC4/PRS.c **** ********************************************************************************
 142:Generated_Source\PSoC4/PRS.c **** *
 143:Generated_Source\PSoC4/PRS.c **** * Summary:
 144:Generated_Source\PSoC4/PRS.c **** *  Stops PRS computation.
 145:Generated_Source\PSoC4/PRS.c **** *
 146:Generated_Source\PSoC4/PRS.c **** * Parameters:
 147:Generated_Source\PSoC4/PRS.c **** *  void
 148:Generated_Source\PSoC4/PRS.c **** *
 149:Generated_Source\PSoC4/PRS.c **** * Return:
 150:Generated_Source\PSoC4/PRS.c **** *  void
 151:Generated_Source\PSoC4/PRS.c **** *
 152:Generated_Source\PSoC4/PRS.c **** *******************************************************************************/
 153:Generated_Source\PSoC4/PRS.c **** void PRS_Stop(void) 
 154:Generated_Source\PSoC4/PRS.c **** {
  58              		.loc 1 154 0
  59              		.cfi_startproc
  60              		@ args = 0, pretend = 0, frame = 0
  61              		@ frame_needed = 0, uses_anonymous_args = 0
  62              		@ link register save eliminated.
 155:Generated_Source\PSoC4/PRS.c ****     PRS_CONTROL_REG &= ((uint8)~PRS_CTRL_ENABLE);
  63              		.loc 1 155 0
  64 0000 024A     		ldr	r2, .L5
  65 0002 1378     		ldrb	r3, [r2]
  66 0004 0121     		movs	r1, #1
  67 0006 8B43     		bics	r3, r1
  68 0008 1370     		strb	r3, [r2]
 156:Generated_Source\PSoC4/PRS.c **** }
  69              		.loc 1 156 0
  70              		@ sp needed
  71 000a 7047     		bx	lr
  72              	.L6:
ARM GAS  C:\Users\corne\AppData\Local\Temp\ccJFv04i.s 			page 5


  73              		.align	2
  74              	.L5:
  75 000c 75000F40 		.word	1074724981
  76              		.cfi_endproc
  77              	.LFE4:
  78              		.size	PRS_Stop, .-PRS_Stop
  79              		.section	.text.PRS_Step,"ax",%progbits
  80              		.align	2
  81              		.global	PRS_Step
  82              		.code	16
  83              		.thumb_func
  84              		.type	PRS_Step, %function
  85              	PRS_Step:
  86              	.LFB5:
 157:Generated_Source\PSoC4/PRS.c **** 
 158:Generated_Source\PSoC4/PRS.c **** 
 159:Generated_Source\PSoC4/PRS.c **** #if (PRS_RUN_MODE == PRS__APISINGLESTEP)
 160:Generated_Source\PSoC4/PRS.c ****     /*******************************************************************************
 161:Generated_Source\PSoC4/PRS.c ****     * FUNCTION NAME: PRS_Step
 162:Generated_Source\PSoC4/PRS.c ****     ********************************************************************************
 163:Generated_Source\PSoC4/PRS.c ****     *
 164:Generated_Source\PSoC4/PRS.c ****     * Summary:
 165:Generated_Source\PSoC4/PRS.c ****     *  Increments the PRS by one when API single step mode is used.
 166:Generated_Source\PSoC4/PRS.c ****     *
 167:Generated_Source\PSoC4/PRS.c ****     * Parameters:
 168:Generated_Source\PSoC4/PRS.c ****     *  void
 169:Generated_Source\PSoC4/PRS.c ****     *
 170:Generated_Source\PSoC4/PRS.c ****     * Return:
 171:Generated_Source\PSoC4/PRS.c ****     *  void
 172:Generated_Source\PSoC4/PRS.c ****     *
 173:Generated_Source\PSoC4/PRS.c ****     *******************************************************************************/
 174:Generated_Source\PSoC4/PRS.c ****     void PRS_Step(void) 
 175:Generated_Source\PSoC4/PRS.c ****     {
  87              		.loc 1 175 0
  88              		.cfi_startproc
  89              		@ args = 0, pretend = 0, frame = 0
  90              		@ frame_needed = 0, uses_anonymous_args = 0
  91              		@ link register save eliminated.
 176:Generated_Source\PSoC4/PRS.c ****         #if (PRS_TIME_MULTIPLEXING_ENABLE)
 177:Generated_Source\PSoC4/PRS.c ****             /* Makes 4 pulse, 4x for Time Mult */
 178:Generated_Source\PSoC4/PRS.c ****             PRS_EXECUTE_STEP;
 179:Generated_Source\PSoC4/PRS.c ****             PRS_EXECUTE_STEP;
 180:Generated_Source\PSoC4/PRS.c ****             PRS_EXECUTE_STEP;
 181:Generated_Source\PSoC4/PRS.c ****             PRS_EXECUTE_STEP;
 182:Generated_Source\PSoC4/PRS.c **** 
 183:Generated_Source\PSoC4/PRS.c ****         #else
 184:Generated_Source\PSoC4/PRS.c ****             /* One pulse without Time mult required */
 185:Generated_Source\PSoC4/PRS.c ****             PRS_EXECUTE_STEP;
  92              		.loc 1 185 0
  93 0000 054A     		ldr	r2, .L8
  94 0002 1178     		ldrb	r1, [r2]
  95 0004 0223     		movs	r3, #2
  96 0006 0B43     		orrs	r3, r1
  97 0008 DBB2     		uxtb	r3, r3
  98 000a 1370     		strb	r3, [r2]
  99 000c 1378     		ldrb	r3, [r2]
 100 000e 0221     		movs	r1, #2
ARM GAS  C:\Users\corne\AppData\Local\Temp\ccJFv04i.s 			page 6


 101 0010 8B43     		bics	r3, r1
 102 0012 1370     		strb	r3, [r2]
 186:Generated_Source\PSoC4/PRS.c **** 
 187:Generated_Source\PSoC4/PRS.c ****         #endif  /* End PRS_TIME_MULTIPLEXING_ENABLE */
 188:Generated_Source\PSoC4/PRS.c ****     }
 103              		.loc 1 188 0
 104              		@ sp needed
 105 0014 7047     		bx	lr
 106              	.L9:
 107 0016 C046     		.align	2
 108              	.L8:
 109 0018 75000F40 		.word	1074724981
 110              		.cfi_endproc
 111              	.LFE5:
 112              		.size	PRS_Step, .-PRS_Step
 113              		.section	.text.PRS_Read,"ax",%progbits
 114              		.align	2
 115              		.global	PRS_Read
 116              		.code	16
 117              		.thumb_func
 118              		.type	PRS_Read, %function
 119              	PRS_Read:
 120              	.LFB6:
 189:Generated_Source\PSoC4/PRS.c **** #endif  /* End (PRS_RUN_MODE == PRS__APISINGLESTEP) */
 190:Generated_Source\PSoC4/PRS.c **** 
 191:Generated_Source\PSoC4/PRS.c **** 
 192:Generated_Source\PSoC4/PRS.c **** #if (PRS_RUN_MODE == PRS__CLOCKED)
 193:Generated_Source\PSoC4/PRS.c ****     #if (PRS_PRS_SIZE <= 32u) /* 8-32 bits PRS */
 194:Generated_Source\PSoC4/PRS.c ****         /*******************************************************************************
 195:Generated_Source\PSoC4/PRS.c ****         * FUNCTION NAME: PRS_ResetSeedInit
 196:Generated_Source\PSoC4/PRS.c ****         ********************************************************************************
 197:Generated_Source\PSoC4/PRS.c ****         *
 198:Generated_Source\PSoC4/PRS.c ****         * Summary:
 199:Generated_Source\PSoC4/PRS.c ****         *  Increments the PRS by one when API single step mode is used.
 200:Generated_Source\PSoC4/PRS.c ****         *
 201:Generated_Source\PSoC4/PRS.c ****         * Parameters:
 202:Generated_Source\PSoC4/PRS.c ****         *  void
 203:Generated_Source\PSoC4/PRS.c ****         *
 204:Generated_Source\PSoC4/PRS.c ****         * Return:
 205:Generated_Source\PSoC4/PRS.c ****         *  void
 206:Generated_Source\PSoC4/PRS.c ****         *
 207:Generated_Source\PSoC4/PRS.c ****         *******************************************************************************/
 208:Generated_Source\PSoC4/PRS.c ****         void PRS_ResetSeedInit(uint16 seed)
 209:Generated_Source\PSoC4/PRS.c ****                                             
 210:Generated_Source\PSoC4/PRS.c ****         {
 211:Generated_Source\PSoC4/PRS.c ****             uint8 enableInterrupts;
 212:Generated_Source\PSoC4/PRS.c **** 
 213:Generated_Source\PSoC4/PRS.c ****             /* Mask the Seed to cut unused bits */
 214:Generated_Source\PSoC4/PRS.c ****             seed &= PRS_MASK;
 215:Generated_Source\PSoC4/PRS.c **** 
 216:Generated_Source\PSoC4/PRS.c ****             /* Change AuxControl reg, need to be safety */
 217:Generated_Source\PSoC4/PRS.c ****             enableInterrupts = CyEnterCriticalSection();
 218:Generated_Source\PSoC4/PRS.c **** 
 219:Generated_Source\PSoC4/PRS.c ****             #if (PRS_TIME_MULTIPLEXING_ENABLE)
 220:Generated_Source\PSoC4/PRS.c ****                 /* Set FIFOs to single register */
 221:Generated_Source\PSoC4/PRS.c ****                 PRS_AUX_CONTROL_A_REG |= PRS_AUXCTRL_FIFO_SINGLE_REG;
 222:Generated_Source\PSoC4/PRS.c **** 
ARM GAS  C:\Users\corne\AppData\Local\Temp\ccJFv04i.s 			page 7


 223:Generated_Source\PSoC4/PRS.c ****                 #if(PRS_PRS_SIZE > 16u)       /* 17-32 bits PRS */
 224:Generated_Source\PSoC4/PRS.c ****                     PRS_AUX_CONTROL_B_REG |= PRS_AUXCTRL_FIFO_SINGLE_REG;
 225:Generated_Source\PSoC4/PRS.c ****                 #endif  /* End (PRS_PRS_SIZE <= 8u) */
 226:Generated_Source\PSoC4/PRS.c **** 
 227:Generated_Source\PSoC4/PRS.c ****                 /* AuxControl reg settings are done */
 228:Generated_Source\PSoC4/PRS.c ****                 CyExitCriticalSection(enableInterrupts);
 229:Generated_Source\PSoC4/PRS.c **** 
 230:Generated_Source\PSoC4/PRS.c ****                 /* Write Seed COPY */
 231:Generated_Source\PSoC4/PRS.c ****                 #if (PRS_PRS_SIZE <= 16u)          /* 16 bits PRS */
 232:Generated_Source\PSoC4/PRS.c ****                     PRS_SEED_COPY_A__A1_REG = HI8(seed);
 233:Generated_Source\PSoC4/PRS.c ****                     PRS_SEED_COPY_A__A0_REG = LO8(seed);
 234:Generated_Source\PSoC4/PRS.c **** 
 235:Generated_Source\PSoC4/PRS.c ****                 #elif (PRS_PRS_SIZE <= 24u)        /* 24 bits PRS */
 236:Generated_Source\PSoC4/PRS.c ****                     PRS_SEED_COPY_B__A1_REG = LO8(HI16(seed));
 237:Generated_Source\PSoC4/PRS.c ****                     PRS_SEED_COPY_B__A0_REG = HI8(seed);
 238:Generated_Source\PSoC4/PRS.c ****                     PRS_SEED_COPY_A__A0_REG = LO8(seed);
 239:Generated_Source\PSoC4/PRS.c **** 
 240:Generated_Source\PSoC4/PRS.c ****                 #else                                           /* 32 bits PRS */
 241:Generated_Source\PSoC4/PRS.c ****                     PRS_SEED_COPY_B__A1_REG = HI8(HI16(seed));
 242:Generated_Source\PSoC4/PRS.c ****                     PRS_SEED_COPY_A__A1_REG = LO8(HI16(seed));
 243:Generated_Source\PSoC4/PRS.c ****                     PRS_SEED_COPY_B__A0_REG = HI8(seed);
 244:Generated_Source\PSoC4/PRS.c ****                     PRS_SEED_COPY_A__A0_REG = LO8(seed);
 245:Generated_Source\PSoC4/PRS.c ****                 #endif  /* End (PRS_PRS_SIZE <= 32u) */
 246:Generated_Source\PSoC4/PRS.c **** 
 247:Generated_Source\PSoC4/PRS.c ****             #else
 248:Generated_Source\PSoC4/PRS.c ****                 /* Set FIFOs to single register */
 249:Generated_Source\PSoC4/PRS.c ****                 #if (PRS_PRS_SIZE <= 8u)      /* 8 bits PRS */
 250:Generated_Source\PSoC4/PRS.c ****                     PRS_AUX_CONTROL_A_REG |= PRS_AUXCTRL_FIFO_SINGLE_REG;
 251:Generated_Source\PSoC4/PRS.c **** 
 252:Generated_Source\PSoC4/PRS.c ****                 #elif (PRS_PRS_SIZE <= 16u)      /* 16 bits PRS */
 253:Generated_Source\PSoC4/PRS.c ****                     PRS_AUX_CONTROL_A_REG  |= PRS_AUXCTRL_FIFO_SINGLE_REG;
 254:Generated_Source\PSoC4/PRS.c ****                     PRS_AUX_CONTROL_B_REG  |= PRS_AUXCTRL_FIFO_SINGLE_REG;
 255:Generated_Source\PSoC4/PRS.c **** 
 256:Generated_Source\PSoC4/PRS.c ****                 #elif (PRS_PRS_SIZE <= 24u)      /* 24-39 bits PRS */
 257:Generated_Source\PSoC4/PRS.c ****                     PRS_AUX_CONTROL_A_REG  |= PRS_AUXCTRL_FIFO_SINGLE_REG;
 258:Generated_Source\PSoC4/PRS.c ****                     PRS_AUX_CONTROL_B_REG  |= PRS_AUXCTRL_FIFO_SINGLE_REG;
 259:Generated_Source\PSoC4/PRS.c ****                     PRS_AUX_CONTROL_C_REG  |= PRS_AUXCTRL_FIFO_SINGLE_REG;
 260:Generated_Source\PSoC4/PRS.c **** 
 261:Generated_Source\PSoC4/PRS.c ****                 #elif (PRS_PRS_SIZE <= 32u)      /* 40-55 bits PRS */
 262:Generated_Source\PSoC4/PRS.c ****                     PRS_AUX_CONTROL_A_REG  |= PRS_AUXCTRL_FIFO_SINGLE_REG;
 263:Generated_Source\PSoC4/PRS.c ****                     PRS_AUX_CONTROL_B_REG  |= PRS_AUXCTRL_FIFO_SINGLE_REG;
 264:Generated_Source\PSoC4/PRS.c ****                     PRS_AUX_CONTROL_C_REG  |= PRS_AUXCTRL_FIFO_SINGLE_REG;
 265:Generated_Source\PSoC4/PRS.c ****                     PRS_AUX_CONTROL_D_REG  |= PRS_AUXCTRL_FIFO_SINGLE_REG;
 266:Generated_Source\PSoC4/PRS.c **** 
 267:Generated_Source\PSoC4/PRS.c ****                 #endif  /* End (PRS_PRS_SIZE <= 8u) */
 268:Generated_Source\PSoC4/PRS.c **** 
 269:Generated_Source\PSoC4/PRS.c ****                 /* AuxControl reg setting are done */
 270:Generated_Source\PSoC4/PRS.c ****                 CyExitCriticalSection(enableInterrupts);
 271:Generated_Source\PSoC4/PRS.c **** 
 272:Generated_Source\PSoC4/PRS.c ****                 /* Write Seed COPY */
 273:Generated_Source\PSoC4/PRS.c ****                 CY_SET_REG16(PRS_SEED_COPY_PTR, seed);
 274:Generated_Source\PSoC4/PRS.c **** 
 275:Generated_Source\PSoC4/PRS.c ****             #endif  /* End (PRS_TIME_MULTIPLEXING_ENABLE) */
 276:Generated_Source\PSoC4/PRS.c ****         }
 277:Generated_Source\PSoC4/PRS.c **** 
 278:Generated_Source\PSoC4/PRS.c ****     #else
 279:Generated_Source\PSoC4/PRS.c **** 
ARM GAS  C:\Users\corne\AppData\Local\Temp\ccJFv04i.s 			page 8


 280:Generated_Source\PSoC4/PRS.c ****         /*******************************************************************************
 281:Generated_Source\PSoC4/PRS.c ****         * FUNCTION NAME: PRS_ResetSeedInitUpper
 282:Generated_Source\PSoC4/PRS.c ****         ********************************************************************************
 283:Generated_Source\PSoC4/PRS.c ****         *
 284:Generated_Source\PSoC4/PRS.c ****         * Summary:
 285:Generated_Source\PSoC4/PRS.c ****         *  Increments the PRS by one when API single step mode is used.
 286:Generated_Source\PSoC4/PRS.c ****         *
 287:Generated_Source\PSoC4/PRS.c ****         * Parameters:
 288:Generated_Source\PSoC4/PRS.c ****         *  void
 289:Generated_Source\PSoC4/PRS.c ****         *
 290:Generated_Source\PSoC4/PRS.c ****         * Return:
 291:Generated_Source\PSoC4/PRS.c ****         *  void
 292:Generated_Source\PSoC4/PRS.c ****         *
 293:Generated_Source\PSoC4/PRS.c ****         *******************************************************************************/
 294:Generated_Source\PSoC4/PRS.c ****         void PRS_ResetSeedInitUpper(uint32 seed) 
 295:Generated_Source\PSoC4/PRS.c ****         {
 296:Generated_Source\PSoC4/PRS.c **** 			uint8 enableInterrupts;
 297:Generated_Source\PSoC4/PRS.c **** 
 298:Generated_Source\PSoC4/PRS.c **** 			/* Mask the Seed Upper half to cut unused bits */
 299:Generated_Source\PSoC4/PRS.c ****             seed &= PRS_MASK;
 300:Generated_Source\PSoC4/PRS.c **** 
 301:Generated_Source\PSoC4/PRS.c **** 			/* Change AuxControl reg, need to be safety */
 302:Generated_Source\PSoC4/PRS.c ****             enableInterrupts = CyEnterCriticalSection();
 303:Generated_Source\PSoC4/PRS.c **** 
 304:Generated_Source\PSoC4/PRS.c ****             /* Set FIFOs to single register */
 305:Generated_Source\PSoC4/PRS.c ****             PRS_AUX_CONTROL_A_REG |= PRS_AUXCTRL_FIFO_SINGLE_REG;
 306:Generated_Source\PSoC4/PRS.c ****             PRS_AUX_CONTROL_B_REG |= PRS_AUXCTRL_FIFO_SINGLE_REG;
 307:Generated_Source\PSoC4/PRS.c ****             PRS_AUX_CONTROL_C_REG |= PRS_AUXCTRL_FIFO_SINGLE_REG;
 308:Generated_Source\PSoC4/PRS.c **** 
 309:Generated_Source\PSoC4/PRS.c **** 			#if (PRS_PRS_SIZE > 48u)               /* 49-64 bits PRS */
 310:Generated_Source\PSoC4/PRS.c ****                 PRS_AUX_CONTROL_D_REG |= PRS_AUXCTRL_FIFO_SINGLE_REG;
 311:Generated_Source\PSoC4/PRS.c ****             #endif  /* End (PRS_PRS_SIZE <= 8u) */
 312:Generated_Source\PSoC4/PRS.c **** 
 313:Generated_Source\PSoC4/PRS.c ****             /* AuxControl reg settings are done */
 314:Generated_Source\PSoC4/PRS.c ****             CyExitCriticalSection(enableInterrupts);
 315:Generated_Source\PSoC4/PRS.c **** 
 316:Generated_Source\PSoC4/PRS.c ****             /* Write Seed Upper COPY */
 317:Generated_Source\PSoC4/PRS.c ****             #if (PRS_PRS_SIZE <= 40u)          /* 40 bits PRS */
 318:Generated_Source\PSoC4/PRS.c ****                 PRS_SEED_UPPER_COPY_C__A1_REG = LO8(seed);
 319:Generated_Source\PSoC4/PRS.c **** 
 320:Generated_Source\PSoC4/PRS.c ****             #elif (PRS_PRS_SIZE <= 48u)        /* 48 bits PRS */
 321:Generated_Source\PSoC4/PRS.c ****                 PRS_SEED_UPPER_COPY_C__A1_REG = HI8(seed);
 322:Generated_Source\PSoC4/PRS.c ****                 PRS_SEED_UPPER_COPY_B__A1_REG = LO8(seed);
 323:Generated_Source\PSoC4/PRS.c **** 
 324:Generated_Source\PSoC4/PRS.c ****             #elif (PRS_PRS_SIZE <= 56u)        /* 56 bits PRS */
 325:Generated_Source\PSoC4/PRS.c ****                 PRS_SEED_UPPER_COPY_D__A1_REG = LO8(HI16(seed));
 326:Generated_Source\PSoC4/PRS.c ****                 PRS_SEED_UPPER_COPY_C__A1_REG = HI8(seed);
 327:Generated_Source\PSoC4/PRS.c ****                 PRS_SEED_UPPER_COPY_B__A1_REG = HI8(seed);
 328:Generated_Source\PSoC4/PRS.c **** 
 329:Generated_Source\PSoC4/PRS.c ****             #else                                           /* 64 bits PRS */
 330:Generated_Source\PSoC4/PRS.c ****                 PRS_SEED_UPPER_COPY_D__A1_REG = HI8(HI16(seed));
 331:Generated_Source\PSoC4/PRS.c ****                 PRS_SEED_UPPER_COPY_C__A1_REG = LO8(HI16(seed));
 332:Generated_Source\PSoC4/PRS.c ****                 PRS_SEED_UPPER_COPY_B__A1_REG = HI8(seed);
 333:Generated_Source\PSoC4/PRS.c ****                 PRS_SEED_UPPER_COPY_A__A1_REG = LO8(seed);
 334:Generated_Source\PSoC4/PRS.c **** 
 335:Generated_Source\PSoC4/PRS.c ****             #endif  /* End (PRS_PRS_SIZE <= 32u) */
 336:Generated_Source\PSoC4/PRS.c ****         }
ARM GAS  C:\Users\corne\AppData\Local\Temp\ccJFv04i.s 			page 9


 337:Generated_Source\PSoC4/PRS.c **** 
 338:Generated_Source\PSoC4/PRS.c **** 
 339:Generated_Source\PSoC4/PRS.c ****         /*******************************************************************************
 340:Generated_Source\PSoC4/PRS.c ****         * FUNCTION NAME: PRS_ResetSeedInitLower
 341:Generated_Source\PSoC4/PRS.c ****         ********************************************************************************
 342:Generated_Source\PSoC4/PRS.c ****         *
 343:Generated_Source\PSoC4/PRS.c ****         * Summary:
 344:Generated_Source\PSoC4/PRS.c ****         *  Increments the PRS by one when API single step mode is used.
 345:Generated_Source\PSoC4/PRS.c ****         *
 346:Generated_Source\PSoC4/PRS.c ****         * Parameters:
 347:Generated_Source\PSoC4/PRS.c ****         *  void
 348:Generated_Source\PSoC4/PRS.c ****         *
 349:Generated_Source\PSoC4/PRS.c ****         * Return:
 350:Generated_Source\PSoC4/PRS.c ****         *  void
 351:Generated_Source\PSoC4/PRS.c ****         *
 352:Generated_Source\PSoC4/PRS.c ****         *******************************************************************************/
 353:Generated_Source\PSoC4/PRS.c ****         void PRS_ResetSeedInitLower(uint32 seed) 
 354:Generated_Source\PSoC4/PRS.c ****         {
 355:Generated_Source\PSoC4/PRS.c ****             /* Write Seed Lower COPY */
 356:Generated_Source\PSoC4/PRS.c ****             #if (PRS_PRS_SIZE <= 40u)          /* 40 bits PRS */
 357:Generated_Source\PSoC4/PRS.c ****                 PRS_SEED_LOWER_COPY_B__A1_REG = HI8(HI16(seed));
 358:Generated_Source\PSoC4/PRS.c ****                 PRS_SEED_LOWER_COPY_C__A0_REG = LO8(HI16(seed));
 359:Generated_Source\PSoC4/PRS.c ****                 PRS_SEED_LOWER_COPY_B__A0_REG = HI8(seed);
 360:Generated_Source\PSoC4/PRS.c ****                 PRS_SEED_LOWER_COPY_A__A0_REG = LO8(seed);
 361:Generated_Source\PSoC4/PRS.c **** 
 362:Generated_Source\PSoC4/PRS.c ****             #elif (PRS_PRS_SIZE <= 48u)        /* 48 bits PRS */
 363:Generated_Source\PSoC4/PRS.c ****                 PRS_SEED_LOWER_COPY_A__A1_REG = HI8(HI16(seed));
 364:Generated_Source\PSoC4/PRS.c ****                 PRS_SEED_LOWER_COPY_C__A0_REG = LO8(HI16(seed));
 365:Generated_Source\PSoC4/PRS.c ****                 PRS_SEED_LOWER_COPY_B__A0_REG = HI8(seed);
 366:Generated_Source\PSoC4/PRS.c ****                 PRS_SEED_LOWER_COPY_A__A0_REG = LO8(seed);
 367:Generated_Source\PSoC4/PRS.c **** 
 368:Generated_Source\PSoC4/PRS.c ****             #else                                           /* 64 bits PRS */
 369:Generated_Source\PSoC4/PRS.c ****                 PRS_SEED_LOWER_COPY_D__A0_REG = HI8(HI16(seed));
 370:Generated_Source\PSoC4/PRS.c ****                 PRS_SEED_LOWER_COPY_C__A0_REG = LO8(HI16(seed));
 371:Generated_Source\PSoC4/PRS.c ****                 PRS_SEED_LOWER_COPY_B__A0_REG = HI8(seed);
 372:Generated_Source\PSoC4/PRS.c ****                 PRS_SEED_LOWER_COPY_A__A0_REG = LO8(seed);
 373:Generated_Source\PSoC4/PRS.c **** 
 374:Generated_Source\PSoC4/PRS.c ****             #endif  /* End (PRS_PRS_SIZE <= 32u) */
 375:Generated_Source\PSoC4/PRS.c ****         }
 376:Generated_Source\PSoC4/PRS.c **** 
 377:Generated_Source\PSoC4/PRS.c ****     #endif  /* End (PRS_PRS_SIZE <= 32u) */
 378:Generated_Source\PSoC4/PRS.c **** 
 379:Generated_Source\PSoC4/PRS.c **** #endif  /* End (PRS_RUN_MODE == PRS__CLOCKED) */
 380:Generated_Source\PSoC4/PRS.c **** 
 381:Generated_Source\PSoC4/PRS.c **** 
 382:Generated_Source\PSoC4/PRS.c **** #if(PRS_PRS_SIZE <= 32u) /* 8-32 bits PRS */
 383:Generated_Source\PSoC4/PRS.c ****     /*******************************************************************************
 384:Generated_Source\PSoC4/PRS.c ****     * Function Name: PRS_Read
 385:Generated_Source\PSoC4/PRS.c ****     ********************************************************************************
 386:Generated_Source\PSoC4/PRS.c ****     *
 387:Generated_Source\PSoC4/PRS.c ****     * Summary:
 388:Generated_Source\PSoC4/PRS.c ****     *  Reads PRS value.
 389:Generated_Source\PSoC4/PRS.c ****     *
 390:Generated_Source\PSoC4/PRS.c ****     * Parameters:
 391:Generated_Source\PSoC4/PRS.c ****     *  void
 392:Generated_Source\PSoC4/PRS.c ****     *
 393:Generated_Source\PSoC4/PRS.c ****     * Return:
ARM GAS  C:\Users\corne\AppData\Local\Temp\ccJFv04i.s 			page 10


 394:Generated_Source\PSoC4/PRS.c ****     *  Returns PRS value.
 395:Generated_Source\PSoC4/PRS.c ****     *
 396:Generated_Source\PSoC4/PRS.c ****     * Side Effects:
 397:Generated_Source\PSoC4/PRS.c ****     *  The seed value is cut according to mask = 2^(Resolution) - 1.
 398:Generated_Source\PSoC4/PRS.c ****     *  For example if PRS Resolution is 14 bits the mask value is:
 399:Generated_Source\PSoC4/PRS.c ****     *  mask = 2^(14) - 1 = 0x3FFFu.
 400:Generated_Source\PSoC4/PRS.c ****     *  The seed value = 0xFFFFu is cut:
 401:Generated_Source\PSoC4/PRS.c ****     *  seed & mask = 0xFFFFu & 0x3FFFu = 0x3FFFu.
 402:Generated_Source\PSoC4/PRS.c ****     *
 403:Generated_Source\PSoC4/PRS.c ****     *******************************************************************************/
 404:Generated_Source\PSoC4/PRS.c ****     uint16 PRS_Read(void) 
 405:Generated_Source\PSoC4/PRS.c ****     {
 121              		.loc 1 405 0
 122              		.cfi_startproc
 123              		@ args = 0, pretend = 0, frame = 0
 124              		@ frame_needed = 0, uses_anonymous_args = 0
 125              		@ link register save eliminated.
 406:Generated_Source\PSoC4/PRS.c ****         /* Read PRS */
 407:Generated_Source\PSoC4/PRS.c ****         #if (PRS_TIME_MULTIPLEXING_ENABLE)
 408:Generated_Source\PSoC4/PRS.c **** 
 409:Generated_Source\PSoC4/PRS.c ****             uint16 seed;
 410:Generated_Source\PSoC4/PRS.c **** 
 411:Generated_Source\PSoC4/PRS.c ****             #if (PRS_PRS_SIZE <= 16u)          /* 16 bits PRS */
 412:Generated_Source\PSoC4/PRS.c ****                 seed = ((uint16) PRS_SEED_A__A1_REG) << 8u;
 413:Generated_Source\PSoC4/PRS.c ****                 seed |= PRS_SEED_A__A0_REG;
 414:Generated_Source\PSoC4/PRS.c **** 
 415:Generated_Source\PSoC4/PRS.c ****             #elif (PRS_PRS_SIZE <= 24u)        /* 24 bits PRS */
 416:Generated_Source\PSoC4/PRS.c ****                 seed = ((uint32) (PRS_SEED_B__A1_REG)) << 16u;
 417:Generated_Source\PSoC4/PRS.c ****                 seed |= ((uint32) (PRS_SEED_B__A0_REG)) << 8u;
 418:Generated_Source\PSoC4/PRS.c ****                 seed |= PRS_SEED_A__A0_REG;
 419:Generated_Source\PSoC4/PRS.c **** 
 420:Generated_Source\PSoC4/PRS.c ****             #else                                           /* 32 bits PRS */
 421:Generated_Source\PSoC4/PRS.c ****                 seed = ((uint32) PRS_SEED_B__A1_REG) << 24u;
 422:Generated_Source\PSoC4/PRS.c ****                 seed |= ((uint32) PRS_SEED_A__A1_REG) << 16u;
 423:Generated_Source\PSoC4/PRS.c ****                 seed |= ((uint32) PRS_SEED_B__A0_REG) << 8u;
 424:Generated_Source\PSoC4/PRS.c ****                 seed |= PRS_SEED_A__A0_REG;
 425:Generated_Source\PSoC4/PRS.c **** 
 426:Generated_Source\PSoC4/PRS.c ****             #endif  /* End (PRS_PRS_SIZE <= 8u) */
 427:Generated_Source\PSoC4/PRS.c **** 
 428:Generated_Source\PSoC4/PRS.c ****             return (seed  & PRS_MASK);
 429:Generated_Source\PSoC4/PRS.c **** 
 430:Generated_Source\PSoC4/PRS.c ****         #else
 431:Generated_Source\PSoC4/PRS.c **** 
 432:Generated_Source\PSoC4/PRS.c ****             return (CY_GET_REG16(PRS_SEED_PTR) & PRS_MASK);
 126              		.loc 1 432 0
 127 0000 014B     		ldr	r3, .L11
 128 0002 1888     		ldrh	r0, [r3]
 129 0004 80B2     		uxth	r0, r0
 433:Generated_Source\PSoC4/PRS.c **** 
 434:Generated_Source\PSoC4/PRS.c ****         #endif  /* End (PRS_TIME_MULTIPLEXING_ENABLE) */
 435:Generated_Source\PSoC4/PRS.c ****     }
 130              		.loc 1 435 0
 131              		@ sp needed
 132 0006 7047     		bx	lr
 133              	.L12:
 134              		.align	2
 135              	.L11:
ARM GAS  C:\Users\corne\AppData\Local\Temp\ccJFv04i.s 			page 11


 136 0008 08100F40 		.word	1074728968
 137              		.cfi_endproc
 138              	.LFE6:
 139              		.size	PRS_Read, .-PRS_Read
 140              		.section	.text.PRS_WriteSeed,"ax",%progbits
 141              		.align	2
 142              		.global	PRS_WriteSeed
 143              		.code	16
 144              		.thumb_func
 145              		.type	PRS_WriteSeed, %function
 146              	PRS_WriteSeed:
 147              	.LFB7:
 436:Generated_Source\PSoC4/PRS.c **** 
 437:Generated_Source\PSoC4/PRS.c **** 
 438:Generated_Source\PSoC4/PRS.c ****     /*******************************************************************************
 439:Generated_Source\PSoC4/PRS.c ****     * Function Name: PRS_WriteSeed
 440:Generated_Source\PSoC4/PRS.c ****     ********************************************************************************
 441:Generated_Source\PSoC4/PRS.c ****     *
 442:Generated_Source\PSoC4/PRS.c ****     * Summary:
 443:Generated_Source\PSoC4/PRS.c ****     *  Writes seed value.
 444:Generated_Source\PSoC4/PRS.c ****     *
 445:Generated_Source\PSoC4/PRS.c ****     * Parameters:
 446:Generated_Source\PSoC4/PRS.c ****     *  seed:  Seed value.
 447:Generated_Source\PSoC4/PRS.c ****     *
 448:Generated_Source\PSoC4/PRS.c ****     * Return:
 449:Generated_Source\PSoC4/PRS.c ****     *  void
 450:Generated_Source\PSoC4/PRS.c ****     *
 451:Generated_Source\PSoC4/PRS.c ****     * Side Effects:
 452:Generated_Source\PSoC4/PRS.c ****     *  The seed value is cut according to mask = 2^(Resolution) - 1.
 453:Generated_Source\PSoC4/PRS.c ****     *  For example if PRS Resolution is 14 bits the mask value is:
 454:Generated_Source\PSoC4/PRS.c ****     *  mask = 2^(14) - 1 = 0x3FFFu.
 455:Generated_Source\PSoC4/PRS.c ****     *  The seed value = 0xFFFFu is cut:
 456:Generated_Source\PSoC4/PRS.c ****     *  seed & mask = 0xFFFFu & 0x3FFFu = 0x3FFFu.
 457:Generated_Source\PSoC4/PRS.c ****     *
 458:Generated_Source\PSoC4/PRS.c ****     *******************************************************************************/
 459:Generated_Source\PSoC4/PRS.c ****     void PRS_WriteSeed(uint16 seed) 
 460:Generated_Source\PSoC4/PRS.c ****     {
 148              		.loc 1 460 0
 149              		.cfi_startproc
 150              		@ args = 0, pretend = 0, frame = 0
 151              		@ frame_needed = 0, uses_anonymous_args = 0
 152              		@ link register save eliminated.
 153              	.LVL0:
 461:Generated_Source\PSoC4/PRS.c ****         /* Masks the Seed to cut unused bits */
 462:Generated_Source\PSoC4/PRS.c ****         seed &= PRS_MASK;
 463:Generated_Source\PSoC4/PRS.c **** 
 464:Generated_Source\PSoC4/PRS.c ****         /* Writes Seed */
 465:Generated_Source\PSoC4/PRS.c ****         #if (PRS_TIME_MULTIPLEXING_ENABLE)
 466:Generated_Source\PSoC4/PRS.c **** 
 467:Generated_Source\PSoC4/PRS.c ****             #if (PRS_PRS_SIZE <= 16u)          /* 16 bits PRS */
 468:Generated_Source\PSoC4/PRS.c ****                 PRS_SEED_A__A1_REG = HI8(seed);
 469:Generated_Source\PSoC4/PRS.c ****                 PRS_SEED_A__A0_REG = LO8(seed);
 470:Generated_Source\PSoC4/PRS.c **** 
 471:Generated_Source\PSoC4/PRS.c ****             #elif (PRS_PRS_SIZE <= 24u)        /* 24 bits PRS */
 472:Generated_Source\PSoC4/PRS.c ****                 PRS_SEED_B__A1_REG = LO8(HI16(seed));
 473:Generated_Source\PSoC4/PRS.c ****                 PRS_SEED_B__A0_REG = HI8(seed);
 474:Generated_Source\PSoC4/PRS.c ****                 PRS_SEED_A__A0_REG = LO8(seed);
ARM GAS  C:\Users\corne\AppData\Local\Temp\ccJFv04i.s 			page 12


 475:Generated_Source\PSoC4/PRS.c **** 
 476:Generated_Source\PSoC4/PRS.c ****             #else                                           /* 32 bits PRS */
 477:Generated_Source\PSoC4/PRS.c ****                 PRS_SEED_B__A1_REG = HI8(HI16(seed));
 478:Generated_Source\PSoC4/PRS.c ****                 PRS_SEED_A__A1_REG = LO8(HI16(seed));
 479:Generated_Source\PSoC4/PRS.c ****                 PRS_SEED_B__A0_REG = HI8(seed);
 480:Generated_Source\PSoC4/PRS.c ****                 PRS_SEED_A__A0_REG = LO8(seed);
 481:Generated_Source\PSoC4/PRS.c ****             #endif  /* End (PRS_PRS_SIZE <= 32u) */
 482:Generated_Source\PSoC4/PRS.c **** 
 483:Generated_Source\PSoC4/PRS.c ****             /* Resets triggers */
 484:Generated_Source\PSoC4/PRS.c ****             #if (PRS_WAKEUP_BEHAVIOUR == PRS__RESUMEWORK)
 485:Generated_Source\PSoC4/PRS.c ****                 if((PRS_sleepState & PRS_NORMAL_SEQUENCE) != 0u)
 486:Generated_Source\PSoC4/PRS.c ****                 {
 487:Generated_Source\PSoC4/PRS.c ****                     PRS_EXECUTE_DFF_RESET;
 488:Generated_Source\PSoC4/PRS.c ****                 }
 489:Generated_Source\PSoC4/PRS.c ****             #else
 490:Generated_Source\PSoC4/PRS.c ****                 PRS_EXECUTE_DFF_RESET;
 491:Generated_Source\PSoC4/PRS.c ****             #endif  /* (PRS_WAKEUP_BEHAVIOUR == PRS__RESUMEWORK) */
 492:Generated_Source\PSoC4/PRS.c **** 
 493:Generated_Source\PSoC4/PRS.c ****         #else
 494:Generated_Source\PSoC4/PRS.c **** 
 495:Generated_Source\PSoC4/PRS.c ****             CY_SET_REG16(PRS_SEED_PTR, seed);
 154              		.loc 1 495 0
 155 0000 014B     		ldr	r3, .L14
 156 0002 1880     		strh	r0, [r3]
 496:Generated_Source\PSoC4/PRS.c **** 
 497:Generated_Source\PSoC4/PRS.c ****         #endif  /* End (PRS_TIME_MULTIPLEXING_ENABLE) */
 498:Generated_Source\PSoC4/PRS.c ****     }
 157              		.loc 1 498 0
 158              		@ sp needed
 159 0004 7047     		bx	lr
 160              	.L15:
 161 0006 C046     		.align	2
 162              	.L14:
 163 0008 08100F40 		.word	1074728968
 164              		.cfi_endproc
 165              	.LFE7:
 166              		.size	PRS_WriteSeed, .-PRS_WriteSeed
 167              		.section	.text.PRS_ReadPolynomial,"ax",%progbits
 168              		.align	2
 169              		.global	PRS_ReadPolynomial
 170              		.code	16
 171              		.thumb_func
 172              		.type	PRS_ReadPolynomial, %function
 173              	PRS_ReadPolynomial:
 174              	.LFB8:
 499:Generated_Source\PSoC4/PRS.c **** 
 500:Generated_Source\PSoC4/PRS.c **** 
 501:Generated_Source\PSoC4/PRS.c ****     /*******************************************************************************
 502:Generated_Source\PSoC4/PRS.c ****     * Function Name: PRS_ReadPolynomial
 503:Generated_Source\PSoC4/PRS.c ****     ********************************************************************************
 504:Generated_Source\PSoC4/PRS.c ****     *
 505:Generated_Source\PSoC4/PRS.c ****     * Summary:
 506:Generated_Source\PSoC4/PRS.c ****     *  Reads PRS polynomial value.
 507:Generated_Source\PSoC4/PRS.c ****     *
 508:Generated_Source\PSoC4/PRS.c ****     * Parameters:
 509:Generated_Source\PSoC4/PRS.c ****     *  void
 510:Generated_Source\PSoC4/PRS.c ****     *
ARM GAS  C:\Users\corne\AppData\Local\Temp\ccJFv04i.s 			page 13


 511:Generated_Source\PSoC4/PRS.c ****     * Return:
 512:Generated_Source\PSoC4/PRS.c ****     *  Returns PRS polynomial value.
 513:Generated_Source\PSoC4/PRS.c ****     *
 514:Generated_Source\PSoC4/PRS.c ****     *******************************************************************************/
 515:Generated_Source\PSoC4/PRS.c ****     uint16 PRS_ReadPolynomial(void)
 516:Generated_Source\PSoC4/PRS.c ****                                 
 517:Generated_Source\PSoC4/PRS.c ****     {
 175              		.loc 1 517 0
 176              		.cfi_startproc
 177              		@ args = 0, pretend = 0, frame = 0
 178              		@ frame_needed = 0, uses_anonymous_args = 0
 179              		@ link register save eliminated.
 518:Generated_Source\PSoC4/PRS.c ****         /* Reads polynomial */
 519:Generated_Source\PSoC4/PRS.c ****         #if (PRS_TIME_MULTIPLEXING_ENABLE)
 520:Generated_Source\PSoC4/PRS.c **** 
 521:Generated_Source\PSoC4/PRS.c ****             uint16 polynomial;
 522:Generated_Source\PSoC4/PRS.c **** 
 523:Generated_Source\PSoC4/PRS.c ****             #if (PRS_PRS_SIZE <= 16u)          /* 16 bits PRS */
 524:Generated_Source\PSoC4/PRS.c ****                 polynomial = ((uint16) PRS_POLYNOM_A__D1_REG) << 8u;
 525:Generated_Source\PSoC4/PRS.c ****                 polynomial |= (PRS_POLYNOM_A__D0_REG);
 526:Generated_Source\PSoC4/PRS.c **** 
 527:Generated_Source\PSoC4/PRS.c ****             #elif (PRS_PRS_SIZE <= 24u)        /* 24 bits PRS */
 528:Generated_Source\PSoC4/PRS.c ****                 polynomial = ((uint32) PRS_POLYNOM_B__D1_REG) << 16u;
 529:Generated_Source\PSoC4/PRS.c ****                 polynomial |= ((uint32) PRS_POLYNOM_B__D0_REG) << 8u;
 530:Generated_Source\PSoC4/PRS.c ****                 polynomial |= PRS_POLYNOM_A__D0_REG;
 531:Generated_Source\PSoC4/PRS.c **** 
 532:Generated_Source\PSoC4/PRS.c ****             #else                                           /* 32 bits PRS */
 533:Generated_Source\PSoC4/PRS.c ****                 polynomial = ((uint32) PRS_POLYNOM_B__D1_REG) << 24u;
 534:Generated_Source\PSoC4/PRS.c ****                 polynomial |= ((uint32) PRS_POLYNOM_A__D1_REG) << 16u;
 535:Generated_Source\PSoC4/PRS.c ****                 polynomial |= ((uint32) PRS_POLYNOM_B__D0_REG) << 8u;
 536:Generated_Source\PSoC4/PRS.c ****                 polynomial |= PRS_POLYNOM_A__D0_REG;
 537:Generated_Source\PSoC4/PRS.c **** 
 538:Generated_Source\PSoC4/PRS.c ****             #endif  /* End (PRS_PRS_SIZE <= 32u) */
 539:Generated_Source\PSoC4/PRS.c **** 
 540:Generated_Source\PSoC4/PRS.c ****             return polynomial;
 541:Generated_Source\PSoC4/PRS.c **** 
 542:Generated_Source\PSoC4/PRS.c ****         #else
 543:Generated_Source\PSoC4/PRS.c **** 
 544:Generated_Source\PSoC4/PRS.c ****             return CY_GET_REG16(PRS_POLYNOM_PTR);
 180              		.loc 1 544 0
 181 0000 014B     		ldr	r3, .L17
 182 0002 1888     		ldrh	r0, [r3]
 183 0004 80B2     		uxth	r0, r0
 545:Generated_Source\PSoC4/PRS.c **** 
 546:Generated_Source\PSoC4/PRS.c ****         #endif  /* End (PRS_TIME_MULTIPLEXING_ENABLE) */
 547:Generated_Source\PSoC4/PRS.c ****     }
 184              		.loc 1 547 0
 185              		@ sp needed
 186 0006 7047     		bx	lr
 187              	.L18:
 188              		.align	2
 189              	.L17:
 190 0008 48100F40 		.word	1074729032
 191              		.cfi_endproc
 192              	.LFE8:
 193              		.size	PRS_ReadPolynomial, .-PRS_ReadPolynomial
 194              		.section	.text.PRS_WritePolynomial,"ax",%progbits
ARM GAS  C:\Users\corne\AppData\Local\Temp\ccJFv04i.s 			page 14


 195              		.align	2
 196              		.global	PRS_WritePolynomial
 197              		.code	16
 198              		.thumb_func
 199              		.type	PRS_WritePolynomial, %function
 200              	PRS_WritePolynomial:
 201              	.LFB9:
 548:Generated_Source\PSoC4/PRS.c **** 
 549:Generated_Source\PSoC4/PRS.c **** 
 550:Generated_Source\PSoC4/PRS.c ****     /*******************************************************************************
 551:Generated_Source\PSoC4/PRS.c ****     * Function Name: PRS_WritePolynomial
 552:Generated_Source\PSoC4/PRS.c ****     ********************************************************************************
 553:Generated_Source\PSoC4/PRS.c ****     *
 554:Generated_Source\PSoC4/PRS.c ****     * Summary:
 555:Generated_Source\PSoC4/PRS.c ****     *  Writes PRS polynomial value.
 556:Generated_Source\PSoC4/PRS.c ****     *
 557:Generated_Source\PSoC4/PRS.c ****     * Parameters:
 558:Generated_Source\PSoC4/PRS.c ****     *  polynomial:  PRS polynomial.
 559:Generated_Source\PSoC4/PRS.c ****     *
 560:Generated_Source\PSoC4/PRS.c ****     * Return:
 561:Generated_Source\PSoC4/PRS.c ****     *  void
 562:Generated_Source\PSoC4/PRS.c ****     *
 563:Generated_Source\PSoC4/PRS.c ****     * Side Effects:
 564:Generated_Source\PSoC4/PRS.c ****     *  The polynomial value is cut according to mask = 2^(Resolution) - 1.
 565:Generated_Source\PSoC4/PRS.c ****     *  For example if PRS Resolution is 14 bits the mask value is:
 566:Generated_Source\PSoC4/PRS.c ****     *  mask = 2^(14) - 1 = 0x3FFFu.
 567:Generated_Source\PSoC4/PRS.c ****     *  The polynomial value = 0xFFFFu is cut:
 568:Generated_Source\PSoC4/PRS.c ****     *  polynomial & mask = 0xFFFFu & 0x3FFFu = 0x3FFFu.
 569:Generated_Source\PSoC4/PRS.c ****     *
 570:Generated_Source\PSoC4/PRS.c ****     *******************************************************************************/
 571:Generated_Source\PSoC4/PRS.c ****     void PRS_WritePolynomial(uint16 polynomial)
 572:Generated_Source\PSoC4/PRS.c ****                                           
 573:Generated_Source\PSoC4/PRS.c ****     {
 202              		.loc 1 573 0
 203              		.cfi_startproc
 204              		@ args = 0, pretend = 0, frame = 0
 205              		@ frame_needed = 0, uses_anonymous_args = 0
 206              		@ link register save eliminated.
 207              	.LVL1:
 574:Generated_Source\PSoC4/PRS.c ****         /* Mask polynomial to cut unused bits */
 575:Generated_Source\PSoC4/PRS.c ****         polynomial &= PRS_MASK;
 576:Generated_Source\PSoC4/PRS.c **** 
 577:Generated_Source\PSoC4/PRS.c ****         /* Write polynomial */
 578:Generated_Source\PSoC4/PRS.c ****         #if (PRS_TIME_MULTIPLEXING_ENABLE)
 579:Generated_Source\PSoC4/PRS.c **** 
 580:Generated_Source\PSoC4/PRS.c ****             #if (PRS_PRS_SIZE <= 16u)          /* 16 bits PRS */
 581:Generated_Source\PSoC4/PRS.c **** 
 582:Generated_Source\PSoC4/PRS.c ****                 PRS_POLYNOM_A__D1_REG = HI8(polynomial);
 583:Generated_Source\PSoC4/PRS.c ****                 PRS_POLYNOM_A__D0_REG = LO8(polynomial);
 584:Generated_Source\PSoC4/PRS.c **** 
 585:Generated_Source\PSoC4/PRS.c ****             #elif (PRS_PRS_SIZE <= 24u)        /* 24 bits PRS */
 586:Generated_Source\PSoC4/PRS.c ****                 PRS_POLYNOM_B__D1_REG = LO8(HI16(polynomial));
 587:Generated_Source\PSoC4/PRS.c ****                 PRS_POLYNOM_B__D0_REG = HI8(polynomial);
 588:Generated_Source\PSoC4/PRS.c ****                 PRS_POLYNOM_A__D0_REG = LO8(polynomial);
 589:Generated_Source\PSoC4/PRS.c **** 
 590:Generated_Source\PSoC4/PRS.c ****             #else                                           /* 32 bits PRS */
 591:Generated_Source\PSoC4/PRS.c ****                 PRS_POLYNOM_B__D1_REG = HI8(HI16(polynomial));
ARM GAS  C:\Users\corne\AppData\Local\Temp\ccJFv04i.s 			page 15


 592:Generated_Source\PSoC4/PRS.c ****                 PRS_POLYNOM_A__D1_REG = LO8(HI16(polynomial));
 593:Generated_Source\PSoC4/PRS.c ****                 PRS_POLYNOM_B__D0_REG = HI8(polynomial);
 594:Generated_Source\PSoC4/PRS.c ****                 PRS_POLYNOM_A__D0_REG = LO8(polynomial);
 595:Generated_Source\PSoC4/PRS.c **** 
 596:Generated_Source\PSoC4/PRS.c ****             #endif  /* End (PRS_PRS_SIZE <= 32u) */
 597:Generated_Source\PSoC4/PRS.c **** 
 598:Generated_Source\PSoC4/PRS.c ****             /* Resets triggers */
 599:Generated_Source\PSoC4/PRS.c ****             #if (PRS_WAKEUP_BEHAVIOUR == PRS__RESUMEWORK)
 600:Generated_Source\PSoC4/PRS.c ****                 if((PRS_sleepState & PRS_NORMAL_SEQUENCE) != 0u)
 601:Generated_Source\PSoC4/PRS.c ****                 {
 602:Generated_Source\PSoC4/PRS.c ****                     PRS_EXECUTE_DFF_RESET;
 603:Generated_Source\PSoC4/PRS.c ****                 }
 604:Generated_Source\PSoC4/PRS.c ****             #else
 605:Generated_Source\PSoC4/PRS.c ****                 PRS_EXECUTE_DFF_RESET;
 606:Generated_Source\PSoC4/PRS.c ****             #endif  /* (PRS_WAKEUP_BEHAVIOUR == PRS__RESUMEWORK) */
 607:Generated_Source\PSoC4/PRS.c **** 
 608:Generated_Source\PSoC4/PRS.c ****         #else
 609:Generated_Source\PSoC4/PRS.c **** 
 610:Generated_Source\PSoC4/PRS.c ****             CY_SET_REG16(PRS_POLYNOM_PTR, polynomial);
 208              		.loc 1 610 0
 209 0000 014B     		ldr	r3, .L20
 210 0002 1880     		strh	r0, [r3]
 611:Generated_Source\PSoC4/PRS.c **** 
 612:Generated_Source\PSoC4/PRS.c ****         #endif  /* End (PRS_TIME_MULTIPLEXING_ENABLE) */
 613:Generated_Source\PSoC4/PRS.c ****     }
 211              		.loc 1 613 0
 212              		@ sp needed
 213 0004 7047     		bx	lr
 214              	.L21:
 215 0006 C046     		.align	2
 216              	.L20:
 217 0008 48100F40 		.word	1074729032
 218              		.cfi_endproc
 219              	.LFE9:
 220              		.size	PRS_WritePolynomial, .-PRS_WritePolynomial
 221              		.section	.text.PRS_Init,"ax",%progbits
 222              		.align	2
 223              		.global	PRS_Init
 224              		.code	16
 225              		.thumb_func
 226              		.type	PRS_Init, %function
 227              	PRS_Init:
 228              	.LFB1:
  61:Generated_Source\PSoC4/PRS.c ****     /* Writes seed value and ponynom value provided for customizer */
 229              		.loc 1 61 0
 230              		.cfi_startproc
 231              		@ args = 0, pretend = 0, frame = 0
 232              		@ frame_needed = 0, uses_anonymous_args = 0
 233 0000 10B5     		push	{r4, lr}
 234              		.cfi_def_cfa_offset 8
 235              		.cfi_offset 4, -8
 236              		.cfi_offset 14, -4
  64:Generated_Source\PSoC4/PRS.c ****         PRS_WriteSeed(PRS_DEFAULT_SEED);
 237              		.loc 1 64 0
 238 0002 B420     		movs	r0, #180
 239 0004 0002     		lsls	r0, r0, #8
 240 0006 FFF7FEFF 		bl	PRS_WritePolynomial
ARM GAS  C:\Users\corne\AppData\Local\Temp\ccJFv04i.s 			page 16


 241              	.LVL2:
  65:Generated_Source\PSoC4/PRS.c ****         #if (PRS_RUN_MODE == PRS__CLOCKED)
 242              		.loc 1 65 0
 243 000a 0348     		ldr	r0, .L23
 244 000c FFF7FEFF 		bl	PRS_WriteSeed
 245              	.LVL3:
  69:Generated_Source\PSoC4/PRS.c ****     #else
 246              		.loc 1 69 0
 247 0010 FFF7FEFF 		bl	PRS_Enable
 248              	.LVL4:
  81:Generated_Source\PSoC4/PRS.c **** 
 249              		.loc 1 81 0
 250              		@ sp needed
 251 0014 10BD     		pop	{r4, pc}
 252              	.L24:
 253 0016 C046     		.align	2
 254              	.L23:
 255 0018 FFFF0000 		.word	65535
 256              		.cfi_endproc
 257              	.LFE1:
 258              		.size	PRS_Init, .-PRS_Init
 259              		.section	.text.PRS_Start,"ax",%progbits
 260              		.align	2
 261              		.global	PRS_Start
 262              		.code	16
 263              		.thumb_func
 264              		.type	PRS_Start, %function
 265              	PRS_Start:
 266              	.LFB3:
 127:Generated_Source\PSoC4/PRS.c ****     /* Writes seed value and ponynom value provided from customizer */
 267              		.loc 1 127 0
 268              		.cfi_startproc
 269              		@ args = 0, pretend = 0, frame = 0
 270              		@ frame_needed = 0, uses_anonymous_args = 0
 271 0000 10B5     		push	{r4, lr}
 272              		.cfi_def_cfa_offset 8
 273              		.cfi_offset 4, -8
 274              		.cfi_offset 14, -4
 129:Generated_Source\PSoC4/PRS.c ****     {
 275              		.loc 1 129 0
 276 0002 064B     		ldr	r3, .L27
 277 0004 1B78     		ldrb	r3, [r3]
 278 0006 002B     		cmp	r3, #0
 279 0008 04D1     		bne	.L26
 131:Generated_Source\PSoC4/PRS.c ****         PRS_initVar = 1u;
 280              		.loc 1 131 0
 281 000a FFF7FEFF 		bl	PRS_Init
 282              	.LVL5:
 132:Generated_Source\PSoC4/PRS.c ****     }
 283              		.loc 1 132 0
 284 000e 0122     		movs	r2, #1
 285 0010 024B     		ldr	r3, .L27
 286 0012 1A70     		strb	r2, [r3]
 287              	.L26:
 135:Generated_Source\PSoC4/PRS.c **** }
 288              		.loc 1 135 0
 289 0014 FFF7FEFF 		bl	PRS_Enable
ARM GAS  C:\Users\corne\AppData\Local\Temp\ccJFv04i.s 			page 17


 290              	.LVL6:
 136:Generated_Source\PSoC4/PRS.c **** 
 291              		.loc 1 136 0
 292              		@ sp needed
 293 0018 10BD     		pop	{r4, pc}
 294              	.L28:
 295 001a C046     		.align	2
 296              	.L27:
 297 001c 00000000 		.word	.LANCHOR0
 298              		.cfi_endproc
 299              	.LFE3:
 300              		.size	PRS_Start, .-PRS_Start
 301              		.global	PRS_backup
 302              		.global	PRS_initVar
 303              		.data
 304              		.align	2
 305              		.type	PRS_backup, %object
 306              		.size	PRS_backup, 4
 307              	PRS_backup:
 308 0000 00       		.byte	0
 309 0001 00       		.space	1
 310 0002 FFFF     		.short	-1
 311              		.bss
 312              		.set	.LANCHOR0,. + 0
 313              		.type	PRS_initVar, %object
 314              		.size	PRS_initVar, 1
 315              	PRS_initVar:
 316 0000 00       		.space	1
 317              		.text
 318              	.Letext0:
 319              		.file 2 "Generated_Source\\PSoC4\\cytypes.h"
 320              		.file 3 "Generated_Source\\PSoC4\\PRS.h"