ARM GAS  C:\Users\corne\AppData\Local\Temp\ccJ701tr.s 			page 1


   1              		.syntax unified
   2              		.cpu cortex-m0
   3              		.fpu softvfp
   4              		.eabi_attribute 20, 1
   5              		.eabi_attribute 21, 1
   6              		.eabi_attribute 23, 3
   7              		.eabi_attribute 24, 1
   8              		.eabi_attribute 25, 1
   9              		.eabi_attribute 26, 1
  10              		.eabi_attribute 30, 1
  11              		.eabi_attribute 34, 0
  12              		.eabi_attribute 18, 4
  13              		.thumb
  14              		.syntax unified
  15              		.file	"PRS_PM.c"
  16              		.text
  17              	.Ltext0:
  18              		.cfi_sections	.debug_frame
  19              		.section	.text.PRS_SaveConfig,"ax",%progbits
  20              		.align	2
  21              		.global	PRS_SaveConfig
  22              		.code	16
  23              		.thumb_func
  24              		.type	PRS_SaveConfig, %function
  25              	PRS_SaveConfig:
  26              	.LFB1:
  27              		.file 1 "Generated_Source\\PSoC4\\PRS_PM.c"
   1:Generated_Source\PSoC4/PRS_PM.c **** /*******************************************************************************
   2:Generated_Source\PSoC4/PRS_PM.c **** * File Name: PRS_PM.c
   3:Generated_Source\PSoC4/PRS_PM.c **** * Version 2.40
   4:Generated_Source\PSoC4/PRS_PM.c **** *
   5:Generated_Source\PSoC4/PRS_PM.c **** * Description:
   6:Generated_Source\PSoC4/PRS_PM.c **** *  This file provides Sleep APIs for PRS component.
   7:Generated_Source\PSoC4/PRS_PM.c **** *
   8:Generated_Source\PSoC4/PRS_PM.c **** * Note:
   9:Generated_Source\PSoC4/PRS_PM.c **** *  None
  10:Generated_Source\PSoC4/PRS_PM.c **** *
  11:Generated_Source\PSoC4/PRS_PM.c **** ********************************************************************************
  12:Generated_Source\PSoC4/PRS_PM.c **** * Copyright 2008-2013, Cypress Semiconductor Corporation.  All rights reserved.
  13:Generated_Source\PSoC4/PRS_PM.c **** * You may use this file only in accordance with the license, terms, conditions, 
  14:Generated_Source\PSoC4/PRS_PM.c **** * disclaimers, and limitations in the end user license agreement accompanying 
  15:Generated_Source\PSoC4/PRS_PM.c **** * the software package with which this file was provided.
  16:Generated_Source\PSoC4/PRS_PM.c **** *******************************************************************************/
  17:Generated_Source\PSoC4/PRS_PM.c **** 
  18:Generated_Source\PSoC4/PRS_PM.c **** #include "PRS.h"
  19:Generated_Source\PSoC4/PRS_PM.c **** 
  20:Generated_Source\PSoC4/PRS_PM.c **** #if ((PRS_TIME_MULTIPLEXING_ENABLE) && (PRS_WAKEUP_BEHAVIOUR == PRS__RESUMEWORK))
  21:Generated_Source\PSoC4/PRS_PM.c ****     uint8 PRS_sleepState = PRS_NORMAL_SEQUENCE;    
  22:Generated_Source\PSoC4/PRS_PM.c **** #endif  /* End ((PRS_TIME_MULTIPLEXING_ENABLE) && 
  23:Generated_Source\PSoC4/PRS_PM.c ****           (PRS_WAKEUP_BEHAVIOUR == PRS__RESUMEWORK)) */
  24:Generated_Source\PSoC4/PRS_PM.c **** 
  25:Generated_Source\PSoC4/PRS_PM.c **** 
  26:Generated_Source\PSoC4/PRS_PM.c **** /*******************************************************************************
  27:Generated_Source\PSoC4/PRS_PM.c **** * Function Name: PRS_SaveConfig
  28:Generated_Source\PSoC4/PRS_PM.c **** ********************************************************************************
  29:Generated_Source\PSoC4/PRS_PM.c **** *
  30:Generated_Source\PSoC4/PRS_PM.c **** * Summary:
ARM GAS  C:\Users\corne\AppData\Local\Temp\ccJ701tr.s 			page 2


  31:Generated_Source\PSoC4/PRS_PM.c **** *  Saves seed and polynomial registers.
  32:Generated_Source\PSoC4/PRS_PM.c **** *
  33:Generated_Source\PSoC4/PRS_PM.c **** * Parameters:
  34:Generated_Source\PSoC4/PRS_PM.c **** *  void
  35:Generated_Source\PSoC4/PRS_PM.c **** *
  36:Generated_Source\PSoC4/PRS_PM.c **** * Return:
  37:Generated_Source\PSoC4/PRS_PM.c **** *  void
  38:Generated_Source\PSoC4/PRS_PM.c **** *
  39:Generated_Source\PSoC4/PRS_PM.c **** * Global Variables:
  40:Generated_Source\PSoC4/PRS_PM.c **** *  PRS_backup - modified when non-retention registers are saved.
  41:Generated_Source\PSoC4/PRS_PM.c **** *
  42:Generated_Source\PSoC4/PRS_PM.c **** *******************************************************************************/
  43:Generated_Source\PSoC4/PRS_PM.c **** void PRS_SaveConfig(void) 
  44:Generated_Source\PSoC4/PRS_PM.c **** {    
  28              		.loc 1 44 0
  29              		.cfi_startproc
  30              		@ args = 0, pretend = 0, frame = 0
  31              		@ frame_needed = 0, uses_anonymous_args = 0
  32 0000 10B5     		push	{r4, lr}
  33              		.cfi_def_cfa_offset 8
  34              		.cfi_offset 4, -8
  35              		.cfi_offset 14, -4
  45:Generated_Source\PSoC4/PRS_PM.c ****     #if (PRS_WAKEUP_BEHAVIOUR == PRS__RESUMEWORK)
  46:Generated_Source\PSoC4/PRS_PM.c ****         /* Save dff register for time mult */
  47:Generated_Source\PSoC4/PRS_PM.c ****         #if (PRS_TIME_MULTIPLEXING_ENABLE)
  48:Generated_Source\PSoC4/PRS_PM.c ****             PRS_backup.dffStatus = PRS_STATUS;
  49:Generated_Source\PSoC4/PRS_PM.c ****             /* Clear normal dff sequence set */
  50:Generated_Source\PSoC4/PRS_PM.c ****             PRS_sleepState &= ((uint8)~PRS_NORMAL_SEQUENCE);
  51:Generated_Source\PSoC4/PRS_PM.c ****         #endif  /* End PRS_TIME_MULTIPLEXING_ENABLE */
  52:Generated_Source\PSoC4/PRS_PM.c ****         
  53:Generated_Source\PSoC4/PRS_PM.c ****         /* Save A0 and A1 registers */
  54:Generated_Source\PSoC4/PRS_PM.c ****         #if (PRS_PRS_SIZE <= 32u)
  55:Generated_Source\PSoC4/PRS_PM.c ****             PRS_backup.seed = PRS_Read();
  36              		.loc 1 55 0
  37 0002 FFF7FEFF 		bl	PRS_Read
  38              	.LVL0:
  39 0006 014B     		ldr	r3, .L2
  40 0008 5880     		strh	r0, [r3, #2]
  56:Generated_Source\PSoC4/PRS_PM.c ****             
  57:Generated_Source\PSoC4/PRS_PM.c ****         #else
  58:Generated_Source\PSoC4/PRS_PM.c ****             PRS_backup.seedUpper = PRS_ReadUpper();
  59:Generated_Source\PSoC4/PRS_PM.c ****             PRS_backup.seedLower = PRS_ReadLower();
  60:Generated_Source\PSoC4/PRS_PM.c ****             
  61:Generated_Source\PSoC4/PRS_PM.c ****         #endif     /* End (PRS_PRS_SIZE <= 32u) */
  62:Generated_Source\PSoC4/PRS_PM.c ****         
  63:Generated_Source\PSoC4/PRS_PM.c ****     #endif  /* End (PRS_WAKEUP_BEHAVIOUR == PRS__RESUMEWORK) */
  64:Generated_Source\PSoC4/PRS_PM.c **** }
  41              		.loc 1 64 0
  42              		@ sp needed
  43 000a 10BD     		pop	{r4, pc}
  44              	.L3:
  45              		.align	2
  46              	.L2:
  47 000c 00000000 		.word	PRS_backup
  48              		.cfi_endproc
  49              	.LFE1:
  50              		.size	PRS_SaveConfig, .-PRS_SaveConfig
ARM GAS  C:\Users\corne\AppData\Local\Temp\ccJ701tr.s 			page 3


  51              		.section	.text.PRS_Sleep,"ax",%progbits
  52              		.align	2
  53              		.global	PRS_Sleep
  54              		.code	16
  55              		.thumb_func
  56              		.type	PRS_Sleep, %function
  57              	PRS_Sleep:
  58              	.LFB2:
  65:Generated_Source\PSoC4/PRS_PM.c **** 
  66:Generated_Source\PSoC4/PRS_PM.c **** 
  67:Generated_Source\PSoC4/PRS_PM.c **** /*******************************************************************************
  68:Generated_Source\PSoC4/PRS_PM.c **** * Function Name: PRS_Sleep
  69:Generated_Source\PSoC4/PRS_PM.c **** ********************************************************************************
  70:Generated_Source\PSoC4/PRS_PM.c **** *
  71:Generated_Source\PSoC4/PRS_PM.c **** * Summary:
  72:Generated_Source\PSoC4/PRS_PM.c **** *  Stops PRS computation and saves PRS configuration.
  73:Generated_Source\PSoC4/PRS_PM.c **** *
  74:Generated_Source\PSoC4/PRS_PM.c **** * Parameters:
  75:Generated_Source\PSoC4/PRS_PM.c **** *  void
  76:Generated_Source\PSoC4/PRS_PM.c **** *
  77:Generated_Source\PSoC4/PRS_PM.c **** * Return:
  78:Generated_Source\PSoC4/PRS_PM.c **** *  void
  79:Generated_Source\PSoC4/PRS_PM.c **** *
  80:Generated_Source\PSoC4/PRS_PM.c **** * Global Variables:
  81:Generated_Source\PSoC4/PRS_PM.c **** *  PRS_backup - modified when non-retention registers are saved.
  82:Generated_Source\PSoC4/PRS_PM.c **** *
  83:Generated_Source\PSoC4/PRS_PM.c **** *******************************************************************************/
  84:Generated_Source\PSoC4/PRS_PM.c **** void PRS_Sleep(void) 
  85:Generated_Source\PSoC4/PRS_PM.c **** {
  59              		.loc 1 85 0
  60              		.cfi_startproc
  61              		@ args = 0, pretend = 0, frame = 0
  62              		@ frame_needed = 0, uses_anonymous_args = 0
  63 0000 10B5     		push	{r4, lr}
  64              		.cfi_def_cfa_offset 8
  65              		.cfi_offset 4, -8
  66              		.cfi_offset 14, -4
  86:Generated_Source\PSoC4/PRS_PM.c ****     /* Store PRS enable state */
  87:Generated_Source\PSoC4/PRS_PM.c ****     if(PRS_IS_PRS_ENABLE(PRS_CONTROL_REG))
  67              		.loc 1 87 0
  68 0002 084B     		ldr	r3, .L7
  69 0004 1B78     		ldrb	r3, [r3]
  70 0006 DB07     		lsls	r3, r3, #31
  71 0008 05D5     		bpl	.L5
  88:Generated_Source\PSoC4/PRS_PM.c ****     {
  89:Generated_Source\PSoC4/PRS_PM.c ****         PRS_backup.enableState = 1u;
  72              		.loc 1 89 0
  73 000a 0122     		movs	r2, #1
  74 000c 064B     		ldr	r3, .L7+4
  75 000e 1A70     		strb	r2, [r3]
  90:Generated_Source\PSoC4/PRS_PM.c ****         PRS_Stop();
  76              		.loc 1 90 0
  77 0010 FFF7FEFF 		bl	PRS_Stop
  78              	.LVL1:
  79 0014 02E0     		b	.L6
  80              	.L5:
  91:Generated_Source\PSoC4/PRS_PM.c ****     }
ARM GAS  C:\Users\corne\AppData\Local\Temp\ccJ701tr.s 			page 4


  92:Generated_Source\PSoC4/PRS_PM.c ****     else
  93:Generated_Source\PSoC4/PRS_PM.c ****     {
  94:Generated_Source\PSoC4/PRS_PM.c ****         PRS_backup.enableState = 0u;
  81              		.loc 1 94 0
  82 0016 0022     		movs	r2, #0
  83 0018 034B     		ldr	r3, .L7+4
  84 001a 1A70     		strb	r2, [r3]
  85              	.L6:
  95:Generated_Source\PSoC4/PRS_PM.c ****     }
  96:Generated_Source\PSoC4/PRS_PM.c ****     
  97:Generated_Source\PSoC4/PRS_PM.c ****     PRS_SaveConfig();
  86              		.loc 1 97 0
  87 001c FFF7FEFF 		bl	PRS_SaveConfig
  88              	.LVL2:
  98:Generated_Source\PSoC4/PRS_PM.c **** }
  89              		.loc 1 98 0
  90              		@ sp needed
  91 0020 10BD     		pop	{r4, pc}
  92              	.L8:
  93 0022 C046     		.align	2
  94              	.L7:
  95 0024 75000F40 		.word	1074724981
  96 0028 00000000 		.word	PRS_backup
  97              		.cfi_endproc
  98              	.LFE2:
  99              		.size	PRS_Sleep, .-PRS_Sleep
 100              		.section	.text.PRS_RestoreConfig,"ax",%progbits
 101              		.align	2
 102              		.global	PRS_RestoreConfig
 103              		.code	16
 104              		.thumb_func
 105              		.type	PRS_RestoreConfig, %function
 106              	PRS_RestoreConfig:
 107              	.LFB3:
  99:Generated_Source\PSoC4/PRS_PM.c **** 
 100:Generated_Source\PSoC4/PRS_PM.c **** 
 101:Generated_Source\PSoC4/PRS_PM.c **** /*******************************************************************************
 102:Generated_Source\PSoC4/PRS_PM.c **** * Function Name: PRS_RestoreConfig
 103:Generated_Source\PSoC4/PRS_PM.c **** ********************************************************************************
 104:Generated_Source\PSoC4/PRS_PM.c **** *
 105:Generated_Source\PSoC4/PRS_PM.c **** * Summary:
 106:Generated_Source\PSoC4/PRS_PM.c **** *  Restores seed and polynomial registers.
 107:Generated_Source\PSoC4/PRS_PM.c **** *
 108:Generated_Source\PSoC4/PRS_PM.c **** * Parameters:
 109:Generated_Source\PSoC4/PRS_PM.c **** *  void
 110:Generated_Source\PSoC4/PRS_PM.c **** *
 111:Generated_Source\PSoC4/PRS_PM.c **** * Return:
 112:Generated_Source\PSoC4/PRS_PM.c **** *  void
 113:Generated_Source\PSoC4/PRS_PM.c **** *
 114:Generated_Source\PSoC4/PRS_PM.c **** *******************************************************************************/
 115:Generated_Source\PSoC4/PRS_PM.c **** #if (PRS_WAKEUP_BEHAVIOUR == PRS__RESUMEWORK)
 116:Generated_Source\PSoC4/PRS_PM.c ****     #if (PRS_TIME_MULTIPLEXING_ENABLE)
 117:Generated_Source\PSoC4/PRS_PM.c ****         void PRS_RestoreConfig(void) 
 118:Generated_Source\PSoC4/PRS_PM.c ****         {   
 119:Generated_Source\PSoC4/PRS_PM.c ****             /* Restore A0 and A1 registers */
 120:Generated_Source\PSoC4/PRS_PM.c ****             #if (PRS_PRS_SIZE <= 32u)
 121:Generated_Source\PSoC4/PRS_PM.c ****                 PRS_WriteSeed(PRS_backup.seed);
ARM GAS  C:\Users\corne\AppData\Local\Temp\ccJ701tr.s 			page 5


 122:Generated_Source\PSoC4/PRS_PM.c ****             #else
 123:Generated_Source\PSoC4/PRS_PM.c ****                 PRS_WriteSeedUpper(PRS_backup.seedUpper);
 124:Generated_Source\PSoC4/PRS_PM.c ****                 PRS_WriteSeedLower(PRS_backup.seedLower);
 125:Generated_Source\PSoC4/PRS_PM.c ****             #endif  /* End (PRS_PRS_SIZE <= 32u) */
 126:Generated_Source\PSoC4/PRS_PM.c ****             
 127:Generated_Source\PSoC4/PRS_PM.c ****             #if (PRS_RUN_MODE == PRS__CLOCKED)
 128:Generated_Source\PSoC4/PRS_PM.c ****                 #if (PRS_PRS_SIZE <= 32u)
 129:Generated_Source\PSoC4/PRS_PM.c ****                     PRS_ResetSeedInit(PRS_DEFAULT_SEED);                        
 130:Generated_Source\PSoC4/PRS_PM.c ****                 #else
 131:Generated_Source\PSoC4/PRS_PM.c ****                     PRS_ResetSeedInitUpper(PRS_DEFAULT_SEED_UPPER);
 132:Generated_Source\PSoC4/PRS_PM.c ****                     PRS_ResetSeedInitLower(PRS_DEFAULT_SEED_LOWER); 
 133:Generated_Source\PSoC4/PRS_PM.c ****                 #endif  /* End (PRS_PRS_SIZE <= 32u) */ 
 134:Generated_Source\PSoC4/PRS_PM.c ****             #endif  /* End (PRS_RUN_MODE == PRS__CLOCKED) */
 135:Generated_Source\PSoC4/PRS_PM.c ****             
 136:Generated_Source\PSoC4/PRS_PM.c ****             /* Restore dff state for time mult: use async set/reest */
 137:Generated_Source\PSoC4/PRS_PM.c ****             /* Set CI, SI, SO, STATE0, STATE1 */
 138:Generated_Source\PSoC4/PRS_PM.c ****             PRS_CONTROL_REG = PRS_backup.dffStatus;
 139:Generated_Source\PSoC4/PRS_PM.c ****             
 140:Generated_Source\PSoC4/PRS_PM.c ****             /* Make pulse, to set trigger to defined state */
 141:Generated_Source\PSoC4/PRS_PM.c ****             PRS_EXECUTE_DFF_SET;
 142:Generated_Source\PSoC4/PRS_PM.c ****             
 143:Generated_Source\PSoC4/PRS_PM.c ****             /* Set normal dff sequence set */
 144:Generated_Source\PSoC4/PRS_PM.c ****             PRS_sleepState |= PRS_NORMAL_SEQUENCE;
 145:Generated_Source\PSoC4/PRS_PM.c ****         }
 146:Generated_Source\PSoC4/PRS_PM.c ****         
 147:Generated_Source\PSoC4/PRS_PM.c ****     #else
 148:Generated_Source\PSoC4/PRS_PM.c ****         void PRS_RestoreConfig(void) 
 149:Generated_Source\PSoC4/PRS_PM.c ****         {   
 108              		.loc 1 149 0
 109              		.cfi_startproc
 110              		@ args = 0, pretend = 0, frame = 0
 111              		@ frame_needed = 0, uses_anonymous_args = 0
 112 0000 10B5     		push	{r4, lr}
 113              		.cfi_def_cfa_offset 8
 114              		.cfi_offset 4, -8
 115              		.cfi_offset 14, -4
 150:Generated_Source\PSoC4/PRS_PM.c ****             /* Restore A0 and A1 registers */
 151:Generated_Source\PSoC4/PRS_PM.c ****             #if (PRS_PRS_SIZE <= 32u)
 152:Generated_Source\PSoC4/PRS_PM.c ****                 PRS_WriteSeed(PRS_backup.seed);
 116              		.loc 1 152 0
 117 0002 024B     		ldr	r3, .L10
 118 0004 5888     		ldrh	r0, [r3, #2]
 119 0006 FFF7FEFF 		bl	PRS_WriteSeed
 120              	.LVL3:
 153:Generated_Source\PSoC4/PRS_PM.c ****             #else
 154:Generated_Source\PSoC4/PRS_PM.c ****                 PRS_WriteSeedUpper(PRS_backup.seedUpper);
 155:Generated_Source\PSoC4/PRS_PM.c ****                 PRS_WriteSeedLower(PRS_backup.seedLower);
 156:Generated_Source\PSoC4/PRS_PM.c ****             #endif  /* End (PRS_PRS_SIZE <= 32u) */
 157:Generated_Source\PSoC4/PRS_PM.c ****             
 158:Generated_Source\PSoC4/PRS_PM.c ****             #if (PRS_RUN_MODE == PRS__CLOCKED)
 159:Generated_Source\PSoC4/PRS_PM.c ****                 #if (PRS_PRS_SIZE <= 32u)
 160:Generated_Source\PSoC4/PRS_PM.c ****                     PRS_ResetSeedInit(PRS_DEFAULT_SEED);                        
 161:Generated_Source\PSoC4/PRS_PM.c ****                 #else
 162:Generated_Source\PSoC4/PRS_PM.c ****                     PRS_ResetSeedInitUpper(PRS_DEFAULT_SEED_UPPER);
 163:Generated_Source\PSoC4/PRS_PM.c ****                     PRS_ResetSeedInitLower(PRS_DEFAULT_SEED_LOWER); 
 164:Generated_Source\PSoC4/PRS_PM.c ****                 #endif  /* End (PRS_PRS_SIZE <= 32u) */ 
 165:Generated_Source\PSoC4/PRS_PM.c ****             #endif  /* End (PRS_RUN_MODE == PRS__CLOCKED) */
ARM GAS  C:\Users\corne\AppData\Local\Temp\ccJ701tr.s 			page 6


 166:Generated_Source\PSoC4/PRS_PM.c ****         }
 121              		.loc 1 166 0
 122              		@ sp needed
 123 000a 10BD     		pop	{r4, pc}
 124              	.L11:
 125              		.align	2
 126              	.L10:
 127 000c 00000000 		.word	PRS_backup
 128              		.cfi_endproc
 129              	.LFE3:
 130              		.size	PRS_RestoreConfig, .-PRS_RestoreConfig
 131              		.section	.text.PRS_Wakeup,"ax",%progbits
 132              		.align	2
 133              		.global	PRS_Wakeup
 134              		.code	16
 135              		.thumb_func
 136              		.type	PRS_Wakeup, %function
 137              	PRS_Wakeup:
 138              	.LFB4:
 167:Generated_Source\PSoC4/PRS_PM.c ****         
 168:Generated_Source\PSoC4/PRS_PM.c ****     #endif  /* End (PRS_TIME_MULTIPLEXING_ENABLE) */
 169:Generated_Source\PSoC4/PRS_PM.c ****     
 170:Generated_Source\PSoC4/PRS_PM.c **** #else
 171:Generated_Source\PSoC4/PRS_PM.c ****     void PRS_RestoreConfig(void) 
 172:Generated_Source\PSoC4/PRS_PM.c ****     {
 173:Generated_Source\PSoC4/PRS_PM.c ****         PRS_Init();
 174:Generated_Source\PSoC4/PRS_PM.c ****     }
 175:Generated_Source\PSoC4/PRS_PM.c ****     
 176:Generated_Source\PSoC4/PRS_PM.c **** #endif  /* End (PRS_WAKEUP_BEHAVIOUR == PRS__RESUMEWORK) */
 177:Generated_Source\PSoC4/PRS_PM.c **** 
 178:Generated_Source\PSoC4/PRS_PM.c **** 
 179:Generated_Source\PSoC4/PRS_PM.c **** /*******************************************************************************
 180:Generated_Source\PSoC4/PRS_PM.c **** * Function Name: PRS_Wakeup
 181:Generated_Source\PSoC4/PRS_PM.c **** ********************************************************************************
 182:Generated_Source\PSoC4/PRS_PM.c **** *
 183:Generated_Source\PSoC4/PRS_PM.c **** * Summary:
 184:Generated_Source\PSoC4/PRS_PM.c **** *  Restores PRS configuration and starts PRS computation. 
 185:Generated_Source\PSoC4/PRS_PM.c **** *
 186:Generated_Source\PSoC4/PRS_PM.c **** * Parameters:
 187:Generated_Source\PSoC4/PRS_PM.c **** *  void
 188:Generated_Source\PSoC4/PRS_PM.c **** *
 189:Generated_Source\PSoC4/PRS_PM.c **** * Return:
 190:Generated_Source\PSoC4/PRS_PM.c **** *  void
 191:Generated_Source\PSoC4/PRS_PM.c **** *
 192:Generated_Source\PSoC4/PRS_PM.c **** *******************************************************************************/
 193:Generated_Source\PSoC4/PRS_PM.c **** #if ((PRS_WAKEUP_BEHAVIOUR == PRS__RESUMEWORK) && (PRS_TIME_MULTIPLEXING_ENABLE))
 194:Generated_Source\PSoC4/PRS_PM.c ****     void PRS_Wakeup(void) 
 195:Generated_Source\PSoC4/PRS_PM.c **** #else
 196:Generated_Source\PSoC4/PRS_PM.c ****     void PRS_Wakeup(void) 
 197:Generated_Source\PSoC4/PRS_PM.c **** #endif  /* End ((PRS_WAKEUP_BEHAVIOUR == PRS__RESUMEWORK) && 
 198:Generated_Source\PSoC4/PRS_PM.c ****                 (PRS_TIME_MULTIPLEXING_ENABLE)) */
 199:Generated_Source\PSoC4/PRS_PM.c **** {
 139              		.loc 1 199 0
 140              		.cfi_startproc
 141              		@ args = 0, pretend = 0, frame = 0
 142              		@ frame_needed = 0, uses_anonymous_args = 0
 143 0000 10B5     		push	{r4, lr}
ARM GAS  C:\Users\corne\AppData\Local\Temp\ccJ701tr.s 			page 7


 144              		.cfi_def_cfa_offset 8
 145              		.cfi_offset 4, -8
 146              		.cfi_offset 14, -4
 200:Generated_Source\PSoC4/PRS_PM.c ****     PRS_RestoreConfig();
 147              		.loc 1 200 0
 148 0002 FFF7FEFF 		bl	PRS_RestoreConfig
 149              	.LVL4:
 201:Generated_Source\PSoC4/PRS_PM.c ****     
 202:Generated_Source\PSoC4/PRS_PM.c ****     /* Restore PRS enable state */
 203:Generated_Source\PSoC4/PRS_PM.c ****     if (PRS_backup.enableState != 0u)
 150              		.loc 1 203 0
 151 0006 034B     		ldr	r3, .L14
 152 0008 1B78     		ldrb	r3, [r3]
 153 000a 002B     		cmp	r3, #0
 154 000c 01D0     		beq	.L12
 204:Generated_Source\PSoC4/PRS_PM.c ****     {
 205:Generated_Source\PSoC4/PRS_PM.c ****         PRS_Enable();
 155              		.loc 1 205 0
 156 000e FFF7FEFF 		bl	PRS_Enable
 157              	.LVL5:
 158              	.L12:
 206:Generated_Source\PSoC4/PRS_PM.c ****     }
 207:Generated_Source\PSoC4/PRS_PM.c **** }
 159              		.loc 1 207 0
 160              		@ sp needed
 161 0012 10BD     		pop	{r4, pc}
 162              	.L15:
 163              		.align	2
 164              	.L14:
 165 0014 00000000 		.word	PRS_backup
 166              		.cfi_endproc
 167              	.LFE4:
 168              		.size	PRS_Wakeup, .-PRS_Wakeup
 169              		.text
 170              	.Letext0:
 171              		.file 2 "Generated_Source\\PSoC4\\cytypes.h"
 172              		.file 3 "Generated_Source\\PSoC4\\PRS.h"