ARM GAS  C:\Users\corne\AppData\Local\Temp\ccR3s0rF.s 			page 1


   1              		.syntax unified
   2              		.cpu cortex-m0
   3              		.fpu softvfp
   4              		.eabi_attribute 20, 1
   5              		.eabi_attribute 21, 1
   6              		.eabi_attribute 23, 3
   7              		.eabi_attribute 24, 1
   8              		.eabi_attribute 25, 1
   9              		.eabi_attribute 26, 1
  10              		.eabi_attribute 30, 1
  11              		.eabi_attribute 34, 0
  12              		.eabi_attribute 18, 4
  13              		.thumb
  14              		.syntax unified
  15              		.file	"RTC_1.c"
  16              		.text
  17              	.Ltext0:
  18              		.cfi_sections	.debug_frame
  19              		.section	.text.RTC_1_Stop,"ax",%progbits
  20              		.align	2
  21              		.global	RTC_1_Stop
  22              		.code	16
  23              		.thumb_func
  24              		.type	RTC_1_Stop, %function
  25              	RTC_1_Stop:
  26              	.LFB28:
  27              		.file 1 "Generated_Source\\PSoC4\\RTC_1.c"
   1:Generated_Source\PSoC4/RTC_1.c **** /***************************************************************************//**
   2:Generated_Source\PSoC4/RTC_1.c **** * \file Name: RTC_1.c
   3:Generated_Source\PSoC4/RTC_1.c **** * \version 1.10
   4:Generated_Source\PSoC4/RTC_1.c **** *
   5:Generated_Source\PSoC4/RTC_1.c **** * \brief
   6:Generated_Source\PSoC4/RTC_1.c **** *  This file provides the source code to the API for the RTC_P4 Component.
   7:Generated_Source\PSoC4/RTC_1.c **** *
   8:Generated_Source\PSoC4/RTC_1.c **** ********************************************************************************
   9:Generated_Source\PSoC4/RTC_1.c **** * \copyright
  10:Generated_Source\PSoC4/RTC_1.c **** * Copyright 2015-2016, Cypress Semiconductor Corporation. All rights reserved.
  11:Generated_Source\PSoC4/RTC_1.c **** * You may use this file only in accordance with the license, terms, conditions,
  12:Generated_Source\PSoC4/RTC_1.c **** * disclaimers, and limitations in the end user license agreement accompanying
  13:Generated_Source\PSoC4/RTC_1.c **** * the software package with which this file was provided.
  14:Generated_Source\PSoC4/RTC_1.c **** *******************************************************************************/
  15:Generated_Source\PSoC4/RTC_1.c **** 
  16:Generated_Source\PSoC4/RTC_1.c **** #include "RTC_1.h"
  17:Generated_Source\PSoC4/RTC_1.c **** 
  18:Generated_Source\PSoC4/RTC_1.c **** uint8  RTC_1_initVar;
  19:Generated_Source\PSoC4/RTC_1.c **** 
  20:Generated_Source\PSoC4/RTC_1.c **** volatile uint64 RTC_1_unixTime;
  21:Generated_Source\PSoC4/RTC_1.c **** RTC_1_DATE_TIME RTC_1_currentTimeDate;
  22:Generated_Source\PSoC4/RTC_1.c **** 
  23:Generated_Source\PSoC4/RTC_1.c **** static uint32 RTC_1_updateTimePeriod;
  24:Generated_Source\PSoC4/RTC_1.c **** static uint32 RTC_1_tickRefOneSec;
  25:Generated_Source\PSoC4/RTC_1.c **** 
  26:Generated_Source\PSoC4/RTC_1.c **** uint8  RTC_1_dstStatus;
  27:Generated_Source\PSoC4/RTC_1.c **** static uint32 RTC_1_dstTimeOffset;
  28:Generated_Source\PSoC4/RTC_1.c **** #if(0u != RTC_1_INITIAL_DST_STATUS)
  29:Generated_Source\PSoC4/RTC_1.c ****     static volatile uint64 RTC_1_unixTimeDstStart;
  30:Generated_Source\PSoC4/RTC_1.c ****     static volatile uint64 RTC_1_unixTimeDstStop;
ARM GAS  C:\Users\corne\AppData\Local\Temp\ccR3s0rF.s 			page 2


  31:Generated_Source\PSoC4/RTC_1.c ****     RTC_1_DST_TIME RTC_1_dstStartTime;
  32:Generated_Source\PSoC4/RTC_1.c ****     RTC_1_DST_TIME RTC_1_dstStopTime;
  33:Generated_Source\PSoC4/RTC_1.c **** #endif /* (0u != RTC_1_INITIAL_DST_STATUS) */
  34:Generated_Source\PSoC4/RTC_1.c **** 
  35:Generated_Source\PSoC4/RTC_1.c **** uint32 RTC_1_alarmCurStatus;
  36:Generated_Source\PSoC4/RTC_1.c **** #if(0u != RTC_1_INITIAL_ALARM_STATUS)
  37:Generated_Source\PSoC4/RTC_1.c ****     uint32  RTC_1_alarmCfgMask = 0xFFu;
  38:Generated_Source\PSoC4/RTC_1.c ****     static volatile uint64 RTC_1_unixTimeAlarm;
  39:Generated_Source\PSoC4/RTC_1.c ****     RTC_1_DATE_TIME RTC_1_alarmCfgTimeDate;
  40:Generated_Source\PSoC4/RTC_1.c ****     void (*RTC_1_alarmCallbackPtr)(void) = (void *)0;
  41:Generated_Source\PSoC4/RTC_1.c **** #endif /* (0u != RTC_1_INITIAL_ALARM_STATUS) */
  42:Generated_Source\PSoC4/RTC_1.c **** 
  43:Generated_Source\PSoC4/RTC_1.c **** const uint16 RTC_1_daysBeforeMonthTbl[RTC_1_MONTHS_PER_YEAR] = {
  44:Generated_Source\PSoC4/RTC_1.c ****                                                  (0u), /* JANUARY */
  45:Generated_Source\PSoC4/RTC_1.c ****                                                  (0u + 31u), /* FEBRUARY */
  46:Generated_Source\PSoC4/RTC_1.c ****                                                  (0u + 31u + 28u), /* MARCH */
  47:Generated_Source\PSoC4/RTC_1.c ****                                                  (0u + 31u + 28u + 31u), /* APRIL */
  48:Generated_Source\PSoC4/RTC_1.c ****                                                  (0u + 31u + 28u + 31u + 30u), /* MAY */
  49:Generated_Source\PSoC4/RTC_1.c ****                                                  (0u + 31u + 28u + 31u + 30u + 31u), /* JUNE */
  50:Generated_Source\PSoC4/RTC_1.c ****                                                  (0u + 31u + 28u + 31u + 30u + 31u + 30u), /* JULY 
  51:Generated_Source\PSoC4/RTC_1.c ****                                                  (0u + 31u + 28u + 31u + 30u + 31u + 30u + 31u), /*
  52:Generated_Source\PSoC4/RTC_1.c ****                                                  (0u + 31u + 28u + 31u + 30u + 31u + 30u + 31u + 31
  53:Generated_Source\PSoC4/RTC_1.c ****                                                  (0u + 31u + 28u + 31u + 30u + 31u + 30u + 31u + 31
  54:Generated_Source\PSoC4/RTC_1.c ****                                                  (0u + 31u + 28u + 31u + 30u + 31u + 30u + 31u + 31
  55:Generated_Source\PSoC4/RTC_1.c ****                                                  (0u + 31u + 28u + 31u + 30u + 31u + 30u + 31u + 31
  56:Generated_Source\PSoC4/RTC_1.c **** 
  57:Generated_Source\PSoC4/RTC_1.c **** const uint8 RTC_1_daysInMonthTbl[RTC_1_MONTHS_PER_YEAR] = {RTC_1_DAYS_IN_JANUARY,
  58:Generated_Source\PSoC4/RTC_1.c ****                                                                                  RTC_1_DAYS_IN_FEBR
  59:Generated_Source\PSoC4/RTC_1.c ****                                                                                  RTC_1_DAYS_IN_MARC
  60:Generated_Source\PSoC4/RTC_1.c ****                                                                                  RTC_1_DAYS_IN_APRI
  61:Generated_Source\PSoC4/RTC_1.c ****                                                                                  RTC_1_DAYS_IN_MAY,
  62:Generated_Source\PSoC4/RTC_1.c ****                                                                                  RTC_1_DAYS_IN_JUNE
  63:Generated_Source\PSoC4/RTC_1.c ****                                                                                  RTC_1_DAYS_IN_JULY
  64:Generated_Source\PSoC4/RTC_1.c ****                                                                                  RTC_1_DAYS_IN_AUGU
  65:Generated_Source\PSoC4/RTC_1.c ****                                                                                  RTC_1_DAYS_IN_SEPT
  66:Generated_Source\PSoC4/RTC_1.c ****                                                                                  RTC_1_DAYS_IN_OCTO
  67:Generated_Source\PSoC4/RTC_1.c ****                                                                                  RTC_1_DAYS_IN_NOVE
  68:Generated_Source\PSoC4/RTC_1.c ****                                                                                  RTC_1_DAYS_IN_DECE
  69:Generated_Source\PSoC4/RTC_1.c **** 
  70:Generated_Source\PSoC4/RTC_1.c **** 
  71:Generated_Source\PSoC4/RTC_1.c **** /*******************************************************************************
  72:Generated_Source\PSoC4/RTC_1.c **** * Function Name: RTC_1_Start
  73:Generated_Source\PSoC4/RTC_1.c **** ****************************************************************************//**
  74:Generated_Source\PSoC4/RTC_1.c **** *
  75:Generated_Source\PSoC4/RTC_1.c **** * \brief
  76:Generated_Source\PSoC4/RTC_1.c **** *  Performs all the required calculations for the time and date registers and
  77:Generated_Source\PSoC4/RTC_1.c **** *  initializes the component along with the date and time selected in the
  78:Generated_Source\PSoC4/RTC_1.c **** *  customizer. 
  79:Generated_Source\PSoC4/RTC_1.c **** *
  80:Generated_Source\PSoC4/RTC_1.c **** *  If "Implement RTC update manually" is disabled in the customizer
  81:Generated_Source\PSoC4/RTC_1.c **** *  and if WDT or WCO timer is selected as a source in the clocks configuration 
  82:Generated_Source\PSoC4/RTC_1.c **** *  window (low frequency clocks tab), attaches RTC_Update API to a corresponding
  83:Generated_Source\PSoC4/RTC_1.c **** *  WDT's or WCO's ISR callback.
  84:Generated_Source\PSoC4/RTC_1.c **** *
  85:Generated_Source\PSoC4/RTC_1.c **** * \note "Implement RTC update manually" checkbox is available for PSoC 4200L / 
  86:Generated_Source\PSoC4/RTC_1.c **** * PSoC 4100M / PSoC 4200M / PSoC 4100 BLE / PSoC 4200 BLE / PSoC 4000S / PSoC 
  87:Generated_Source\PSoC4/RTC_1.c **** * 4100S and Analog Coprocessor.
ARM GAS  C:\Users\corne\AppData\Local\Temp\ccR3s0rF.s 			page 3


  88:Generated_Source\PSoC4/RTC_1.c **** *
  89:Generated_Source\PSoC4/RTC_1.c **** *******************************************************************************/
  90:Generated_Source\PSoC4/RTC_1.c **** void RTC_1_Start(void)
  91:Generated_Source\PSoC4/RTC_1.c **** {
  92:Generated_Source\PSoC4/RTC_1.c ****     if(0u == RTC_1_initVar)
  93:Generated_Source\PSoC4/RTC_1.c ****     {
  94:Generated_Source\PSoC4/RTC_1.c ****         RTC_1_Init();
  95:Generated_Source\PSoC4/RTC_1.c ****     }
  96:Generated_Source\PSoC4/RTC_1.c **** 
  97:Generated_Source\PSoC4/RTC_1.c ****     #if defined(CYDEV_RTC_SOURCE_WDT)
  98:Generated_Source\PSoC4/RTC_1.c ****         #if((0u != CYDEV_WDT_GENERATE_ISR) && (0u == RTC_1_INITIAL_UPDATE_MODE))
  99:Generated_Source\PSoC4/RTC_1.c ****             RTC_1_CySysRtcSetCallback(CYDEV_RTC_SOURCE_WDT);
 100:Generated_Source\PSoC4/RTC_1.c ****         #endif /* ((0u != CYDEV_WDT_GENERATE_ISR) && (0u == RTC_1_INITIAL_UPDATE_MODE)) */
 101:Generated_Source\PSoC4/RTC_1.c ****     #endif /* (CYDEV_RTC_SOURCE_WDT) */
 102:Generated_Source\PSoC4/RTC_1.c **** }
 103:Generated_Source\PSoC4/RTC_1.c **** 
 104:Generated_Source\PSoC4/RTC_1.c **** 
 105:Generated_Source\PSoC4/RTC_1.c **** /*******************************************************************************
 106:Generated_Source\PSoC4/RTC_1.c **** * Function Name: RTC_1_Stop
 107:Generated_Source\PSoC4/RTC_1.c **** ****************************************************************************//**
 108:Generated_Source\PSoC4/RTC_1.c **** *
 109:Generated_Source\PSoC4/RTC_1.c **** * \brief
 110:Generated_Source\PSoC4/RTC_1.c **** *  Stops the time and date updates.
 111:Generated_Source\PSoC4/RTC_1.c **** *
 112:Generated_Source\PSoC4/RTC_1.c **** *******************************************************************************/
 113:Generated_Source\PSoC4/RTC_1.c **** void RTC_1_Stop(void)
 114:Generated_Source\PSoC4/RTC_1.c **** {
  28              		.loc 1 114 0
  29              		.cfi_startproc
  30              		@ args = 0, pretend = 0, frame = 0
  31              		@ frame_needed = 0, uses_anonymous_args = 0
  32              		@ link register save eliminated.
 115:Generated_Source\PSoC4/RTC_1.c ****     #if defined(CYDEV_RTC_SOURCE_WDT)
 116:Generated_Source\PSoC4/RTC_1.c ****         #if((0u != CYDEV_WDT_GENERATE_ISR) && (0u == RTC_1_INITIAL_UPDATE_MODE))
 117:Generated_Source\PSoC4/RTC_1.c ****             RTC_1_CySysRtcResetCallback(CYDEV_RTC_SOURCE_WDT);
 118:Generated_Source\PSoC4/RTC_1.c ****         #endif /* ((0u != CYDEV_WDT_GENERATE_ISR) && (0u == RTC_1_INITIAL_UPDATE_MODE)) */
 119:Generated_Source\PSoC4/RTC_1.c ****     #endif /* (CYDEV_RTC_SOURCE_WDT) */
 120:Generated_Source\PSoC4/RTC_1.c **** }
  33              		.loc 1 120 0
  34              		@ sp needed
  35 0000 7047     		bx	lr
  36              		.cfi_endproc
  37              	.LFE28:
  38              		.size	RTC_1_Stop, .-RTC_1_Stop
  39 0002 C046     		.section	.text.RTC_1_GetUnixTime,"ax",%progbits
  40              		.align	2
  41              		.global	RTC_1_GetUnixTime
  42              		.code	16
  43              		.thumb_func
  44              		.type	RTC_1_GetUnixTime, %function
  45              	RTC_1_GetUnixTime:
  46              	.LFB32:
 121:Generated_Source\PSoC4/RTC_1.c **** 
 122:Generated_Source\PSoC4/RTC_1.c **** 
 123:Generated_Source\PSoC4/RTC_1.c **** /*******************************************************************************
 124:Generated_Source\PSoC4/RTC_1.c **** * Function Name: RTC_1_Init
 125:Generated_Source\PSoC4/RTC_1.c **** ****************************************************************************//**
ARM GAS  C:\Users\corne\AppData\Local\Temp\ccR3s0rF.s 			page 4


 126:Generated_Source\PSoC4/RTC_1.c **** *
 127:Generated_Source\PSoC4/RTC_1.c **** * \brief
 128:Generated_Source\PSoC4/RTC_1.c **** *  Initializes or restores the component according to the customizer Configure
 129:Generated_Source\PSoC4/RTC_1.c **** *  dialog settings. 
 130:Generated_Source\PSoC4/RTC_1.c **** *
 131:Generated_Source\PSoC4/RTC_1.c **** * It is not necessary to call RTC_Init() because
 132:Generated_Source\PSoC4/RTC_1.c **** *  RTC_Start() API calls this function and is the preferred method to begin
 133:Generated_Source\PSoC4/RTC_1.c **** *  component operation.
 134:Generated_Source\PSoC4/RTC_1.c **** *
 135:Generated_Source\PSoC4/RTC_1.c **** *  All registers are set to values according to the customizer Configure
 136:Generated_Source\PSoC4/RTC_1.c **** *  dialog. The default date value, if not set by the user before this function 
 137:Generated_Source\PSoC4/RTC_1.c **** *  call, is 12:00:00 AM January 1, 2000.
 138:Generated_Source\PSoC4/RTC_1.c **** *
 139:Generated_Source\PSoC4/RTC_1.c **** *******************************************************************************/
 140:Generated_Source\PSoC4/RTC_1.c **** void RTC_1_Init(void)
 141:Generated_Source\PSoC4/RTC_1.c **** {
 142:Generated_Source\PSoC4/RTC_1.c ****     uint32 tmpDate;
 143:Generated_Source\PSoC4/RTC_1.c ****     uint32 tmpTime;
 144:Generated_Source\PSoC4/RTC_1.c **** 
 145:Generated_Source\PSoC4/RTC_1.c ****     #if(0u != RTC_1_INITIAL_DST_STATUS)
 146:Generated_Source\PSoC4/RTC_1.c ****         RTC_1_DST_TIME dstTimeTmp;
 147:Generated_Source\PSoC4/RTC_1.c ****     #endif /* (0u != RTC_1_INITIAL_DST_STATUS) */
 148:Generated_Source\PSoC4/RTC_1.c **** 
 149:Generated_Source\PSoC4/RTC_1.c ****     RTC_1_initVar = 1u;
 150:Generated_Source\PSoC4/RTC_1.c ****     RTC_1_dstTimeOffset = 0uL;
 151:Generated_Source\PSoC4/RTC_1.c ****     RTC_1_currentTimeDate.status = 0uL;
 152:Generated_Source\PSoC4/RTC_1.c **** 
 153:Generated_Source\PSoC4/RTC_1.c ****     RTC_1_dstStatus      = RTC_1_INITIAL_DST_STATUS;
 154:Generated_Source\PSoC4/RTC_1.c ****     RTC_1_alarmCurStatus = RTC_1_INITIAL_ALARM_STATUS;
 155:Generated_Source\PSoC4/RTC_1.c **** 
 156:Generated_Source\PSoC4/RTC_1.c ****     tmpDate = RTC_1_ConstructDate(RTC_1_INITIAL_MONTH,
 157:Generated_Source\PSoC4/RTC_1.c ****                                           RTC_1_INITIAL_DAY,
 158:Generated_Source\PSoC4/RTC_1.c ****                                           RTC_1_INITIAL_YEAR);
 159:Generated_Source\PSoC4/RTC_1.c **** 
 160:Generated_Source\PSoC4/RTC_1.c ****     tmpTime = RTC_1_ConstructTime(RTC_1_INITIAL_TIME_FORMAT,
 161:Generated_Source\PSoC4/RTC_1.c ****                                           0u,
 162:Generated_Source\PSoC4/RTC_1.c ****                                           RTC_1_INITIAL_HOUR,
 163:Generated_Source\PSoC4/RTC_1.c ****                                           RTC_1_INITIAL_MINUTE,
 164:Generated_Source\PSoC4/RTC_1.c ****                                           RTC_1_INITIAL_SECOND);
 165:Generated_Source\PSoC4/RTC_1.c **** 
 166:Generated_Source\PSoC4/RTC_1.c ****     #if(0u != RTC_1_INITIAL_DST_STATUS)
 167:Generated_Source\PSoC4/RTC_1.c ****         RTC_1_dstStatus = 0u;
 168:Generated_Source\PSoC4/RTC_1.c ****         RTC_1_currentTimeDate.status = (1uL << RTC_1_STATUS_DST_OFFSET);
 169:Generated_Source\PSoC4/RTC_1.c **** 
 170:Generated_Source\PSoC4/RTC_1.c ****         dstTimeTmp.timeFormat    = RTC_1_INITIAL_DST_DATE_TYPE;
 171:Generated_Source\PSoC4/RTC_1.c ****         dstTimeTmp.hour          = RTC_1_INITIAL_DST_START_HRS;
 172:Generated_Source\PSoC4/RTC_1.c ****         dstTimeTmp.dayOfWeek     = RTC_1_INITIAL_DST_START_DOW;
 173:Generated_Source\PSoC4/RTC_1.c ****         dstTimeTmp.weekOfMonth   = RTC_1_INITIAL_DST_START_WOM;
 174:Generated_Source\PSoC4/RTC_1.c ****         dstTimeTmp.dayOfMonth    = RTC_1_INITIAL_DST_START_DOM;
 175:Generated_Source\PSoC4/RTC_1.c ****         dstTimeTmp.month         = RTC_1_INITIAL_DST_START_MONTH;
 176:Generated_Source\PSoC4/RTC_1.c ****         RTC_1_SetDSTStartTime(&dstTimeTmp, (RTC_1_DST_DATETYPE_ENUM)RTC_1_INITIAL_DST_DATE_TYPE);
 177:Generated_Source\PSoC4/RTC_1.c **** 
 178:Generated_Source\PSoC4/RTC_1.c ****         dstTimeTmp.timeFormat    = RTC_1_INITIAL_DST_DATE_TYPE;
 179:Generated_Source\PSoC4/RTC_1.c ****         dstTimeTmp.hour          = RTC_1_INITIAL_DST_STOP_HRS;
 180:Generated_Source\PSoC4/RTC_1.c ****         dstTimeTmp.dayOfWeek     = RTC_1_INITIAL_DST_STOP_DOW;
 181:Generated_Source\PSoC4/RTC_1.c ****         dstTimeTmp.weekOfMonth   = RTC_1_INITIAL_DST_STOP_WOM;
 182:Generated_Source\PSoC4/RTC_1.c ****         dstTimeTmp.dayOfMonth    = RTC_1_INITIAL_DST_STOP_DOM;
ARM GAS  C:\Users\corne\AppData\Local\Temp\ccR3s0rF.s 			page 5


 183:Generated_Source\PSoC4/RTC_1.c ****         dstTimeTmp.month         = RTC_1_INITIAL_DST_STOP_MONTH;
 184:Generated_Source\PSoC4/RTC_1.c ****         RTC_1_SetDSTStopTime(&dstTimeTmp, (RTC_1_DST_DATETYPE_ENUM)RTC_1_INITIAL_DST_DATE_TYPE);
 185:Generated_Source\PSoC4/RTC_1.c **** 
 186:Generated_Source\PSoC4/RTC_1.c ****         RTC_1_unixTimeDstStart = RTC_1_GetDstUnixTime(&RTC_1_dstStartTime);
 187:Generated_Source\PSoC4/RTC_1.c ****         RTC_1_unixTimeDstStop  = RTC_1_GetDstUnixTime(&RTC_1_dstStopTime);
 188:Generated_Source\PSoC4/RTC_1.c **** 
 189:Generated_Source\PSoC4/RTC_1.c ****         if((RTC_1_unixTime >= RTC_1_unixTimeDstStart) &&
 190:Generated_Source\PSoC4/RTC_1.c ****            (RTC_1_unixTime <= RTC_1_unixTimeDstStop))
 191:Generated_Source\PSoC4/RTC_1.c ****         {
 192:Generated_Source\PSoC4/RTC_1.c ****             RTC_1_dstStatus = 1u;
 193:Generated_Source\PSoC4/RTC_1.c ****             RTC_1_dstTimeOffset = RTC_1_SECONDS_PER_HOUR;
 194:Generated_Source\PSoC4/RTC_1.c ****         }
 195:Generated_Source\PSoC4/RTC_1.c ****     #endif /* (0u != RTC_1_INITIAL_DST_STATUS) */
 196:Generated_Source\PSoC4/RTC_1.c **** 
 197:Generated_Source\PSoC4/RTC_1.c ****     RTC_1_SetDateAndTime(tmpTime, tmpDate);
 198:Generated_Source\PSoC4/RTC_1.c **** }
 199:Generated_Source\PSoC4/RTC_1.c **** 
 200:Generated_Source\PSoC4/RTC_1.c **** 
 201:Generated_Source\PSoC4/RTC_1.c **** /*******************************************************************************
 202:Generated_Source\PSoC4/RTC_1.c **** * Function Name: RTC_1_SetDateAndTime
 203:Generated_Source\PSoC4/RTC_1.c **** ****************************************************************************//**
 204:Generated_Source\PSoC4/RTC_1.c **** *
 205:Generated_Source\PSoC4/RTC_1.c **** * \brief
 206:Generated_Source\PSoC4/RTC_1.c **** * Sets the time and date values as the current time and date.
 207:Generated_Source\PSoC4/RTC_1.c **** *
 208:Generated_Source\PSoC4/RTC_1.c **** * \param
 209:Generated_Source\PSoC4/RTC_1.c **** * inputTime The time value in the HH:MM:SS format. <br>
 210:Generated_Source\PSoC4/RTC_1.c **** * "HH"- The 2nd 8-bit MSB that denotes the hour value.
 211:Generated_Source\PSoC4/RTC_1.c **** * (0-23 for the 24-hour format and 1-12 for the 12-hour format. The MSB bit of the
 212:Generated_Source\PSoC4/RTC_1.c **** * value denotes AM/PM for the 12-hour format (0-AM and 1-PM). <br>
 213:Generated_Source\PSoC4/RTC_1.c **** * "MM" - The 3nd 8-bit MSB denotes the minutes value, the valid entries -> 0-59.<br>
 214:Generated_Source\PSoC4/RTC_1.c **** * "SS" - The 8-bit LSB denotes the seconds value, the valid entries -> 0-59.
 215:Generated_Source\PSoC4/RTC_1.c **** * Each byte is in the BCD format. Invalid time entries retain the
 216:Generated_Source\PSoC4/RTC_1.c **** * previously set values.
 217:Generated_Source\PSoC4/RTC_1.c **** *
 218:Generated_Source\PSoC4/RTC_1.c **** * \param
 219:Generated_Source\PSoC4/RTC_1.c **** *  inputDate The date value in the format selected in the customizer.
 220:Generated_Source\PSoC4/RTC_1.c **** * For the MM/DD/YYYY format: <br>
 221:Generated_Source\PSoC4/RTC_1.c **** * "MM" - The 8-bit MSB denotes the month value in BCD, the valid entries -> 1-12<br>
 222:Generated_Source\PSoC4/RTC_1.c **** * "DD" - The 2nd 8-bit MSB denotes a day of the month value in BCD, the valid
 223:Generated_Source\PSoC4/RTC_1.c **** * entries -> 1-31.<br>
 224:Generated_Source\PSoC4/RTC_1.c **** * "YYYY" - The 16-bit LSB denotes a year in BCD, the valid entries -> 1900-2200.
 225:Generated_Source\PSoC4/RTC_1.c **** * Each byte is in the BCD format. Invalid date entries retain the
 226:Generated_Source\PSoC4/RTC_1.c **** * previously set values.
 227:Generated_Source\PSoC4/RTC_1.c **** *
 228:Generated_Source\PSoC4/RTC_1.c **** *******************************************************************************/
 229:Generated_Source\PSoC4/RTC_1.c **** void RTC_1_SetDateAndTime(uint32 inputTime, uint32 inputDate)
 230:Generated_Source\PSoC4/RTC_1.c **** {
 231:Generated_Source\PSoC4/RTC_1.c ****     uint32 tmpDay;
 232:Generated_Source\PSoC4/RTC_1.c ****     uint32 tmpMonth;
 233:Generated_Source\PSoC4/RTC_1.c ****     uint32 tmpYear;
 234:Generated_Source\PSoC4/RTC_1.c **** 
 235:Generated_Source\PSoC4/RTC_1.c ****     tmpDay   = RTC_1_GetDay(inputDate);
 236:Generated_Source\PSoC4/RTC_1.c ****     tmpMonth = RTC_1_GetMonth(inputDate);
 237:Generated_Source\PSoC4/RTC_1.c ****     tmpYear  = RTC_1_GetYear(inputDate);
 238:Generated_Source\PSoC4/RTC_1.c **** 
 239:Generated_Source\PSoC4/RTC_1.c ****     RTC_1_unixTime = RTC_1_DateTimeToUnix(inputDate, inputTime);
ARM GAS  C:\Users\corne\AppData\Local\Temp\ccR3s0rF.s 			page 6


 240:Generated_Source\PSoC4/RTC_1.c ****     RTC_1_currentTimeDate.date = inputDate;
 241:Generated_Source\PSoC4/RTC_1.c ****     RTC_1_currentTimeDate.time = inputTime;
 242:Generated_Source\PSoC4/RTC_1.c ****     RTC_1_currentTimeDate.dayOfWeek = RTC_1_GetDayOfWeek(tmpDay, tmpMonth, tmpYear);
 243:Generated_Source\PSoC4/RTC_1.c **** 
 244:Generated_Source\PSoC4/RTC_1.c ****     #if(0u != RTC_1_INITIAL_DST_STATUS)
 245:Generated_Source\PSoC4/RTC_1.c ****         RTC_1_unixTimeDstStart = RTC_1_GetDstUnixTime(&RTC_1_dstStartTime);
 246:Generated_Source\PSoC4/RTC_1.c ****         RTC_1_unixTimeDstStop  = RTC_1_GetDstUnixTime(&RTC_1_dstStopTime);
 247:Generated_Source\PSoC4/RTC_1.c **** 
 248:Generated_Source\PSoC4/RTC_1.c ****         if((RTC_1_unixTime >= RTC_1_unixTimeDstStart) &&
 249:Generated_Source\PSoC4/RTC_1.c ****            (RTC_1_unixTime <= RTC_1_unixTimeDstStop))
 250:Generated_Source\PSoC4/RTC_1.c ****         {
 251:Generated_Source\PSoC4/RTC_1.c ****             RTC_1_dstStatus = 1u;
 252:Generated_Source\PSoC4/RTC_1.c ****             RTC_1_dstTimeOffset = RTC_1_SECONDS_PER_HOUR;
 253:Generated_Source\PSoC4/RTC_1.c ****             RTC_1_unixTime -= RTC_1_dstTimeOffset;
 254:Generated_Source\PSoC4/RTC_1.c ****         }
 255:Generated_Source\PSoC4/RTC_1.c ****         else
 256:Generated_Source\PSoC4/RTC_1.c ****         {
 257:Generated_Source\PSoC4/RTC_1.c ****             RTC_1_dstStatus = 0u;
 258:Generated_Source\PSoC4/RTC_1.c ****             RTC_1_dstTimeOffset = 0uL;
 259:Generated_Source\PSoC4/RTC_1.c ****         }
 260:Generated_Source\PSoC4/RTC_1.c ****     #endif /* (0u != RTC_1_INITIAL_DST_STATUS) */
 261:Generated_Source\PSoC4/RTC_1.c **** 
 262:Generated_Source\PSoC4/RTC_1.c ****     #if(0u != RTC_1_INITIAL_ALARM_STATUS)
 263:Generated_Source\PSoC4/RTC_1.c ****         RTC_1_unixTimeAlarm = RTC_1_ConstructUnixAlarmTime(&RTC_1_alarmCfgTimeDate,
 264:Generated_Source\PSoC4/RTC_1.c ****                                                                                  (uint8)RTC_1_alarm
 265:Generated_Source\PSoC4/RTC_1.c ****     #endif /* (0u != RTC_1_INITIAL_ALARM_STATUS) */
 266:Generated_Source\PSoC4/RTC_1.c **** }
 267:Generated_Source\PSoC4/RTC_1.c **** 
 268:Generated_Source\PSoC4/RTC_1.c **** 
 269:Generated_Source\PSoC4/RTC_1.c **** /*******************************************************************************
 270:Generated_Source\PSoC4/RTC_1.c **** * Function Name: RTC_1_SetUnixTime
 271:Generated_Source\PSoC4/RTC_1.c **** ****************************************************************************//**
 272:Generated_Source\PSoC4/RTC_1.c **** *
 273:Generated_Source\PSoC4/RTC_1.c **** * \brief
 274:Generated_Source\PSoC4/RTC_1.c **** * Sets the time in the Unix/Epoch time format - the number of seconds elapsed 
 275:Generated_Source\PSoC4/RTC_1.c **** *  from January 1, 1970 UTC 00:00 hrs.
 276:Generated_Source\PSoC4/RTC_1.c **** *
 277:Generated_Source\PSoC4/RTC_1.c **** * \param
 278:Generated_Source\PSoC4/RTC_1.c **** *  time The time value in the Unix time/Epoch time format.
 279:Generated_Source\PSoC4/RTC_1.c **** *
 280:Generated_Source\PSoC4/RTC_1.c **** *******************************************************************************/
 281:Generated_Source\PSoC4/RTC_1.c **** void RTC_1_SetUnixTime(uint64 unixTime)
 282:Generated_Source\PSoC4/RTC_1.c **** {
 283:Generated_Source\PSoC4/RTC_1.c ****     RTC_1_DATE_TIME tmpDateTime;
 284:Generated_Source\PSoC4/RTC_1.c **** 
 285:Generated_Source\PSoC4/RTC_1.c ****     RTC_1_unixTime = unixTime;
 286:Generated_Source\PSoC4/RTC_1.c ****     RTC_1_UnixToDateTime(&tmpDateTime, unixTime, (uint32)RTC_1_24_HOURS_FORMAT);
 287:Generated_Source\PSoC4/RTC_1.c **** 
 288:Generated_Source\PSoC4/RTC_1.c ****     #if(0u != RTC_1_INITIAL_DST_STATUS)
 289:Generated_Source\PSoC4/RTC_1.c ****         RTC_1_unixTimeDstStart = RTC_1_GetDstUnixTime(&RTC_1_dstStartTime);
 290:Generated_Source\PSoC4/RTC_1.c ****         RTC_1_unixTimeDstStop  = RTC_1_GetDstUnixTime(&RTC_1_dstStopTime);
 291:Generated_Source\PSoC4/RTC_1.c **** 
 292:Generated_Source\PSoC4/RTC_1.c ****         if((RTC_1_unixTime >= RTC_1_unixTimeDstStart) &&
 293:Generated_Source\PSoC4/RTC_1.c ****            (RTC_1_unixTime <= RTC_1_unixTimeDstStop))
 294:Generated_Source\PSoC4/RTC_1.c ****         {
 295:Generated_Source\PSoC4/RTC_1.c ****             RTC_1_dstStatus = 1u;
 296:Generated_Source\PSoC4/RTC_1.c ****             RTC_1_dstTimeOffset = RTC_1_SECONDS_PER_HOUR;
ARM GAS  C:\Users\corne\AppData\Local\Temp\ccR3s0rF.s 			page 7


 297:Generated_Source\PSoC4/RTC_1.c ****         }
 298:Generated_Source\PSoC4/RTC_1.c ****         else
 299:Generated_Source\PSoC4/RTC_1.c ****         {
 300:Generated_Source\PSoC4/RTC_1.c ****             RTC_1_dstStatus = 0u;
 301:Generated_Source\PSoC4/RTC_1.c ****             RTC_1_dstTimeOffset = 0uL;
 302:Generated_Source\PSoC4/RTC_1.c ****         }
 303:Generated_Source\PSoC4/RTC_1.c ****     #endif /* (0u != RTC_1_INITIAL_DST_STATUS) */
 304:Generated_Source\PSoC4/RTC_1.c **** }
 305:Generated_Source\PSoC4/RTC_1.c **** 
 306:Generated_Source\PSoC4/RTC_1.c **** 
 307:Generated_Source\PSoC4/RTC_1.c **** /*******************************************************************************
 308:Generated_Source\PSoC4/RTC_1.c **** * Function Name: RTC_1_GetUnixTime
 309:Generated_Source\PSoC4/RTC_1.c **** ****************************************************************************//**
 310:Generated_Source\PSoC4/RTC_1.c **** *
 311:Generated_Source\PSoC4/RTC_1.c **** * \brief
 312:Generated_Source\PSoC4/RTC_1.c **** *  Returns the time in the Unix/Epoch time format - the number of seconds 
 313:Generated_Source\PSoC4/RTC_1.c **** * elapsed from January 1, 1970 UTC 00:00 hrs.
 314:Generated_Source\PSoC4/RTC_1.c **** *
 315:Generated_Source\PSoC4/RTC_1.c **** * \return time The time value in the Unix time/Epoch time format.
 316:Generated_Source\PSoC4/RTC_1.c **** *
 317:Generated_Source\PSoC4/RTC_1.c **** *******************************************************************************/
 318:Generated_Source\PSoC4/RTC_1.c **** uint64 RTC_1_GetUnixTime(void)
 319:Generated_Source\PSoC4/RTC_1.c **** {
  47              		.loc 1 319 0
  48              		.cfi_startproc
  49              		@ args = 0, pretend = 0, frame = 0
  50              		@ frame_needed = 0, uses_anonymous_args = 0
  51              		@ link register save eliminated.
 320:Generated_Source\PSoC4/RTC_1.c ****     return (RTC_1_unixTime);
  52              		.loc 1 320 0
  53 0000 014B     		ldr	r3, .L3
  54 0002 1868     		ldr	r0, [r3]
  55 0004 5968     		ldr	r1, [r3, #4]
 321:Generated_Source\PSoC4/RTC_1.c **** }
  56              		.loc 1 321 0
  57              		@ sp needed
  58 0006 7047     		bx	lr
  59              	.L4:
  60              		.align	2
  61              	.L3:
  62 0008 00000000 		.word	RTC_1_unixTime
  63              		.cfi_endproc
  64              	.LFE32:
  65              		.size	RTC_1_GetUnixTime, .-RTC_1_GetUnixTime
  66              		.section	.text.RTC_1_SetPeriod,"ax",%progbits
  67              		.align	2
  68              		.global	RTC_1_SetPeriod
  69              		.code	16
  70              		.thumb_func
  71              		.type	RTC_1_SetPeriod, %function
  72              	RTC_1_SetPeriod:
  73              	.LFB33:
 322:Generated_Source\PSoC4/RTC_1.c **** 
 323:Generated_Source\PSoC4/RTC_1.c **** 
 324:Generated_Source\PSoC4/RTC_1.c **** /*******************************************************************************
 325:Generated_Source\PSoC4/RTC_1.c **** * Function Name: RTC_1_SetPeriod
 326:Generated_Source\PSoC4/RTC_1.c **** ****************************************************************************//**
ARM GAS  C:\Users\corne\AppData\Local\Temp\ccR3s0rF.s 			page 8


 327:Generated_Source\PSoC4/RTC_1.c **** *
 328:Generated_Source\PSoC4/RTC_1.c **** * \brief
 329:Generated_Source\PSoC4/RTC_1.c **** *  Sets the RTC time update API period.
 330:Generated_Source\PSoC4/RTC_1.c **** *
 331:Generated_Source\PSoC4/RTC_1.c **** *  The user needs to pass the period as
 332:Generated_Source\PSoC4/RTC_1.c **** *  a number of ticks and also a reference number of ticks taken by the same clock
 333:Generated_Source\PSoC4/RTC_1.c **** *  source for one second. For instance, for a 32 kHz clock source and RTC
 334:Generated_Source\PSoC4/RTC_1.c **** *  period of 100 ms, the "ticks" value is 3200 and the "refOneSecTicks" value
 335:Generated_Source\PSoC4/RTC_1.c **** *  is 32000. This value is used to increment the time every time
 336:Generated_Source\PSoC4/RTC_1.c **** *  RTC_1_Update() API is called.
 337:Generated_Source\PSoC4/RTC_1.c **** *
 338:Generated_Source\PSoC4/RTC_1.c **** * \param
 339:Generated_Source\PSoC4/RTC_1.c **** *  ticks The clock period taken as a number of ticks.
 340:Generated_Source\PSoC4/RTC_1.c **** *
 341:Generated_Source\PSoC4/RTC_1.c **** * \param
 342:Generated_Source\PSoC4/RTC_1.c **** * refOneSecTicks The reference number of ticks taken by the same clock source
 343:Generated_Source\PSoC4/RTC_1.c **** *  for one second (the input clock frequency in Hz).
 344:Generated_Source\PSoC4/RTC_1.c **** *
 345:Generated_Source\PSoC4/RTC_1.c **** *******************************************************************************/
 346:Generated_Source\PSoC4/RTC_1.c **** void RTC_1_SetPeriod(uint32 ticks, uint32 refOneSecTicks)
 347:Generated_Source\PSoC4/RTC_1.c **** {
  74              		.loc 1 347 0
  75              		.cfi_startproc
  76              		@ args = 0, pretend = 0, frame = 0
  77              		@ frame_needed = 0, uses_anonymous_args = 0
  78              		@ link register save eliminated.
  79              	.LVL0:
 348:Generated_Source\PSoC4/RTC_1.c ****     RTC_1_updateTimePeriod = ticks;
  80              		.loc 1 348 0
  81 0000 014B     		ldr	r3, .L6
  82 0002 1860     		str	r0, [r3]
 349:Generated_Source\PSoC4/RTC_1.c ****     RTC_1_tickRefOneSec    = refOneSecTicks;
  83              		.loc 1 349 0
  84 0004 5960     		str	r1, [r3, #4]
 350:Generated_Source\PSoC4/RTC_1.c **** }
  85              		.loc 1 350 0
  86              		@ sp needed
  87 0006 7047     		bx	lr
  88              	.L7:
  89              		.align	2
  90              	.L6:
  91 0008 00000000 		.word	.LANCHOR0
  92              		.cfi_endproc
  93              	.LFE33:
  94              		.size	RTC_1_SetPeriod, .-RTC_1_SetPeriod
  95              		.section	.text.RTC_1_GetPeriod,"ax",%progbits
  96              		.align	2
  97              		.global	RTC_1_GetPeriod
  98              		.code	16
  99              		.thumb_func
 100              		.type	RTC_1_GetPeriod, %function
 101              	RTC_1_GetPeriod:
 102              	.LFB34:
 351:Generated_Source\PSoC4/RTC_1.c **** 
 352:Generated_Source\PSoC4/RTC_1.c **** 
 353:Generated_Source\PSoC4/RTC_1.c **** /*******************************************************************************
 354:Generated_Source\PSoC4/RTC_1.c **** * Function Name: RTC_1_SetPeriod
ARM GAS  C:\Users\corne\AppData\Local\Temp\ccR3s0rF.s 			page 9


 355:Generated_Source\PSoC4/RTC_1.c **** ****************************************************************************//**
 356:Generated_Source\PSoC4/RTC_1.c **** *
 357:Generated_Source\PSoC4/RTC_1.c **** * \brief
 358:Generated_Source\PSoC4/RTC_1.c **** *  Gets the RTC time update API period.
 359:Generated_Source\PSoC4/RTC_1.c **** *
 360:Generated_Source\PSoC4/RTC_1.c **** * \return period The clock period taken as a number of ticks.
 361:Generated_Source\PSoC4/RTC_1.c **** *
 362:Generated_Source\PSoC4/RTC_1.c **** *******************************************************************************/
 363:Generated_Source\PSoC4/RTC_1.c **** uint32 RTC_1_GetPeriod(void)
 364:Generated_Source\PSoC4/RTC_1.c **** {
 103              		.loc 1 364 0
 104              		.cfi_startproc
 105              		@ args = 0, pretend = 0, frame = 0
 106              		@ frame_needed = 0, uses_anonymous_args = 0
 107              		@ link register save eliminated.
 365:Generated_Source\PSoC4/RTC_1.c ****     return(RTC_1_updateTimePeriod);
 108              		.loc 1 365 0
 109 0000 014B     		ldr	r3, .L9
 110 0002 1868     		ldr	r0, [r3]
 366:Generated_Source\PSoC4/RTC_1.c **** }
 111              		.loc 1 366 0
 112              		@ sp needed
 113 0004 7047     		bx	lr
 114              	.L10:
 115 0006 C046     		.align	2
 116              	.L9:
 117 0008 00000000 		.word	.LANCHOR0
 118              		.cfi_endproc
 119              	.LFE34:
 120              		.size	RTC_1_GetPeriod, .-RTC_1_GetPeriod
 121              		.section	.text.RTC_1_GetRefOneSec,"ax",%progbits
 122              		.align	2
 123              		.global	RTC_1_GetRefOneSec
 124              		.code	16
 125              		.thumb_func
 126              		.type	RTC_1_GetRefOneSec, %function
 127              	RTC_1_GetRefOneSec:
 128              	.LFB35:
 367:Generated_Source\PSoC4/RTC_1.c **** 
 368:Generated_Source\PSoC4/RTC_1.c **** 
 369:Generated_Source\PSoC4/RTC_1.c **** /*******************************************************************************
 370:Generated_Source\PSoC4/RTC_1.c **** * Function Name: RTC_1_GetRefOneSec
 371:Generated_Source\PSoC4/RTC_1.c **** ****************************************************************************//**
 372:Generated_Source\PSoC4/RTC_1.c **** * \brief
 373:Generated_Source\PSoC4/RTC_1.c **** * Gets the RTC time update API period.
 374:Generated_Source\PSoC4/RTC_1.c **** *
 375:Generated_Source\PSoC4/RTC_1.c **** * \return
 376:Generated_Source\PSoC4/RTC_1.c **** * period The reference number of ticks taken by the RTC clock source for one
 377:Generated_Source\PSoC4/RTC_1.c **** * second.
 378:Generated_Source\PSoC4/RTC_1.c **** *
 379:Generated_Source\PSoC4/RTC_1.c **** *******************************************************************************/
 380:Generated_Source\PSoC4/RTC_1.c **** uint32 RTC_1_GetRefOneSec(void)
 381:Generated_Source\PSoC4/RTC_1.c **** {
 129              		.loc 1 381 0
 130              		.cfi_startproc
 131              		@ args = 0, pretend = 0, frame = 0
 132              		@ frame_needed = 0, uses_anonymous_args = 0
ARM GAS  C:\Users\corne\AppData\Local\Temp\ccR3s0rF.s 			page 10


 133              		@ link register save eliminated.
 382:Generated_Source\PSoC4/RTC_1.c ****     return(RTC_1_tickRefOneSec);
 134              		.loc 1 382 0
 135 0000 014B     		ldr	r3, .L12
 136 0002 5868     		ldr	r0, [r3, #4]
 383:Generated_Source\PSoC4/RTC_1.c **** }
 137              		.loc 1 383 0
 138              		@ sp needed
 139 0004 7047     		bx	lr
 140              	.L13:
 141 0006 C046     		.align	2
 142              	.L12:
 143 0008 00000000 		.word	.LANCHOR0
 144              		.cfi_endproc
 145              	.LFE35:
 146              		.size	RTC_1_GetRefOneSec, .-RTC_1_GetRefOneSec
 147              		.section	.text.RTC_1_ConvertBCDToDec,"ax",%progbits
 148              		.align	2
 149              		.global	RTC_1_ConvertBCDToDec
 150              		.code	16
 151              		.thumb_func
 152              		.type	RTC_1_ConvertBCDToDec, %function
 153              	RTC_1_ConvertBCDToDec:
 154              	.LFB40:
 384:Generated_Source\PSoC4/RTC_1.c **** 
 385:Generated_Source\PSoC4/RTC_1.c **** 
 386:Generated_Source\PSoC4/RTC_1.c **** /*******************************************************************************
 387:Generated_Source\PSoC4/RTC_1.c **** * Function Name: RTC_1_GetDateAndTime
 388:Generated_Source\PSoC4/RTC_1.c **** ****************************************************************************//**
 389:Generated_Source\PSoC4/RTC_1.c **** *
 390:Generated_Source\PSoC4/RTC_1.c **** * Reads the current time and date.
 391:Generated_Source\PSoC4/RTC_1.c **** *
 392:Generated_Source\PSoC4/RTC_1.c **** * \param dateTime The pointer to the RTC_date_time structure to which time and 
 393:Generated_Source\PSoC4/RTC_1.c **** * date is returned.
 394:Generated_Source\PSoC4/RTC_1.c **** *
 395:Generated_Source\PSoC4/RTC_1.c **** *******************************************************************************/
 396:Generated_Source\PSoC4/RTC_1.c **** void RTC_1_GetDateAndTime(RTC_1_DATE_TIME* dateTime)
 397:Generated_Source\PSoC4/RTC_1.c **** {
 398:Generated_Source\PSoC4/RTC_1.c ****     RTC_1_UnixToDateTime(dateTime, (RTC_1_unixTime  + RTC_1_dstTimeOffset),
 399:Generated_Source\PSoC4/RTC_1.c ****                                                                             RTC_1_INITIAL_TIME_FORM
 400:Generated_Source\PSoC4/RTC_1.c **** }
 401:Generated_Source\PSoC4/RTC_1.c **** 
 402:Generated_Source\PSoC4/RTC_1.c **** 
 403:Generated_Source\PSoC4/RTC_1.c **** /*******************************************************************************
 404:Generated_Source\PSoC4/RTC_1.c **** * Function Name: RTC_1_GetTime
 405:Generated_Source\PSoC4/RTC_1.c **** ****************************************************************************//**
 406:Generated_Source\PSoC4/RTC_1.c **** * \brief
 407:Generated_Source\PSoC4/RTC_1.c **** * Reads the current time.
 408:Generated_Source\PSoC4/RTC_1.c **** *
 409:Generated_Source\PSoC4/RTC_1.c **** * \return
 410:Generated_Source\PSoC4/RTC_1.c **** * date The value of date in the user selected format. The date value is 
 411:Generated_Source\PSoC4/RTC_1.c **** * available in the BCD format.
 412:Generated_Source\PSoC4/RTC_1.c **** *
 413:Generated_Source\PSoC4/RTC_1.c **** * \warning
 414:Generated_Source\PSoC4/RTC_1.c **** *  Using RTC_1_GetTime and RTC_GetDate API separately might result
 415:Generated_Source\PSoC4/RTC_1.c **** *  in errors when the time wraps around the end of the day. To avoid this,
 416:Generated_Source\PSoC4/RTC_1.c **** *  use RTC_1_GetDateAndTime API.
ARM GAS  C:\Users\corne\AppData\Local\Temp\ccR3s0rF.s 			page 11


 417:Generated_Source\PSoC4/RTC_1.c **** *
 418:Generated_Source\PSoC4/RTC_1.c **** *******************************************************************************/
 419:Generated_Source\PSoC4/RTC_1.c **** uint32 RTC_1_GetTime(void)
 420:Generated_Source\PSoC4/RTC_1.c **** {
 421:Generated_Source\PSoC4/RTC_1.c ****     RTC_1_UnixToDateTime(&RTC_1_currentTimeDate,
 422:Generated_Source\PSoC4/RTC_1.c ****                                     (RTC_1_unixTime  + RTC_1_dstTimeOffset),
 423:Generated_Source\PSoC4/RTC_1.c ****                                      RTC_1_INITIAL_TIME_FORMAT);
 424:Generated_Source\PSoC4/RTC_1.c **** 
 425:Generated_Source\PSoC4/RTC_1.c ****     return(RTC_1_currentTimeDate.time);
 426:Generated_Source\PSoC4/RTC_1.c **** }
 427:Generated_Source\PSoC4/RTC_1.c **** 
 428:Generated_Source\PSoC4/RTC_1.c **** 
 429:Generated_Source\PSoC4/RTC_1.c **** /*******************************************************************************
 430:Generated_Source\PSoC4/RTC_1.c **** * Function Name: RTC_1_GetDate
 431:Generated_Source\PSoC4/RTC_1.c **** ****************************************************************************//**
 432:Generated_Source\PSoC4/RTC_1.c **** *
 433:Generated_Source\PSoC4/RTC_1.c **** * \brief Reads the current time.
 434:Generated_Source\PSoC4/RTC_1.c **** *
 435:Generated_Source\PSoC4/RTC_1.c **** * \return
 436:Generated_Source\PSoC4/RTC_1.c **** * time The time value in the format selected by the user (12/24 hr);
 437:Generated_Source\PSoC4/RTC_1.c **** * The time value is available in the BCD format.
 438:Generated_Source\PSoC4/RTC_1.c **** *
 439:Generated_Source\PSoC4/RTC_1.c **** * \note
 440:Generated_Source\PSoC4/RTC_1.c **** *  Using RTC_1_GetTime and RTC_1_GetDate API separately
 441:Generated_Source\PSoC4/RTC_1.c **** *  might result in errors when the time wraps around the end of the day. To
 442:Generated_Source\PSoC4/RTC_1.c **** *  avoid this, use RTC_1_GetDateAndTime API.
 443:Generated_Source\PSoC4/RTC_1.c **** *
 444:Generated_Source\PSoC4/RTC_1.c **** *******************************************************************************/
 445:Generated_Source\PSoC4/RTC_1.c **** uint32 RTC_1_GetDate(void)
 446:Generated_Source\PSoC4/RTC_1.c **** {
 447:Generated_Source\PSoC4/RTC_1.c ****     RTC_1_UnixToDateTime(&RTC_1_currentTimeDate,
 448:Generated_Source\PSoC4/RTC_1.c ****                                     (RTC_1_unixTime  + RTC_1_dstTimeOffset),
 449:Generated_Source\PSoC4/RTC_1.c ****                                      RTC_1_INITIAL_TIME_FORMAT);
 450:Generated_Source\PSoC4/RTC_1.c **** 
 451:Generated_Source\PSoC4/RTC_1.c ****     return(RTC_1_currentTimeDate.date);
 452:Generated_Source\PSoC4/RTC_1.c **** }
 453:Generated_Source\PSoC4/RTC_1.c **** 
 454:Generated_Source\PSoC4/RTC_1.c **** 
 455:Generated_Source\PSoC4/RTC_1.c **** #if(0u != RTC_1_INITIAL_ALARM_STATUS)
 456:Generated_Source\PSoC4/RTC_1.c ****     /*******************************************************************************
 457:Generated_Source\PSoC4/RTC_1.c ****     * Function Name: RTC_1_SetAlarmDateAndTime
 458:Generated_Source\PSoC4/RTC_1.c ****     ****************************************************************************//**
 459:Generated_Source\PSoC4/RTC_1.c ****     *
 460:Generated_Source\PSoC4/RTC_1.c ****     * \brief
 461:Generated_Source\PSoC4/RTC_1.c ****     *  Writes the time and date values as the current alarm time and date.
 462:Generated_Source\PSoC4/RTC_1.c ****     *
 463:Generated_Source\PSoC4/RTC_1.c ****     * \param
 464:Generated_Source\PSoC4/RTC_1.c ****     *  alarmTime The pointer to the RTC_1_date_time global structure where
 465:Generated_Source\PSoC4/RTC_1.c ****     *  new values of the alarm time and date are stored.
 466:Generated_Source\PSoC4/RTC_1.c ****     *
 467:Generated_Source\PSoC4/RTC_1.c ****     * \note
 468:Generated_Source\PSoC4/RTC_1.c ****     *  Invalid time entries are written with "00:00:00:00" for the 24-hour format and
 469:Generated_Source\PSoC4/RTC_1.c ****     *  "AM 12:00:00:00" for the 12-hour format. Invalid date entries are written with
 470:Generated_Source\PSoC4/RTC_1.c ****     *  a date equivalent to 01-JAN-2000.
 471:Generated_Source\PSoC4/RTC_1.c ****     *
 472:Generated_Source\PSoC4/RTC_1.c ****     *******************************************************************************/
 473:Generated_Source\PSoC4/RTC_1.c ****     void RTC_1_SetAlarmDateAndTime(const RTC_1_DATE_TIME* alarmTime)
ARM GAS  C:\Users\corne\AppData\Local\Temp\ccR3s0rF.s 			page 12


 474:Generated_Source\PSoC4/RTC_1.c ****     {
 475:Generated_Source\PSoC4/RTC_1.c ****         RTC_1_alarmCfgTimeDate = *alarmTime;
 476:Generated_Source\PSoC4/RTC_1.c ****         RTC_1_unixTimeAlarm = RTC_1_ConstructUnixAlarmTime(alarmTime, (uint8)RTC_1_alarmCfgMask);
 477:Generated_Source\PSoC4/RTC_1.c ****     }
 478:Generated_Source\PSoC4/RTC_1.c **** 
 479:Generated_Source\PSoC4/RTC_1.c **** 
 480:Generated_Source\PSoC4/RTC_1.c ****     /*******************************************************************************
 481:Generated_Source\PSoC4/RTC_1.c ****     * Function Name: RTC_1_GetAlarmDateAndTime
 482:Generated_Source\PSoC4/RTC_1.c ****     ****************************************************************************//**
 483:Generated_Source\PSoC4/RTC_1.c ****     *
 484:Generated_Source\PSoC4/RTC_1.c ****     * \brief
 485:Generated_Source\PSoC4/RTC_1.c ****     *  Reads the current alarm time and date.
 486:Generated_Source\PSoC4/RTC_1.c ****     *
 487:Generated_Source\PSoC4/RTC_1.c ****     * \param
 488:Generated_Source\PSoC4/RTC_1.c ****     *  alarmTimeDate The pointer to the RTC_1_date_time structure to which
 489:Generated_Source\PSoC4/RTC_1.c ****     *  the alarm date and time are returned.
 490:Generated_Source\PSoC4/RTC_1.c ****     *
 491:Generated_Source\PSoC4/RTC_1.c ****     *******************************************************************************/
 492:Generated_Source\PSoC4/RTC_1.c ****     void RTC_1_GetAlarmDateAndTime(RTC_1_DATE_TIME* alarmTimeDate)
 493:Generated_Source\PSoC4/RTC_1.c ****     {
 494:Generated_Source\PSoC4/RTC_1.c ****         *alarmTimeDate = RTC_1_alarmCfgTimeDate;
 495:Generated_Source\PSoC4/RTC_1.c ****     }
 496:Generated_Source\PSoC4/RTC_1.c **** 
 497:Generated_Source\PSoC4/RTC_1.c **** 
 498:Generated_Source\PSoC4/RTC_1.c ****     /*******************************************************************************
 499:Generated_Source\PSoC4/RTC_1.c ****     * Function Name: RTC_1_SetAlarmMask
 500:Generated_Source\PSoC4/RTC_1.c ****     ****************************************************************************//**
 501:Generated_Source\PSoC4/RTC_1.c ****     *
 502:Generated_Source\PSoC4/RTC_1.c ****     * \brief
 503:Generated_Source\PSoC4/RTC_1.c ****     *  Writes the Alarm Mask software register with one bit per time/date entry.
 504:Generated_Source\PSoC4/RTC_1.c ****     *  The alarm is true when all masked time/date values match the Alarm values.
 505:Generated_Source\PSoC4/RTC_1.c ****     *  Generated only if the alarm functionality is enabled.
 506:Generated_Source\PSoC4/RTC_1.c ****     *
 507:Generated_Source\PSoC4/RTC_1.c ****     * \param
 508:Generated_Source\PSoC4/RTC_1.c ****     *  mask The Alarm Mask software register value. The values shown below can be
 509:Generated_Source\PSoC4/RTC_1.c ****     *  OR'ed and passed as an argument as well.
 510:Generated_Source\PSoC4/RTC_1.c ****     * \param
 511:Generated_Source\PSoC4/RTC_1.c ****     *  RTC_1_ALARM_SEC_MASK The second alarm mask allows
 512:Generated_Source\PSoC4/RTC_1.c ****     *  matching the alarm second register with the current second register.
 513:Generated_Source\PSoC4/RTC_1.c ****     * \param
 514:Generated_Source\PSoC4/RTC_1.c ****     *  RTC_1_ALARM_MIN_MASK The minute alarm mask allows matching the
 515:Generated_Source\PSoC4/RTC_1.c ****     *  alarm minute register with the current minute register.
 516:Generated_Source\PSoC4/RTC_1.c ****     * \param
 517:Generated_Source\PSoC4/RTC_1.c ****     *  RTC_1_ALARM_HOUR_MASK The hour alarm mask allows
 518:Generated_Source\PSoC4/RTC_1.c ****     * matching the alarm hour register with the current hour register.
 519:Generated_Source\PSoC4/RTC_1.c ****     * \param
 520:Generated_Source\PSoC4/RTC_1.c ****     *  RTC_1_ALARM_DAYOFWEEK_MASK The day of the week alarm mask 
 521:Generated_Source\PSoC4/RTC_1.c ****     * allows matching the alarm day of the week register with the current day of
 522:Generated_Source\PSoC4/RTC_1.c ****     * the week register.
 523:Generated_Source\PSoC4/RTC_1.c ****     * \param
 524:Generated_Source\PSoC4/RTC_1.c ****     * RTC_1_ALARM_DAYOFMONTH_MASK The day of the month alarm mask
 525:Generated_Source\PSoC4/RTC_1.c ****     * allows matching the alarm day of the month register with the current day 
 526:Generated_Source\PSoC4/RTC_1.c ****     * of the month register.
 527:Generated_Source\PSoC4/RTC_1.c ****     * \param
 528:Generated_Source\PSoC4/RTC_1.c ****     * RTC_1_ALARM_MONTH_MASK The month alarm mask allows matching 
 529:Generated_Source\PSoC4/RTC_1.c ****     * the alarm month register with the current month register.
 530:Generated_Source\PSoC4/RTC_1.c ****     * \param
ARM GAS  C:\Users\corne\AppData\Local\Temp\ccR3s0rF.s 			page 13


 531:Generated_Source\PSoC4/RTC_1.c ****     * RTC_1_ALARM_YEAR_MASK The year alarm mask allows matching the
 532:Generated_Source\PSoC4/RTC_1.c ****     *  alarm year register with the current year register.
 533:Generated_Source\PSoC4/RTC_1.c ****     *
 534:Generated_Source\PSoC4/RTC_1.c ****     *******************************************************************************/
 535:Generated_Source\PSoC4/RTC_1.c ****     void RTC_1_SetAlarmMask(uint32 mask)
 536:Generated_Source\PSoC4/RTC_1.c ****     {
 537:Generated_Source\PSoC4/RTC_1.c ****         RTC_1_alarmCfgMask = (uint8)mask;
 538:Generated_Source\PSoC4/RTC_1.c ****         RTC_1_unixTimeAlarm = RTC_1_ConstructUnixAlarmTime(&RTC_1_alarmCfgTimeDate, (uint8)mask);
 539:Generated_Source\PSoC4/RTC_1.c ****     }
 540:Generated_Source\PSoC4/RTC_1.c **** 
 541:Generated_Source\PSoC4/RTC_1.c **** 
 542:Generated_Source\PSoC4/RTC_1.c ****     /*******************************************************************************
 543:Generated_Source\PSoC4/RTC_1.c ****     * Function Name: RTC_1_GetAlarmMask
 544:Generated_Source\PSoC4/RTC_1.c ****     ****************************************************************************//**
 545:Generated_Source\PSoC4/RTC_1.c ****     *
 546:Generated_Source\PSoC4/RTC_1.c ****     * \brief
 547:Generated_Source\PSoC4/RTC_1.c ****     *  Reads the Alarm Mask software register. Generated only if the alarm 
 548:Generated_Source\PSoC4/RTC_1.c ****     * functionality is enabled.
 549:Generated_Source\PSoC4/RTC_1.c ****     *
 550:Generated_Source\PSoC4/RTC_1.c ****     * \return
 551:Generated_Source\PSoC4/RTC_1.c ****     *  The Alarm Mask value with each bit representing the status of the alarm 
 552:Generated_Source\PSoC4/RTC_1.c ****     * time/date match enable.
 553:Generated_Source\PSoC4/RTC_1.c ****     *
 554:Generated_Source\PSoC4/RTC_1.c ****     * \return
 555:Generated_Source\PSoC4/RTC_1.c ****     *  RTC_1_ALARM_SEC_MASK - The second alarm mask allows matching the
 556:Generated_Source\PSoC4/RTC_1.c ****     * alarm second register with the current second register.
 557:Generated_Source\PSoC4/RTC_1.c ****     *
 558:Generated_Source\PSoC4/RTC_1.c ****     * \return
 559:Generated_Source\PSoC4/RTC_1.c ****     * RTC_1_ALARM_MIN_MASK - The minute alarm mask allows matching the 
 560:Generated_Source\PSoC4/RTC_1.c ****     * alarm minute register with the current minute register.
 561:Generated_Source\PSoC4/RTC_1.c ****     *
 562:Generated_Source\PSoC4/RTC_1.c ****     * \return
 563:Generated_Source\PSoC4/RTC_1.c ****     *  RTC_1_ALARM_HOUR_MASK - The hour alarm mask allows matching the 
 564:Generated_Source\PSoC4/RTC_1.c ****     * alarm hour register with the current hour register.
 565:Generated_Source\PSoC4/RTC_1.c ****     *
 566:Generated_Source\PSoC4/RTC_1.c ****     * \return
 567:Generated_Source\PSoC4/RTC_1.c ****     *  RTC_1_ALARM_DAYOFWEEK_MASK - The day of the week alarm mask allows
 568:Generated_Source\PSoC4/RTC_1.c ****     * matching the alarm day of the week register with the current day of the 
 569:Generated_Source\PSoC4/RTC_1.c ****     * week register.
 570:Generated_Source\PSoC4/RTC_1.c ****     *
 571:Generated_Source\PSoC4/RTC_1.c ****     * \return
 572:Generated_Source\PSoC4/RTC_1.c ****     *  RTC_1_ALARM_DAYOFMONTH_MASK - The day of the month alarm mask 
 573:Generated_Source\PSoC4/RTC_1.c ****     * allows matching the alarm day of the month register with the current day of 
 574:Generated_Source\PSoC4/RTC_1.c ****     * the month register.
 575:Generated_Source\PSoC4/RTC_1.c ****     *
 576:Generated_Source\PSoC4/RTC_1.c ****     * \return
 577:Generated_Source\PSoC4/RTC_1.c ****     *  RTC_1_ALARM_MONTH_MASK - The month alarm mask allows matching 
 578:Generated_Source\PSoC4/RTC_1.c ****     * the alarm month register with the current month register.
 579:Generated_Source\PSoC4/RTC_1.c ****     *
 580:Generated_Source\PSoC4/RTC_1.c ****     * \return
 581:Generated_Source\PSoC4/RTC_1.c ****     *  RTC_1_ALARM_YEAR_MASK - The year alarm mask allows matching the
 582:Generated_Source\PSoC4/RTC_1.c ****     * alarm year register with the current year register.
 583:Generated_Source\PSoC4/RTC_1.c ****     *
 584:Generated_Source\PSoC4/RTC_1.c ****     *******************************************************************************/
 585:Generated_Source\PSoC4/RTC_1.c ****     uint32 RTC_1_GetAlarmMask(void)
 586:Generated_Source\PSoC4/RTC_1.c ****     {
 587:Generated_Source\PSoC4/RTC_1.c ****         return((uint32)RTC_1_alarmCfgMask);
ARM GAS  C:\Users\corne\AppData\Local\Temp\ccR3s0rF.s 			page 14


 588:Generated_Source\PSoC4/RTC_1.c ****     }
 589:Generated_Source\PSoC4/RTC_1.c **** 
 590:Generated_Source\PSoC4/RTC_1.c **** 
 591:Generated_Source\PSoC4/RTC_1.c ****     /*******************************************************************************
 592:Generated_Source\PSoC4/RTC_1.c ****     * Function Name: RTC_1_GetAlarmStatus
 593:Generated_Source\PSoC4/RTC_1.c ****     ****************************************************************************//**
 594:Generated_Source\PSoC4/RTC_1.c ****     *
 595:Generated_Source\PSoC4/RTC_1.c ****     * \brief
 596:Generated_Source\PSoC4/RTC_1.c ****     *  Returns the alarm status of RTC.
 597:Generated_Source\PSoC4/RTC_1.c ****     *
 598:Generated_Source\PSoC4/RTC_1.c ****     * \return
 599:Generated_Source\PSoC4/RTC_1.c ****     *  The Alarm active status. This bit is high when the current time and date match the alarm
 600:Generated_Source\PSoC4/RTC_1.c ****     *  time and date.
 601:Generated_Source\PSoC4/RTC_1.c ****     *
 602:Generated_Source\PSoC4/RTC_1.c ****     * \return
 603:Generated_Source\PSoC4/RTC_1.c ****     *  0 - The Alarm status is not active.
 604:Generated_Source\PSoC4/RTC_1.c ****     * \return
 605:Generated_Source\PSoC4/RTC_1.c ****     *  1 - The Alarm status is active.
 606:Generated_Source\PSoC4/RTC_1.c ****     *
 607:Generated_Source\PSoC4/RTC_1.c ****     *******************************************************************************/
 608:Generated_Source\PSoC4/RTC_1.c ****     uint32 RTC_1_GetAlarmStatus(void)
 609:Generated_Source\PSoC4/RTC_1.c ****     {
 610:Generated_Source\PSoC4/RTC_1.c ****         return((0uL != (RTC_1_currentTimeDate.status & (1uL << RTC_1_STATUS_ALARM_OFFSET))) ? 1uL :
 611:Generated_Source\PSoC4/RTC_1.c ****     }
 612:Generated_Source\PSoC4/RTC_1.c **** 
 613:Generated_Source\PSoC4/RTC_1.c **** 
 614:Generated_Source\PSoC4/RTC_1.c ****     /*******************************************************************************
 615:Generated_Source\PSoC4/RTC_1.c ****     * Function Name: RTC_1_ClearAlarmStatus
 616:Generated_Source\PSoC4/RTC_1.c ****     ****************************************************************************//**
 617:Generated_Source\PSoC4/RTC_1.c ****     *
 618:Generated_Source\PSoC4/RTC_1.c ****     * \brief
 619:Generated_Source\PSoC4/RTC_1.c ****     *  Clears the alarm status of RTC.
 620:Generated_Source\PSoC4/RTC_1.c ****     *
 621:Generated_Source\PSoC4/RTC_1.c ****     * \note
 622:Generated_Source\PSoC4/RTC_1.c ****     * The Alarm active (AA) flag clears after read. This bit will be set in the next
 623:Generated_Source\PSoC4/RTC_1.c ****     * alarm match event only. If Alarm is set on only minutes and the alarm
 624:Generated_Source\PSoC4/RTC_1.c ****     * minutes is 20 minutes - the alarm triggers once every 20th minute of
 625:Generated_Source\PSoC4/RTC_1.c ****     * every hour.
 626:Generated_Source\PSoC4/RTC_1.c ****     *
 627:Generated_Source\PSoC4/RTC_1.c ****     *******************************************************************************/
 628:Generated_Source\PSoC4/RTC_1.c ****     void RTC_1_ClearAlarmStatus(void)
 629:Generated_Source\PSoC4/RTC_1.c ****     {
 630:Generated_Source\PSoC4/RTC_1.c ****         RTC_1_currentTimeDate.status &= (~(1uL << RTC_1_STATUS_ALARM_OFFSET));
 631:Generated_Source\PSoC4/RTC_1.c ****         RTC_1_alarmCurStatus = 0u;
 632:Generated_Source\PSoC4/RTC_1.c ****     }
 633:Generated_Source\PSoC4/RTC_1.c **** 
 634:Generated_Source\PSoC4/RTC_1.c **** 
 635:Generated_Source\PSoC4/RTC_1.c ****     /*******************************************************************************
 636:Generated_Source\PSoC4/RTC_1.c ****     * Function Name: RTC_1_SetAlarmHandler
 637:Generated_Source\PSoC4/RTC_1.c ****     ****************************************************************************//**
 638:Generated_Source\PSoC4/RTC_1.c ****     *
 639:Generated_Source\PSoC4/RTC_1.c ****     * \brief
 640:Generated_Source\PSoC4/RTC_1.c ****     *  This API sets the function to be called when the alarm goes off / triggers.
 641:Generated_Source\PSoC4/RTC_1.c ****     *  This API is generated only if the alarm functionality is enabled in the
 642:Generated_Source\PSoC4/RTC_1.c ****     *  customizer.
 643:Generated_Source\PSoC4/RTC_1.c ****     *
 644:Generated_Source\PSoC4/RTC_1.c ****     * \param
ARM GAS  C:\Users\corne\AppData\Local\Temp\ccR3s0rF.s 			page 15


 645:Generated_Source\PSoC4/RTC_1.c ****     *  CallbackFunction The callback function address.
 646:Generated_Source\PSoC4/RTC_1.c ****     *
 647:Generated_Source\PSoC4/RTC_1.c ****     * \return
 648:Generated_Source\PSoC4/RTC_1.c ****     *  A previous callback function address.
 649:Generated_Source\PSoC4/RTC_1.c ****     *
 650:Generated_Source\PSoC4/RTC_1.c ****     *******************************************************************************/
 651:Generated_Source\PSoC4/RTC_1.c ****     void* RTC_1_SetAlarmHandler(void (*CallbackFunction)(void))
 652:Generated_Source\PSoC4/RTC_1.c ****     {
 653:Generated_Source\PSoC4/RTC_1.c ****         void (*tmpCallbackPtr)(void);
 654:Generated_Source\PSoC4/RTC_1.c **** 
 655:Generated_Source\PSoC4/RTC_1.c ****         tmpCallbackPtr = RTC_1_alarmCallbackPtr;
 656:Generated_Source\PSoC4/RTC_1.c ****         RTC_1_alarmCallbackPtr = CallbackFunction;
 657:Generated_Source\PSoC4/RTC_1.c **** 
 658:Generated_Source\PSoC4/RTC_1.c ****         return((void*)tmpCallbackPtr);
 659:Generated_Source\PSoC4/RTC_1.c ****     }
 660:Generated_Source\PSoC4/RTC_1.c **** 
 661:Generated_Source\PSoC4/RTC_1.c **** 
 662:Generated_Source\PSoC4/RTC_1.c ****     /*******************************************************************************
 663:Generated_Source\PSoC4/RTC_1.c ****     * Function Name: RTC_1_GetNexAlarmTime
 664:Generated_Source\PSoC4/RTC_1.c ****     ****************************************************************************//**
 665:Generated_Source\PSoC4/RTC_1.c ****     *
 666:Generated_Source\PSoC4/RTC_1.c ****     * \brief
 667:Generated_Source\PSoC4/RTC_1.c ****     *  This is an internal function that calculates the time of the next alarm
 668:Generated_Source\PSoC4/RTC_1.c ****     *  in the UNIX format taking into account the current "Alarm Config Mask".
 669:Generated_Source\PSoC4/RTC_1.c ****     *
 670:Generated_Source\PSoC4/RTC_1.c ****     * \param
 671:Generated_Source\PSoC4/RTC_1.c ****     *  curUnixTime The current time value in the UNIX format.
 672:Generated_Source\PSoC4/RTC_1.c ****     *
 673:Generated_Source\PSoC4/RTC_1.c ****     * \param
 674:Generated_Source\PSoC4/RTC_1.c ****     *  alarmCfgMask The current Alarm Config Mask.
 675:Generated_Source\PSoC4/RTC_1.c ****     *
 676:Generated_Source\PSoC4/RTC_1.c ****     * \return Returns time of the next alarm in the UNIX format.
 677:Generated_Source\PSoC4/RTC_1.c ****     *
 678:Generated_Source\PSoC4/RTC_1.c ****     *******************************************************************************/
 679:Generated_Source\PSoC4/RTC_1.c ****     uint64 RTC_1_GetNexAlarmTime(uint64 curUnixTime, uint8 alarmCfgMask)
 680:Generated_Source\PSoC4/RTC_1.c ****     {
 681:Generated_Source\PSoC4/RTC_1.c ****         uint32 prevVal;
 682:Generated_Source\PSoC4/RTC_1.c ****         uint32 nextVal;
 683:Generated_Source\PSoC4/RTC_1.c ****         uint32 carryFlag;
 684:Generated_Source\PSoC4/RTC_1.c ****         uint32 daysInMonth;
 685:Generated_Source\PSoC4/RTC_1.c ****         RTC_1_DATE_TIME curDateTime;
 686:Generated_Source\PSoC4/RTC_1.c **** 
 687:Generated_Source\PSoC4/RTC_1.c ****         carryFlag = 1u;
 688:Generated_Source\PSoC4/RTC_1.c ****         RTC_1_UnixToDateTime(&curDateTime, curUnixTime, (uint32)RTC_1_24_HOURS_FORMAT);
 689:Generated_Source\PSoC4/RTC_1.c **** 
 690:Generated_Source\PSoC4/RTC_1.c ****         /* Calculates Second value of next alarm time based on current time and Alarm Config Mask. 
 691:Generated_Source\PSoC4/RTC_1.c ****         if(0uL != ((~((uint32)alarmCfgMask)) & RTC_1_ALARM_SEC_MASK))
 692:Generated_Source\PSoC4/RTC_1.c ****         {
 693:Generated_Source\PSoC4/RTC_1.c ****             prevVal = RTC_1_GetSecond(curDateTime.time);
 694:Generated_Source\PSoC4/RTC_1.c ****             nextVal = RTC_1_GetNextMinSec(prevVal);
 695:Generated_Source\PSoC4/RTC_1.c ****             curDateTime.time = RTC_1_SetSecond(curDateTime.time, nextVal);
 696:Generated_Source\PSoC4/RTC_1.c ****             carryFlag = (nextVal < prevVal) ? 1u : 0u;
 697:Generated_Source\PSoC4/RTC_1.c ****         }
 698:Generated_Source\PSoC4/RTC_1.c **** 
 699:Generated_Source\PSoC4/RTC_1.c ****         /* Calculates Minute value of next alarm time based on current time and Alarm Config Mask. 
 700:Generated_Source\PSoC4/RTC_1.c ****         if((0uL != carryFlag) && (0uL != ((~((uint32)alarmCfgMask)) & RTC_1_ALARM_MIN_MASK)))
 701:Generated_Source\PSoC4/RTC_1.c ****         {
ARM GAS  C:\Users\corne\AppData\Local\Temp\ccR3s0rF.s 			page 16


 702:Generated_Source\PSoC4/RTC_1.c ****             prevVal = RTC_1_GetMinutes(curDateTime.time);
 703:Generated_Source\PSoC4/RTC_1.c ****             nextVal = RTC_1_GetNextMinSec(prevVal);
 704:Generated_Source\PSoC4/RTC_1.c ****             curDateTime.time = RTC_1_SetMinutes(curDateTime.time, nextVal);
 705:Generated_Source\PSoC4/RTC_1.c ****             carryFlag = (nextVal < prevVal) ? 1u : 0u;
 706:Generated_Source\PSoC4/RTC_1.c ****         }
 707:Generated_Source\PSoC4/RTC_1.c **** 
 708:Generated_Source\PSoC4/RTC_1.c ****         /* Calculates Hour value of next alarm time based on current time and Alarm Config Mask. */
 709:Generated_Source\PSoC4/RTC_1.c ****         if((0uL != carryFlag) && (0uL != ((~((uint32)alarmCfgMask)) & RTC_1_ALARM_HOUR_MASK)))
 710:Generated_Source\PSoC4/RTC_1.c ****         {
 711:Generated_Source\PSoC4/RTC_1.c ****             prevVal = RTC_1_GetHours(curDateTime.time);
 712:Generated_Source\PSoC4/RTC_1.c ****             nextVal = RTC_1_GetNextHour(prevVal);
 713:Generated_Source\PSoC4/RTC_1.c ****             curDateTime.time = RTC_1_SetHours(curDateTime.time, nextVal);
 714:Generated_Source\PSoC4/RTC_1.c ****             carryFlag = (nextVal < prevVal) ? 1u : 0u;
 715:Generated_Source\PSoC4/RTC_1.c ****         }
 716:Generated_Source\PSoC4/RTC_1.c **** 
 717:Generated_Source\PSoC4/RTC_1.c ****         /* Calculates Day value of next alarm time based on current time and Alarm Config Mask. */
 718:Generated_Source\PSoC4/RTC_1.c ****         if((0uL != carryFlag) && (0uL != ((~((uint32)alarmCfgMask)) & RTC_1_ALARM_DAYOFMONTH_MASK))
 719:Generated_Source\PSoC4/RTC_1.c ****         {
 720:Generated_Source\PSoC4/RTC_1.c ****             prevVal = RTC_1_GetDay(curDateTime.date);
 721:Generated_Source\PSoC4/RTC_1.c ****             if(0u != (alarmCfgMask & RTC_1_ALARM_DAYOFWEEK_MASK))
 722:Generated_Source\PSoC4/RTC_1.c ****             {
 723:Generated_Source\PSoC4/RTC_1.c ****                 daysInMonth = RTC_1_DaysInMonth(RTC_1_GetMonth(curDateTime.date),
 724:Generated_Source\PSoC4/RTC_1.c ****                                                            RTC_1_GetYear(curDateTime.date));
 725:Generated_Source\PSoC4/RTC_1.c ****                 nextVal = prevVal + RTC_1_DAYS_PER_WEEK;
 726:Generated_Source\PSoC4/RTC_1.c ****                 nextVal = (nextVal > daysInMonth) ? (nextVal - daysInMonth) : nextVal;
 727:Generated_Source\PSoC4/RTC_1.c ****             }
 728:Generated_Source\PSoC4/RTC_1.c ****             else
 729:Generated_Source\PSoC4/RTC_1.c ****             {
 730:Generated_Source\PSoC4/RTC_1.c ****                 nextVal = RTC_1_GetNextDay(RTC_1_GetYear(curDateTime.date),
 731:Generated_Source\PSoC4/RTC_1.c ****                                                       RTC_1_GetMonth(curDateTime.date),
 732:Generated_Source\PSoC4/RTC_1.c ****                                                       RTC_1_GetDay(curDateTime.date),
 733:Generated_Source\PSoC4/RTC_1.c ****                                                       (~((uint32)alarmCfgMask)));
 734:Generated_Source\PSoC4/RTC_1.c ****             }
 735:Generated_Source\PSoC4/RTC_1.c ****             curDateTime.date = RTC_1_SetDay(curDateTime.date, nextVal);
 736:Generated_Source\PSoC4/RTC_1.c ****             carryFlag = (nextVal < prevVal) ? 1u : 0u;
 737:Generated_Source\PSoC4/RTC_1.c ****         }
 738:Generated_Source\PSoC4/RTC_1.c **** 
 739:Generated_Source\PSoC4/RTC_1.c ****         /* Calculates Month value of next alarm time based on current time and Alarm Config Mask. *
 740:Generated_Source\PSoC4/RTC_1.c ****         if((0uL != carryFlag) && (0uL != ((~((uint32)alarmCfgMask)) & RTC_1_ALARM_MONTH_MASK)))
 741:Generated_Source\PSoC4/RTC_1.c ****         {
 742:Generated_Source\PSoC4/RTC_1.c ****             prevVal = RTC_1_GetMonth(curDateTime.date);
 743:Generated_Source\PSoC4/RTC_1.c ****             nextVal = RTC_1_GetNextMonth(prevVal);
 744:Generated_Source\PSoC4/RTC_1.c ****             curDateTime.date = RTC_1_SetMonth(curDateTime.date, nextVal);
 745:Generated_Source\PSoC4/RTC_1.c ****             carryFlag = (nextVal < prevVal) ? 1u : 0u;
 746:Generated_Source\PSoC4/RTC_1.c ****         }
 747:Generated_Source\PSoC4/RTC_1.c **** 
 748:Generated_Source\PSoC4/RTC_1.c ****         /* Calculates Year value of next alarm time based on current time and Alarm Config Mask. */
 749:Generated_Source\PSoC4/RTC_1.c ****         if((0uL != carryFlag) && (0uL != ((~((uint32)alarmCfgMask)) & RTC_1_ALARM_YEAR_MASK)))
 750:Generated_Source\PSoC4/RTC_1.c ****         {
 751:Generated_Source\PSoC4/RTC_1.c ****             prevVal = RTC_1_GetYear(curDateTime.date);
 752:Generated_Source\PSoC4/RTC_1.c ****             nextVal = RTC_1_GetNextYear(prevVal);
 753:Generated_Source\PSoC4/RTC_1.c ****             curDateTime.date = RTC_1_SetYear(curDateTime.date, nextVal);
 754:Generated_Source\PSoC4/RTC_1.c ****         }
 755:Generated_Source\PSoC4/RTC_1.c **** 
 756:Generated_Source\PSoC4/RTC_1.c ****         return(RTC_1_DateTimeToUnix(curDateTime.date, curDateTime.time));
 757:Generated_Source\PSoC4/RTC_1.c ****     }
 758:Generated_Source\PSoC4/RTC_1.c **** 
ARM GAS  C:\Users\corne\AppData\Local\Temp\ccR3s0rF.s 			page 17


 759:Generated_Source\PSoC4/RTC_1.c **** 
 760:Generated_Source\PSoC4/RTC_1.c ****     /*******************************************************************************
 761:Generated_Source\PSoC4/RTC_1.c ****     * Function Name: RTC_1_ConstructUnixAlarmTime
 762:Generated_Source\PSoC4/RTC_1.c ****     ****************************************************************************//**
 763:Generated_Source\PSoC4/RTC_1.c ****     *
 764:Generated_Source\PSoC4/RTC_1.c ****     * \brief
 765:Generated_Source\PSoC4/RTC_1.c ****     *  This is an internal function that calculates the time of the first alarm
 766:Generated_Source\PSoC4/RTC_1.c ****     *  in the UNIX format taking into account the current "Alarm Config Mask".
 767:Generated_Source\PSoC4/RTC_1.c ****     *
 768:Generated_Source\PSoC4/RTC_1.c ****     * \param
 769:Generated_Source\PSoC4/RTC_1.c ****     *  alarmTime Desired alarm time in the regular time format.
 770:Generated_Source\PSoC4/RTC_1.c ****     *
 771:Generated_Source\PSoC4/RTC_1.c ****     * \param
 772:Generated_Source\PSoC4/RTC_1.c ****     *  alarmCfgMask The current Alarm Config Mask.
 773:Generated_Source\PSoC4/RTC_1.c ****     *
 774:Generated_Source\PSoC4/RTC_1.c ****     * \return
 775:Generated_Source\PSoC4/RTC_1.c ****     *  time of the first alarm in the UNIX format.
 776:Generated_Source\PSoC4/RTC_1.c ****     *
 777:Generated_Source\PSoC4/RTC_1.c ****     *******************************************************************************/
 778:Generated_Source\PSoC4/RTC_1.c ****     uint64 RTC_1_ConstructUnixAlarmTime(const RTC_1_DATE_TIME* alarmTime, uint8 alarmCfgMask)
 779:Generated_Source\PSoC4/RTC_1.c ****     {
 780:Generated_Source\PSoC4/RTC_1.c ****         uint32 tmpCurVal;
 781:Generated_Source\PSoC4/RTC_1.c ****         uint32 tmpNextVal;
 782:Generated_Source\PSoC4/RTC_1.c ****         uint32 carryFlag;
 783:Generated_Source\PSoC4/RTC_1.c ****         uint32 tmpAlarmDate;
 784:Generated_Source\PSoC4/RTC_1.c ****         uint32 tmpAlarmTime;
 785:Generated_Source\PSoC4/RTC_1.c ****         uint32 daysInMonth;
 786:Generated_Source\PSoC4/RTC_1.c ****         RTC_1_DATE_TIME curDateTime;
 787:Generated_Source\PSoC4/RTC_1.c **** 
 788:Generated_Source\PSoC4/RTC_1.c ****         tmpAlarmDate = 0u;
 789:Generated_Source\PSoC4/RTC_1.c ****         tmpAlarmTime = 0u;
 790:Generated_Source\PSoC4/RTC_1.c ****         RTC_1_UnixToDateTime(&curDateTime, RTC_1_unixTime, (uint32)RTC_1_24_HOURS_FORMAT);
 791:Generated_Source\PSoC4/RTC_1.c **** 
 792:Generated_Source\PSoC4/RTC_1.c ****         /* Calculates Seconds value of first Alarm based on current time and Alarm Config Mask. */
 793:Generated_Source\PSoC4/RTC_1.c ****         tmpCurVal =  RTC_1_GetSecond(curDateTime.time);
 794:Generated_Source\PSoC4/RTC_1.c ****         tmpNextVal = RTC_1_GetSecond(alarmTime->time);
 795:Generated_Source\PSoC4/RTC_1.c ****         carryFlag = (tmpCurVal > tmpNextVal) ? 1u : 0u;
 796:Generated_Source\PSoC4/RTC_1.c ****         if(0u != ((~((uint32)alarmCfgMask)) & RTC_1_ALARM_SEC_MASK))
 797:Generated_Source\PSoC4/RTC_1.c ****         {
 798:Generated_Source\PSoC4/RTC_1.c ****             tmpNextVal = (0u != carryFlag) ? 0u : tmpCurVal;
 799:Generated_Source\PSoC4/RTC_1.c ****         }
 800:Generated_Source\PSoC4/RTC_1.c ****         tmpAlarmTime = RTC_1_SetSecond(tmpAlarmTime, tmpNextVal);
 801:Generated_Source\PSoC4/RTC_1.c **** 
 802:Generated_Source\PSoC4/RTC_1.c ****         /* Calculates Minutes value of first Alarm based on current time and Alarm Config Mask. */
 803:Generated_Source\PSoC4/RTC_1.c ****         tmpCurVal  = RTC_1_GetMinutes(curDateTime.time);
 804:Generated_Source\PSoC4/RTC_1.c ****         if(0u != ((~((uint32)alarmCfgMask)) & RTC_1_ALARM_MIN_MASK))
 805:Generated_Source\PSoC4/RTC_1.c ****         {
 806:Generated_Source\PSoC4/RTC_1.c ****             tmpNextVal = (0u != carryFlag) ? RTC_1_GetNextMinSec(tmpCurVal) : tmpCurVal;
 807:Generated_Source\PSoC4/RTC_1.c ****         }
 808:Generated_Source\PSoC4/RTC_1.c ****         else
 809:Generated_Source\PSoC4/RTC_1.c ****         {
 810:Generated_Source\PSoC4/RTC_1.c ****             tmpNextVal = RTC_1_GetMinutes(alarmTime->time);
 811:Generated_Source\PSoC4/RTC_1.c ****         }
 812:Generated_Source\PSoC4/RTC_1.c ****         carryFlag  = (tmpNextVal < tmpCurVal) ? 1u : 0u;
 813:Generated_Source\PSoC4/RTC_1.c ****         tmpAlarmTime =  RTC_1_SetMinutes(tmpAlarmTime, tmpNextVal);
 814:Generated_Source\PSoC4/RTC_1.c **** 
 815:Generated_Source\PSoC4/RTC_1.c ****         /* Calculates Hours value of first Alarm based on current time and Alarm Config Mask. */
ARM GAS  C:\Users\corne\AppData\Local\Temp\ccR3s0rF.s 			page 18


 816:Generated_Source\PSoC4/RTC_1.c ****         tmpCurVal  = RTC_1_GetHours(curDateTime.time);
 817:Generated_Source\PSoC4/RTC_1.c ****         if(0u != ((~((uint32)alarmCfgMask)) & RTC_1_ALARM_HOUR_MASK))
 818:Generated_Source\PSoC4/RTC_1.c ****         {
 819:Generated_Source\PSoC4/RTC_1.c ****             tmpNextVal = (0u != carryFlag) ? RTC_1_GetNextHour(tmpCurVal) : tmpCurVal;
 820:Generated_Source\PSoC4/RTC_1.c ****         }
 821:Generated_Source\PSoC4/RTC_1.c ****         else
 822:Generated_Source\PSoC4/RTC_1.c ****         {
 823:Generated_Source\PSoC4/RTC_1.c ****             tmpNextVal = RTC_1_GetHours(alarmTime->time);
 824:Generated_Source\PSoC4/RTC_1.c ****             if((uint32)RTC_1_24_HOURS_FORMAT != RTC_1_GetTimeFormat(alarmTime->time))
 825:Generated_Source\PSoC4/RTC_1.c ****             {
 826:Generated_Source\PSoC4/RTC_1.c ****                 if((uint32)RTC_1_AM != RTC_1_GetAmPm(alarmTime->time))
 827:Generated_Source\PSoC4/RTC_1.c ****                 {
 828:Generated_Source\PSoC4/RTC_1.c ****                     tmpNextVal += RTC_1_HOURS_PER_HALF_DAY;
 829:Generated_Source\PSoC4/RTC_1.c ****                 }
 830:Generated_Source\PSoC4/RTC_1.c ****             }
 831:Generated_Source\PSoC4/RTC_1.c ****         }
 832:Generated_Source\PSoC4/RTC_1.c ****         carryFlag  = (tmpNextVal < tmpCurVal) ? 1u : 0u;
 833:Generated_Source\PSoC4/RTC_1.c ****         tmpAlarmTime =  RTC_1_SetHours(tmpAlarmTime, tmpNextVal);
 834:Generated_Source\PSoC4/RTC_1.c **** 
 835:Generated_Source\PSoC4/RTC_1.c ****         /* Calculates Day value of first Alarm based on current time and Alarm Config Mask. */
 836:Generated_Source\PSoC4/RTC_1.c ****         tmpCurVal  = RTC_1_GetDay(curDateTime.date);
 837:Generated_Source\PSoC4/RTC_1.c ****         tmpNextVal = RTC_1_GetDay(alarmTime->date);
 838:Generated_Source\PSoC4/RTC_1.c ****         if(0u != ((~((uint32)alarmCfgMask)) & RTC_1_ALARM_DAYOFMONTH_MASK))
 839:Generated_Source\PSoC4/RTC_1.c ****         {
 840:Generated_Source\PSoC4/RTC_1.c ****             if(0u != (alarmCfgMask & RTC_1_ALARM_DAYOFWEEK_MASK))
 841:Generated_Source\PSoC4/RTC_1.c ****             {
 842:Generated_Source\PSoC4/RTC_1.c ****                 daysInMonth = RTC_1_DaysInMonth(RTC_1_GetMonth(curDateTime.date),
 843:Generated_Source\PSoC4/RTC_1.c ****                                                            RTC_1_GetYear(curDateTime.date));
 844:Generated_Source\PSoC4/RTC_1.c ****                 tmpNextVal = (curDateTime.dayOfWeek <= alarmTime->dayOfWeek) ? (alarmTime->dayOfWee
 845:Generated_Source\PSoC4/RTC_1.c ****                                 ((RTC_1_DAYS_PER_WEEK - curDateTime.dayOfWeek) + alarmTime->dayOfWe
 846:Generated_Source\PSoC4/RTC_1.c ****                 tmpNextVal = tmpCurVal + tmpNextVal;
 847:Generated_Source\PSoC4/RTC_1.c ****                 tmpNextVal = (tmpNextVal > daysInMonth) ? (tmpNextVal - daysInMonth) : tmpNextVal;
 848:Generated_Source\PSoC4/RTC_1.c ****             }
 849:Generated_Source\PSoC4/RTC_1.c ****             else
 850:Generated_Source\PSoC4/RTC_1.c ****             {
 851:Generated_Source\PSoC4/RTC_1.c ****                 tmpNextVal = (0u == carryFlag) ? tmpCurVal : RTC_1_GetNextDay(RTC_1_GetYear(curDate
 852:Generated_Source\PSoC4/RTC_1.c ****                                                               RTC_1_GetMonth(curDateTime.date),
 853:Generated_Source\PSoC4/RTC_1.c ****                                                                tmpCurVal,
 854:Generated_Source\PSoC4/RTC_1.c ****                                                               RTC_1_ALARM_DAYOFMONTH_MASK);
 855:Generated_Source\PSoC4/RTC_1.c ****             }
 856:Generated_Source\PSoC4/RTC_1.c ****         }
 857:Generated_Source\PSoC4/RTC_1.c ****         carryFlag  = (tmpNextVal < tmpCurVal) ? 1u : 0u;
 858:Generated_Source\PSoC4/RTC_1.c ****         tmpAlarmDate =  RTC_1_SetDay(tmpAlarmDate, tmpNextVal);
 859:Generated_Source\PSoC4/RTC_1.c **** 
 860:Generated_Source\PSoC4/RTC_1.c ****         /* Calculates Month value of first Alarm based on current time and Alarm Config Mask. */
 861:Generated_Source\PSoC4/RTC_1.c ****         tmpCurVal  = RTC_1_GetMonth(curDateTime.date);
 862:Generated_Source\PSoC4/RTC_1.c ****         if(0u != ((~((uint32)alarmCfgMask)) & RTC_1_ALARM_MONTH_MASK))
 863:Generated_Source\PSoC4/RTC_1.c ****         {
 864:Generated_Source\PSoC4/RTC_1.c ****             tmpNextVal = (0u != carryFlag) ? RTC_1_GetNextMonth(tmpCurVal) : tmpCurVal;
 865:Generated_Source\PSoC4/RTC_1.c ****         }
 866:Generated_Source\PSoC4/RTC_1.c ****         else
 867:Generated_Source\PSoC4/RTC_1.c ****         {
 868:Generated_Source\PSoC4/RTC_1.c ****             tmpNextVal = RTC_1_GetMonth(alarmTime->date);
 869:Generated_Source\PSoC4/RTC_1.c ****         }
 870:Generated_Source\PSoC4/RTC_1.c ****         carryFlag  = (tmpNextVal < tmpCurVal) ? 1u : 0u;
 871:Generated_Source\PSoC4/RTC_1.c ****         tmpAlarmDate =  RTC_1_SetMonth(tmpAlarmDate, tmpNextVal);
 872:Generated_Source\PSoC4/RTC_1.c **** 
ARM GAS  C:\Users\corne\AppData\Local\Temp\ccR3s0rF.s 			page 19


 873:Generated_Source\PSoC4/RTC_1.c ****         /* Calculates Year value of first Alarm based on current time and Alarm Config Mask. */
 874:Generated_Source\PSoC4/RTC_1.c ****         tmpCurVal  = RTC_1_GetYear(curDateTime.date);
 875:Generated_Source\PSoC4/RTC_1.c ****         if(0u != ((~((uint32)alarmCfgMask)) & RTC_1_ALARM_MONTH_MASK))
 876:Generated_Source\PSoC4/RTC_1.c ****         {
 877:Generated_Source\PSoC4/RTC_1.c ****             tmpNextVal = (0u != carryFlag) ? RTC_1_GetNextYear(tmpCurVal) : tmpCurVal;
 878:Generated_Source\PSoC4/RTC_1.c ****         }
 879:Generated_Source\PSoC4/RTC_1.c ****         else
 880:Generated_Source\PSoC4/RTC_1.c ****         {
 881:Generated_Source\PSoC4/RTC_1.c ****             tmpNextVal = RTC_1_GetYear(alarmTime->date);
 882:Generated_Source\PSoC4/RTC_1.c ****         }
 883:Generated_Source\PSoC4/RTC_1.c ****         tmpAlarmDate =  RTC_1_SetYear(tmpAlarmDate, tmpNextVal);
 884:Generated_Source\PSoC4/RTC_1.c **** 
 885:Generated_Source\PSoC4/RTC_1.c ****         return(RTC_1_DateTimeToUnix(tmpAlarmDate, tmpAlarmTime));
 886:Generated_Source\PSoC4/RTC_1.c ****     }
 887:Generated_Source\PSoC4/RTC_1.c **** #endif/* (0u != RTC_1_INITIAL_ALARM_STATUS) */
 888:Generated_Source\PSoC4/RTC_1.c **** 
 889:Generated_Source\PSoC4/RTC_1.c **** 
 890:Generated_Source\PSoC4/RTC_1.c **** /*******************************************************************************
 891:Generated_Source\PSoC4/RTC_1.c **** * Function Name: RTC_1_ReadStatus
 892:Generated_Source\PSoC4/RTC_1.c **** ****************************************************************************//**
 893:Generated_Source\PSoC4/RTC_1.c **** *
 894:Generated_Source\PSoC4/RTC_1.c **** * \brief
 895:Generated_Source\PSoC4/RTC_1.c **** * Reads the Status software register, which has flags for DST (DST),
 896:Generated_Source\PSoC4/RTC_1.c **** * Leap Year (LY), AM/PM (AM_PM).
 897:Generated_Source\PSoC4/RTC_1.c **** *
 898:Generated_Source\PSoC4/RTC_1.c **** * \return
 899:Generated_Source\PSoC4/RTC_1.c **** * The values shown below are OR'ed and returned if more than one status
 900:Generated_Source\PSoC4/RTC_1.c **** * bits are set.
 901:Generated_Source\PSoC4/RTC_1.c **** *
 902:Generated_Source\PSoC4/RTC_1.c **** * \return
 903:Generated_Source\PSoC4/RTC_1.c **** * RTC_1_STATUS_DST - Status of Daylight Saving Time. This bit
 904:Generated_Source\PSoC4/RTC_1.c **** * goes high when the current time and date match the DST time and date and the 
 905:Generated_Source\PSoC4/RTC_1.c **** * time is incremented. This bit goes low after the DST interval and the time is 
 906:Generated_Source\PSoC4/RTC_1.c **** * decremented.
 907:Generated_Source\PSoC4/RTC_1.c **** *
 908:Generated_Source\PSoC4/RTC_1.c **** * \return
 909:Generated_Source\PSoC4/RTC_1.c **** * RTC_1_STATUS_LY - Status of Leap Year. This bit goes high when the 
 910:Generated_Source\PSoC4/RTC_1.c **** * current year is a leap year.
 911:Generated_Source\PSoC4/RTC_1.c **** *
 912:Generated_Source\PSoC4/RTC_1.c **** * \return
 913:Generated_Source\PSoC4/RTC_1.c **** * RTC_1_STATUS_AM_PM - Status of Current Time. This bit is low from 
 914:Generated_Source\PSoC4/RTC_1.c **** * midnight to noon and high from noon to midnight.
 915:Generated_Source\PSoC4/RTC_1.c **** *
 916:Generated_Source\PSoC4/RTC_1.c **** * \note
 917:Generated_Source\PSoC4/RTC_1.c **** * Reading the status without sync with the date and time read may cause an
 918:Generated_Source\PSoC4/RTC_1.c **** * error due to a roll-over at AM/PM, the end of a year, the end of a day;
 919:Generated_Source\PSoC4/RTC_1.c **** * RTC_1_GetDateAndTime() API is used to obtain the status and
 920:Generated_Source\PSoC4/RTC_1.c **** * the status member of the returned structure can be checked with the masks.
 921:Generated_Source\PSoC4/RTC_1.c **** *
 922:Generated_Source\PSoC4/RTC_1.c **** *******************************************************************************/
 923:Generated_Source\PSoC4/RTC_1.c **** uint32 RTC_1_ReadStatus(void)
 924:Generated_Source\PSoC4/RTC_1.c **** {
 925:Generated_Source\PSoC4/RTC_1.c ****     uint32 tmpYear;
 926:Generated_Source\PSoC4/RTC_1.c ****     RTC_1_DATE_TIME tmpTimeDate;
 927:Generated_Source\PSoC4/RTC_1.c **** 
 928:Generated_Source\PSoC4/RTC_1.c ****     RTC_1_GetDateAndTime(&tmpTimeDate);
 929:Generated_Source\PSoC4/RTC_1.c ****     tmpYear = RTC_1_GetYear(tmpTimeDate.date);
ARM GAS  C:\Users\corne\AppData\Local\Temp\ccR3s0rF.s 			page 20


 930:Generated_Source\PSoC4/RTC_1.c **** 
 931:Generated_Source\PSoC4/RTC_1.c ****     if(0uL != RTC_1_LeapYear(tmpYear))
 932:Generated_Source\PSoC4/RTC_1.c ****     {
 933:Generated_Source\PSoC4/RTC_1.c ****         RTC_1_currentTimeDate.status |= (1uL << RTC_1_STATUS_LY_OFFSET);
 934:Generated_Source\PSoC4/RTC_1.c ****     }
 935:Generated_Source\PSoC4/RTC_1.c ****     else
 936:Generated_Source\PSoC4/RTC_1.c ****     {
 937:Generated_Source\PSoC4/RTC_1.c ****         RTC_1_currentTimeDate.status &= ~(1uL << RTC_1_STATUS_LY_OFFSET);
 938:Generated_Source\PSoC4/RTC_1.c ****     }
 939:Generated_Source\PSoC4/RTC_1.c **** 
 940:Generated_Source\PSoC4/RTC_1.c **** 
 941:Generated_Source\PSoC4/RTC_1.c ****     if(0uL != RTC_1_GetAmPm(tmpTimeDate.time))
 942:Generated_Source\PSoC4/RTC_1.c ****     {
 943:Generated_Source\PSoC4/RTC_1.c ****         RTC_1_currentTimeDate.status |= (1uL << RTC_1_STATUS_AM_PM_OFFSET);
 944:Generated_Source\PSoC4/RTC_1.c ****     }
 945:Generated_Source\PSoC4/RTC_1.c ****     else
 946:Generated_Source\PSoC4/RTC_1.c ****     {
 947:Generated_Source\PSoC4/RTC_1.c ****         RTC_1_currentTimeDate.status &= ~(1uL << RTC_1_STATUS_AM_PM_OFFSET);
 948:Generated_Source\PSoC4/RTC_1.c ****     }
 949:Generated_Source\PSoC4/RTC_1.c **** 
 950:Generated_Source\PSoC4/RTC_1.c ****     return(RTC_1_currentTimeDate.status);
 951:Generated_Source\PSoC4/RTC_1.c **** }
 952:Generated_Source\PSoC4/RTC_1.c **** 
 953:Generated_Source\PSoC4/RTC_1.c **** 
 954:Generated_Source\PSoC4/RTC_1.c **** #if(0u != RTC_1_INITIAL_DST_STATUS)
 955:Generated_Source\PSoC4/RTC_1.c ****     /*******************************************************************************
 956:Generated_Source\PSoC4/RTC_1.c ****     * Function Name: RTC_1_SetDSTStartTime
 957:Generated_Source\PSoC4/RTC_1.c ****     ****************************************************************************//**
 958:Generated_Source\PSoC4/RTC_1.c ****     *
 959:Generated_Source\PSoC4/RTC_1.c ****     * \brief
 960:Generated_Source\PSoC4/RTC_1.c ****     *  Stores the DST Start time.
 961:Generated_Source\PSoC4/RTC_1.c ****     *
 962:Generated_Source\PSoC4/RTC_1.c ****     *  Only generated if DST is enabled. The date passed can be relative or fixed. 
 963:Generated_Source\PSoC4/RTC_1.c ****     *  For a relative date, the user needs to provide a valid day of a week, a 
 964:Generated_Source\PSoC4/RTC_1.c ****     *  week of a month and a month in the dstStartTime structure.
 965:Generated_Source\PSoC4/RTC_1.c ****     *  For a fixed date, the user needs to enter a valid day of a month and a month in
 966:Generated_Source\PSoC4/RTC_1.c ****     *  the dstStartTime structure. The hour value is optional and if invalid
 967:Generated_Source\PSoC4/RTC_1.c ****     *  taken as 00 hrs. Invalid entries are not stored and the DST start date
 968:Generated_Source\PSoC4/RTC_1.c ****     *  retains a previous value or no value at all.
 969:Generated_Source\PSoC4/RTC_1.c ****     *
 970:Generated_Source\PSoC4/RTC_1.c ****     * \param
 971:Generated_Source\PSoC4/RTC_1.c ****     *  dstStartTime The DST Start time register value.
 972:Generated_Source\PSoC4/RTC_1.c ****     *
 973:Generated_Source\PSoC4/RTC_1.c ****     * \param
 974:Generated_Source\PSoC4/RTC_1.c ****     *  type Defines the DST operation mode <br>
 975:Generated_Source\PSoC4/RTC_1.c ****     *  DST_DATE_RELATIVE - The DST start time is relative. <br>
 976:Generated_Source\PSoC4/RTC_1.c ****     *  DST_DATE_FIXED - The DST start time is fixed.
 977:Generated_Source\PSoC4/RTC_1.c ****     *
 978:Generated_Source\PSoC4/RTC_1.c ****     *******************************************************************************/
 979:Generated_Source\PSoC4/RTC_1.c ****     void RTC_1_SetDSTStartTime(const RTC_1_DST_TIME* dstStartTime,
 980:Generated_Source\PSoC4/RTC_1.c ****                                                 RTC_1_DST_DATETYPE_ENUM type)
 981:Generated_Source\PSoC4/RTC_1.c ****     {
 982:Generated_Source\PSoC4/RTC_1.c ****         RTC_1_dstStartTime.timeFormat    = (uint8)type;
 983:Generated_Source\PSoC4/RTC_1.c ****         RTC_1_dstStartTime.hour          = dstStartTime->hour;
 984:Generated_Source\PSoC4/RTC_1.c ****         RTC_1_dstStartTime.dayOfWeek     = dstStartTime->dayOfWeek;
 985:Generated_Source\PSoC4/RTC_1.c ****         RTC_1_dstStartTime.weekOfMonth   = dstStartTime->weekOfMonth;
 986:Generated_Source\PSoC4/RTC_1.c ****         RTC_1_dstStartTime.dayOfMonth    = dstStartTime->dayOfMonth;
ARM GAS  C:\Users\corne\AppData\Local\Temp\ccR3s0rF.s 			page 21


 987:Generated_Source\PSoC4/RTC_1.c ****         RTC_1_dstStartTime.month         = dstStartTime->month;
 988:Generated_Source\PSoC4/RTC_1.c **** 
 989:Generated_Source\PSoC4/RTC_1.c ****         RTC_1_unixTimeDstStart = RTC_1_GetDstUnixTime(&RTC_1_dstStartTime);
 990:Generated_Source\PSoC4/RTC_1.c **** 
 991:Generated_Source\PSoC4/RTC_1.c ****         if((RTC_1_unixTime >= RTC_1_unixTimeDstStart) &&
 992:Generated_Source\PSoC4/RTC_1.c ****            (RTC_1_unixTime <= RTC_1_unixTimeDstStop))
 993:Generated_Source\PSoC4/RTC_1.c ****         {
 994:Generated_Source\PSoC4/RTC_1.c ****             RTC_1_dstStatus = 1u;
 995:Generated_Source\PSoC4/RTC_1.c ****             RTC_1_dstTimeOffset = RTC_1_SECONDS_PER_HOUR;
 996:Generated_Source\PSoC4/RTC_1.c ****         }
 997:Generated_Source\PSoC4/RTC_1.c ****         else
 998:Generated_Source\PSoC4/RTC_1.c ****         {
 999:Generated_Source\PSoC4/RTC_1.c ****             RTC_1_dstStatus = 0u;
1000:Generated_Source\PSoC4/RTC_1.c ****             RTC_1_dstTimeOffset = 0uL;
1001:Generated_Source\PSoC4/RTC_1.c ****         }
1002:Generated_Source\PSoC4/RTC_1.c ****     }
1003:Generated_Source\PSoC4/RTC_1.c **** 
1004:Generated_Source\PSoC4/RTC_1.c **** 
1005:Generated_Source\PSoC4/RTC_1.c ****     /*******************************************************************************
1006:Generated_Source\PSoC4/RTC_1.c ****     * Function Name: RTC_1_SetDSTStopTime
1007:Generated_Source\PSoC4/RTC_1.c ****     ****************************************************************************//**
1008:Generated_Source\PSoC4/RTC_1.c ****     *
1009:Generated_Source\PSoC4/RTC_1.c ****     * \brief
1010:Generated_Source\PSoC4/RTC_1.c ****     *  Stores the DST Stop time.
1011:Generated_Source\PSoC4/RTC_1.c ****     * 
1012:Generated_Source\PSoC4/RTC_1.c ****     *  Only generated if DST is enabled. The date passed can be relative or fixed. 
1013:Generated_Source\PSoC4/RTC_1.c ****     *  For a relative date, the user needs to provide a valid day of a week, a week 
1014:Generated_Source\PSoC4/RTC_1.c ****     *  of a month and a month in the dstStopTime structure.
1015:Generated_Source\PSoC4/RTC_1.c ****     *  For a fixed date, the user needs to enter a valid day of a month and a month in the
1016:Generated_Source\PSoC4/RTC_1.c ****     *  dstSoptTime structure. The hour value is optional and if invalid taken
1017:Generated_Source\PSoC4/RTC_1.c ****     *  as 00 hrs. Invalid entries are not stored and the DST start date retains
1018:Generated_Source\PSoC4/RTC_1.c ****     *  a previous value or no value at all.
1019:Generated_Source\PSoC4/RTC_1.c ****     *
1020:Generated_Source\PSoC4/RTC_1.c ****     * \param
1021:Generated_Source\PSoC4/RTC_1.c ****     *  dstStopTime DST Stop time register values.
1022:Generated_Source\PSoC4/RTC_1.c ****     *
1023:Generated_Source\PSoC4/RTC_1.c ****     * \param
1024:Generated_Source\PSoC4/RTC_1.c ****     *  type Defines the DST operation mode <br>
1025:Generated_Source\PSoC4/RTC_1.c ****     *  DST_DATE_RELATIVE - The DST start time is relative. <br>
1026:Generated_Source\PSoC4/RTC_1.c ****     *  DST_DATE_FIXED - The DST start time is fixed.
1027:Generated_Source\PSoC4/RTC_1.c ****     *
1028:Generated_Source\PSoC4/RTC_1.c ****     *******************************************************************************/
1029:Generated_Source\PSoC4/RTC_1.c ****     void RTC_1_SetDSTStopTime(const RTC_1_DST_TIME* dstStopTime,
1030:Generated_Source\PSoC4/RTC_1.c ****                                                RTC_1_DST_DATETYPE_ENUM type)
1031:Generated_Source\PSoC4/RTC_1.c ****     {
1032:Generated_Source\PSoC4/RTC_1.c **** 
1033:Generated_Source\PSoC4/RTC_1.c ****         RTC_1_dstStopTime.timeFormat  = (uint8)type;
1034:Generated_Source\PSoC4/RTC_1.c ****         RTC_1_dstStopTime.hour           = dstStopTime->hour;
1035:Generated_Source\PSoC4/RTC_1.c ****         RTC_1_dstStopTime.dayOfWeek      = dstStopTime->dayOfWeek;
1036:Generated_Source\PSoC4/RTC_1.c ****         RTC_1_dstStopTime.weekOfMonth = dstStopTime->weekOfMonth;
1037:Generated_Source\PSoC4/RTC_1.c ****         RTC_1_dstStopTime.dayOfMonth     = dstStopTime->dayOfMonth;
1038:Generated_Source\PSoC4/RTC_1.c ****         RTC_1_dstStopTime.month         = dstStopTime->month;
1039:Generated_Source\PSoC4/RTC_1.c **** 
1040:Generated_Source\PSoC4/RTC_1.c ****         RTC_1_unixTimeDstStop  = RTC_1_GetDstUnixTime(&RTC_1_dstStopTime);
1041:Generated_Source\PSoC4/RTC_1.c **** 
1042:Generated_Source\PSoC4/RTC_1.c ****         if((RTC_1_unixTime >= RTC_1_unixTimeDstStart) &&
1043:Generated_Source\PSoC4/RTC_1.c ****            (RTC_1_unixTime <= RTC_1_unixTimeDstStop))
ARM GAS  C:\Users\corne\AppData\Local\Temp\ccR3s0rF.s 			page 22


1044:Generated_Source\PSoC4/RTC_1.c ****         {
1045:Generated_Source\PSoC4/RTC_1.c ****             RTC_1_dstStatus = 1u;
1046:Generated_Source\PSoC4/RTC_1.c ****             RTC_1_dstTimeOffset = RTC_1_SECONDS_PER_HOUR;
1047:Generated_Source\PSoC4/RTC_1.c ****         }
1048:Generated_Source\PSoC4/RTC_1.c ****         else
1049:Generated_Source\PSoC4/RTC_1.c ****         {
1050:Generated_Source\PSoC4/RTC_1.c ****             RTC_1_dstStatus = 0u;
1051:Generated_Source\PSoC4/RTC_1.c ****             RTC_1_dstTimeOffset = 0uL;
1052:Generated_Source\PSoC4/RTC_1.c ****         }
1053:Generated_Source\PSoC4/RTC_1.c ****     }
1054:Generated_Source\PSoC4/RTC_1.c **** 
1055:Generated_Source\PSoC4/RTC_1.c **** 
1056:Generated_Source\PSoC4/RTC_1.c ****     /*******************************************************************************
1057:Generated_Source\PSoC4/RTC_1.c ****     * Function Name: RTC_1_GetDstUnixTime
1058:Generated_Source\PSoC4/RTC_1.c ****     ****************************************************************************//**
1059:Generated_Source\PSoC4/RTC_1.c ****     *
1060:Generated_Source\PSoC4/RTC_1.c ****     * \brief
1061:Generated_Source\PSoC4/RTC_1.c ****     *  Calculates the DST Start/Stop time in the UNIX format.
1062:Generated_Source\PSoC4/RTC_1.c ****     *
1063:Generated_Source\PSoC4/RTC_1.c ****     * \param
1064:Generated_Source\PSoC4/RTC_1.c ****     *  dstTime The DST Start/Stop time in the regular time format.
1065:Generated_Source\PSoC4/RTC_1.c ****     *
1066:Generated_Source\PSoC4/RTC_1.c ****     * \return
1067:Generated_Source\PSoC4/RTC_1.c ****     *  The DST Start/Stop time in the UNIX format.
1068:Generated_Source\PSoC4/RTC_1.c ****     *
1069:Generated_Source\PSoC4/RTC_1.c ****     *******************************************************************************/
1070:Generated_Source\PSoC4/RTC_1.c ****     uint64 RTC_1_GetDstUnixTime(const RTC_1_DST_TIME* dstTime)
1071:Generated_Source\PSoC4/RTC_1.c ****     {
1072:Generated_Source\PSoC4/RTC_1.c ****         uint32 tmpYear;
1073:Generated_Source\PSoC4/RTC_1.c ****         uint32 tmpDate;
1074:Generated_Source\PSoC4/RTC_1.c ****         uint64 dstUnixTime;
1075:Generated_Source\PSoC4/RTC_1.c **** 
1076:Generated_Source\PSoC4/RTC_1.c ****         RTC_1_DATE_TIME tmpTimeDate;
1077:Generated_Source\PSoC4/RTC_1.c **** 
1078:Generated_Source\PSoC4/RTC_1.c ****         RTC_1_UnixToDateTime(&tmpTimeDate, RTC_1_unixTime, RTC_1_INITIAL_TIME_FORMAT);
1079:Generated_Source\PSoC4/RTC_1.c ****         tmpYear = RTC_1_GetYear(tmpTimeDate.date);
1080:Generated_Source\PSoC4/RTC_1.c **** 
1081:Generated_Source\PSoC4/RTC_1.c ****         if(dstTime->timeFormat == (uint8)RTC_1_DST_DATE_FIXED)
1082:Generated_Source\PSoC4/RTC_1.c ****         {
1083:Generated_Source\PSoC4/RTC_1.c ****             tmpDate =     RTC_1_ConstructDate(dstTime->month, dstTime->dayOfMonth, tmpYear);
1084:Generated_Source\PSoC4/RTC_1.c ****         }
1085:Generated_Source\PSoC4/RTC_1.c ****         else
1086:Generated_Source\PSoC4/RTC_1.c ****         {
1087:Generated_Source\PSoC4/RTC_1.c ****             tmpDate = RTC_1_RelativeToFixed(dstTime->dayOfWeek, dstTime->weekOfMonth, dstTime->mont
1088:Generated_Source\PSoC4/RTC_1.c ****         }
1089:Generated_Source\PSoC4/RTC_1.c **** 
1090:Generated_Source\PSoC4/RTC_1.c ****         tmpTimeDate.time = RTC_1_ConstructTime((uint32)RTC_1_24_HOURS_FORMAT, 0u, dstTime->hour, 0u
1091:Generated_Source\PSoC4/RTC_1.c ****         dstUnixTime = RTC_1_DateTimeToUnix(tmpDate, tmpTimeDate.time);
1092:Generated_Source\PSoC4/RTC_1.c **** 
1093:Generated_Source\PSoC4/RTC_1.c ****         return(dstUnixTime);
1094:Generated_Source\PSoC4/RTC_1.c ****     }
1095:Generated_Source\PSoC4/RTC_1.c **** 
1096:Generated_Source\PSoC4/RTC_1.c **** 
1097:Generated_Source\PSoC4/RTC_1.c **** #endif /* (0u != RTC_1_INITIAL_DST_STATUS) */
1098:Generated_Source\PSoC4/RTC_1.c **** 
1099:Generated_Source\PSoC4/RTC_1.c **** 
1100:Generated_Source\PSoC4/RTC_1.c **** /*******************************************************************************
ARM GAS  C:\Users\corne\AppData\Local\Temp\ccR3s0rF.s 			page 23


1101:Generated_Source\PSoC4/RTC_1.c **** * Function Name: RTC_1_ConvertBCDToDec
1102:Generated_Source\PSoC4/RTC_1.c **** ****************************************************************************//**
1103:Generated_Source\PSoC4/RTC_1.c **** *
1104:Generated_Source\PSoC4/RTC_1.c **** * \brief
1105:Generated_Source\PSoC4/RTC_1.c **** *  Converts a 4-byte BCD number into a 4-byte hexadecimal number. Each byte is
1106:Generated_Source\PSoC4/RTC_1.c **** *  converted individually and returned as an individual byte in the 32-bit
1107:Generated_Source\PSoC4/RTC_1.c **** *  variable.
1108:Generated_Source\PSoC4/RTC_1.c **** *
1109:Generated_Source\PSoC4/RTC_1.c **** * \param
1110:Generated_Source\PSoC4/RTC_1.c **** *  bcdNum A 4-byte BCD number. Each byte represents BCD.
1111:Generated_Source\PSoC4/RTC_1.c **** *  0x11223344 -> 4 bytes 0x11, 0x22, 0x33 and 0x44 the in BCD format.
1112:Generated_Source\PSoC4/RTC_1.c **** *
1113:Generated_Source\PSoC4/RTC_1.c **** * \return
1114:Generated_Source\PSoC4/RTC_1.c **** *  decNum A 4-byte hexadecimal equivalent number of the BCD number.
1115:Generated_Source\PSoC4/RTC_1.c **** *  BCD number 0x11223344 -> returned hexadecimal number 0x0B16212C.
1116:Generated_Source\PSoC4/RTC_1.c **** *
1117:Generated_Source\PSoC4/RTC_1.c **** *******************************************************************************/
1118:Generated_Source\PSoC4/RTC_1.c **** uint32 RTC_1_ConvertBCDToDec(uint32 bcdNum)
1119:Generated_Source\PSoC4/RTC_1.c **** {
 155              		.loc 1 1119 0
 156              		.cfi_startproc
 157              		@ args = 0, pretend = 0, frame = 0
 158              		@ frame_needed = 0, uses_anonymous_args = 0
 159              	.LVL1:
 160 0000 10B5     		push	{r4, lr}
 161              		.cfi_def_cfa_offset 8
 162              		.cfi_offset 4, -8
 163              		.cfi_offset 14, -4
 164              	.LVL2:
1120:Generated_Source\PSoC4/RTC_1.c ****     uint32 i;
1121:Generated_Source\PSoC4/RTC_1.c ****     uint32 mult;
1122:Generated_Source\PSoC4/RTC_1.c ****     uint32 retVal;
1123:Generated_Source\PSoC4/RTC_1.c **** 
1124:Generated_Source\PSoC4/RTC_1.c ****     mult   = 1u;
1125:Generated_Source\PSoC4/RTC_1.c ****     retVal = 0u;
 165              		.loc 1 1125 0
 166 0002 0024     		movs	r4, #0
1124:Generated_Source\PSoC4/RTC_1.c ****     retVal = 0u;
 167              		.loc 1 1124 0
 168 0004 0123     		movs	r3, #1
1126:Generated_Source\PSoC4/RTC_1.c **** 
1127:Generated_Source\PSoC4/RTC_1.c ****     for(i = 0u; i < 16u; i++)
 169              		.loc 1 1127 0
 170 0006 0021     		movs	r1, #0
 171 0008 09E0     		b	.L15
 172              	.LVL3:
 173              	.L16:
1128:Generated_Source\PSoC4/RTC_1.c ****     {
1129:Generated_Source\PSoC4/RTC_1.c ****         retVal += (bcdNum & RTC_1_BCD_ONE_DIGIT_MASK) * mult;
 174              		.loc 1 1129 0 discriminator 3
 175 000a 0F22     		movs	r2, #15
 176 000c 0240     		ands	r2, r0
 177 000e 5A43     		muls	r2, r3
 178 0010 A418     		adds	r4, r4, r2
 179              	.LVL4:
1130:Generated_Source\PSoC4/RTC_1.c ****         bcdNum >>= RTC_1_BCD_NUMBER_SIZE;
 180              		.loc 1 1130 0 discriminator 3
ARM GAS  C:\Users\corne\AppData\Local\Temp\ccR3s0rF.s 			page 24


 181 0012 0009     		lsrs	r0, r0, #4
 182              	.LVL5:
1131:Generated_Source\PSoC4/RTC_1.c ****         mult *= 10u;
 183              		.loc 1 1131 0 discriminator 3
 184 0014 9A00     		lsls	r2, r3, #2
 185 0016 D318     		adds	r3, r2, r3
 186              	.LVL6:
 187 0018 5A00     		lsls	r2, r3, #1
 188 001a 1300     		movs	r3, r2
 189              	.LVL7:
1127:Generated_Source\PSoC4/RTC_1.c ****     {
 190              		.loc 1 1127 0 discriminator 3
 191 001c 0131     		adds	r1, r1, #1
 192              	.LVL8:
 193              	.L15:
1127:Generated_Source\PSoC4/RTC_1.c ****     {
 194              		.loc 1 1127 0 is_stmt 0 discriminator 1
 195 001e 0F29     		cmp	r1, #15
 196 0020 F3D9     		bls	.L16
1132:Generated_Source\PSoC4/RTC_1.c ****     }
1133:Generated_Source\PSoC4/RTC_1.c **** 
1134:Generated_Source\PSoC4/RTC_1.c ****     return(retVal);
1135:Generated_Source\PSoC4/RTC_1.c **** }
 197              		.loc 1 1135 0 is_stmt 1
 198 0022 2000     		movs	r0, r4
 199              	.LVL9:
 200              		@ sp needed
 201              	.LVL10:
 202 0024 10BD     		pop	{r4, pc}
 203              		.cfi_endproc
 204              	.LFE40:
 205              		.size	RTC_1_ConvertBCDToDec, .-RTC_1_ConvertBCDToDec
 206              		.global	__aeabi_uidivmod
 207              		.global	__aeabi_uidiv
 208 0026 C046     		.section	.text.RTC_1_ConvertDecToBCD,"ax",%progbits
 209              		.align	2
 210              		.global	RTC_1_ConvertDecToBCD
 211              		.code	16
 212              		.thumb_func
 213              		.type	RTC_1_ConvertDecToBCD, %function
 214              	RTC_1_ConvertDecToBCD:
 215              	.LFB41:
1136:Generated_Source\PSoC4/RTC_1.c **** 
1137:Generated_Source\PSoC4/RTC_1.c **** 
1138:Generated_Source\PSoC4/RTC_1.c **** /*******************************************************************************
1139:Generated_Source\PSoC4/RTC_1.c **** * Function Name: RTC_1_ConvertDecToBCD
1140:Generated_Source\PSoC4/RTC_1.c **** ****************************************************************************//**
1141:Generated_Source\PSoC4/RTC_1.c **** *
1142:Generated_Source\PSoC4/RTC_1.c **** * \brief
1143:Generated_Source\PSoC4/RTC_1.c **** *  Converts a 4-byte hexadecimal number into a 4-byte BCD number. Each byte
1144:Generated_Source\PSoC4/RTC_1.c **** *  is converted individually and returned as an individual byte in the 32-bit
1145:Generated_Source\PSoC4/RTC_1.c **** *  variable.
1146:Generated_Source\PSoC4/RTC_1.c **** *
1147:Generated_Source\PSoC4/RTC_1.c **** * \param 
1148:Generated_Source\PSoC4/RTC_1.c **** *  decNum A 4-byte hexadecimal number. Each byte is represented in hex.
1149:Generated_Source\PSoC4/RTC_1.c **** *  0x11223344 -> 4 bytes 0x11, 0x22, 0x33 and 0x44 in the hex format.
1150:Generated_Source\PSoC4/RTC_1.c **** *
ARM GAS  C:\Users\corne\AppData\Local\Temp\ccR3s0rF.s 			page 25


1151:Generated_Source\PSoC4/RTC_1.c **** * \return
1152:Generated_Source\PSoC4/RTC_1.c **** *  bcdNum - A 4-byte BCD equivalent of the passed hexadecimal number. Hexadecimal
1153:Generated_Source\PSoC4/RTC_1.c **** *  number 0x11223344 -> returned BCD number 0x17345168.
1154:Generated_Source\PSoC4/RTC_1.c **** *
1155:Generated_Source\PSoC4/RTC_1.c **** *******************************************************************************/
1156:Generated_Source\PSoC4/RTC_1.c **** uint32 RTC_1_ConvertDecToBCD(uint32 decNum)
1157:Generated_Source\PSoC4/RTC_1.c **** {
 216              		.loc 1 1157 0
 217              		.cfi_startproc
 218              		@ args = 0, pretend = 0, frame = 0
 219              		@ frame_needed = 0, uses_anonymous_args = 0
 220              	.LVL11:
 221 0000 70B5     		push	{r4, r5, r6, lr}
 222              		.cfi_def_cfa_offset 16
 223              		.cfi_offset 4, -16
 224              		.cfi_offset 5, -12
 225              		.cfi_offset 6, -8
 226              		.cfi_offset 14, -4
 227 0002 0400     		movs	r4, r0
 228              	.LVL12:
1158:Generated_Source\PSoC4/RTC_1.c ****     uint32 shift;
1159:Generated_Source\PSoC4/RTC_1.c ****     uint32 tmpVal;
1160:Generated_Source\PSoC4/RTC_1.c ****     uint32 retVal;
1161:Generated_Source\PSoC4/RTC_1.c **** 
1162:Generated_Source\PSoC4/RTC_1.c ****     shift  = 0u;
1163:Generated_Source\PSoC4/RTC_1.c ****     retVal = 0u;
 229              		.loc 1 1163 0
 230 0004 0026     		movs	r6, #0
1162:Generated_Source\PSoC4/RTC_1.c ****     retVal = 0u;
 231              		.loc 1 1162 0
 232 0006 0025     		movs	r5, #0
 233              	.LVL13:
 234              	.L18:
1164:Generated_Source\PSoC4/RTC_1.c ****     tmpVal = decNum;
1165:Generated_Source\PSoC4/RTC_1.c **** 
1166:Generated_Source\PSoC4/RTC_1.c ****     do
1167:Generated_Source\PSoC4/RTC_1.c ****     {
1168:Generated_Source\PSoC4/RTC_1.c ****         retVal |= ((tmpVal % 10u) << shift);
 235              		.loc 1 1168 0 discriminator 1
 236 0008 0A21     		movs	r1, #10
 237 000a 2000     		movs	r0, r4
 238 000c FFF7FEFF 		bl	__aeabi_uidivmod
 239              	.LVL14:
 240 0010 A940     		lsls	r1, r1, r5
 241 0012 0E43     		orrs	r6, r1
 242              	.LVL15:
1169:Generated_Source\PSoC4/RTC_1.c ****         tmpVal /= 10u;
 243              		.loc 1 1169 0 discriminator 1
 244 0014 0A21     		movs	r1, #10
 245 0016 2000     		movs	r0, r4
 246 0018 FFF7FEFF 		bl	__aeabi_uidiv
 247              	.LVL16:
 248 001c 0400     		movs	r4, r0
 249              	.LVL17:
1170:Generated_Source\PSoC4/RTC_1.c ****         shift  += RTC_1_BCD_NUMBER_SIZE;
 250              		.loc 1 1170 0 discriminator 1
 251 001e 0435     		adds	r5, r5, #4
ARM GAS  C:\Users\corne\AppData\Local\Temp\ccR3s0rF.s 			page 26


 252              	.LVL18:
1171:Generated_Source\PSoC4/RTC_1.c ****     }
1172:Generated_Source\PSoC4/RTC_1.c ****     while(tmpVal >= 10u);
 253              		.loc 1 1172 0 discriminator 1
 254 0020 0928     		cmp	r0, #9
 255 0022 F1D8     		bhi	.L18
1173:Generated_Source\PSoC4/RTC_1.c **** 
1174:Generated_Source\PSoC4/RTC_1.c ****     retVal |= (tmpVal << shift);
 256              		.loc 1 1174 0
 257 0024 A840     		lsls	r0, r0, r5
 258              	.LVL19:
 259 0026 3043     		orrs	r0, r6
 260              	.LVL20:
1175:Generated_Source\PSoC4/RTC_1.c **** 
1176:Generated_Source\PSoC4/RTC_1.c ****     return(retVal);
1177:Generated_Source\PSoC4/RTC_1.c **** }
 261              		.loc 1 1177 0
 262              		@ sp needed
 263              	.LVL21:
 264              	.LVL22:
 265 0028 70BD     		pop	{r4, r5, r6, pc}
 266              		.cfi_endproc
 267              	.LFE41:
 268              		.size	RTC_1_ConvertDecToBCD, .-RTC_1_ConvertDecToBCD
 269 002a C046     		.section	.text.RTC_1_Update,"ax",%progbits
 270              		.align	2
 271              		.global	RTC_1_Update
 272              		.code	16
 273              		.thumb_func
 274              		.type	RTC_1_Update, %function
 275              	RTC_1_Update:
 276              	.LFB42:
1178:Generated_Source\PSoC4/RTC_1.c **** 
1179:Generated_Source\PSoC4/RTC_1.c **** 
1180:Generated_Source\PSoC4/RTC_1.c **** /*******************************************************************************
1181:Generated_Source\PSoC4/RTC_1.c **** * Function Name: RTC_1_Update
1182:Generated_Source\PSoC4/RTC_1.c **** ****************************************************************************//**
1183:Generated_Source\PSoC4/RTC_1.c **** *
1184:Generated_Source\PSoC4/RTC_1.c **** * \brief
1185:Generated_Source\PSoC4/RTC_1.c **** *  This API updates the time registers and performs alarm/DST check.
1186:Generated_Source\PSoC4/RTC_1.c **** *
1187:Generated_Source\PSoC4/RTC_1.c **** *  This function increments the time/date registers by an input clock period.
1188:Generated_Source\PSoC4/RTC_1.c **** *  The period is set by RTC_SetPeriod() API or WDT period selected for RTC
1189:Generated_Source\PSoC4/RTC_1.c **** *  in the clocks configuration window (low frequency clocks tab) interface
1190:Generated_Source\PSoC4/RTC_1.c **** *  every time it is called.
1191:Generated_Source\PSoC4/RTC_1.c **** *
1192:Generated_Source\PSoC4/RTC_1.c **** *  API is automatically mapped to the WDT's callback slot and period if the
1193:Generated_Source\PSoC4/RTC_1.c **** *  configuration is as follows: 1) Option "Implement RTC update manually" in
1194:Generated_Source\PSoC4/RTC_1.c **** *  the customizer is unchecked 2) One of WDTs is selected in the "Use for RTC"
1195:Generated_Source\PSoC4/RTC_1.c **** *  panel of the low frequency clocks tab 3) Option "Implementation by IDE" is
1196:Generated_Source\PSoC4/RTC_1.c **** *  selected in the "Timer (WDT) ISR" panel.
1197:Generated_Source\PSoC4/RTC_1.c **** *
1198:Generated_Source\PSoC4/RTC_1.c **** *  If option "Implement RTC update manually" is checked in the customizer or
1199:Generated_Source\PSoC4/RTC_1.c **** *  option "None" is selected in the "Use for RTC" panel,it is the user's
1200:Generated_Source\PSoC4/RTC_1.c **** *  responsibility: 1) to call this API from the clock ISR to be
1201:Generated_Source\PSoC4/RTC_1.c **** *  used as the RTC's input 2) set the period of the RTC through
1202:Generated_Source\PSoC4/RTC_1.c **** *  RTC_SetPeriod() API.
ARM GAS  C:\Users\corne\AppData\Local\Temp\ccR3s0rF.s 			page 27


1203:Generated_Source\PSoC4/RTC_1.c **** *
1204:Generated_Source\PSoC4/RTC_1.c **** * \note Updates the Unix time register, updates the alarm and DST status.
1205:Generated_Source\PSoC4/RTC_1.c **** *
1206:Generated_Source\PSoC4/RTC_1.c **** *******************************************************************************/
1207:Generated_Source\PSoC4/RTC_1.c **** void RTC_1_Update(void)
1208:Generated_Source\PSoC4/RTC_1.c **** {
 277              		.loc 1 1208 0
 278              		.cfi_startproc
 279              		@ args = 0, pretend = 0, frame = 0
 280              		@ frame_needed = 0, uses_anonymous_args = 0
 281 0000 30B5     		push	{r4, r5, lr}
 282              		.cfi_def_cfa_offset 12
 283              		.cfi_offset 4, -12
 284              		.cfi_offset 5, -8
 285              		.cfi_offset 14, -4
1209:Generated_Source\PSoC4/RTC_1.c ****     static volatile uint32 RTC_1_currentTickNumber;
1210:Generated_Source\PSoC4/RTC_1.c ****     RTC_1_currentTickNumber += RTC_1_updateTimePeriod;
 286              		.loc 1 1210 0
 287 0002 0B4B     		ldr	r3, .L21
 288 0004 9A68     		ldr	r2, [r3, #8]
 289 0006 1968     		ldr	r1, [r3]
 290 0008 8C46     		mov	ip, r1
 291 000a 6244     		add	r2, r2, ip
 292 000c 9A60     		str	r2, [r3, #8]
1211:Generated_Source\PSoC4/RTC_1.c **** 
1212:Generated_Source\PSoC4/RTC_1.c ****     if(RTC_1_currentTickNumber >= RTC_1_tickRefOneSec)
 293              		.loc 1 1212 0
 294 000e 9A68     		ldr	r2, [r3, #8]
 295 0010 5B68     		ldr	r3, [r3, #4]
 296 0012 9A42     		cmp	r2, r3
 297 0014 0BD3     		bcc	.L19
1213:Generated_Source\PSoC4/RTC_1.c ****     {
1214:Generated_Source\PSoC4/RTC_1.c ****         RTC_1_unixTime++;
 298              		.loc 1 1214 0
 299 0016 0749     		ldr	r1, .L21+4
 300 0018 0C68     		ldr	r4, [r1]
 301 001a 4D68     		ldr	r5, [r1, #4]
 302 001c 0122     		movs	r2, #1
 303 001e 0023     		movs	r3, #0
 304 0020 1219     		adds	r2, r2, r4
 305 0022 6B41     		adcs	r3, r3, r5
 306 0024 0A60     		str	r2, [r1]
 307 0026 4B60     		str	r3, [r1, #4]
1215:Generated_Source\PSoC4/RTC_1.c ****         RTC_1_currentTickNumber = 0u;
 308              		.loc 1 1215 0
 309 0028 0022     		movs	r2, #0
 310 002a 014B     		ldr	r3, .L21
 311 002c 9A60     		str	r2, [r3, #8]
 312              	.L19:
1216:Generated_Source\PSoC4/RTC_1.c **** 
1217:Generated_Source\PSoC4/RTC_1.c ****     #if(0u != RTC_1_INITIAL_DST_STATUS)
1218:Generated_Source\PSoC4/RTC_1.c ****         if(RTC_1_unixTime == RTC_1_unixTimeDstStart)
1219:Generated_Source\PSoC4/RTC_1.c ****         {
1220:Generated_Source\PSoC4/RTC_1.c ****             RTC_1_dstStatus = 1u;
1221:Generated_Source\PSoC4/RTC_1.c ****             RTC_1_dstTimeOffset = RTC_1_SECONDS_PER_HOUR;
1222:Generated_Source\PSoC4/RTC_1.c ****         }
1223:Generated_Source\PSoC4/RTC_1.c **** 
ARM GAS  C:\Users\corne\AppData\Local\Temp\ccR3s0rF.s 			page 28


1224:Generated_Source\PSoC4/RTC_1.c ****         if(RTC_1_unixTime == (RTC_1_unixTimeDstStop  - RTC_1_dstTimeOffset))
1225:Generated_Source\PSoC4/RTC_1.c ****         {
1226:Generated_Source\PSoC4/RTC_1.c ****             RTC_1_dstStatus = 0u;
1227:Generated_Source\PSoC4/RTC_1.c ****             RTC_1_dstTimeOffset = 0u;
1228:Generated_Source\PSoC4/RTC_1.c ****             RTC_1_unixTimeDstStart = RTC_1_GetDstUnixTime(&RTC_1_dstStartTime);
1229:Generated_Source\PSoC4/RTC_1.c ****             RTC_1_unixTimeDstStop  = RTC_1_GetDstUnixTime(&RTC_1_dstStopTime);
1230:Generated_Source\PSoC4/RTC_1.c ****         }
1231:Generated_Source\PSoC4/RTC_1.c ****     #endif /* (0u != RTC_1_INITIAL_DST_STATUS) */
1232:Generated_Source\PSoC4/RTC_1.c **** 
1233:Generated_Source\PSoC4/RTC_1.c ****     #if(0u != RTC_1_INITIAL_ALARM_STATUS)
1234:Generated_Source\PSoC4/RTC_1.c ****         if((RTC_1_unixTime + RTC_1_dstTimeOffset) == RTC_1_unixTimeAlarm)
1235:Generated_Source\PSoC4/RTC_1.c ****         {
1236:Generated_Source\PSoC4/RTC_1.c ****             RTC_1_currentTimeDate.status |= (1uL << RTC_1_STATUS_ALARM_OFFSET);
1237:Generated_Source\PSoC4/RTC_1.c ****             RTC_1_alarmCurStatus = RTC_1_alarmCfgMask;
1238:Generated_Source\PSoC4/RTC_1.c ****             if (RTC_1_alarmCallbackPtr != (void *) 0)
1239:Generated_Source\PSoC4/RTC_1.c ****             {
1240:Generated_Source\PSoC4/RTC_1.c ****                 RTC_1_alarmCallbackPtr();
1241:Generated_Source\PSoC4/RTC_1.c ****             }
1242:Generated_Source\PSoC4/RTC_1.c ****             RTC_1_unixTimeAlarm = RTC_1_GetNexAlarmTime(RTC_1_unixTime + RTC_1_dstTimeOffset,
1243:Generated_Source\PSoC4/RTC_1.c ****                                                                                                   (
1244:Generated_Source\PSoC4/RTC_1.c ****         }
1245:Generated_Source\PSoC4/RTC_1.c ****     #endif/* (0u != RTC_1_INITIAL_ALARM_STATUS) */
1246:Generated_Source\PSoC4/RTC_1.c ****     }
1247:Generated_Source\PSoC4/RTC_1.c **** }
 313              		.loc 1 1247 0
 314              		@ sp needed
 315 002e 30BD     		pop	{r4, r5, pc}
 316              	.L22:
 317              		.align	2
 318              	.L21:
 319 0030 00000000 		.word	.LANCHOR0
 320 0034 00000000 		.word	RTC_1_unixTime
 321              		.cfi_endproc
 322              	.LFE42:
 323              		.size	RTC_1_Update, .-RTC_1_Update
 324              		.section	.text.RTC_1_DateTimeToUnix,"ax",%progbits
 325              		.align	2
 326              		.global	RTC_1_DateTimeToUnix
 327              		.code	16
 328              		.thumb_func
 329              		.type	RTC_1_DateTimeToUnix, %function
 330              	RTC_1_DateTimeToUnix:
 331              	.LFB43:
1248:Generated_Source\PSoC4/RTC_1.c **** 
1249:Generated_Source\PSoC4/RTC_1.c **** 
1250:Generated_Source\PSoC4/RTC_1.c **** /*******************************************************************************
1251:Generated_Source\PSoC4/RTC_1.c **** * Function Name: RTC_1_DateTimeToUnix
1252:Generated_Source\PSoC4/RTC_1.c **** ****************************************************************************//**
1253:Generated_Source\PSoC4/RTC_1.c **** *
1254:Generated_Source\PSoC4/RTC_1.c **** * \brief
1255:Generated_Source\PSoC4/RTC_1.c **** *  This is an internal function to convert the date and time from
1256:Generated_Source\PSoC4/RTC_1.c **** *  the regular time format into the UNIX time format.
1257:Generated_Source\PSoC4/RTC_1.c **** *
1258:Generated_Source\PSoC4/RTC_1.c **** * \param
1259:Generated_Source\PSoC4/RTC_1.c **** *  inputDate The date in the selected in the customizer "date format".
1260:Generated_Source\PSoC4/RTC_1.c **** * \param
1261:Generated_Source\PSoC4/RTC_1.c **** *  inputTime The time in the defined "time format".
ARM GAS  C:\Users\corne\AppData\Local\Temp\ccR3s0rF.s 			page 29


1262:Generated_Source\PSoC4/RTC_1.c **** *
1263:Generated_Source\PSoC4/RTC_1.c **** * \return Returns the date and time in the UNIX format.
1264:Generated_Source\PSoC4/RTC_1.c **** *
1265:Generated_Source\PSoC4/RTC_1.c **** *******************************************************************************/
1266:Generated_Source\PSoC4/RTC_1.c **** uint64 RTC_1_DateTimeToUnix(uint32 inputDate, uint32 inputTime)
1267:Generated_Source\PSoC4/RTC_1.c **** {
 332              		.loc 1 1267 0
 333              		.cfi_startproc
 334              		@ args = 0, pretend = 0, frame = 0
 335              		@ frame_needed = 0, uses_anonymous_args = 0
 336              	.LVL23:
 337 0000 F8B5     		push	{r3, r4, r5, r6, r7, lr}
 338              		.cfi_def_cfa_offset 24
 339              		.cfi_offset 3, -24
 340              		.cfi_offset 4, -20
 341              		.cfi_offset 5, -16
 342              		.cfi_offset 6, -12
 343              		.cfi_offset 7, -8
 344              		.cfi_offset 14, -4
 345 0002 4F46     		mov	r7, r9
 346 0004 4646     		mov	r6, r8
 347 0006 C0B4     		push	{r6, r7}
 348              		.cfi_def_cfa_offset 32
 349              		.cfi_offset 8, -32
 350              		.cfi_offset 9, -28
 351 0008 8046     		mov	r8, r0
 352 000a 8946     		mov	r9, r1
 353              	.LVL24:
 354              	.LBB58:
 355              	.LBB59:
 356              		.file 2 "Generated_Source\\PSoC4\\RTC_1.h"
   1:Generated_Source\PSoC4/RTC_1.h **** /***************************************************************************//**
   2:Generated_Source\PSoC4/RTC_1.h **** * \file Name: RTC_1.h
   3:Generated_Source\PSoC4/RTC_1.h **** * \version 1.10
   4:Generated_Source\PSoC4/RTC_1.h **** *
   5:Generated_Source\PSoC4/RTC_1.h **** * \brief
   6:Generated_Source\PSoC4/RTC_1.h **** *  This file provides constants and parameter values for the RTC_P4 Component.
   7:Generated_Source\PSoC4/RTC_1.h **** *
   8:Generated_Source\PSoC4/RTC_1.h **** ********************************************************************************
   9:Generated_Source\PSoC4/RTC_1.h **** * Copyright 2015-2016, Cypress Semiconductor Corporation.  All rights reserved.
  10:Generated_Source\PSoC4/RTC_1.h **** * You may use this file only in accordance with the license, terms, conditions,
  11:Generated_Source\PSoC4/RTC_1.h **** * disclaimers, and limitations in the end user license agreement accompanying
  12:Generated_Source\PSoC4/RTC_1.h **** * the software package with which this file was provided.
  13:Generated_Source\PSoC4/RTC_1.h **** *******************************************************************************/
  14:Generated_Source\PSoC4/RTC_1.h **** 
  15:Generated_Source\PSoC4/RTC_1.h **** #if !defined(CY_RTC_P4_RTC_1_H)
  16:Generated_Source\PSoC4/RTC_1.h **** #define CY_RTC_P4_RTC_1_H
  17:Generated_Source\PSoC4/RTC_1.h **** 
  18:Generated_Source\PSoC4/RTC_1.h **** #include <cytypes.h>
  19:Generated_Source\PSoC4/RTC_1.h **** #include <CyLib.h>
  20:Generated_Source\PSoC4/RTC_1.h **** 
  21:Generated_Source\PSoC4/RTC_1.h **** 
  22:Generated_Source\PSoC4/RTC_1.h **** /*******************************************************************************
  23:Generated_Source\PSoC4/RTC_1.h **** *    Data types definition
  24:Generated_Source\PSoC4/RTC_1.h **** *******************************************************************************/
  25:Generated_Source\PSoC4/RTC_1.h **** 
  26:Generated_Source\PSoC4/RTC_1.h **** typedef enum
ARM GAS  C:\Users\corne\AppData\Local\Temp\ccR3s0rF.s 			page 30


  27:Generated_Source\PSoC4/RTC_1.h **** {
  28:Generated_Source\PSoC4/RTC_1.h ****     RTC_1_DST_DATE_RELATIVE = 0u,
  29:Generated_Source\PSoC4/RTC_1.h ****     RTC_1_DST_DATE_FIXED = 1u
  30:Generated_Source\PSoC4/RTC_1.h **** }RTC_1_DST_DATETYPE_ENUM;
  31:Generated_Source\PSoC4/RTC_1.h **** 
  32:Generated_Source\PSoC4/RTC_1.h **** /**
  33:Generated_Source\PSoC4/RTC_1.h **** * \addtogroup group_structures
  34:Generated_Source\PSoC4/RTC_1.h **** * @{
  35:Generated_Source\PSoC4/RTC_1.h **** */
  36:Generated_Source\PSoC4/RTC_1.h **** 
  37:Generated_Source\PSoC4/RTC_1.h **** /**
  38:Generated_Source\PSoC4/RTC_1.h **** * This is the data structure that is used to save the current time and date 
  39:Generated_Source\PSoC4/RTC_1.h **** * (RTC_currentTimeDate), and Alarm time and date (RTC_alarmCfgTimeDate).
  40:Generated_Source\PSoC4/RTC_1.h **** */
  41:Generated_Source\PSoC4/RTC_1.h **** typedef struct
  42:Generated_Source\PSoC4/RTC_1.h **** {
  43:Generated_Source\PSoC4/RTC_1.h ****     uint32 time;
  44:Generated_Source\PSoC4/RTC_1.h ****     uint32 date;
  45:Generated_Source\PSoC4/RTC_1.h ****     uint32 dayOfWeek;
  46:Generated_Source\PSoC4/RTC_1.h ****     uint32 status;
  47:Generated_Source\PSoC4/RTC_1.h **** }RTC_1_DATE_TIME;
  48:Generated_Source\PSoC4/RTC_1.h **** 
  49:Generated_Source\PSoC4/RTC_1.h **** /**
  50:Generated_Source\PSoC4/RTC_1.h **** * This is the data structure that is used to save time and date values for 
  51:Generated_Source\PSoC4/RTC_1.h **** * Daylight Savings Time Start and Stop (RTC_dstTimeDateStart and 
  52:Generated_Source\PSoC4/RTC_1.h **** * RTC_dstTimeDateStop).
  53:Generated_Source\PSoC4/RTC_1.h **** */
  54:Generated_Source\PSoC4/RTC_1.h **** typedef struct
  55:Generated_Source\PSoC4/RTC_1.h **** {
  56:Generated_Source\PSoC4/RTC_1.h ****     uint32 hour;
  57:Generated_Source\PSoC4/RTC_1.h ****     uint32 dayOfWeek;
  58:Generated_Source\PSoC4/RTC_1.h ****     uint32 dayOfMonth;
  59:Generated_Source\PSoC4/RTC_1.h ****     uint32 weekOfMonth;
  60:Generated_Source\PSoC4/RTC_1.h ****     uint32 month;
  61:Generated_Source\PSoC4/RTC_1.h ****     uint8  timeFormat;
  62:Generated_Source\PSoC4/RTC_1.h **** }RTC_1_DST_TIME;
  63:Generated_Source\PSoC4/RTC_1.h **** 
  64:Generated_Source\PSoC4/RTC_1.h **** /** @} structures */
  65:Generated_Source\PSoC4/RTC_1.h **** 
  66:Generated_Source\PSoC4/RTC_1.h **** /*******************************************************************************
  67:Generated_Source\PSoC4/RTC_1.h **** *    Enumerated Types and Parameters
  68:Generated_Source\PSoC4/RTC_1.h **** *******************************************************************************/
  69:Generated_Source\PSoC4/RTC_1.h **** /* Time Format setting constants */
  70:Generated_Source\PSoC4/RTC_1.h **** #define RTC_1__HOUR_12 1
  71:Generated_Source\PSoC4/RTC_1.h **** #define RTC_1__HOUR_24 0
  72:Generated_Source\PSoC4/RTC_1.h **** 
  73:Generated_Source\PSoC4/RTC_1.h **** /*  Date Format setting constants */
  74:Generated_Source\PSoC4/RTC_1.h **** #define RTC_1__MM_DD_YYYY 0
  75:Generated_Source\PSoC4/RTC_1.h **** #define RTC_1__DD_MM_YYYY 1
  76:Generated_Source\PSoC4/RTC_1.h **** #define RTC_1__YYYY_MM_DD 2
  77:Generated_Source\PSoC4/RTC_1.h **** 
  78:Generated_Source\PSoC4/RTC_1.h **** /* Date Type setting constants */
  79:Generated_Source\PSoC4/RTC_1.h **** #define RTC_1__RELATIVE 0
  80:Generated_Source\PSoC4/RTC_1.h **** #define RTC_1__FIXED 1
  81:Generated_Source\PSoC4/RTC_1.h **** 
  82:Generated_Source\PSoC4/RTC_1.h **** /* DST Hour setting constants */
  83:Generated_Source\PSoC4/RTC_1.h **** #define RTC_1__H0000 0
ARM GAS  C:\Users\corne\AppData\Local\Temp\ccR3s0rF.s 			page 31


  84:Generated_Source\PSoC4/RTC_1.h **** #define RTC_1__H0100 1
  85:Generated_Source\PSoC4/RTC_1.h **** #define RTC_1__H0200 2
  86:Generated_Source\PSoC4/RTC_1.h **** #define RTC_1__H0300 3
  87:Generated_Source\PSoC4/RTC_1.h **** #define RTC_1__H0400 4
  88:Generated_Source\PSoC4/RTC_1.h **** #define RTC_1__H0500 5
  89:Generated_Source\PSoC4/RTC_1.h **** #define RTC_1__H0600 6
  90:Generated_Source\PSoC4/RTC_1.h **** #define RTC_1__H0700 7
  91:Generated_Source\PSoC4/RTC_1.h **** #define RTC_1__H0800 8
  92:Generated_Source\PSoC4/RTC_1.h **** #define RTC_1__H0900 9
  93:Generated_Source\PSoC4/RTC_1.h **** #define RTC_1__H1000 10
  94:Generated_Source\PSoC4/RTC_1.h **** #define RTC_1__H1100 11
  95:Generated_Source\PSoC4/RTC_1.h **** #define RTC_1__H1200 12
  96:Generated_Source\PSoC4/RTC_1.h **** #define RTC_1__H1300 13
  97:Generated_Source\PSoC4/RTC_1.h **** #define RTC_1__H1400 14
  98:Generated_Source\PSoC4/RTC_1.h **** #define RTC_1__H1500 15
  99:Generated_Source\PSoC4/RTC_1.h **** #define RTC_1__H1600 16
 100:Generated_Source\PSoC4/RTC_1.h **** #define RTC_1__H1700 17
 101:Generated_Source\PSoC4/RTC_1.h **** #define RTC_1__H1800 18
 102:Generated_Source\PSoC4/RTC_1.h **** #define RTC_1__H1900 19
 103:Generated_Source\PSoC4/RTC_1.h **** #define RTC_1__H2000 20
 104:Generated_Source\PSoC4/RTC_1.h **** #define RTC_1__H2100 21
 105:Generated_Source\PSoC4/RTC_1.h **** #define RTC_1__H2200 22
 106:Generated_Source\PSoC4/RTC_1.h **** #define RTC_1__H2300 23
 107:Generated_Source\PSoC4/RTC_1.h **** 
 108:Generated_Source\PSoC4/RTC_1.h **** /* DST DayOfWeek setting constants */
 109:Generated_Source\PSoC4/RTC_1.h **** #define RTC_1__SUNDAY 1
 110:Generated_Source\PSoC4/RTC_1.h **** #define RTC_1__MONDAY 2
 111:Generated_Source\PSoC4/RTC_1.h **** #define RTC_1__TUESDAY 3
 112:Generated_Source\PSoC4/RTC_1.h **** #define RTC_1__WEDNESDAY 4
 113:Generated_Source\PSoC4/RTC_1.h **** #define RTC_1__THURSDAY 5
 114:Generated_Source\PSoC4/RTC_1.h **** #define RTC_1__FRIDAY 6
 115:Generated_Source\PSoC4/RTC_1.h **** #define RTC_1__SATURDAY 7
 116:Generated_Source\PSoC4/RTC_1.h **** 
 117:Generated_Source\PSoC4/RTC_1.h **** /* DST Month setting constants */
 118:Generated_Source\PSoC4/RTC_1.h **** #define RTC_1__JAN 1
 119:Generated_Source\PSoC4/RTC_1.h **** #define RTC_1__FEB 2
 120:Generated_Source\PSoC4/RTC_1.h **** #define RTC_1__MAR 3
 121:Generated_Source\PSoC4/RTC_1.h **** #define RTC_1__APR 4
 122:Generated_Source\PSoC4/RTC_1.h **** #define RTC_1__MAY 5
 123:Generated_Source\PSoC4/RTC_1.h **** #define RTC_1__JUN 6
 124:Generated_Source\PSoC4/RTC_1.h **** #define RTC_1__JUL 7
 125:Generated_Source\PSoC4/RTC_1.h **** #define RTC_1__AUG 8
 126:Generated_Source\PSoC4/RTC_1.h **** #define RTC_1__SEP 9
 127:Generated_Source\PSoC4/RTC_1.h **** #define RTC_1__OCT 10
 128:Generated_Source\PSoC4/RTC_1.h **** #define RTC_1__NOV 11
 129:Generated_Source\PSoC4/RTC_1.h **** #define RTC_1__DEC 12
 130:Generated_Source\PSoC4/RTC_1.h **** 
 131:Generated_Source\PSoC4/RTC_1.h **** /* DST WeekOfMonth setting constants */
 132:Generated_Source\PSoC4/RTC_1.h **** #define RTC_1__FIRST 1
 133:Generated_Source\PSoC4/RTC_1.h **** #define RTC_1__SECOND 2
 134:Generated_Source\PSoC4/RTC_1.h **** #define RTC_1__THIRD 3
 135:Generated_Source\PSoC4/RTC_1.h **** #define RTC_1__FOURTH 4
 136:Generated_Source\PSoC4/RTC_1.h **** #define RTC_1__FIFTH 5
 137:Generated_Source\PSoC4/RTC_1.h **** #define RTC_1__LAST 6
 138:Generated_Source\PSoC4/RTC_1.h **** 
 139:Generated_Source\PSoC4/RTC_1.h **** 
 140:Generated_Source\PSoC4/RTC_1.h **** #define RTC_1_INITIAL_DATA_FORMAT     (0u)
ARM GAS  C:\Users\corne\AppData\Local\Temp\ccR3s0rF.s 			page 32


 141:Generated_Source\PSoC4/RTC_1.h **** #define RTC_1_INITIAL_TIME_FORMAT     (1u)
 142:Generated_Source\PSoC4/RTC_1.h **** #define RTC_1_INITIAL_UPDATE_MODE     (0u)
 143:Generated_Source\PSoC4/RTC_1.h **** #define RTC_1_INITIAL_SECOND          (0u)
 144:Generated_Source\PSoC4/RTC_1.h **** #define RTC_1_INITIAL_MINUTE          (0u)
 145:Generated_Source\PSoC4/RTC_1.h **** #define RTC_1_INITIAL_HOUR            (0u)
 146:Generated_Source\PSoC4/RTC_1.h **** #define RTC_1_INITIAL_DAY             (1u)
 147:Generated_Source\PSoC4/RTC_1.h **** #define RTC_1_INITIAL_MONTH           (1u)
 148:Generated_Source\PSoC4/RTC_1.h **** #define RTC_1_INITIAL_YEAR            (1970u)
 149:Generated_Source\PSoC4/RTC_1.h **** 
 150:Generated_Source\PSoC4/RTC_1.h **** #define RTC_1_INITIAL_ALARM_STATUS    (0u)
 151:Generated_Source\PSoC4/RTC_1.h **** 
 152:Generated_Source\PSoC4/RTC_1.h **** #define RTC_1_INITIAL_DST_STATUS      (0u)
 153:Generated_Source\PSoC4/RTC_1.h **** #define RTC_1_INITIAL_DST_DATE_TYPE   (0u)
 154:Generated_Source\PSoC4/RTC_1.h **** #define RTC_1_INITIAL_DST_START_MONTH (3uL)
 155:Generated_Source\PSoC4/RTC_1.h **** #define RTC_1_INITIAL_DST_START_WOM   (6uL)
 156:Generated_Source\PSoC4/RTC_1.h **** #define RTC_1_INITIAL_DST_START_DOM   (22uL)
 157:Generated_Source\PSoC4/RTC_1.h **** #define RTC_1_INITIAL_DST_START_DOW   (1uL)
 158:Generated_Source\PSoC4/RTC_1.h **** #define RTC_1_INITIAL_DST_START_HRS   (0uL)
 159:Generated_Source\PSoC4/RTC_1.h **** #define RTC_1_INITIAL_DST_STOP_MONTH  (10uL)
 160:Generated_Source\PSoC4/RTC_1.h **** #define RTC_1_INITIAL_DST_STOP_DOM    (22uL)
 161:Generated_Source\PSoC4/RTC_1.h **** #define RTC_1_INITIAL_DST_STOP_DOW    (1uL)
 162:Generated_Source\PSoC4/RTC_1.h **** #define RTC_1_INITIAL_DST_STOP_WOM    (6uL)
 163:Generated_Source\PSoC4/RTC_1.h **** #define RTC_1_INITIAL_DST_STOP_HRS    (0uL)
 164:Generated_Source\PSoC4/RTC_1.h **** 
 165:Generated_Source\PSoC4/RTC_1.h **** /* Day of week definitions */
 166:Generated_Source\PSoC4/RTC_1.h **** #define RTC_1_SUNDAY     (RTC_1__SUNDAY)
 167:Generated_Source\PSoC4/RTC_1.h **** #define RTC_1_MONDAY     (RTC_1__MONDAY)
 168:Generated_Source\PSoC4/RTC_1.h **** #define RTC_1_TUESDAY    (RTC_1__TUESDAY)
 169:Generated_Source\PSoC4/RTC_1.h **** #define RTC_1_WEDNESDAY  (RTC_1__WEDNESDAY)
 170:Generated_Source\PSoC4/RTC_1.h **** #define RTC_1_THURSDAY   (RTC_1__THURSDAY)
 171:Generated_Source\PSoC4/RTC_1.h **** #define RTC_1_FRIDAY     (RTC_1__FRIDAY)
 172:Generated_Source\PSoC4/RTC_1.h **** #define RTC_1_SATURDAY   (RTC_1__SATURDAY)
 173:Generated_Source\PSoC4/RTC_1.h **** 
 174:Generated_Source\PSoC4/RTC_1.h **** /* DST WeekOfMonth setting constants definitions */
 175:Generated_Source\PSoC4/RTC_1.h **** #define RTC_1_FIRST      (RTC_1__FIRST)
 176:Generated_Source\PSoC4/RTC_1.h **** #define RTC_1_SECOND     (RTC_1__SECOND)
 177:Generated_Source\PSoC4/RTC_1.h **** #define RTC_1_THIRD      (RTC_1__THIRD)
 178:Generated_Source\PSoC4/RTC_1.h **** #define RTC_1_FOURTH     (RTC_1__FOURTH)
 179:Generated_Source\PSoC4/RTC_1.h **** #define RTC_1_FIFTH      (RTC_1__FIFTH)
 180:Generated_Source\PSoC4/RTC_1.h **** #define RTC_1_LAST       (RTC_1__LAST)
 181:Generated_Source\PSoC4/RTC_1.h **** 
 182:Generated_Source\PSoC4/RTC_1.h **** /* Month definitions */
 183:Generated_Source\PSoC4/RTC_1.h **** #define RTC_1_JANUARY    (RTC_1__JAN)
 184:Generated_Source\PSoC4/RTC_1.h **** #define RTC_1_FEBRUARY   (RTC_1__FEB)
 185:Generated_Source\PSoC4/RTC_1.h **** #define RTC_1_MARCH      (RTC_1__MAR)
 186:Generated_Source\PSoC4/RTC_1.h **** #define RTC_1_APRIL      (RTC_1__APR)
 187:Generated_Source\PSoC4/RTC_1.h **** #define RTC_1_MAY        (RTC_1__MAY)
 188:Generated_Source\PSoC4/RTC_1.h **** #define RTC_1_JUNE       (RTC_1__JUN)
 189:Generated_Source\PSoC4/RTC_1.h **** #define RTC_1_JULY       (RTC_1__JUL)
 190:Generated_Source\PSoC4/RTC_1.h **** #define RTC_1_AUGUST     (RTC_1__AUG)
 191:Generated_Source\PSoC4/RTC_1.h **** #define RTC_1_SEPTEMBER  (RTC_1__SEP)
 192:Generated_Source\PSoC4/RTC_1.h **** #define RTC_1_OCTOBER    (RTC_1__OCT)
 193:Generated_Source\PSoC4/RTC_1.h **** #define RTC_1_NOVEMBER   (RTC_1__NOV)
 194:Generated_Source\PSoC4/RTC_1.h **** #define RTC_1_DECEMBER   (RTC_1__DEC)
 195:Generated_Source\PSoC4/RTC_1.h **** 
 196:Generated_Source\PSoC4/RTC_1.h **** #define RTC_1_DAYS_PER_WEEK       (7u)
 197:Generated_Source\PSoC4/RTC_1.h **** 
ARM GAS  C:\Users\corne\AppData\Local\Temp\ccR3s0rF.s 			page 33


 198:Generated_Source\PSoC4/RTC_1.h **** /* Number of days in month definitions */
 199:Generated_Source\PSoC4/RTC_1.h **** #define RTC_1_DAYS_IN_JANUARY     (31u)
 200:Generated_Source\PSoC4/RTC_1.h **** #define RTC_1_DAYS_IN_FEBRUARY    (28u)
 201:Generated_Source\PSoC4/RTC_1.h **** #define RTC_1_DAYS_IN_MARCH       (31u)
 202:Generated_Source\PSoC4/RTC_1.h **** #define RTC_1_DAYS_IN_APRIL       (30u)
 203:Generated_Source\PSoC4/RTC_1.h **** #define RTC_1_DAYS_IN_MAY         (31u)
 204:Generated_Source\PSoC4/RTC_1.h **** #define RTC_1_DAYS_IN_JUNE        (30u)
 205:Generated_Source\PSoC4/RTC_1.h **** #define RTC_1_DAYS_IN_JULY        (31u)
 206:Generated_Source\PSoC4/RTC_1.h **** #define RTC_1_DAYS_IN_AUGUST      (31u)
 207:Generated_Source\PSoC4/RTC_1.h **** #define RTC_1_DAYS_IN_SEPTEMBER   (30u)
 208:Generated_Source\PSoC4/RTC_1.h **** #define RTC_1_DAYS_IN_OCTOBER     (31u)
 209:Generated_Source\PSoC4/RTC_1.h **** #define RTC_1_DAYS_IN_NOVEMBER    (30u)
 210:Generated_Source\PSoC4/RTC_1.h **** #define RTC_1_DAYS_IN_DECEMBER    (31u)
 211:Generated_Source\PSoC4/RTC_1.h **** 
 212:Generated_Source\PSoC4/RTC_1.h **** #define RTC_1_MONTHS_PER_YEAR     (12uL)
 213:Generated_Source\PSoC4/RTC_1.h **** 
 214:Generated_Source\PSoC4/RTC_1.h **** #define RTC_1_HOURS_PER_DAY       (24uL)
 215:Generated_Source\PSoC4/RTC_1.h **** #define RTC_1_HOURS_PER_HALF_DAY  (12uL)
 216:Generated_Source\PSoC4/RTC_1.h **** 
 217:Generated_Source\PSoC4/RTC_1.h **** #define RTC_1_SECONDS_PER_MINUTE  (60uL)
 218:Generated_Source\PSoC4/RTC_1.h **** #define RTC_1_SECONDS_PER_HOUR    (3600uL)
 219:Generated_Source\PSoC4/RTC_1.h **** #define RTC_1_SECONDS_PER_DAY     (24uL * 3600uL)
 220:Generated_Source\PSoC4/RTC_1.h **** 
 221:Generated_Source\PSoC4/RTC_1.h **** #define RTC_1_SECONDS_PER_LEAP_YEAR    (366uL * 24uL * 3600uL)
 222:Generated_Source\PSoC4/RTC_1.h **** #define RTC_1_SECONDS_PER_NONLEAP_YEAR (365uL * 24uL * 3600uL)
 223:Generated_Source\PSoC4/RTC_1.h **** 
 224:Generated_Source\PSoC4/RTC_1.h **** #define RTC_1_UNIX_TIME_PM   ((12uL * 3600uL) + 1uL)
 225:Generated_Source\PSoC4/RTC_1.h **** 
 226:Generated_Source\PSoC4/RTC_1.h **** /* AM/PM status definitions */
 227:Generated_Source\PSoC4/RTC_1.h **** #define RTC_1_AM                 (0u)
 228:Generated_Source\PSoC4/RTC_1.h **** #define RTC_1_PM                 (1u)
 229:Generated_Source\PSoC4/RTC_1.h **** 
 230:Generated_Source\PSoC4/RTC_1.h **** /* Time format definitions */
 231:Generated_Source\PSoC4/RTC_1.h **** #define RTC_1_12_HOURS_FORMAT    (RTC_1__HOUR_12)
 232:Generated_Source\PSoC4/RTC_1.h **** #define RTC_1_24_HOURS_FORMAT    (RTC_1__HOUR_24)
 233:Generated_Source\PSoC4/RTC_1.h **** 
 234:Generated_Source\PSoC4/RTC_1.h **** /* UNIX time begins in 1970 year.  */
 235:Generated_Source\PSoC4/RTC_1.h **** #define RTC_1_YEAR_0             (1970u)
 236:Generated_Source\PSoC4/RTC_1.h **** 
 237:Generated_Source\PSoC4/RTC_1.h **** /* Definition of date register fields */
 238:Generated_Source\PSoC4/RTC_1.h **** #if(RTC_1_INITIAL_DATA_FORMAT == RTC_1__MM_DD_YYYY)
 239:Generated_Source\PSoC4/RTC_1.h ****     #define RTC_1_10_MONTH_OFFSET   (28u)
 240:Generated_Source\PSoC4/RTC_1.h ****     #define RTC_1_MONTH_OFFSET      (24u)
 241:Generated_Source\PSoC4/RTC_1.h ****     #define RTC_1_10_DAY_OFFSET     (20u)
 242:Generated_Source\PSoC4/RTC_1.h ****     #define RTC_1_DAY_OFFSET        (16u)
 243:Generated_Source\PSoC4/RTC_1.h ****     #define RTC_1_1000_YEAR_OFFSET  (12u)
 244:Generated_Source\PSoC4/RTC_1.h ****     #define RTC_1_100_YEAR_OFFSET   (8u)
 245:Generated_Source\PSoC4/RTC_1.h ****     #define RTC_1_10_YEAR_OFFSET    (4u)
 246:Generated_Source\PSoC4/RTC_1.h ****     #define RTC_1_YEAR_OFFSET       (0u)
 247:Generated_Source\PSoC4/RTC_1.h **** #elif(RTC_1_INITIAL_DATA_FORMAT == RTC_1__DD_MM_YYYY)
 248:Generated_Source\PSoC4/RTC_1.h ****     #define RTC_1_10_MONTH_OFFSET   (20u)
 249:Generated_Source\PSoC4/RTC_1.h ****     #define RTC_1_MONTH_OFFSET      (16u)
 250:Generated_Source\PSoC4/RTC_1.h ****     #define RTC_1_10_DAY_OFFSET     (28u)
 251:Generated_Source\PSoC4/RTC_1.h ****     #define RTC_1_DAY_OFFSET        (24u)
 252:Generated_Source\PSoC4/RTC_1.h ****     #define RTC_1_1000_YEAR_OFFSET  (12u)
 253:Generated_Source\PSoC4/RTC_1.h ****     #define RTC_1_100_YEAR_OFFSET   (8u)
 254:Generated_Source\PSoC4/RTC_1.h ****     #define RTC_1_10_YEAR_OFFSET    (4u)
ARM GAS  C:\Users\corne\AppData\Local\Temp\ccR3s0rF.s 			page 34


 255:Generated_Source\PSoC4/RTC_1.h ****     #define RTC_1_YEAR_OFFSET       (0u)
 256:Generated_Source\PSoC4/RTC_1.h **** #else
 257:Generated_Source\PSoC4/RTC_1.h ****     #define RTC_1_10_MONTH_OFFSET   (12u)
 258:Generated_Source\PSoC4/RTC_1.h ****     #define RTC_1_MONTH_OFFSET      (8u)
 259:Generated_Source\PSoC4/RTC_1.h ****     #define RTC_1_10_DAY_OFFSET     (4u)
 260:Generated_Source\PSoC4/RTC_1.h ****     #define RTC_1_DAY_OFFSET        (0u)
 261:Generated_Source\PSoC4/RTC_1.h ****     #define RTC_1_1000_YEAR_OFFSET  (28u)
 262:Generated_Source\PSoC4/RTC_1.h ****     #define RTC_1_100_YEAR_OFFSET   (24u)
 263:Generated_Source\PSoC4/RTC_1.h ****     #define RTC_1_10_YEAR_OFFSET    (20u)
 264:Generated_Source\PSoC4/RTC_1.h ****     #define RTC_1_YEAR_OFFSET       (16u)
 265:Generated_Source\PSoC4/RTC_1.h **** #endif /* (RTC_1_INITIAL_DATA_FORMAT == RTC_1__MM_DD_YYYY) */
 266:Generated_Source\PSoC4/RTC_1.h **** 
 267:Generated_Source\PSoC4/RTC_1.h **** #define RTC_1_10_MONTH_MASK          (0x00000001uL << RTC_1_10_MONTH_OFFSET)
 268:Generated_Source\PSoC4/RTC_1.h **** #define RTC_1_MONTH_MASK             (0x0000000FuL << RTC_1_MONTH_OFFSET)
 269:Generated_Source\PSoC4/RTC_1.h **** #define RTC_1_10_DAY_MASK            (0x00000003uL << RTC_1_10_DAY_OFFSET)
 270:Generated_Source\PSoC4/RTC_1.h **** #define RTC_1_DAY_MASK               (0x0000000FuL << RTC_1_DAY_OFFSET)
 271:Generated_Source\PSoC4/RTC_1.h **** #define RTC_1_1000_YEAR_MASK         (0x00000003uL << RTC_1_1000_YEAR_OFFSET)
 272:Generated_Source\PSoC4/RTC_1.h **** #define RTC_1_100_YEAR_MASK          (0x0000000FuL << RTC_1_100_YEAR_OFFSET)
 273:Generated_Source\PSoC4/RTC_1.h **** #define RTC_1_10_YEAR_MASK           (0x0000000FuL << RTC_1_10_YEAR_OFFSET)
 274:Generated_Source\PSoC4/RTC_1.h **** #define RTC_1_YEAR_MASK              (0x0000000FuL << RTC_1_YEAR_OFFSET)
 275:Generated_Source\PSoC4/RTC_1.h **** 
 276:Generated_Source\PSoC4/RTC_1.h **** #define  RTC_1_MONTH_FULL_MASK       (RTC_1_10_MONTH_MASK  | RTC_1_MONTH_MASK)
 277:Generated_Source\PSoC4/RTC_1.h **** #define  RTC_1_DAY_FULL_MASK         (RTC_1_10_DAY_MASK    | RTC_1_DAY_MASK)
 278:Generated_Source\PSoC4/RTC_1.h **** #define  RTC_1_YEAR_FULL_MASK        (RTC_1_1000_YEAR_MASK | RTC_1_100_YEAR_MASK |\
 279:Generated_Source\PSoC4/RTC_1.h ****                                                  RTC_1_10_YEAR_MASK   | RTC_1_YEAR_MASK)
 280:Generated_Source\PSoC4/RTC_1.h **** 
 281:Generated_Source\PSoC4/RTC_1.h **** 
 282:Generated_Source\PSoC4/RTC_1.h **** /* Definition of time register fields */
 283:Generated_Source\PSoC4/RTC_1.h **** #define RTC_1_TIME_FORMAT_OFFSET     (23u)
 284:Generated_Source\PSoC4/RTC_1.h **** #define RTC_1_PERIOD_OF_DAY_OFFSET   (22u)
 285:Generated_Source\PSoC4/RTC_1.h **** #define RTC_1_10_HOURS_OFFSET        (20u)
 286:Generated_Source\PSoC4/RTC_1.h **** #define RTC_1_HOURS_OFFSET           (16u)
 287:Generated_Source\PSoC4/RTC_1.h **** #define RTC_1_10_MINUTES_OFFSET      (12u)
 288:Generated_Source\PSoC4/RTC_1.h **** #define RTC_1_MINUTES_OFFSET         (8u)
 289:Generated_Source\PSoC4/RTC_1.h **** #define RTC_1_10_SECONDS_OFFSET      (4u)
 290:Generated_Source\PSoC4/RTC_1.h **** #define RTC_1_SECONDS_OFFSET         (0u)
 291:Generated_Source\PSoC4/RTC_1.h **** 
 292:Generated_Source\PSoC4/RTC_1.h **** #define RTC_1_TIME_FORMAT_MASK       (0x00000001uL << RTC_1_TIME_FORMAT_OFFSET)
 293:Generated_Source\PSoC4/RTC_1.h **** #define RTC_1_PERIOD_OF_DAY_MASK     (0x00000001uL << RTC_1_PERIOD_OF_DAY_OFFSET)
 294:Generated_Source\PSoC4/RTC_1.h **** #define RTC_1_10_HOURS_MASK          (0x00000003uL << RTC_1_10_HOURS_OFFSET)
 295:Generated_Source\PSoC4/RTC_1.h **** #define RTC_1_HOURS_MASK             (0x0000000FuL << RTC_1_HOURS_OFFSET)
 296:Generated_Source\PSoC4/RTC_1.h **** #define RTC_1_10_MINUTES_MASK        (0x00000007uL << RTC_1_10_MINUTES_OFFSET)
 297:Generated_Source\PSoC4/RTC_1.h **** #define RTC_1_MINUTES_MASK           (0x0000000FuL << RTC_1_MINUTES_OFFSET)
 298:Generated_Source\PSoC4/RTC_1.h **** #define RTC_1_10_SECONDS_MASK        (0x00000007uL << RTC_1_10_SECONDS_OFFSET)
 299:Generated_Source\PSoC4/RTC_1.h **** #define RTC_1_SECONDS_MASK           (0x0000000FuL << RTC_1_SECONDS_OFFSET)
 300:Generated_Source\PSoC4/RTC_1.h **** 
 301:Generated_Source\PSoC4/RTC_1.h **** #define RTC_1_HOURS_FULL_MASK        (RTC_1_10_HOURS_MASK   | RTC_1_HOURS_MASK)
 302:Generated_Source\PSoC4/RTC_1.h **** #define RTC_1_MINUTES_FULL_MASK      (RTC_1_10_MINUTES_MASK | RTC_1_MINUTES_MASK)
 303:Generated_Source\PSoC4/RTC_1.h **** #define RTC_1_SECONDS_FULL_MASK      (RTC_1_10_SECONDS_MASK | RTC_1_SECONDS_MASK)
 304:Generated_Source\PSoC4/RTC_1.h **** 
 305:Generated_Source\PSoC4/RTC_1.h **** #define RTC_1_ALARM_SEC_MASK         (0x00000001uL)
 306:Generated_Source\PSoC4/RTC_1.h **** #define RTC_1_ALARM_MIN_MASK         (0x00000002uL)
 307:Generated_Source\PSoC4/RTC_1.h **** #define RTC_1_ALARM_HOUR_MASK        (0x00000004uL)
 308:Generated_Source\PSoC4/RTC_1.h **** #define RTC_1_ALARM_DAYOFWEEK_MASK   (0x00000008uL)
 309:Generated_Source\PSoC4/RTC_1.h **** #define RTC_1_ALARM_DAYOFMONTH_MASK  (0x00000010uL)
 310:Generated_Source\PSoC4/RTC_1.h **** #define RTC_1_ALARM_MONTH_MASK       (0x00000020uL)
 311:Generated_Source\PSoC4/RTC_1.h **** #define RTC_1_ALARM_YEAR_MASK        (0x00000040uL)
ARM GAS  C:\Users\corne\AppData\Local\Temp\ccR3s0rF.s 			page 35


 312:Generated_Source\PSoC4/RTC_1.h **** 
 313:Generated_Source\PSoC4/RTC_1.h **** #define RTC_1_STATUS_DST_OFFSET      (1u)
 314:Generated_Source\PSoC4/RTC_1.h **** #define RTC_1_STATUS_ALARM_OFFSET    (2u)
 315:Generated_Source\PSoC4/RTC_1.h **** #define RTC_1_STATUS_LY_OFFSET       (3u)
 316:Generated_Source\PSoC4/RTC_1.h **** #define RTC_1_STATUS_AM_PM_OFFSET    (4u)
 317:Generated_Source\PSoC4/RTC_1.h **** 
 318:Generated_Source\PSoC4/RTC_1.h **** /* Definition of the RTC status values. */
 319:Generated_Source\PSoC4/RTC_1.h **** #define RTC_1_STATUS_DST             (1uL << RTC_1_STATUS_DST_OFFSET)
 320:Generated_Source\PSoC4/RTC_1.h **** #define RTC_1_STATUS_LY              (1uL << RTC_1_STATUS_LY_OFFSET)
 321:Generated_Source\PSoC4/RTC_1.h **** #define RTC_1_STATUS_AM_PM           (1uL << RTC_1_STATUS_AM_PM_OFFSET)
 322:Generated_Source\PSoC4/RTC_1.h **** 
 323:Generated_Source\PSoC4/RTC_1.h **** /* Number of bits per one BCD digit. */
 324:Generated_Source\PSoC4/RTC_1.h **** #define RTC_1_BCD_NUMBER_SIZE        (4u)
 325:Generated_Source\PSoC4/RTC_1.h **** #define RTC_1_BCD_ONE_DIGIT_MASK     (0x0000000FuL)
 326:Generated_Source\PSoC4/RTC_1.h **** 
 327:Generated_Source\PSoC4/RTC_1.h **** /*******************************************************************************
 328:Generated_Source\PSoC4/RTC_1.h **** *    Function Prototypes
 329:Generated_Source\PSoC4/RTC_1.h **** *******************************************************************************/
 330:Generated_Source\PSoC4/RTC_1.h **** /**
 331:Generated_Source\PSoC4/RTC_1.h **** * \addtogroup group_api
 332:Generated_Source\PSoC4/RTC_1.h **** * @{
 333:Generated_Source\PSoC4/RTC_1.h **** */
 334:Generated_Source\PSoC4/RTC_1.h **** void   RTC_1_Start(void);
 335:Generated_Source\PSoC4/RTC_1.h **** void   RTC_1_Stop(void);
 336:Generated_Source\PSoC4/RTC_1.h **** void   RTC_1_Init(void);
 337:Generated_Source\PSoC4/RTC_1.h **** void   RTC_1_SetUnixTime(uint64 unixTime);
 338:Generated_Source\PSoC4/RTC_1.h **** uint64 RTC_1_GetUnixTime(void);
 339:Generated_Source\PSoC4/RTC_1.h **** void   RTC_1_SetPeriod(uint32 ticks, uint32 refOneSecTicks);
 340:Generated_Source\PSoC4/RTC_1.h **** uint32 RTC_1_GetPeriod(void);
 341:Generated_Source\PSoC4/RTC_1.h **** uint32 RTC_1_GetRefOneSec(void);
 342:Generated_Source\PSoC4/RTC_1.h **** void   RTC_1_SetDateAndTime(uint32 inputTime, uint32 inputDate);
 343:Generated_Source\PSoC4/RTC_1.h **** void   RTC_1_GetDateAndTime(RTC_1_DATE_TIME* dateTime);
 344:Generated_Source\PSoC4/RTC_1.h **** uint32 RTC_1_GetTime(void);
 345:Generated_Source\PSoC4/RTC_1.h **** uint32 RTC_1_GetDate(void);
 346:Generated_Source\PSoC4/RTC_1.h **** void   RTC_1_SetAlarmDateAndTime(const RTC_1_DATE_TIME* alarmTime);
 347:Generated_Source\PSoC4/RTC_1.h **** void   RTC_1_GetAlarmDateAndTime(RTC_1_DATE_TIME* alarmTimeDate);
 348:Generated_Source\PSoC4/RTC_1.h **** void   RTC_1_SetAlarmMask(uint32 mask);
 349:Generated_Source\PSoC4/RTC_1.h **** uint32 RTC_1_GetAlarmMask(void);
 350:Generated_Source\PSoC4/RTC_1.h **** uint32 RTC_1_ReadStatus(void);
 351:Generated_Source\PSoC4/RTC_1.h **** uint32 RTC_1_GetAlarmStatus(void);
 352:Generated_Source\PSoC4/RTC_1.h **** void   RTC_1_ClearAlarmStatus(void);
 353:Generated_Source\PSoC4/RTC_1.h **** void   RTC_1_SetDSTStartTime(const RTC_1_DST_TIME* dstStartTime,
 354:Generated_Source\PSoC4/RTC_1.h ****                                               RTC_1_DST_DATETYPE_ENUM type);
 355:Generated_Source\PSoC4/RTC_1.h **** void   RTC_1_SetDSTStopTime(const RTC_1_DST_TIME* dstStopTime,
 356:Generated_Source\PSoC4/RTC_1.h ****                                              RTC_1_DST_DATETYPE_ENUM type);
 357:Generated_Source\PSoC4/RTC_1.h **** uint32 RTC_1_ConvertBCDToDec(uint32 bcdNum);
 358:Generated_Source\PSoC4/RTC_1.h **** uint32 RTC_1_ConvertDecToBCD(uint32 decNum);
 359:Generated_Source\PSoC4/RTC_1.h **** void   RTC_1_Update(void);
 360:Generated_Source\PSoC4/RTC_1.h **** void*  RTC_1_SetAlarmHandler(void (*CallbackFunction)(void));
 361:Generated_Source\PSoC4/RTC_1.h **** 
 362:Generated_Source\PSoC4/RTC_1.h **** static uint32 RTC_1_ConstructDate(uint32 month, uint32 day, uint32 year);
 363:Generated_Source\PSoC4/RTC_1.h **** static uint32 RTC_1_ConstructTime(uint32 timeFormat, uint32 stateAmPm, uint32 hour, uint32 min, uin
 364:Generated_Source\PSoC4/RTC_1.h **** /** @} api */
 365:Generated_Source\PSoC4/RTC_1.h **** 
 366:Generated_Source\PSoC4/RTC_1.h **** static uint32 RTC_1_GetTimeFormat(uint32 inputTime);
 367:Generated_Source\PSoC4/RTC_1.h **** static uint32 RTC_1_SetTimeFormat(uint32 inputTime, uint32 timeFormat);
 368:Generated_Source\PSoC4/RTC_1.h **** 
ARM GAS  C:\Users\corne\AppData\Local\Temp\ccR3s0rF.s 			page 36


 369:Generated_Source\PSoC4/RTC_1.h **** /**
 370:Generated_Source\PSoC4/RTC_1.h **** * \addtogroup group_api
 371:Generated_Source\PSoC4/RTC_1.h **** * @{
 372:Generated_Source\PSoC4/RTC_1.h **** */
 373:Generated_Source\PSoC4/RTC_1.h **** static uint32 RTC_1_LeapYear(uint32 year);
 374:Generated_Source\PSoC4/RTC_1.h **** static uint32 RTC_1_IsBitSet(uint32 var, uint32 mask);
 375:Generated_Source\PSoC4/RTC_1.h **** static uint32 RTC_1_GetSecond(uint32 inputTime);
 376:Generated_Source\PSoC4/RTC_1.h **** static uint32 RTC_1_GetMinutes(uint32 inputTime);
 377:Generated_Source\PSoC4/RTC_1.h **** static uint32 RTC_1_GetHours(uint32 inputTime);
 378:Generated_Source\PSoC4/RTC_1.h **** static uint32 RTC_1_GetAmPm(uint32 inputTime);
 379:Generated_Source\PSoC4/RTC_1.h **** static uint32 RTC_1_GetDay(uint32 date);
 380:Generated_Source\PSoC4/RTC_1.h **** static uint32 RTC_1_GetMonth(uint32 date);
 381:Generated_Source\PSoC4/RTC_1.h **** static uint32 RTC_1_GetYear(uint32 date);
 382:Generated_Source\PSoC4/RTC_1.h **** /** @} api */
 383:Generated_Source\PSoC4/RTC_1.h **** 
 384:Generated_Source\PSoC4/RTC_1.h **** static uint32 RTC_1_SetSecond(uint32 inputTime, uint32 inputSecond);
 385:Generated_Source\PSoC4/RTC_1.h **** static uint32 RTC_1_SetMinutes(uint32 inputTime, uint32 inputMinute);
 386:Generated_Source\PSoC4/RTC_1.h **** static uint32 RTC_1_SetHours(uint32 inputTime, uint32 inputHours);
 387:Generated_Source\PSoC4/RTC_1.h **** static uint32 RTC_1_SetAmPm(uint32 inputTime, uint32 periodOfDay);
 388:Generated_Source\PSoC4/RTC_1.h **** static uint32 RTC_1_SetDay(uint32 inputDate, uint32 inputDay);
 389:Generated_Source\PSoC4/RTC_1.h **** static uint32 RTC_1_SetMonth(uint32 inputDate, uint32 inputMonth);
 390:Generated_Source\PSoC4/RTC_1.h **** static uint32 RTC_1_SetYear(uint32 inputDate, uint32 inputYear);
 391:Generated_Source\PSoC4/RTC_1.h **** 
 392:Generated_Source\PSoC4/RTC_1.h **** uint64 RTC_1_ConstructUnixAlarmTime(const RTC_1_DATE_TIME* alarmTime, uint8 alarmCfgMask);
 393:Generated_Source\PSoC4/RTC_1.h **** uint64 RTC_1_GetDstUnixTime(const RTC_1_DST_TIME* dstTime);
 394:Generated_Source\PSoC4/RTC_1.h **** uint64 RTC_1_GetNexAlarmTime(uint64 curUnixTime, uint8 alarmCfgMask);
 395:Generated_Source\PSoC4/RTC_1.h **** 
 396:Generated_Source\PSoC4/RTC_1.h **** static uint32 RTC_1_GetNextMinSec(uint32 curVal);
 397:Generated_Source\PSoC4/RTC_1.h **** static uint32 RTC_1_GetNextHour(uint32 curVal);
 398:Generated_Source\PSoC4/RTC_1.h **** static uint32 RTC_1_GetNextDay(uint32 curYear, uint32 curMonth, uint32 curDay, uint32 alarmCfgMask)
 399:Generated_Source\PSoC4/RTC_1.h **** static uint32 RTC_1_GetNextMonth(uint32 curMonth);
 400:Generated_Source\PSoC4/RTC_1.h **** static uint32 RTC_1_GetNextYear(uint32 curYear);
 401:Generated_Source\PSoC4/RTC_1.h **** static uint32 RTC_1_GetDayOfWeek(uint32 day, uint32 month, uint32 year);
 402:Generated_Source\PSoC4/RTC_1.h **** 
 403:Generated_Source\PSoC4/RTC_1.h **** uint32 RTC_1_DaysInMonth(uint32 month, uint32 year);
 404:Generated_Source\PSoC4/RTC_1.h **** uint32 RTC_1_DaysBeforeMonth(uint32 month, uint32 year);
 405:Generated_Source\PSoC4/RTC_1.h **** 
 406:Generated_Source\PSoC4/RTC_1.h **** /**
 407:Generated_Source\PSoC4/RTC_1.h **** * \addtogroup group_api
 408:Generated_Source\PSoC4/RTC_1.h **** * @{
 409:Generated_Source\PSoC4/RTC_1.h **** */
 410:Generated_Source\PSoC4/RTC_1.h **** void   RTC_1_UnixToDateTime(RTC_1_DATE_TIME* dateTime, uint64 unixTime, uint32 timeFormat);
 411:Generated_Source\PSoC4/RTC_1.h **** uint64 RTC_1_DateTimeToUnix(uint32 inputDate, uint32 inputTime);
 412:Generated_Source\PSoC4/RTC_1.h **** /** @} api */
 413:Generated_Source\PSoC4/RTC_1.h **** 
 414:Generated_Source\PSoC4/RTC_1.h **** uint32 RTC_1_RelativeToFixed(uint32 dayOfWeek, uint32 weekOfMonth, uint32 month, uint32 year);
 415:Generated_Source\PSoC4/RTC_1.h **** 
 416:Generated_Source\PSoC4/RTC_1.h **** 
 417:Generated_Source\PSoC4/RTC_1.h **** #if defined(CYDEV_RTC_SOURCE_WDT)
 418:Generated_Source\PSoC4/RTC_1.h ****     #if((0u != CYDEV_WDT_GENERATE_ISR) && (0u == RTC_1_INITIAL_UPDATE_MODE))
 419:Generated_Source\PSoC4/RTC_1.h ****         static void RTC_1_CySysRtcSetCallback(uint32 wdtNumber);
 420:Generated_Source\PSoC4/RTC_1.h ****         static void RTC_1_CySysRtcResetCallback(uint32 wdtNumber);
 421:Generated_Source\PSoC4/RTC_1.h ****     #endif /* ((0u != CYDEV_WDT_GENERATE_ISR) && (0u == RTC_1_INITIAL_UPDATE_MODE)) */
 422:Generated_Source\PSoC4/RTC_1.h **** #endif /* (CYDEV_RTC_SOURCE_WDT) */
 423:Generated_Source\PSoC4/RTC_1.h **** 
 424:Generated_Source\PSoC4/RTC_1.h **** /*******************************************************************************
 425:Generated_Source\PSoC4/RTC_1.h **** * Function Name: RTC_1_IsBitSet
ARM GAS  C:\Users\corne\AppData\Local\Temp\ccR3s0rF.s 			page 37


 426:Generated_Source\PSoC4/RTC_1.h **** ****************************************************************************//**
 427:Generated_Source\PSoC4/RTC_1.h **** *
 428:Generated_Source\PSoC4/RTC_1.h **** * \brief
 429:Generated_Source\PSoC4/RTC_1.h **** *  Checks the state of a bit passed through parameter.
 430:Generated_Source\PSoC4/RTC_1.h **** *
 431:Generated_Source\PSoC4/RTC_1.h **** * \param
 432:Generated_Source\PSoC4/RTC_1.h **** *  var The variable to be checked.
 433:Generated_Source\PSoC4/RTC_1.h **** * \param
 434:Generated_Source\PSoC4/RTC_1.h **** *  mask The mask for a bit to be checked.
 435:Generated_Source\PSoC4/RTC_1.h **** *
 436:Generated_Source\PSoC4/RTC_1.h **** * \return
 437:Generated_Source\PSoC4/RTC_1.h **** *  0u - Bit is not set.
 438:Generated_Source\PSoC4/RTC_1.h **** * \return
 439:Generated_Source\PSoC4/RTC_1.h **** *  1u - Bit is set.
 440:Generated_Source\PSoC4/RTC_1.h **** *
 441:Generated_Source\PSoC4/RTC_1.h **** *******************************************************************************/
 442:Generated_Source\PSoC4/RTC_1.h **** static CY_INLINE uint32 RTC_1_IsBitSet(uint32 var, uint32 mask)
 443:Generated_Source\PSoC4/RTC_1.h **** {
 444:Generated_Source\PSoC4/RTC_1.h ****     return ((mask == (var & mask)) ? 1Lu : 0Lu);
 445:Generated_Source\PSoC4/RTC_1.h **** }
 446:Generated_Source\PSoC4/RTC_1.h **** 
 447:Generated_Source\PSoC4/RTC_1.h **** 
 448:Generated_Source\PSoC4/RTC_1.h **** /*******************************************************************************
 449:Generated_Source\PSoC4/RTC_1.h **** * Function Name: RTC_1_LeapYear
 450:Generated_Source\PSoC4/RTC_1.h **** ****************************************************************************//**
 451:Generated_Source\PSoC4/RTC_1.h **** *
 452:Generated_Source\PSoC4/RTC_1.h **** * \brief
 453:Generated_Source\PSoC4/RTC_1.h **** * Checks whether the year passed through the parameter is
 454:Generated_Source\PSoC4/RTC_1.h **** * leap or no.
 455:Generated_Source\PSoC4/RTC_1.h **** *
 456:Generated_Source\PSoC4/RTC_1.h **** * \param
 457:Generated_Source\PSoC4/RTC_1.h **** *  year The year to be checked.
 458:Generated_Source\PSoC4/RTC_1.h **** *
 459:Generated_Source\PSoC4/RTC_1.h **** *
 460:Generated_Source\PSoC4/RTC_1.h **** * \return
 461:Generated_Source\PSoC4/RTC_1.h **** *  0u - The year is not leap.
 462:Generated_Source\PSoC4/RTC_1.h **** * \return
 463:Generated_Source\PSoC4/RTC_1.h **** *  1u - The year is leap.
 464:Generated_Source\PSoC4/RTC_1.h **** *
 465:Generated_Source\PSoC4/RTC_1.h **** *******************************************************************************/
 466:Generated_Source\PSoC4/RTC_1.h **** static CY_INLINE uint32 RTC_1_LeapYear(uint32 year)
 467:Generated_Source\PSoC4/RTC_1.h **** {
 468:Generated_Source\PSoC4/RTC_1.h ****     uint32 retVal;
 469:Generated_Source\PSoC4/RTC_1.h **** 
 470:Generated_Source\PSoC4/RTC_1.h ****     if(((0u == (year % 4Lu)) && (0u != (year % 100Lu))) || (0u == (year % 400Lu)))
 471:Generated_Source\PSoC4/RTC_1.h ****     {
 472:Generated_Source\PSoC4/RTC_1.h ****         retVal = 1uL;
 473:Generated_Source\PSoC4/RTC_1.h ****     }
 474:Generated_Source\PSoC4/RTC_1.h ****     else
 475:Generated_Source\PSoC4/RTC_1.h ****     {
 476:Generated_Source\PSoC4/RTC_1.h ****         retVal = 0uL;
 477:Generated_Source\PSoC4/RTC_1.h ****     }
 478:Generated_Source\PSoC4/RTC_1.h **** 
 479:Generated_Source\PSoC4/RTC_1.h ****     return(retVal);
 480:Generated_Source\PSoC4/RTC_1.h **** }
 481:Generated_Source\PSoC4/RTC_1.h **** 
 482:Generated_Source\PSoC4/RTC_1.h **** 
ARM GAS  C:\Users\corne\AppData\Local\Temp\ccR3s0rF.s 			page 38


 483:Generated_Source\PSoC4/RTC_1.h **** /*******************************************************************************
 484:Generated_Source\PSoC4/RTC_1.h **** * Function Name: RTC_1_GetSecond
 485:Generated_Source\PSoC4/RTC_1.h **** ****************************************************************************//**
 486:Generated_Source\PSoC4/RTC_1.h **** *
 487:Generated_Source\PSoC4/RTC_1.h **** * \brief
 488:Generated_Source\PSoC4/RTC_1.h **** *  Returns the seconds value from the time value that is passed as a/the parameter.
 489:Generated_Source\PSoC4/RTC_1.h **** *
 490:Generated_Source\PSoC4/RTC_1.h **** * \param
 491:Generated_Source\PSoC4/RTC_1.h **** *  time The time value.
 492:Generated_Source\PSoC4/RTC_1.h **** *
 493:Generated_Source\PSoC4/RTC_1.h **** * \return
 494:Generated_Source\PSoC4/RTC_1.h **** *  The seconds value.
 495:Generated_Source\PSoC4/RTC_1.h **** *
 496:Generated_Source\PSoC4/RTC_1.h **** *******************************************************************************/
 497:Generated_Source\PSoC4/RTC_1.h **** static CY_INLINE uint32 RTC_1_GetSecond(uint32 inputTime)
 498:Generated_Source\PSoC4/RTC_1.h **** {
 499:Generated_Source\PSoC4/RTC_1.h ****     uint32 retVal;
 500:Generated_Source\PSoC4/RTC_1.h **** 
 501:Generated_Source\PSoC4/RTC_1.h ****     retVal  = ((inputTime & RTC_1_10_SECONDS_MASK) >> RTC_1_10_SECONDS_OFFSET) * 10u;
 502:Generated_Source\PSoC4/RTC_1.h ****     retVal += (inputTime & RTC_1_SECONDS_MASK) >> RTC_1_SECONDS_OFFSET;
 503:Generated_Source\PSoC4/RTC_1.h **** 
 504:Generated_Source\PSoC4/RTC_1.h ****     return (retVal);
 505:Generated_Source\PSoC4/RTC_1.h **** }
 506:Generated_Source\PSoC4/RTC_1.h **** 
 507:Generated_Source\PSoC4/RTC_1.h **** 
 508:Generated_Source\PSoC4/RTC_1.h **** /*******************************************************************************
 509:Generated_Source\PSoC4/RTC_1.h **** * Function Name: RTC_1_GetMinutes
 510:Generated_Source\PSoC4/RTC_1.h **** ****************************************************************************//**
 511:Generated_Source\PSoC4/RTC_1.h **** *
 512:Generated_Source\PSoC4/RTC_1.h **** * \brief
 513:Generated_Source\PSoC4/RTC_1.h **** *  Returns the minutes value from the time value that is passed as a/the 
 514:Generated_Source\PSoC4/RTC_1.h **** * parameter.
 515:Generated_Source\PSoC4/RTC_1.h **** *
 516:Generated_Source\PSoC4/RTC_1.h **** * \param
 517:Generated_Source\PSoC4/RTC_1.h **** *  time The time value.
 518:Generated_Source\PSoC4/RTC_1.h **** *
 519:Generated_Source\PSoC4/RTC_1.h **** * \return
 520:Generated_Source\PSoC4/RTC_1.h **** *  The minutes value.
 521:Generated_Source\PSoC4/RTC_1.h **** *
 522:Generated_Source\PSoC4/RTC_1.h **** *******************************************************************************/
 523:Generated_Source\PSoC4/RTC_1.h **** static CY_INLINE uint32 RTC_1_GetMinutes(uint32 inputTime)
 524:Generated_Source\PSoC4/RTC_1.h **** {
 525:Generated_Source\PSoC4/RTC_1.h ****     uint32 retVal;
 526:Generated_Source\PSoC4/RTC_1.h **** 
 527:Generated_Source\PSoC4/RTC_1.h ****     retVal  = ((inputTime & RTC_1_10_MINUTES_MASK) >> RTC_1_10_MINUTES_OFFSET) * 10u;
 528:Generated_Source\PSoC4/RTC_1.h ****     retVal += (inputTime & RTC_1_MINUTES_MASK) >> RTC_1_MINUTES_OFFSET;
 529:Generated_Source\PSoC4/RTC_1.h **** 
 530:Generated_Source\PSoC4/RTC_1.h ****     return (retVal);
 531:Generated_Source\PSoC4/RTC_1.h **** }
 532:Generated_Source\PSoC4/RTC_1.h **** 
 533:Generated_Source\PSoC4/RTC_1.h **** 
 534:Generated_Source\PSoC4/RTC_1.h **** /*******************************************************************************
 535:Generated_Source\PSoC4/RTC_1.h **** * Function Name: RTC_1_GetHours
 536:Generated_Source\PSoC4/RTC_1.h **** ****************************************************************************//**
 537:Generated_Source\PSoC4/RTC_1.h **** *
 538:Generated_Source\PSoC4/RTC_1.h **** * \brief
 539:Generated_Source\PSoC4/RTC_1.h **** *  Returns the hours value from the time value that is passed as a/the parameter.
ARM GAS  C:\Users\corne\AppData\Local\Temp\ccR3s0rF.s 			page 39


 540:Generated_Source\PSoC4/RTC_1.h **** *
 541:Generated_Source\PSoC4/RTC_1.h **** * \param
 542:Generated_Source\PSoC4/RTC_1.h **** *  time The time value.
 543:Generated_Source\PSoC4/RTC_1.h **** *
 544:Generated_Source\PSoC4/RTC_1.h **** * \return
 545:Generated_Source\PSoC4/RTC_1.h **** *  The hours value.
 546:Generated_Source\PSoC4/RTC_1.h **** *
 547:Generated_Source\PSoC4/RTC_1.h **** *******************************************************************************/
 548:Generated_Source\PSoC4/RTC_1.h **** static CY_INLINE uint32 RTC_1_GetHours(uint32 inputTime)
 549:Generated_Source\PSoC4/RTC_1.h **** {
 550:Generated_Source\PSoC4/RTC_1.h ****     uint32 retVal;
 551:Generated_Source\PSoC4/RTC_1.h **** 
 552:Generated_Source\PSoC4/RTC_1.h ****     retVal  = ((inputTime & RTC_1_10_HOURS_MASK) >> RTC_1_10_HOURS_OFFSET) * 10u;
 553:Generated_Source\PSoC4/RTC_1.h ****     retVal += (inputTime & RTC_1_HOURS_MASK) >> RTC_1_HOURS_OFFSET;
 554:Generated_Source\PSoC4/RTC_1.h **** 
 555:Generated_Source\PSoC4/RTC_1.h ****     return (retVal);
 556:Generated_Source\PSoC4/RTC_1.h **** }
 557:Generated_Source\PSoC4/RTC_1.h **** 
 558:Generated_Source\PSoC4/RTC_1.h **** 
 559:Generated_Source\PSoC4/RTC_1.h **** /*******************************************************************************
 560:Generated_Source\PSoC4/RTC_1.h **** * Function Name: RTC_1_GetAmPm
 561:Generated_Source\PSoC4/RTC_1.h **** ****************************************************************************//**
 562:Generated_Source\PSoC4/RTC_1.h **** *
 563:Generated_Source\PSoC4/RTC_1.h **** * \brief
 564:Generated_Source\PSoC4/RTC_1.h **** *  Returns the AM/PM status from the time value that is passed as parameter.
 565:Generated_Source\PSoC4/RTC_1.h **** *
 566:Generated_Source\PSoC4/RTC_1.h **** * \param
 567:Generated_Source\PSoC4/RTC_1.h **** *  time The time value.
 568:Generated_Source\PSoC4/RTC_1.h **** *
 569:Generated_Source\PSoC4/RTC_1.h **** * \return
 570:Generated_Source\PSoC4/RTC_1.h **** *  RTC_1_AM - AM.
 571:Generated_Source\PSoC4/RTC_1.h **** * \return
 572:Generated_Source\PSoC4/RTC_1.h **** *  RTC_1_PM - PM.
 573:Generated_Source\PSoC4/RTC_1.h **** *
 574:Generated_Source\PSoC4/RTC_1.h **** *******************************************************************************/
 575:Generated_Source\PSoC4/RTC_1.h **** static CY_INLINE uint32 RTC_1_GetAmPm(uint32 inputTime)
 576:Generated_Source\PSoC4/RTC_1.h **** {
 577:Generated_Source\PSoC4/RTC_1.h ****     return (RTC_1_IsBitSet(inputTime, RTC_1_PERIOD_OF_DAY_MASK));
 578:Generated_Source\PSoC4/RTC_1.h **** }
 579:Generated_Source\PSoC4/RTC_1.h **** 
 580:Generated_Source\PSoC4/RTC_1.h **** 
 581:Generated_Source\PSoC4/RTC_1.h **** /*******************************************************************************
 582:Generated_Source\PSoC4/RTC_1.h **** * Function Name: RTC_1_GetDay
 583:Generated_Source\PSoC4/RTC_1.h **** ****************************************************************************//**
 584:Generated_Source\PSoC4/RTC_1.h **** *
 585:Generated_Source\PSoC4/RTC_1.h **** * \brief
 586:Generated_Source\PSoC4/RTC_1.h **** *  Returns the day value from the date value that is passed as parameter.
 587:Generated_Source\PSoC4/RTC_1.h **** *
 588:Generated_Source\PSoC4/RTC_1.h **** * \param
 589:Generated_Source\PSoC4/RTC_1.h **** *  date The date value.
 590:Generated_Source\PSoC4/RTC_1.h **** *
 591:Generated_Source\PSoC4/RTC_1.h **** * \return
 592:Generated_Source\PSoC4/RTC_1.h **** *  The day value.
 593:Generated_Source\PSoC4/RTC_1.h **** *
 594:Generated_Source\PSoC4/RTC_1.h **** *******************************************************************************/
 595:Generated_Source\PSoC4/RTC_1.h **** static CY_INLINE uint32 RTC_1_GetDay(uint32 date)
 596:Generated_Source\PSoC4/RTC_1.h **** {
ARM GAS  C:\Users\corne\AppData\Local\Temp\ccR3s0rF.s 			page 40


 597:Generated_Source\PSoC4/RTC_1.h ****     uint32 retVal;
 598:Generated_Source\PSoC4/RTC_1.h **** 
 599:Generated_Source\PSoC4/RTC_1.h ****     retVal  = ((date & RTC_1_10_DAY_MASK) >> RTC_1_10_DAY_OFFSET) * 10u;
 600:Generated_Source\PSoC4/RTC_1.h ****     retVal += (date & RTC_1_DAY_MASK) >> RTC_1_DAY_OFFSET;
 601:Generated_Source\PSoC4/RTC_1.h **** 
 602:Generated_Source\PSoC4/RTC_1.h ****     return (retVal);
 603:Generated_Source\PSoC4/RTC_1.h **** }
 604:Generated_Source\PSoC4/RTC_1.h **** 
 605:Generated_Source\PSoC4/RTC_1.h **** 
 606:Generated_Source\PSoC4/RTC_1.h **** /*******************************************************************************
 607:Generated_Source\PSoC4/RTC_1.h **** * Function Name: RTC_1_GetMonth
 608:Generated_Source\PSoC4/RTC_1.h **** ****************************************************************************//**
 609:Generated_Source\PSoC4/RTC_1.h **** *
 610:Generated_Source\PSoC4/RTC_1.h **** * \brief
 611:Generated_Source\PSoC4/RTC_1.h **** *  Returns the month value from the date value that is passed as parameter.
 612:Generated_Source\PSoC4/RTC_1.h **** *
 613:Generated_Source\PSoC4/RTC_1.h **** * \param
 614:Generated_Source\PSoC4/RTC_1.h **** *  date The date value.
 615:Generated_Source\PSoC4/RTC_1.h **** *
 616:Generated_Source\PSoC4/RTC_1.h **** * \return
 617:Generated_Source\PSoC4/RTC_1.h **** *  The month value.
 618:Generated_Source\PSoC4/RTC_1.h **** *
 619:Generated_Source\PSoC4/RTC_1.h **** *******************************************************************************/
 620:Generated_Source\PSoC4/RTC_1.h **** static CY_INLINE uint32 RTC_1_GetMonth(uint32 date)
 621:Generated_Source\PSoC4/RTC_1.h **** {
 622:Generated_Source\PSoC4/RTC_1.h ****     uint32 retVal;
 623:Generated_Source\PSoC4/RTC_1.h **** 
 624:Generated_Source\PSoC4/RTC_1.h ****     retVal  = ((date & RTC_1_10_MONTH_MASK) >> RTC_1_10_MONTH_OFFSET) * 10u;
 625:Generated_Source\PSoC4/RTC_1.h ****     retVal += (date & RTC_1_MONTH_MASK) >> RTC_1_MONTH_OFFSET;
 626:Generated_Source\PSoC4/RTC_1.h **** 
 627:Generated_Source\PSoC4/RTC_1.h ****     return (retVal);
 628:Generated_Source\PSoC4/RTC_1.h **** }
 629:Generated_Source\PSoC4/RTC_1.h **** 
 630:Generated_Source\PSoC4/RTC_1.h **** 
 631:Generated_Source\PSoC4/RTC_1.h **** /*******************************************************************************
 632:Generated_Source\PSoC4/RTC_1.h **** * Function Name: RTC_1_GetYear
 633:Generated_Source\PSoC4/RTC_1.h **** ****************************************************************************//**
 634:Generated_Source\PSoC4/RTC_1.h **** *
 635:Generated_Source\PSoC4/RTC_1.h **** * \brief
 636:Generated_Source\PSoC4/RTC_1.h **** *  Returns the year value from the date value that is passed as parameter.
 637:Generated_Source\PSoC4/RTC_1.h **** *
 638:Generated_Source\PSoC4/RTC_1.h **** * \param
 639:Generated_Source\PSoC4/RTC_1.h **** *  date The date value.
 640:Generated_Source\PSoC4/RTC_1.h **** *
 641:Generated_Source\PSoC4/RTC_1.h **** * \return
 642:Generated_Source\PSoC4/RTC_1.h **** *  The year value.
 643:Generated_Source\PSoC4/RTC_1.h **** *
 644:Generated_Source\PSoC4/RTC_1.h **** *******************************************************************************/
 645:Generated_Source\PSoC4/RTC_1.h **** static CY_INLINE uint32 RTC_1_GetYear(uint32 date)
 646:Generated_Source\PSoC4/RTC_1.h **** {
 647:Generated_Source\PSoC4/RTC_1.h ****     uint32 retVal;
 648:Generated_Source\PSoC4/RTC_1.h **** 
 649:Generated_Source\PSoC4/RTC_1.h ****     retVal  = ((date & RTC_1_1000_YEAR_MASK) >> RTC_1_1000_YEAR_OFFSET) * 1000u;
 357              		.loc 2 649 0
 358 000c 030B     		lsrs	r3, r0, #12
 359 000e 0325     		movs	r5, #3
 360 0010 1D40     		ands	r5, r3
ARM GAS  C:\Users\corne\AppData\Local\Temp\ccR3s0rF.s 			page 41


 361 0012 FA21     		movs	r1, #250
 362              	.LVL25:
 363 0014 8900     		lsls	r1, r1, #2
 364 0016 0A00     		movs	r2, r1
 365 0018 6A43     		muls	r2, r5
 366              	.LVL26:
 650:Generated_Source\PSoC4/RTC_1.h ****     retVal += ((date & RTC_1_100_YEAR_MASK) >> RTC_1_100_YEAR_OFFSET) * 100u;
 367              		.loc 2 650 0
 368 001a 030A     		lsrs	r3, r0, #8
 369 001c 0F21     		movs	r1, #15
 370 001e 0B40     		ands	r3, r1
 371 0020 6420     		movs	r0, #100
 372              	.LVL27:
 373 0022 4343     		muls	r3, r0
 374 0024 9D18     		adds	r5, r3, r2
 375              	.LVL28:
 651:Generated_Source\PSoC4/RTC_1.h ****     retVal += ((date & RTC_1_10_YEAR_MASK) >> RTC_1_10_YEAR_OFFSET) * 10u;
 376              		.loc 2 651 0
 377 0026 4346     		mov	r3, r8
 378 0028 1B09     		lsrs	r3, r3, #4
 379 002a 0B40     		ands	r3, r1
 380 002c 9A00     		lsls	r2, r3, #2
 381 002e D318     		adds	r3, r2, r3
 382 0030 5B00     		lsls	r3, r3, #1
 383 0032 5B19     		adds	r3, r3, r5
 384              	.LVL29:
 652:Generated_Source\PSoC4/RTC_1.h ****     retVal += (date & RTC_1_YEAR_MASK) >> RTC_1_YEAR_OFFSET;
 385              		.loc 2 652 0
 386 0034 4546     		mov	r5, r8
 387 0036 0D40     		ands	r5, r1
 388 0038 5D19     		adds	r5, r3, r5
 389              	.LVL30:
 390              	.LBE59:
 391              	.LBE58:
1268:Generated_Source\PSoC4/RTC_1.c ****     uint32 i;
1269:Generated_Source\PSoC4/RTC_1.c ****     uint32 tmpYear;
1270:Generated_Source\PSoC4/RTC_1.c ****     uint32 tmpMonth;
1271:Generated_Source\PSoC4/RTC_1.c ****     uint32 tmpVal;
1272:Generated_Source\PSoC4/RTC_1.c ****     uint64 unixTime;
1273:Generated_Source\PSoC4/RTC_1.c **** 
1274:Generated_Source\PSoC4/RTC_1.c ****     unixTime = 0u;
 392              		.loc 1 1274 0
 393 003a 0026     		movs	r6, #0
 394 003c 0027     		movs	r7, #0
1275:Generated_Source\PSoC4/RTC_1.c ****     tmpYear = RTC_1_GetYear(inputDate);
1276:Generated_Source\PSoC4/RTC_1.c **** 
1277:Generated_Source\PSoC4/RTC_1.c ****     /* Calculate seconds from epoch start up to (but not including) current year. */
1278:Generated_Source\PSoC4/RTC_1.c ****     for(i = RTC_1_YEAR_0; i < tmpYear; i++)
 395              		.loc 1 1278 0
 396 003e 574C     		ldr	r4, .L41
 397 0040 1FE0     		b	.L24
 398              	.LVL31:
 399              	.L29:
 400              	.LBB60:
 401              	.LBB61:
 470:Generated_Source\PSoC4/RTC_1.h ****     {
 402              		.loc 2 470 0
ARM GAS  C:\Users\corne\AppData\Local\Temp\ccR3s0rF.s 			page 42


 403 0042 A307     		lsls	r3, r4, #30
 404 0044 05D1     		bne	.L25
 405 0046 6421     		movs	r1, #100
 406 0048 2000     		movs	r0, r4
 407 004a FFF7FEFF 		bl	__aeabi_uidivmod
 408              	.LVL32:
 409 004e 0029     		cmp	r1, #0
 410 0050 08D1     		bne	.L36
 411              	.L25:
 412 0052 C821     		movs	r1, #200
 413 0054 4900     		lsls	r1, r1, #1
 414 0056 2000     		movs	r0, r4
 415 0058 FFF7FEFF 		bl	__aeabi_uidivmod
 416              	.LVL33:
 417 005c 0029     		cmp	r1, #0
 418 005e 03D1     		bne	.L37
 472:Generated_Source\PSoC4/RTC_1.h ****     }
 419              		.loc 2 472 0
 420 0060 0123     		movs	r3, #1
 421 0062 02E0     		b	.L26
 422              	.L36:
 423 0064 0123     		movs	r3, #1
 424 0066 00E0     		b	.L26
 425              	.L37:
 476:Generated_Source\PSoC4/RTC_1.h ****     }
 426              		.loc 2 476 0
 427 0068 0023     		movs	r3, #0
 428              	.L26:
 429              	.LVL34:
 430              	.LBE61:
 431              	.LBE60:
1279:Generated_Source\PSoC4/RTC_1.c ****     {
1280:Generated_Source\PSoC4/RTC_1.c ****         if(0u != RTC_1_LeapYear(i))
 432              		.loc 1 1280 0
 433 006a 002B     		cmp	r3, #0
 434 006c 04D0     		beq	.L27
1281:Generated_Source\PSoC4/RTC_1.c ****         {
1282:Generated_Source\PSoC4/RTC_1.c ****             unixTime += RTC_1_SECONDS_PER_LEAP_YEAR;
 435              		.loc 1 1282 0
 436 006e 4C4A     		ldr	r2, .L41+4
 437 0070 0023     		movs	r3, #0
 438 0072 B618     		adds	r6, r6, r2
 439 0074 5F41     		adcs	r7, r7, r3
 440              	.LVL35:
 441 0076 03E0     		b	.L28
 442              	.L27:
1283:Generated_Source\PSoC4/RTC_1.c ****         }
1284:Generated_Source\PSoC4/RTC_1.c ****         else
1285:Generated_Source\PSoC4/RTC_1.c ****         {
1286:Generated_Source\PSoC4/RTC_1.c ****             unixTime += RTC_1_SECONDS_PER_NONLEAP_YEAR;
 443              		.loc 1 1286 0
 444 0078 4A4A     		ldr	r2, .L41+8
 445 007a 0023     		movs	r3, #0
 446 007c B618     		adds	r6, r6, r2
 447 007e 5F41     		adcs	r7, r7, r3
 448              	.LVL36:
 449              	.L28:
ARM GAS  C:\Users\corne\AppData\Local\Temp\ccR3s0rF.s 			page 43


1278:Generated_Source\PSoC4/RTC_1.c ****     {
 450              		.loc 1 1278 0 discriminator 2
 451 0080 0134     		adds	r4, r4, #1
 452              	.LVL37:
 453              	.L24:
1278:Generated_Source\PSoC4/RTC_1.c ****     {
 454              		.loc 1 1278 0 is_stmt 0 discriminator 1
 455 0082 AC42     		cmp	r4, r5
 456 0084 DDD3     		bcc	.L29
 457              	.LVL38:
 458              	.LBB62:
 459              	.LBB63:
 624:Generated_Source\PSoC4/RTC_1.h ****     retVal += (date & RTC_1_MONTH_MASK) >> RTC_1_MONTH_OFFSET;
 460              		.loc 2 624 0 is_stmt 1
 461 0086 4346     		mov	r3, r8
 462 0088 1B0F     		lsrs	r3, r3, #28
 463 008a 0122     		movs	r2, #1
 464 008c 1340     		ands	r3, r2
 465 008e 9A00     		lsls	r2, r3, #2
 466 0090 D318     		adds	r3, r2, r3
 467 0092 5B00     		lsls	r3, r3, #1
 468              	.LVL39:
 625:Generated_Source\PSoC4/RTC_1.h **** 
 469              		.loc 2 625 0
 470 0094 4246     		mov	r2, r8
 471 0096 120E     		lsrs	r2, r2, #24
 472 0098 0F21     		movs	r1, #15
 473 009a 0A40     		ands	r2, r1
 474 009c 9B18     		adds	r3, r3, r2
 475              	.LVL40:
 476              	.LBE63:
 477              	.LBE62:
1287:Generated_Source\PSoC4/RTC_1.c ****         }
1288:Generated_Source\PSoC4/RTC_1.c ****     }
1289:Generated_Source\PSoC4/RTC_1.c **** 
1290:Generated_Source\PSoC4/RTC_1.c ****     /* Calculates how many seconds had elapsed in this year prior to the current month. */
1291:Generated_Source\PSoC4/RTC_1.c ****     tmpMonth = RTC_1_GetMonth(inputDate);
1292:Generated_Source\PSoC4/RTC_1.c ****     tmpVal = RTC_1_daysBeforeMonthTbl[tmpMonth - 1u];
 478              		.loc 1 1292 0
 479 009e 5A1E     		subs	r2, r3, #1
 480 00a0 5200     		lsls	r2, r2, #1
 481 00a2 4149     		ldr	r1, .L41+12
 482 00a4 545A     		ldrh	r4, [r2, r1]
 483              	.LVL41:
1293:Generated_Source\PSoC4/RTC_1.c **** 
1294:Generated_Source\PSoC4/RTC_1.c ****     if((tmpMonth > 2u) && (0u != RTC_1_LeapYear(tmpYear)))
 484              		.loc 1 1294 0
 485 00a6 022B     		cmp	r3, #2
 486 00a8 16D9     		bls	.L30
 487              	.LVL42:
 488              	.LBB64:
 489              	.LBB65:
 470:Generated_Source\PSoC4/RTC_1.h ****     {
 490              		.loc 2 470 0
 491 00aa AB07     		lsls	r3, r5, #30
 492 00ac 05D1     		bne	.L31
 493 00ae 6421     		movs	r1, #100
ARM GAS  C:\Users\corne\AppData\Local\Temp\ccR3s0rF.s 			page 44


 494 00b0 2800     		movs	r0, r5
 495 00b2 FFF7FEFF 		bl	__aeabi_uidivmod
 496              	.LVL43:
 497 00b6 0029     		cmp	r1, #0
 498 00b8 08D1     		bne	.L38
 499              	.L31:
 500 00ba C821     		movs	r1, #200
 501 00bc 4900     		lsls	r1, r1, #1
 502 00be 2800     		movs	r0, r5
 503 00c0 FFF7FEFF 		bl	__aeabi_uidivmod
 504              	.LVL44:
 505 00c4 0029     		cmp	r1, #0
 506 00c6 03D1     		bne	.L39
 472:Generated_Source\PSoC4/RTC_1.h ****     }
 507              		.loc 2 472 0
 508 00c8 0123     		movs	r3, #1
 509 00ca 02E0     		b	.L32
 510              	.L38:
 511 00cc 0123     		movs	r3, #1
 512 00ce 00E0     		b	.L32
 513              	.L39:
 476:Generated_Source\PSoC4/RTC_1.h ****     }
 514              		.loc 2 476 0
 515 00d0 0023     		movs	r3, #0
 516              	.L32:
 517              	.LVL45:
 518              	.LBE65:
 519              	.LBE64:
 520              		.loc 1 1294 0
 521 00d2 002B     		cmp	r3, #0
 522 00d4 00D0     		beq	.L30
1295:Generated_Source\PSoC4/RTC_1.c ****     {
1296:Generated_Source\PSoC4/RTC_1.c ****         tmpVal++;
 523              		.loc 1 1296 0
 524 00d6 0134     		adds	r4, r4, #1
 525              	.LVL46:
 526              	.L30:
1297:Generated_Source\PSoC4/RTC_1.c ****     }
1298:Generated_Source\PSoC4/RTC_1.c **** 
1299:Generated_Source\PSoC4/RTC_1.c ****     /* Calculates how many seconds are in current month days prior to today. */
1300:Generated_Source\PSoC4/RTC_1.c ****     unixTime += tmpVal * RTC_1_SECONDS_PER_DAY;
 527              		.loc 1 1300 0
 528 00d8 3449     		ldr	r1, .L41+16
 529 00da 4C43     		muls	r4, r1
 530              	.LVL47:
 531 00dc 2200     		movs	r2, r4
 532 00de 0023     		movs	r3, #0
 533 00e0 B618     		adds	r6, r6, r2
 534 00e2 5F41     		adcs	r7, r7, r3
 535              	.LVL48:
 536              	.LBB66:
 537              	.LBB67:
 599:Generated_Source\PSoC4/RTC_1.h ****     retVal += (date & RTC_1_DAY_MASK) >> RTC_1_DAY_OFFSET;
 538              		.loc 2 599 0
 539 00e4 4346     		mov	r3, r8
 540 00e6 1A0D     		lsrs	r2, r3, #20
 541 00e8 0325     		movs	r5, #3
ARM GAS  C:\Users\corne\AppData\Local\Temp\ccR3s0rF.s 			page 45


 542 00ea 2A40     		ands	r2, r5
 543 00ec 9300     		lsls	r3, r2, #2
 544 00ee 9B18     		adds	r3, r3, r2
 545 00f0 5B00     		lsls	r3, r3, #1
 546              	.LVL49:
 600:Generated_Source\PSoC4/RTC_1.h **** 
 547              		.loc 2 600 0
 548 00f2 4246     		mov	r2, r8
 549 00f4 120C     		lsrs	r2, r2, #16
 550 00f6 0F24     		movs	r4, #15
 551 00f8 2240     		ands	r2, r4
 552 00fa 9B18     		adds	r3, r3, r2
 553              	.LVL50:
 554              	.LBE67:
 555              	.LBE66:
1301:Generated_Source\PSoC4/RTC_1.c ****     unixTime += (RTC_1_GetDay(inputDate) - 1u) * RTC_1_SECONDS_PER_DAY;
 556              		.loc 1 1301 0
 557 00fc 4B43     		muls	r3, r1
 558 00fe 2C4A     		ldr	r2, .L41+20
 559 0100 9818     		adds	r0, r3, r2
 560 0102 0021     		movs	r1, #0
 561 0104 3618     		adds	r6, r6, r0
 562 0106 4F41     		adcs	r7, r7, r1
 563              	.LVL51:
 564              	.LBB68:
 565              	.LBB69:
 552:Generated_Source\PSoC4/RTC_1.h ****     retVal += (inputTime & RTC_1_HOURS_MASK) >> RTC_1_HOURS_OFFSET;
 566              		.loc 2 552 0
 567 0108 4B46     		mov	r3, r9
 568 010a 1B0D     		lsrs	r3, r3, #20
 569 010c 2B40     		ands	r3, r5
 570 010e 9A00     		lsls	r2, r3, #2
 571 0110 D318     		adds	r3, r2, r3
 572 0112 5B00     		lsls	r3, r3, #1
 573              	.LVL52:
 553:Generated_Source\PSoC4/RTC_1.h **** 
 574              		.loc 2 553 0
 575 0114 4A46     		mov	r2, r9
 576 0116 120C     		lsrs	r2, r2, #16
 577 0118 1440     		ands	r4, r2
 578 011a 1B19     		adds	r3, r3, r4
 579              	.LVL53:
 580              	.LBE69:
 581              	.LBE68:
 582              	.LBB70:
 583              	.LBB71:
 653:Generated_Source\PSoC4/RTC_1.h **** 
 654:Generated_Source\PSoC4/RTC_1.h ****     return (retVal);
 655:Generated_Source\PSoC4/RTC_1.h **** }
 656:Generated_Source\PSoC4/RTC_1.h **** 
 657:Generated_Source\PSoC4/RTC_1.h **** 
 658:Generated_Source\PSoC4/RTC_1.h **** /*******************************************************************************
 659:Generated_Source\PSoC4/RTC_1.h **** * Function Name: RTC_1_SetSecond
 660:Generated_Source\PSoC4/RTC_1.h **** ****************************************************************************//**
 661:Generated_Source\PSoC4/RTC_1.h **** *\internal
 662:Generated_Source\PSoC4/RTC_1.h **** * \brief
 663:Generated_Source\PSoC4/RTC_1.h **** *  Updates the time with the new second value.
ARM GAS  C:\Users\corne\AppData\Local\Temp\ccR3s0rF.s 			page 46


 664:Generated_Source\PSoC4/RTC_1.h **** *
 665:Generated_Source\PSoC4/RTC_1.h **** * \param
 666:Generated_Source\PSoC4/RTC_1.h **** * time The current date.
 667:Generated_Source\PSoC4/RTC_1.h **** * \param
 668:Generated_Source\PSoC4/RTC_1.h **** * second The seconds value to be set to the time variable.
 669:Generated_Source\PSoC4/RTC_1.h **** *
 670:Generated_Source\PSoC4/RTC_1.h **** * \return
 671:Generated_Source\PSoC4/RTC_1.h **** *  The updated time variable.
 672:Generated_Source\PSoC4/RTC_1.h **** *\endinternal
 673:Generated_Source\PSoC4/RTC_1.h **** *******************************************************************************/
 674:Generated_Source\PSoC4/RTC_1.h **** static CY_INLINE uint32 RTC_1_SetSecond(uint32 inputTime, uint32 inputSecond)
 675:Generated_Source\PSoC4/RTC_1.h **** {
 676:Generated_Source\PSoC4/RTC_1.h ****     inputTime &= ~(RTC_1_SECONDS_FULL_MASK);
 677:Generated_Source\PSoC4/RTC_1.h **** 
 678:Generated_Source\PSoC4/RTC_1.h ****     inputTime |= (inputSecond / 10u) << RTC_1_10_SECONDS_OFFSET;
 679:Generated_Source\PSoC4/RTC_1.h ****     inputTime |= (inputSecond % 10u) << RTC_1_SECONDS_OFFSET;
 680:Generated_Source\PSoC4/RTC_1.h **** 
 681:Generated_Source\PSoC4/RTC_1.h ****     return(inputTime);
 682:Generated_Source\PSoC4/RTC_1.h **** }
 683:Generated_Source\PSoC4/RTC_1.h **** 
 684:Generated_Source\PSoC4/RTC_1.h **** 
 685:Generated_Source\PSoC4/RTC_1.h **** /*******************************************************************************
 686:Generated_Source\PSoC4/RTC_1.h **** * Function Name: RTC_1_SetMinutes
 687:Generated_Source\PSoC4/RTC_1.h **** ****************************************************************************//**
 688:Generated_Source\PSoC4/RTC_1.h **** *\internal
 689:Generated_Source\PSoC4/RTC_1.h **** * \brief
 690:Generated_Source\PSoC4/RTC_1.h **** *  Updates the time with the new minute value.
 691:Generated_Source\PSoC4/RTC_1.h **** *
 692:Generated_Source\PSoC4/RTC_1.h **** * \param
 693:Generated_Source\PSoC4/RTC_1.h **** *  time The current date.
 694:Generated_Source\PSoC4/RTC_1.h **** * \param
 695:Generated_Source\PSoC4/RTC_1.h **** *  minutes The minutes value to be set to the time variable.
 696:Generated_Source\PSoC4/RTC_1.h **** *
 697:Generated_Source\PSoC4/RTC_1.h **** * \return
 698:Generated_Source\PSoC4/RTC_1.h **** *  The updated time variable.
 699:Generated_Source\PSoC4/RTC_1.h **** * \endinternal
 700:Generated_Source\PSoC4/RTC_1.h **** *******************************************************************************/
 701:Generated_Source\PSoC4/RTC_1.h **** static CY_INLINE uint32 RTC_1_SetMinutes(uint32 inputTime, uint32 inputMinute)
 702:Generated_Source\PSoC4/RTC_1.h **** {
 703:Generated_Source\PSoC4/RTC_1.h ****     inputTime &= ~(RTC_1_MINUTES_FULL_MASK);
 704:Generated_Source\PSoC4/RTC_1.h **** 
 705:Generated_Source\PSoC4/RTC_1.h ****     inputTime |= (inputMinute / 10u) << RTC_1_10_MINUTES_OFFSET;
 706:Generated_Source\PSoC4/RTC_1.h ****     inputTime |= (inputMinute % 10u) << RTC_1_MINUTES_OFFSET;
 707:Generated_Source\PSoC4/RTC_1.h **** 
 708:Generated_Source\PSoC4/RTC_1.h ****     return(inputTime);
 709:Generated_Source\PSoC4/RTC_1.h **** }
 710:Generated_Source\PSoC4/RTC_1.h **** 
 711:Generated_Source\PSoC4/RTC_1.h **** 
 712:Generated_Source\PSoC4/RTC_1.h **** /*******************************************************************************
 713:Generated_Source\PSoC4/RTC_1.h **** * Function Name: RTC_1_SetHours
 714:Generated_Source\PSoC4/RTC_1.h **** ****************************************************************************//**
 715:Generated_Source\PSoC4/RTC_1.h **** *\internal
 716:Generated_Source\PSoC4/RTC_1.h **** * \brief
 717:Generated_Source\PSoC4/RTC_1.h **** *  Updates the time with the new hour value.
 718:Generated_Source\PSoC4/RTC_1.h **** *
 719:Generated_Source\PSoC4/RTC_1.h **** * \param
 720:Generated_Source\PSoC4/RTC_1.h **** * time The current date.
ARM GAS  C:\Users\corne\AppData\Local\Temp\ccR3s0rF.s 			page 47


 721:Generated_Source\PSoC4/RTC_1.h **** * \param
 722:Generated_Source\PSoC4/RTC_1.h **** * hours The hours value to be set to the time variable.
 723:Generated_Source\PSoC4/RTC_1.h **** *
 724:Generated_Source\PSoC4/RTC_1.h **** * \return
 725:Generated_Source\PSoC4/RTC_1.h **** *  The updated time variable.
 726:Generated_Source\PSoC4/RTC_1.h **** *\endinternal
 727:Generated_Source\PSoC4/RTC_1.h **** *******************************************************************************/
 728:Generated_Source\PSoC4/RTC_1.h **** static CY_INLINE uint32 RTC_1_SetHours(uint32 inputTime, uint32 inputHours)
 729:Generated_Source\PSoC4/RTC_1.h **** {
 730:Generated_Source\PSoC4/RTC_1.h ****     inputTime &= ~(RTC_1_HOURS_FULL_MASK);
 731:Generated_Source\PSoC4/RTC_1.h **** 
 732:Generated_Source\PSoC4/RTC_1.h ****     inputTime |= (inputHours / 10u) << RTC_1_10_HOURS_OFFSET;
 733:Generated_Source\PSoC4/RTC_1.h ****     inputTime |= (inputHours % 10u) << RTC_1_HOURS_OFFSET;
 734:Generated_Source\PSoC4/RTC_1.h **** 
 735:Generated_Source\PSoC4/RTC_1.h ****     return(inputTime);
 736:Generated_Source\PSoC4/RTC_1.h **** }
 737:Generated_Source\PSoC4/RTC_1.h **** 
 738:Generated_Source\PSoC4/RTC_1.h **** 
 739:Generated_Source\PSoC4/RTC_1.h **** /*******************************************************************************
 740:Generated_Source\PSoC4/RTC_1.h **** * Function Name: RTC_1_SetAmPm
 741:Generated_Source\PSoC4/RTC_1.h **** ****************************************************************************//**
 742:Generated_Source\PSoC4/RTC_1.h **** *\internal
 743:Generated_Source\PSoC4/RTC_1.h **** * \brief
 744:Generated_Source\PSoC4/RTC_1.h **** *  Updates the time variable with the AmPm status.
 745:Generated_Source\PSoC4/RTC_1.h **** *
 746:Generated_Source\PSoC4/RTC_1.h **** * \param
 747:Generated_Source\PSoC4/RTC_1.h **** * time The current date.
 748:Generated_Source\PSoC4/RTC_1.h **** * \param
 749:Generated_Source\PSoC4/RTC_1.h **** * periodOfDay The AmPm status to be set to the time variable.
 750:Generated_Source\PSoC4/RTC_1.h **** *
 751:Generated_Source\PSoC4/RTC_1.h **** * \return
 752:Generated_Source\PSoC4/RTC_1.h **** *  The updated time variable.
 753:Generated_Source\PSoC4/RTC_1.h **** * \endinternal
 754:Generated_Source\PSoC4/RTC_1.h **** *******************************************************************************/
 755:Generated_Source\PSoC4/RTC_1.h **** static CY_INLINE uint32 RTC_1_SetAmPm(uint32 inputTime, uint32 periodOfDay)
 756:Generated_Source\PSoC4/RTC_1.h **** {
 757:Generated_Source\PSoC4/RTC_1.h ****     if(0u != periodOfDay)
 758:Generated_Source\PSoC4/RTC_1.h ****     {
 759:Generated_Source\PSoC4/RTC_1.h ****         inputTime &= ~(RTC_1_PERIOD_OF_DAY_MASK);
 760:Generated_Source\PSoC4/RTC_1.h ****     }
 761:Generated_Source\PSoC4/RTC_1.h ****     else
 762:Generated_Source\PSoC4/RTC_1.h ****     {
 763:Generated_Source\PSoC4/RTC_1.h ****         inputTime |= RTC_1_PERIOD_OF_DAY_MASK;
 764:Generated_Source\PSoC4/RTC_1.h ****     }
 765:Generated_Source\PSoC4/RTC_1.h **** 
 766:Generated_Source\PSoC4/RTC_1.h ****     return(inputTime);
 767:Generated_Source\PSoC4/RTC_1.h **** }
 768:Generated_Source\PSoC4/RTC_1.h **** 
 769:Generated_Source\PSoC4/RTC_1.h **** 
 770:Generated_Source\PSoC4/RTC_1.h **** /*******************************************************************************
 771:Generated_Source\PSoC4/RTC_1.h **** * Function Name: RTC_1_SetDay
 772:Generated_Source\PSoC4/RTC_1.h **** ****************************************************************************//**
 773:Generated_Source\PSoC4/RTC_1.h **** *\internal
 774:Generated_Source\PSoC4/RTC_1.h **** * \brief
 775:Generated_Source\PSoC4/RTC_1.h **** *  Updates the date variable with the new day value.
 776:Generated_Source\PSoC4/RTC_1.h **** *
 777:Generated_Source\PSoC4/RTC_1.h **** * \param
ARM GAS  C:\Users\corne\AppData\Local\Temp\ccR3s0rF.s 			page 48


 778:Generated_Source\PSoC4/RTC_1.h **** * date The current date.
 779:Generated_Source\PSoC4/RTC_1.h **** * \param
 780:Generated_Source\PSoC4/RTC_1.h **** * day The month to be set to the date variable.
 781:Generated_Source\PSoC4/RTC_1.h **** *
 782:Generated_Source\PSoC4/RTC_1.h **** * \return
 783:Generated_Source\PSoC4/RTC_1.h **** *  The updated date variable.
 784:Generated_Source\PSoC4/RTC_1.h **** *\endinternal
 785:Generated_Source\PSoC4/RTC_1.h **** *******************************************************************************/
 786:Generated_Source\PSoC4/RTC_1.h **** static CY_INLINE uint32 RTC_1_SetDay(uint32 inputDate, uint32 inputDay)
 787:Generated_Source\PSoC4/RTC_1.h **** {
 788:Generated_Source\PSoC4/RTC_1.h ****     inputDate &= ~(RTC_1_DAY_FULL_MASK);
 789:Generated_Source\PSoC4/RTC_1.h **** 
 790:Generated_Source\PSoC4/RTC_1.h ****     inputDate |= (inputDay / 10u) << RTC_1_10_DAY_OFFSET;
 791:Generated_Source\PSoC4/RTC_1.h ****     inputDate |= (inputDay % 10u) << RTC_1_DAY_OFFSET;
 792:Generated_Source\PSoC4/RTC_1.h **** 
 793:Generated_Source\PSoC4/RTC_1.h ****     return(inputDate);
 794:Generated_Source\PSoC4/RTC_1.h **** }
 795:Generated_Source\PSoC4/RTC_1.h **** 
 796:Generated_Source\PSoC4/RTC_1.h **** 
 797:Generated_Source\PSoC4/RTC_1.h **** /*******************************************************************************
 798:Generated_Source\PSoC4/RTC_1.h **** * Function Name: RTC_1_SetMonth
 799:Generated_Source\PSoC4/RTC_1.h **** ****************************************************************************//**
 800:Generated_Source\PSoC4/RTC_1.h **** *\internal
 801:Generated_Source\PSoC4/RTC_1.h **** * \brief
 802:Generated_Source\PSoC4/RTC_1.h **** *  Updates the date variable with the new month value.
 803:Generated_Source\PSoC4/RTC_1.h **** *
 804:Generated_Source\PSoC4/RTC_1.h **** * \param
 805:Generated_Source\PSoC4/RTC_1.h **** * date The current date.
 806:Generated_Source\PSoC4/RTC_1.h **** * \param
 807:Generated_Source\PSoC4/RTC_1.h **** * month The month that to be set to the date variable.
 808:Generated_Source\PSoC4/RTC_1.h **** *
 809:Generated_Source\PSoC4/RTC_1.h **** * \return
 810:Generated_Source\PSoC4/RTC_1.h **** *  The updated date variable.
 811:Generated_Source\PSoC4/RTC_1.h **** *\endinternal
 812:Generated_Source\PSoC4/RTC_1.h **** *******************************************************************************/
 813:Generated_Source\PSoC4/RTC_1.h **** static CY_INLINE uint32 RTC_1_SetMonth(uint32 inputDate, uint32 inputMonth)
 814:Generated_Source\PSoC4/RTC_1.h **** {
 815:Generated_Source\PSoC4/RTC_1.h ****     inputDate &= ~(RTC_1_MONTH_FULL_MASK);
 816:Generated_Source\PSoC4/RTC_1.h **** 
 817:Generated_Source\PSoC4/RTC_1.h ****     inputDate |= (inputMonth / 10u) << RTC_1_10_MONTH_OFFSET;
 818:Generated_Source\PSoC4/RTC_1.h ****     inputDate |= (inputMonth % 10u) << RTC_1_MONTH_OFFSET;
 819:Generated_Source\PSoC4/RTC_1.h **** 
 820:Generated_Source\PSoC4/RTC_1.h ****     return(inputDate);
 821:Generated_Source\PSoC4/RTC_1.h **** }
 822:Generated_Source\PSoC4/RTC_1.h **** 
 823:Generated_Source\PSoC4/RTC_1.h **** 
 824:Generated_Source\PSoC4/RTC_1.h **** /*******************************************************************************
 825:Generated_Source\PSoC4/RTC_1.h **** * Function Name: RTC_1_SetYear
 826:Generated_Source\PSoC4/RTC_1.h **** ****************************************************************************//**
 827:Generated_Source\PSoC4/RTC_1.h **** *\internal
 828:Generated_Source\PSoC4/RTC_1.h **** * \brief
 829:Generated_Source\PSoC4/RTC_1.h **** *  Updates the date variable with the new year value.
 830:Generated_Source\PSoC4/RTC_1.h **** *
 831:Generated_Source\PSoC4/RTC_1.h **** * \param
 832:Generated_Source\PSoC4/RTC_1.h **** * date The current date.
 833:Generated_Source\PSoC4/RTC_1.h **** * \param
 834:Generated_Source\PSoC4/RTC_1.h **** * year The year to be set to the date variable.
ARM GAS  C:\Users\corne\AppData\Local\Temp\ccR3s0rF.s 			page 49


 835:Generated_Source\PSoC4/RTC_1.h **** *
 836:Generated_Source\PSoC4/RTC_1.h **** * \return
 837:Generated_Source\PSoC4/RTC_1.h **** * The updated date variable.
 838:Generated_Source\PSoC4/RTC_1.h **** *\endinternal
 839:Generated_Source\PSoC4/RTC_1.h **** *******************************************************************************/
 840:Generated_Source\PSoC4/RTC_1.h **** static CY_INLINE uint32 RTC_1_SetYear(uint32 inputDate, uint32 inputYear)
 841:Generated_Source\PSoC4/RTC_1.h **** {
 842:Generated_Source\PSoC4/RTC_1.h ****     inputDate  &= ~(RTC_1_YEAR_FULL_MASK);
 843:Generated_Source\PSoC4/RTC_1.h **** 
 844:Generated_Source\PSoC4/RTC_1.h ****     inputDate |= (inputYear / 1000u) << RTC_1_1000_YEAR_OFFSET;
 845:Generated_Source\PSoC4/RTC_1.h ****     inputYear %= 1000u;
 846:Generated_Source\PSoC4/RTC_1.h **** 
 847:Generated_Source\PSoC4/RTC_1.h ****     inputDate |= (inputYear / 100u) << RTC_1_100_YEAR_OFFSET;
 848:Generated_Source\PSoC4/RTC_1.h ****     inputYear %= 100u;
 849:Generated_Source\PSoC4/RTC_1.h **** 
 850:Generated_Source\PSoC4/RTC_1.h ****     inputDate |= (inputYear / 10u) << RTC_1_10_YEAR_OFFSET;
 851:Generated_Source\PSoC4/RTC_1.h ****     inputDate |= (inputYear % 10u) << RTC_1_YEAR_OFFSET;
 852:Generated_Source\PSoC4/RTC_1.h **** 
 853:Generated_Source\PSoC4/RTC_1.h ****     return(inputDate);
 854:Generated_Source\PSoC4/RTC_1.h **** }
 855:Generated_Source\PSoC4/RTC_1.h **** 
 856:Generated_Source\PSoC4/RTC_1.h **** 
 857:Generated_Source\PSoC4/RTC_1.h **** /*******************************************************************************
 858:Generated_Source\PSoC4/RTC_1.h **** * Function Name: RTC_1_GetNextMinSec
 859:Generated_Source\PSoC4/RTC_1.h **** ****************************************************************************//**
 860:Generated_Source\PSoC4/RTC_1.h **** *\internal
 861:Generated_Source\PSoC4/RTC_1.h **** * \brief
 862:Generated_Source\PSoC4/RTC_1.h **** * This is an internal function that calculates the value of the next Second/Minute
 863:Generated_Source\PSoC4/RTC_1.h **** * that follows after the current Minute/Second.
 864:Generated_Source\PSoC4/RTC_1.h **** *
 865:Generated_Source\PSoC4/RTC_1.h **** * \param
 866:Generated_Source\PSoC4/RTC_1.h **** * curVal The current Second/Minute value.
 867:Generated_Source\PSoC4/RTC_1.h **** *
 868:Generated_Source\PSoC4/RTC_1.h **** * \return
 869:Generated_Source\PSoC4/RTC_1.h **** * Returns the Second/Minute which follows after the current Second/Minute.
 870:Generated_Source\PSoC4/RTC_1.h **** *\endinternal
 871:Generated_Source\PSoC4/RTC_1.h **** *******************************************************************************/
 872:Generated_Source\PSoC4/RTC_1.h **** static CY_INLINE uint32 RTC_1_GetNextMinSec(uint32 curVal)
 873:Generated_Source\PSoC4/RTC_1.h **** {
 874:Generated_Source\PSoC4/RTC_1.h ****     return((curVal < 59u) ? (curVal + 1u) : 0u);
 875:Generated_Source\PSoC4/RTC_1.h **** }
 876:Generated_Source\PSoC4/RTC_1.h **** 
 877:Generated_Source\PSoC4/RTC_1.h **** 
 878:Generated_Source\PSoC4/RTC_1.h **** /*******************************************************************************
 879:Generated_Source\PSoC4/RTC_1.h **** * Function Name: RTC_1_GetNextHour
 880:Generated_Source\PSoC4/RTC_1.h **** ****************************************************************************//**
 881:Generated_Source\PSoC4/RTC_1.h **** *\internal
 882:Generated_Source\PSoC4/RTC_1.h **** * \brief
 883:Generated_Source\PSoC4/RTC_1.h **** *  This is an internal function that calculates the value of the next Hour
 884:Generated_Source\PSoC4/RTC_1.h **** *  that follows after the current Hour.
 885:Generated_Source\PSoC4/RTC_1.h **** *
 886:Generated_Source\PSoC4/RTC_1.h **** * \param
 887:Generated_Source\PSoC4/RTC_1.h **** * curVal The current Hour value.
 888:Generated_Source\PSoC4/RTC_1.h **** *
 889:Generated_Source\PSoC4/RTC_1.h **** * \return
 890:Generated_Source\PSoC4/RTC_1.h **** *  Returns the Hour which follows after the current Hour.
 891:Generated_Source\PSoC4/RTC_1.h **** * \endinternal
ARM GAS  C:\Users\corne\AppData\Local\Temp\ccR3s0rF.s 			page 50


 892:Generated_Source\PSoC4/RTC_1.h **** *******************************************************************************/
 893:Generated_Source\PSoC4/RTC_1.h **** static CY_INLINE uint32 RTC_1_GetNextHour(uint32 curVal)
 894:Generated_Source\PSoC4/RTC_1.h **** {
 895:Generated_Source\PSoC4/RTC_1.h ****     return((curVal < 23u) ? (curVal + 1u) : 0u);
 896:Generated_Source\PSoC4/RTC_1.h **** }
 897:Generated_Source\PSoC4/RTC_1.h **** 
 898:Generated_Source\PSoC4/RTC_1.h **** 
 899:Generated_Source\PSoC4/RTC_1.h **** /*******************************************************************************
 900:Generated_Source\PSoC4/RTC_1.h **** * Function Name: RTC_1_GetNextDay
 901:Generated_Source\PSoC4/RTC_1.h **** ****************************************************************************//**
 902:Generated_Source\PSoC4/RTC_1.h **** * \internal
 903:Generated_Source\PSoC4/RTC_1.h **** * \brief
 904:Generated_Source\PSoC4/RTC_1.h **** *  This is an internal function that calculates the value of the next Day
 905:Generated_Source\PSoC4/RTC_1.h **** *  that follows after the current Day.
 906:Generated_Source\PSoC4/RTC_1.h **** *
 907:Generated_Source\PSoC4/RTC_1.h **** * \param
 908:Generated_Source\PSoC4/RTC_1.h **** *  curYear The current year.
 909:Generated_Source\PSoC4/RTC_1.h **** * \param
 910:Generated_Source\PSoC4/RTC_1.h **** *  curMonth The current month.
 911:Generated_Source\PSoC4/RTC_1.h **** * \param
 912:Generated_Source\PSoC4/RTC_1.h **** *  curDay The current day.
 913:Generated_Source\PSoC4/RTC_1.h **** * \param
 914:Generated_Source\PSoC4/RTC_1.h **** *  alarmCfgMask Alarm Config Mask.
 915:Generated_Source\PSoC4/RTC_1.h **** *
 916:Generated_Source\PSoC4/RTC_1.h **** * \return
 917:Generated_Source\PSoC4/RTC_1.h **** *  Returns the day which follows after the current Day.
 918:Generated_Source\PSoC4/RTC_1.h **** * \endinternal
 919:Generated_Source\PSoC4/RTC_1.h **** *******************************************************************************/
 920:Generated_Source\PSoC4/RTC_1.h **** static CY_INLINE uint32 RTC_1_GetNextDay(uint32 curYear, uint32 curMonth, uint32 curDay, uint32 ala
 921:Generated_Source\PSoC4/RTC_1.h **** {
 922:Generated_Source\PSoC4/RTC_1.h ****     uint32 daysInMonth;
 923:Generated_Source\PSoC4/RTC_1.h ****     uint32 tmpVal;
 924:Generated_Source\PSoC4/RTC_1.h **** 
 925:Generated_Source\PSoC4/RTC_1.h ****     daysInMonth = RTC_1_DaysInMonth(curMonth, curYear);
 926:Generated_Source\PSoC4/RTC_1.h **** 
 927:Generated_Source\PSoC4/RTC_1.h ****     if(0u != (alarmCfgMask & RTC_1_ALARM_DAYOFWEEK_MASK))
 928:Generated_Source\PSoC4/RTC_1.h ****     {
 929:Generated_Source\PSoC4/RTC_1.h ****         tmpVal = curDay + RTC_1_DAYS_PER_WEEK;
 930:Generated_Source\PSoC4/RTC_1.h ****         tmpVal = (tmpVal > daysInMonth) ? (tmpVal - daysInMonth) : tmpVal;
 931:Generated_Source\PSoC4/RTC_1.h ****     }
 932:Generated_Source\PSoC4/RTC_1.h ****     else
 933:Generated_Source\PSoC4/RTC_1.h ****     {
 934:Generated_Source\PSoC4/RTC_1.h ****         tmpVal = (curDay < daysInMonth) ? (curDay + 1u) : 1u;
 935:Generated_Source\PSoC4/RTC_1.h ****     }
 936:Generated_Source\PSoC4/RTC_1.h **** 
 937:Generated_Source\PSoC4/RTC_1.h ****     return(tmpVal);
 938:Generated_Source\PSoC4/RTC_1.h **** }
 939:Generated_Source\PSoC4/RTC_1.h **** 
 940:Generated_Source\PSoC4/RTC_1.h **** 
 941:Generated_Source\PSoC4/RTC_1.h **** /*******************************************************************************
 942:Generated_Source\PSoC4/RTC_1.h **** * Function Name: RTC_1_GetNextMonth
 943:Generated_Source\PSoC4/RTC_1.h **** ****************************************************************************//**
 944:Generated_Source\PSoC4/RTC_1.h **** * \internal
 945:Generated_Source\PSoC4/RTC_1.h **** * \brief
 946:Generated_Source\PSoC4/RTC_1.h **** *  This is an internal function that calculates the value of the next month
 947:Generated_Source\PSoC4/RTC_1.h **** *  that follows after the current month.
 948:Generated_Source\PSoC4/RTC_1.h **** *
ARM GAS  C:\Users\corne\AppData\Local\Temp\ccR3s0rF.s 			page 51


 949:Generated_Source\PSoC4/RTC_1.h **** * \param
 950:Generated_Source\PSoC4/RTC_1.h **** *  curMonth The current month.
 951:Generated_Source\PSoC4/RTC_1.h **** *
 952:Generated_Source\PSoC4/RTC_1.h **** * \return
 953:Generated_Source\PSoC4/RTC_1.h **** *  Returns the month which follows after the current month.
 954:Generated_Source\PSoC4/RTC_1.h **** * \endinternal
 955:Generated_Source\PSoC4/RTC_1.h **** *******************************************************************************/
 956:Generated_Source\PSoC4/RTC_1.h **** static CY_INLINE uint32 RTC_1_GetNextMonth(uint32 curMonth)
 957:Generated_Source\PSoC4/RTC_1.h **** {
 958:Generated_Source\PSoC4/RTC_1.h ****     return((curMonth < 12u) ? (curMonth + 1u) : 1u);
 959:Generated_Source\PSoC4/RTC_1.h **** }
 960:Generated_Source\PSoC4/RTC_1.h **** 
 961:Generated_Source\PSoC4/RTC_1.h **** 
 962:Generated_Source\PSoC4/RTC_1.h **** /*******************************************************************************
 963:Generated_Source\PSoC4/RTC_1.h **** * Function Name: RTC_1_GetNextYear
 964:Generated_Source\PSoC4/RTC_1.h **** ****************************************************************************//**
 965:Generated_Source\PSoC4/RTC_1.h **** * \internal
 966:Generated_Source\PSoC4/RTC_1.h **** * \brief
 967:Generated_Source\PSoC4/RTC_1.h **** *  This is an internal function that calculates the value of the next year
 968:Generated_Source\PSoC4/RTC_1.h **** *  that follows after the current year.
 969:Generated_Source\PSoC4/RTC_1.h **** *
 970:Generated_Source\PSoC4/RTC_1.h **** * \param
 971:Generated_Source\PSoC4/RTC_1.h **** *  curYear The current year.
 972:Generated_Source\PSoC4/RTC_1.h **** *
 973:Generated_Source\PSoC4/RTC_1.h **** * \return
 974:Generated_Source\PSoC4/RTC_1.h **** *  Returns the year which follows after the current year.
 975:Generated_Source\PSoC4/RTC_1.h **** * \endinternal
 976:Generated_Source\PSoC4/RTC_1.h **** *******************************************************************************/
 977:Generated_Source\PSoC4/RTC_1.h **** static CY_INLINE uint32 RTC_1_GetNextYear(uint32 curYear)
 978:Generated_Source\PSoC4/RTC_1.h **** {
 979:Generated_Source\PSoC4/RTC_1.h ****     return(curYear + 1u);
 980:Generated_Source\PSoC4/RTC_1.h **** }
 981:Generated_Source\PSoC4/RTC_1.h **** 
 982:Generated_Source\PSoC4/RTC_1.h **** 
 983:Generated_Source\PSoC4/RTC_1.h **** /*******************************************************************************
 984:Generated_Source\PSoC4/RTC_1.h **** * Function Name: RTC_1_SetTimeFormat
 985:Generated_Source\PSoC4/RTC_1.h **** ****************************************************************************//**
 986:Generated_Source\PSoC4/RTC_1.h **** * \internal
 987:Generated_Source\PSoC4/RTC_1.h **** * \brief
 988:Generated_Source\PSoC4/RTC_1.h **** *  Updates the "Time Format" value in the variable that contains time in the
 989:Generated_Source\PSoC4/RTC_1.h **** *  "HH:MM:SS" format.
 990:Generated_Source\PSoC4/RTC_1.h **** *
 991:Generated_Source\PSoC4/RTC_1.h **** * \param
 992:Generated_Source\PSoC4/RTC_1.h **** *  inputTime The current value of the time in the "HH:MM:SS" format.
 993:Generated_Source\PSoC4/RTC_1.h **** *
 994:Generated_Source\PSoC4/RTC_1.h **** * \return
 995:Generated_Source\PSoC4/RTC_1.h **** *  Returns the updated value of the time in the "HH:MM:SS" format.
 996:Generated_Source\PSoC4/RTC_1.h **** * \endinternal
 997:Generated_Source\PSoC4/RTC_1.h **** *******************************************************************************/
 998:Generated_Source\PSoC4/RTC_1.h **** static CY_INLINE uint32 RTC_1_SetTimeFormat(uint32 inputTime, uint32 timeFormat)
 999:Generated_Source\PSoC4/RTC_1.h **** {
1000:Generated_Source\PSoC4/RTC_1.h ****     inputTime &= ~(RTC_1_TIME_FORMAT_MASK);
1001:Generated_Source\PSoC4/RTC_1.h **** 
1002:Generated_Source\PSoC4/RTC_1.h ****     if((uint32)RTC_1_12_HOURS_FORMAT != timeFormat)
1003:Generated_Source\PSoC4/RTC_1.h ****     {
1004:Generated_Source\PSoC4/RTC_1.h ****         inputTime |= RTC_1_TIME_FORMAT_MASK;
1005:Generated_Source\PSoC4/RTC_1.h ****     }
ARM GAS  C:\Users\corne\AppData\Local\Temp\ccR3s0rF.s 			page 52


1006:Generated_Source\PSoC4/RTC_1.h **** 
1007:Generated_Source\PSoC4/RTC_1.h ****     return(inputTime);
1008:Generated_Source\PSoC4/RTC_1.h **** }
1009:Generated_Source\PSoC4/RTC_1.h **** 
1010:Generated_Source\PSoC4/RTC_1.h **** 
1011:Generated_Source\PSoC4/RTC_1.h **** /*******************************************************************************
1012:Generated_Source\PSoC4/RTC_1.h **** * Function Name: RTC_1_GetTimeFormat
1013:Generated_Source\PSoC4/RTC_1.h **** ****************************************************************************//**
1014:Generated_Source\PSoC4/RTC_1.h **** * \internal
1015:Generated_Source\PSoC4/RTC_1.h **** * \brief
1016:Generated_Source\PSoC4/RTC_1.h **** *  Reads the time format from the variable that contains time in the
1017:Generated_Source\PSoC4/RTC_1.h **** *  "HH:MM:SS" format.
1018:Generated_Source\PSoC4/RTC_1.h **** *
1019:Generated_Source\PSoC4/RTC_1.h **** * \param
1020:Generated_Source\PSoC4/RTC_1.h **** *  inputTime The current value of the time in the "HH:MM:SS" format.
1021:Generated_Source\PSoC4/RTC_1.h **** *
1022:Generated_Source\PSoC4/RTC_1.h **** * \return
1023:Generated_Source\PSoC4/RTC_1.h **** *  Returns the time format that is stored in the variable that contains time
1024:Generated_Source\PSoC4/RTC_1.h **** *  in the "HH:MM:SS" format.
1025:Generated_Source\PSoC4/RTC_1.h **** * \endinternal
1026:Generated_Source\PSoC4/RTC_1.h **** *******************************************************************************/
1027:Generated_Source\PSoC4/RTC_1.h **** static CY_INLINE uint32 RTC_1_GetTimeFormat(uint32 inputTime)
1028:Generated_Source\PSoC4/RTC_1.h **** {
1029:Generated_Source\PSoC4/RTC_1.h ****     return ((0uL != (inputTime & (1uL << RTC_1_TIME_FORMAT_OFFSET))) ? (uint32)RTC_1_12_HOURS_FORMA
 584              		.loc 2 1029 0
 585 011c 8022     		movs	r2, #128
 586 011e 1204     		lsls	r2, r2, #16
 587 0120 4946     		mov	r1, r9
 588 0122 0A40     		ands	r2, r1
 589 0124 00D0     		beq	.L33
 590              	.LVL54:
 591 0126 0122     		movs	r2, #1
 592              	.L33:
 593              	.LVL55:
 594              	.LBE71:
 595              	.LBE70:
1302:Generated_Source\PSoC4/RTC_1.c **** 
1303:Generated_Source\PSoC4/RTC_1.c ****     /* Calculates how many seconds have elapsed today up to the current hour. */
1304:Generated_Source\PSoC4/RTC_1.c ****     tmpVal = RTC_1_GetHours(inputTime);
1305:Generated_Source\PSoC4/RTC_1.c ****     if(((uint32)RTC_1_24_HOURS_FORMAT != RTC_1_GetTimeFormat(inputTime)) &&
 596              		.loc 1 1305 0
 597 0128 002A     		cmp	r2, #0
 598 012a 0DD0     		beq	.L34
 599              	.LVL56:
 600              	.LBB72:
 601              	.LBB73:
 602              	.LBB74:
 444:Generated_Source\PSoC4/RTC_1.h **** }
 603              		.loc 2 444 0
 604 012c 8022     		movs	r2, #128
 605 012e D203     		lsls	r2, r2, #15
 606 0130 4946     		mov	r1, r9
 607              	.LVL57:
 608 0132 1140     		ands	r1, r2
 609              	.LVL58:
 610 0134 9142     		cmp	r1, r2
 611 0136 01D1     		bne	.L40
ARM GAS  C:\Users\corne\AppData\Local\Temp\ccR3s0rF.s 			page 53


 612 0138 0122     		movs	r2, #1
 613 013a 00E0     		b	.L35
 614              	.L40:
 615 013c 0022     		movs	r2, #0
 616              	.L35:
 617              	.LVL59:
 618              	.LBE74:
 619              	.LBE73:
 620              	.LBE72:
 621              		.loc 1 1305 0
 622 013e 002A     		cmp	r2, #0
 623 0140 02D0     		beq	.L34
1306:Generated_Source\PSoC4/RTC_1.c ****        ((uint32)RTC_1_AM != RTC_1_GetAmPm(inputTime)) && (tmpVal < 12u))
 624              		.loc 1 1306 0
 625 0142 0B2B     		cmp	r3, #11
 626 0144 00D8     		bhi	.L34
1307:Generated_Source\PSoC4/RTC_1.c ****     {
1308:Generated_Source\PSoC4/RTC_1.c ****         tmpVal += RTC_1_HOURS_PER_HALF_DAY;
 627              		.loc 1 1308 0
 628 0146 0C33     		adds	r3, r3, #12
 629              	.LVL60:
 630              	.L34:
1309:Generated_Source\PSoC4/RTC_1.c ****     }
1310:Generated_Source\PSoC4/RTC_1.c ****     unixTime += tmpVal * RTC_1_SECONDS_PER_HOUR;
 631              		.loc 1 1310 0
 632 0148 E122     		movs	r2, #225
 633 014a 1201     		lsls	r2, r2, #4
 634 014c 5A43     		muls	r2, r3
 635 014e 1000     		movs	r0, r2
 636 0150 0021     		movs	r1, #0
 637 0152 3618     		adds	r6, r6, r0
 638 0154 4F41     		adcs	r7, r7, r1
 639              	.LVL61:
 640              	.LBB75:
 641              	.LBB76:
 527:Generated_Source\PSoC4/RTC_1.h ****     retVal += (inputTime & RTC_1_MINUTES_MASK) >> RTC_1_MINUTES_OFFSET;
 642              		.loc 2 527 0
 643 0156 4B46     		mov	r3, r9
 644              	.LVL62:
 645 0158 1B0B     		lsrs	r3, r3, #12
 646 015a 0724     		movs	r4, #7
 647 015c 2340     		ands	r3, r4
 648 015e 9900     		lsls	r1, r3, #2
 649 0160 CB18     		adds	r3, r1, r3
 650 0162 5900     		lsls	r1, r3, #1
 651              	.LVL63:
 528:Generated_Source\PSoC4/RTC_1.h **** 
 652              		.loc 2 528 0
 653 0164 4B46     		mov	r3, r9
 654 0166 1A0A     		lsrs	r2, r3, #8
 655 0168 0F23     		movs	r3, #15
 656 016a 1A40     		ands	r2, r3
 657 016c 8918     		adds	r1, r1, r2
 658              	.LVL64:
 659              	.LBE76:
 660              	.LBE75:
1311:Generated_Source\PSoC4/RTC_1.c **** 
ARM GAS  C:\Users\corne\AppData\Local\Temp\ccR3s0rF.s 			page 54


1312:Generated_Source\PSoC4/RTC_1.c ****     /* Calculates how many seconds have elapsed today up to the current minute. */
1313:Generated_Source\PSoC4/RTC_1.c ****     unixTime += RTC_1_GetMinutes(inputTime) * RTC_1_SECONDS_PER_MINUTE;
 661              		.loc 1 1313 0
 662 016e 0A01     		lsls	r2, r1, #4
 663 0170 521A     		subs	r2, r2, r1
 664 0172 9000     		lsls	r0, r2, #2
 665 0174 0021     		movs	r1, #0
 666 0176 3618     		adds	r6, r6, r0
 667 0178 4F41     		adcs	r7, r7, r1
 668              	.LVL65:
 669              	.LBB77:
 670              	.LBB78:
 501:Generated_Source\PSoC4/RTC_1.h ****     retVal += (inputTime & RTC_1_SECONDS_MASK) >> RTC_1_SECONDS_OFFSET;
 671              		.loc 2 501 0
 672 017a 4A46     		mov	r2, r9
 673 017c 1209     		lsrs	r2, r2, #4
 674 017e 2240     		ands	r2, r4
 675 0180 9100     		lsls	r1, r2, #2
 676 0182 8A18     		adds	r2, r1, r2
 677 0184 5200     		lsls	r2, r2, #1
 678              	.LVL66:
 502:Generated_Source\PSoC4/RTC_1.h **** 
 679              		.loc 2 502 0
 680 0186 4946     		mov	r1, r9
 681 0188 0B40     		ands	r3, r1
 682              	.LVL67:
 683              	.LBE78:
 684              	.LBE77:
1314:Generated_Source\PSoC4/RTC_1.c **** 
1315:Generated_Source\PSoC4/RTC_1.c ****     /* Add remaining seconds of current minute. */
1316:Generated_Source\PSoC4/RTC_1.c ****     unixTime += RTC_1_GetSecond(inputTime);
 685              		.loc 1 1316 0
 686 018a D018     		adds	r0, r2, r3
 687 018c 0021     		movs	r1, #0
 688 018e 8019     		adds	r0, r0, r6
 689 0190 7941     		adcs	r1, r1, r7
 690              	.LVL68:
1317:Generated_Source\PSoC4/RTC_1.c **** 
1318:Generated_Source\PSoC4/RTC_1.c ****     return(unixTime);
1319:Generated_Source\PSoC4/RTC_1.c **** }
 691              		.loc 1 1319 0
 692              		@ sp needed
 693              	.LVL69:
 694              	.LVL70:
 695 0192 0CBC     		pop	{r2, r3}
 696 0194 9046     		mov	r8, r2
 697 0196 9946     		mov	r9, r3
 698 0198 F8BD     		pop	{r3, r4, r5, r6, r7, pc}
 699              	.L42:
 700 019a C046     		.align	2
 701              	.L41:
 702 019c B2070000 		.word	1970
 703 01a0 0085E201 		.word	31622400
 704 01a4 8033E101 		.word	31536000
 705 01a8 00000000 		.word	.LANCHOR1
 706 01ac 80510100 		.word	86400
 707 01b0 80AEFEFF 		.word	-86400
ARM GAS  C:\Users\corne\AppData\Local\Temp\ccR3s0rF.s 			page 55


 708              		.cfi_endproc
 709              	.LFE43:
 710              		.size	RTC_1_DateTimeToUnix, .-RTC_1_DateTimeToUnix
 711              		.section	.text.RTC_1_SetDateAndTime,"ax",%progbits
 712              		.align	2
 713              		.global	RTC_1_SetDateAndTime
 714              		.code	16
 715              		.thumb_func
 716              		.type	RTC_1_SetDateAndTime, %function
 717              	RTC_1_SetDateAndTime:
 718              	.LFB30:
 230:Generated_Source\PSoC4/RTC_1.c ****     uint32 tmpDay;
 719              		.loc 1 230 0
 720              		.cfi_startproc
 721              		@ args = 0, pretend = 0, frame = 8
 722              		@ frame_needed = 0, uses_anonymous_args = 0
 723              	.LVL71:
 724 0000 F0B5     		push	{r4, r5, r6, r7, lr}
 725              		.cfi_def_cfa_offset 20
 726              		.cfi_offset 4, -20
 727              		.cfi_offset 5, -16
 728              		.cfi_offset 6, -12
 729              		.cfi_offset 7, -8
 730              		.cfi_offset 14, -4
 731 0002 83B0     		sub	sp, sp, #12
 732              		.cfi_def_cfa_offset 32
 733 0004 0190     		str	r0, [sp, #4]
 734 0006 0E00     		movs	r6, r1
 735              	.LVL72:
 736              	.LBB79:
 737              	.LBB80:
 599:Generated_Source\PSoC4/RTC_1.h ****     retVal += (date & RTC_1_DAY_MASK) >> RTC_1_DAY_OFFSET;
 738              		.loc 2 599 0
 739 0008 0B0D     		lsrs	r3, r1, #20
 740 000a 0324     		movs	r4, #3
 741 000c 2340     		ands	r3, r4
 742 000e 9A00     		lsls	r2, r3, #2
 743 0010 D318     		adds	r3, r2, r3
 744 0012 5800     		lsls	r0, r3, #1
 745              	.LVL73:
 600:Generated_Source\PSoC4/RTC_1.h **** 
 746              		.loc 2 600 0
 747 0014 0F0C     		lsrs	r7, r1, #16
 748 0016 0F23     		movs	r3, #15
 749 0018 1F40     		ands	r7, r3
 750 001a C719     		adds	r7, r0, r7
 751              	.LVL74:
 752              	.LBE80:
 753              	.LBE79:
 754              	.LBB81:
 755              	.LBB82:
 624:Generated_Source\PSoC4/RTC_1.h ****     retVal += (date & RTC_1_MONTH_MASK) >> RTC_1_MONTH_OFFSET;
 756              		.loc 2 624 0
 757 001c 0A0F     		lsrs	r2, r1, #28
 758 001e 0121     		movs	r1, #1
 759              	.LVL75:
 760 0020 0A40     		ands	r2, r1
ARM GAS  C:\Users\corne\AppData\Local\Temp\ccR3s0rF.s 			page 56


 761 0022 9100     		lsls	r1, r2, #2
 762 0024 8A18     		adds	r2, r1, r2
 763 0026 5100     		lsls	r1, r2, #1
 764              	.LVL76:
 625:Generated_Source\PSoC4/RTC_1.h **** 
 765              		.loc 2 625 0
 766 0028 300E     		lsrs	r0, r6, #24
 767 002a 1840     		ands	r0, r3
 768 002c 0D18     		adds	r5, r1, r0
 769              	.LVL77:
 770              	.LBE82:
 771              	.LBE81:
 772              	.LBB83:
 773              	.LBB84:
 649:Generated_Source\PSoC4/RTC_1.h ****     retVal += ((date & RTC_1_100_YEAR_MASK) >> RTC_1_100_YEAR_OFFSET) * 100u;
 774              		.loc 2 649 0
 775 002e 320B     		lsrs	r2, r6, #12
 776 0030 1440     		ands	r4, r2
 777 0032 FA22     		movs	r2, #250
 778 0034 9200     		lsls	r2, r2, #2
 779 0036 6243     		muls	r2, r4
 780 0038 1000     		movs	r0, r2
 781              	.LVL78:
 650:Generated_Source\PSoC4/RTC_1.h ****     retVal += ((date & RTC_1_10_YEAR_MASK) >> RTC_1_10_YEAR_OFFSET) * 10u;
 782              		.loc 2 650 0
 783 003a 340A     		lsrs	r4, r6, #8
 784 003c 1C40     		ands	r4, r3
 785 003e 6421     		movs	r1, #100
 786 0040 0A00     		movs	r2, r1
 787 0042 6243     		muls	r2, r4
 788 0044 8418     		adds	r4, r0, r2
 789              	.LVL79:
 651:Generated_Source\PSoC4/RTC_1.h ****     retVal += (date & RTC_1_YEAR_MASK) >> RTC_1_YEAR_OFFSET;
 790              		.loc 2 651 0
 791 0046 3209     		lsrs	r2, r6, #4
 792 0048 1A40     		ands	r2, r3
 793 004a 9100     		lsls	r1, r2, #2
 794 004c 8A18     		adds	r2, r1, r2
 795 004e 5100     		lsls	r1, r2, #1
 796 0050 6418     		adds	r4, r4, r1
 797              	.LVL80:
 652:Generated_Source\PSoC4/RTC_1.h **** 
 798              		.loc 2 652 0
 799 0052 3340     		ands	r3, r6
 800 0054 E418     		adds	r4, r4, r3
 801              	.LVL81:
 802              	.LBE84:
 803              	.LBE83:
 239:Generated_Source\PSoC4/RTC_1.c ****     RTC_1_currentTimeDate.date = inputDate;
 804              		.loc 1 239 0
 805 0056 0199     		ldr	r1, [sp, #4]
 806 0058 3000     		movs	r0, r6
 807 005a FFF7FEFF 		bl	RTC_1_DateTimeToUnix
 808              	.LVL82:
 809 005e 164B     		ldr	r3, .L47
 810 0060 1860     		str	r0, [r3]
 811 0062 5960     		str	r1, [r3, #4]
ARM GAS  C:\Users\corne\AppData\Local\Temp\ccR3s0rF.s 			page 57


 240:Generated_Source\PSoC4/RTC_1.c ****     RTC_1_currentTimeDate.time = inputTime;
 812              		.loc 1 240 0
 813 0064 154B     		ldr	r3, .L47+4
 814 0066 5E60     		str	r6, [r3, #4]
 241:Generated_Source\PSoC4/RTC_1.c ****     RTC_1_currentTimeDate.dayOfWeek = RTC_1_GetDayOfWeek(tmpDay, tmpMonth, tmpYear);
 815              		.loc 1 241 0
 816 0068 019A     		ldr	r2, [sp, #4]
 817 006a 1A60     		str	r2, [r3]
 818              	.LBB85:
 819              	.LBB86:
1030:Generated_Source\PSoC4/RTC_1.h ****                                                                                   (uint32)RTC_1_24_
1031:Generated_Source\PSoC4/RTC_1.h **** }
1032:Generated_Source\PSoC4/RTC_1.h **** 
1033:Generated_Source\PSoC4/RTC_1.h **** 
1034:Generated_Source\PSoC4/RTC_1.h **** /*******************************************************************************
1035:Generated_Source\PSoC4/RTC_1.h **** * Function Name: RTC_1_ConstructTime
1036:Generated_Source\PSoC4/RTC_1.h **** ****************************************************************************//**
1037:Generated_Source\PSoC4/RTC_1.h **** *
1038:Generated_Source\PSoC4/RTC_1.h **** * \brief
1039:Generated_Source\PSoC4/RTC_1.h **** *  Returns the time in the format used in APIs from individual elements
1040:Generated_Source\PSoC4/RTC_1.h **** *  passed (hour, min, sec etc)
1041:Generated_Source\PSoC4/RTC_1.h **** *
1042:Generated_Source\PSoC4/RTC_1.h **** * \param
1043:Generated_Source\PSoC4/RTC_1.h **** * timeFormat The 12/24 hours time format <br>
1044:Generated_Source\PSoC4/RTC_1.h **** * RTC_1_24_HOURS_FORMAT - The 24 hours format. <br>
1045:Generated_Source\PSoC4/RTC_1.h **** * RTC_1_12_HOURS_FORMAT - The 12 hours format.
1046:Generated_Source\PSoC4/RTC_1.h **** *
1047:Generated_Source\PSoC4/RTC_1.h **** * \param
1048:Generated_Source\PSoC4/RTC_1.h **** * stateAmPm  The AM/PM status <br>
1049:Generated_Source\PSoC4/RTC_1.h **** * RTC_1_AM - AM. <br>
1050:Generated_Source\PSoC4/RTC_1.h **** * RTC_1_PM - PM.
1051:Generated_Source\PSoC4/RTC_1.h **** *
1052:Generated_Source\PSoC4/RTC_1.h **** * \param
1053:Generated_Source\PSoC4/RTC_1.h **** *  hour The hour.
1054:Generated_Source\PSoC4/RTC_1.h **** *
1055:Generated_Source\PSoC4/RTC_1.h **** * \param
1056:Generated_Source\PSoC4/RTC_1.h **** *  min The minute.
1057:Generated_Source\PSoC4/RTC_1.h **** *
1058:Generated_Source\PSoC4/RTC_1.h **** * \param
1059:Generated_Source\PSoC4/RTC_1.h **** *  sec The second.
1060:Generated_Source\PSoC4/RTC_1.h **** *
1061:Generated_Source\PSoC4/RTC_1.h **** * \return
1062:Generated_Source\PSoC4/RTC_1.h **** *  Time in the format used in API.
1063:Generated_Source\PSoC4/RTC_1.h **** *
1064:Generated_Source\PSoC4/RTC_1.h **** *******************************************************************************/
1065:Generated_Source\PSoC4/RTC_1.h **** static CY_INLINE uint32 RTC_1_ConstructTime(uint32 timeFormat, uint32 stateAmPm, uint32 hour, uint3
1066:Generated_Source\PSoC4/RTC_1.h **** {
1067:Generated_Source\PSoC4/RTC_1.h ****     uint32 retVal;
1068:Generated_Source\PSoC4/RTC_1.h **** 
1069:Generated_Source\PSoC4/RTC_1.h ****     retVal  = timeFormat << RTC_1_TIME_FORMAT_OFFSET;
1070:Generated_Source\PSoC4/RTC_1.h ****     retVal |= stateAmPm << RTC_1_PERIOD_OF_DAY_OFFSET;
1071:Generated_Source\PSoC4/RTC_1.h **** 
1072:Generated_Source\PSoC4/RTC_1.h ****     retVal |= (hour / 10u) << RTC_1_10_HOURS_OFFSET;
1073:Generated_Source\PSoC4/RTC_1.h ****     retVal |= (hour % 10u) << RTC_1_HOURS_OFFSET;
1074:Generated_Source\PSoC4/RTC_1.h **** 
1075:Generated_Source\PSoC4/RTC_1.h ****     retVal |= (min / 10u) << RTC_1_10_MINUTES_OFFSET;
1076:Generated_Source\PSoC4/RTC_1.h ****     retVal |= (min % 10u) << RTC_1_MINUTES_OFFSET;
ARM GAS  C:\Users\corne\AppData\Local\Temp\ccR3s0rF.s 			page 58


1077:Generated_Source\PSoC4/RTC_1.h **** 
1078:Generated_Source\PSoC4/RTC_1.h ****     retVal |= (sec / 10u) << RTC_1_10_SECONDS_OFFSET;
1079:Generated_Source\PSoC4/RTC_1.h ****     retVal |= (sec % 10u) << RTC_1_SECONDS_OFFSET;
1080:Generated_Source\PSoC4/RTC_1.h **** 
1081:Generated_Source\PSoC4/RTC_1.h ****     return (retVal);
1082:Generated_Source\PSoC4/RTC_1.h **** }
1083:Generated_Source\PSoC4/RTC_1.h **** 
1084:Generated_Source\PSoC4/RTC_1.h **** 
1085:Generated_Source\PSoC4/RTC_1.h **** /*******************************************************************************
1086:Generated_Source\PSoC4/RTC_1.h **** * Function Name: RTC_1_ConstructDate
1087:Generated_Source\PSoC4/RTC_1.h **** ****************************************************************************//**
1088:Generated_Source\PSoC4/RTC_1.h **** *
1089:Generated_Source\PSoC4/RTC_1.h **** * \brief
1090:Generated_Source\PSoC4/RTC_1.h **** *  Returns the date in the format used in APIs from individual elements
1091:Generated_Source\PSoC4/RTC_1.h **** *  passed (day. Month and year)
1092:Generated_Source\PSoC4/RTC_1.h **** *
1093:Generated_Source\PSoC4/RTC_1.h **** * \param
1094:Generated_Source\PSoC4/RTC_1.h **** *  month The month.
1095:Generated_Source\PSoC4/RTC_1.h **** *
1096:Generated_Source\PSoC4/RTC_1.h **** * \param
1097:Generated_Source\PSoC4/RTC_1.h **** *  day The day.
1098:Generated_Source\PSoC4/RTC_1.h **** *
1099:Generated_Source\PSoC4/RTC_1.h **** * \param
1100:Generated_Source\PSoC4/RTC_1.h **** *  year The year.
1101:Generated_Source\PSoC4/RTC_1.h **** *
1102:Generated_Source\PSoC4/RTC_1.h **** * \return
1103:Generated_Source\PSoC4/RTC_1.h **** *  The date in the format used in API.
1104:Generated_Source\PSoC4/RTC_1.h **** *
1105:Generated_Source\PSoC4/RTC_1.h **** *******************************************************************************/
1106:Generated_Source\PSoC4/RTC_1.h **** static CY_INLINE uint32 RTC_1_ConstructDate(uint32 month, uint32 day, uint32 year)
1107:Generated_Source\PSoC4/RTC_1.h **** {
1108:Generated_Source\PSoC4/RTC_1.h ****     uint32 retVal;
1109:Generated_Source\PSoC4/RTC_1.h ****     uint32 tmpVal = year;
1110:Generated_Source\PSoC4/RTC_1.h **** 
1111:Generated_Source\PSoC4/RTC_1.h ****     retVal  = (month / 10u) << RTC_1_10_MONTH_OFFSET;
1112:Generated_Source\PSoC4/RTC_1.h ****     retVal |= (month % 10u) << RTC_1_MONTH_OFFSET;
1113:Generated_Source\PSoC4/RTC_1.h **** 
1114:Generated_Source\PSoC4/RTC_1.h ****     retVal |= (day / 10u) << RTC_1_10_DAY_OFFSET;
1115:Generated_Source\PSoC4/RTC_1.h ****     retVal |= (day % 10u) << RTC_1_DAY_OFFSET;
1116:Generated_Source\PSoC4/RTC_1.h **** 
1117:Generated_Source\PSoC4/RTC_1.h ****     retVal |= (year / 1000u) << RTC_1_1000_YEAR_OFFSET;
1118:Generated_Source\PSoC4/RTC_1.h ****     tmpVal %= 1000u;
1119:Generated_Source\PSoC4/RTC_1.h **** 
1120:Generated_Source\PSoC4/RTC_1.h ****     retVal |= (tmpVal / 100u) << RTC_1_100_YEAR_OFFSET;
1121:Generated_Source\PSoC4/RTC_1.h ****     tmpVal %= 100u;
1122:Generated_Source\PSoC4/RTC_1.h **** 
1123:Generated_Source\PSoC4/RTC_1.h ****     retVal |= (tmpVal / 10u) << RTC_1_10_YEAR_OFFSET;
1124:Generated_Source\PSoC4/RTC_1.h ****     retVal |= (tmpVal % 10u) << RTC_1_YEAR_OFFSET;
1125:Generated_Source\PSoC4/RTC_1.h **** 
1126:Generated_Source\PSoC4/RTC_1.h ****     return (retVal);
1127:Generated_Source\PSoC4/RTC_1.h **** }
1128:Generated_Source\PSoC4/RTC_1.h **** 
1129:Generated_Source\PSoC4/RTC_1.h **** 
1130:Generated_Source\PSoC4/RTC_1.h **** /*******************************************************************************
1131:Generated_Source\PSoC4/RTC_1.h **** * Function Name: RTC_1_GetDayOfWeek
1132:Generated_Source\PSoC4/RTC_1.h **** ****************************************************************************//**
1133:Generated_Source\PSoC4/RTC_1.h **** * \internal
ARM GAS  C:\Users\corne\AppData\Local\Temp\ccR3s0rF.s 			page 59


1134:Generated_Source\PSoC4/RTC_1.h **** *
1135:Generated_Source\PSoC4/RTC_1.h **** * \brief
1136:Generated_Source\PSoC4/RTC_1.h **** *  Returns a day of the week for a year, month, and day of month that are passed
1137:Generated_Source\PSoC4/RTC_1.h **** *  through parameters. Zeller's congruence is used to calculate the day of
1138:Generated_Source\PSoC4/RTC_1.h **** *  the week.
1139:Generated_Source\PSoC4/RTC_1.h **** *
1140:Generated_Source\PSoC4/RTC_1.h **** *  For the Georgian calendar, Zeller's congruence is:
1141:Generated_Source\PSoC4/RTC_1.h **** *  h = (q + [13 * (m + 1)] + K + [K/4] + [J/4] - 2J) mod 7
1142:Generated_Source\PSoC4/RTC_1.h **** *
1143:Generated_Source\PSoC4/RTC_1.h **** *  h - The day of the week (0 = Saturday, 1 = Sunday, 2 = Monday, ..., 6 = Friday).
1144:Generated_Source\PSoC4/RTC_1.h **** *  q - The day of the month.
1145:Generated_Source\PSoC4/RTC_1.h **** *  m - The month (3 = March, 4 = April, 5 = May, ..., 14 = February)
1146:Generated_Source\PSoC4/RTC_1.h **** *  K - The year of the century (year \mod 100).
1147:Generated_Source\PSoC4/RTC_1.h **** *  J - The zero-based century (actually [year/100]) For example, the zero-based
1148:Generated_Source\PSoC4/RTC_1.h **** *  centuries for 1995 and 2000 are 19 and 20 respectively (not to be
1149:Generated_Source\PSoC4/RTC_1.h **** *  confused with the common ordinal century enumeration which indicates
1150:Generated_Source\PSoC4/RTC_1.h **** *  20th for both cases).
1151:Generated_Source\PSoC4/RTC_1.h **** *
1152:Generated_Source\PSoC4/RTC_1.h **** * \note In this algorithm January and February are counted as months 13 and 14
1153:Generated_Source\PSoC4/RTC_1.h **** * of the previous year.
1154:Generated_Source\PSoC4/RTC_1.h **** *
1155:Generated_Source\PSoC4/RTC_1.h **** * \param
1156:Generated_Source\PSoC4/RTC_1.h **** *  day The day of the month(1..31)
1157:Generated_Source\PSoC4/RTC_1.h **** *
1158:Generated_Source\PSoC4/RTC_1.h **** * \param
1159:Generated_Source\PSoC4/RTC_1.h **** *  month The month of the year
1160:Generated_Source\PSoC4/RTC_1.h **** * RTC_1_JANUARY <br>
1161:Generated_Source\PSoC4/RTC_1.h **** * RTC_1_FEBRUARY <br>
1162:Generated_Source\PSoC4/RTC_1.h **** * RTC_1_MARCH <br>
1163:Generated_Source\PSoC4/RTC_1.h **** * RTC_1_APRIL <br>
1164:Generated_Source\PSoC4/RTC_1.h **** * RTC_1_MAY <br>
1165:Generated_Source\PSoC4/RTC_1.h **** * RTC_1_JUNE <br>
1166:Generated_Source\PSoC4/RTC_1.h **** * RTC_1_JULY <br>
1167:Generated_Source\PSoC4/RTC_1.h **** * RTC_1_AUGUST <br>
1168:Generated_Source\PSoC4/RTC_1.h **** * RTC_1_SEPTEMBER <br>
1169:Generated_Source\PSoC4/RTC_1.h **** * RTC_1_OCTOBER <br>
1170:Generated_Source\PSoC4/RTC_1.h **** * RTC_1_NOVEMBER <br>
1171:Generated_Source\PSoC4/RTC_1.h **** * RTC_1_DECEMBER <br>
1172:Generated_Source\PSoC4/RTC_1.h **** *
1173:Generated_Source\PSoC4/RTC_1.h **** * \param
1174:Generated_Source\PSoC4/RTC_1.h **** *  year The year value.
1175:Generated_Source\PSoC4/RTC_1.h **** *
1176:Generated_Source\PSoC4/RTC_1.h **** * \return
1177:Generated_Source\PSoC4/RTC_1.h **** * Returns a day of the week
1178:Generated_Source\PSoC4/RTC_1.h **** * RTC_1_SUNDAY <br>
1179:Generated_Source\PSoC4/RTC_1.h **** * RTC_1_MONDAY <br>
1180:Generated_Source\PSoC4/RTC_1.h **** * RTC_1_TUESDAY <br>
1181:Generated_Source\PSoC4/RTC_1.h **** * RTC_1_WEDNESDAY <br>
1182:Generated_Source\PSoC4/RTC_1.h **** * RTC_1_THURSDAY <br>
1183:Generated_Source\PSoC4/RTC_1.h **** * RTC_1_FRIDAY <br>
1184:Generated_Source\PSoC4/RTC_1.h **** * RTC_1_SATURDAY <br>
1185:Generated_Source\PSoC4/RTC_1.h **** *
1186:Generated_Source\PSoC4/RTC_1.h **** * \endinternal
1187:Generated_Source\PSoC4/RTC_1.h **** *******************************************************************************/
1188:Generated_Source\PSoC4/RTC_1.h **** static CY_INLINE uint32 RTC_1_GetDayOfWeek(uint32 day, uint32 month, uint32 year)
1189:Generated_Source\PSoC4/RTC_1.h **** {
1190:Generated_Source\PSoC4/RTC_1.h ****     uint32 retVal;
ARM GAS  C:\Users\corne\AppData\Local\Temp\ccR3s0rF.s 			page 60


1191:Generated_Source\PSoC4/RTC_1.h **** 
1192:Generated_Source\PSoC4/RTC_1.h ****     /* Converts month number from regular convention
1193:Generated_Source\PSoC4/RTC_1.h ****      * (1=January,..., 12=December) to convention required for this
1194:Generated_Source\PSoC4/RTC_1.h ****      * algorithm(January and February are counted as months 13 and 14 of
1195:Generated_Source\PSoC4/RTC_1.h ****      * previous year).
1196:Generated_Source\PSoC4/RTC_1.h ****     */
1197:Generated_Source\PSoC4/RTC_1.h ****     if(month < (uint32)RTC_1_MARCH)
 820              		.loc 2 1197 0
 821 006c 022D     		cmp	r5, #2
 822 006e 01D8     		bhi	.L44
1198:Generated_Source\PSoC4/RTC_1.h ****     {
1199:Generated_Source\PSoC4/RTC_1.h ****         month = 12u + month;
 823              		.loc 2 1199 0
 824 0070 0C35     		adds	r5, r5, #12
 825              	.LVL83:
1200:Generated_Source\PSoC4/RTC_1.h ****         year--;
 826              		.loc 2 1200 0
 827 0072 013C     		subs	r4, r4, #1
 828              	.LVL84:
 829              	.L44:
1201:Generated_Source\PSoC4/RTC_1.h ****     }
1202:Generated_Source\PSoC4/RTC_1.h **** 
1203:Generated_Source\PSoC4/RTC_1.h ****     /* Calculates Day of Week using Zeller's congruence algorithms.
1204:Generated_Source\PSoC4/RTC_1.h ****     */
1205:Generated_Source\PSoC4/RTC_1.h ****     retVal = (day + (((month + 1u) * 26u) / 10u) + year + (year / 4u) + (6u * (year / 100u)) + (yea
 830              		.loc 2 1205 0
 831 0074 681C     		adds	r0, r5, #1
 832 0076 1A23     		movs	r3, #26
 833 0078 5843     		muls	r0, r3
 834 007a 0A21     		movs	r1, #10
 835 007c FFF7FEFF 		bl	__aeabi_uidiv
 836              	.LVL85:
 837 0080 C719     		adds	r7, r0, r7
 838 0082 3F19     		adds	r7, r7, r4
 839 0084 A308     		lsrs	r3, r4, #2
 840 0086 FF18     		adds	r7, r7, r3
 841 0088 6421     		movs	r1, #100
 842 008a 2000     		movs	r0, r4
 843 008c FFF7FEFF 		bl	__aeabi_uidiv
 844              	.LVL86:
 845 0090 4300     		lsls	r3, r0, #1
 846 0092 1818     		adds	r0, r3, r0
 847 0094 4300     		lsls	r3, r0, #1
 848 0096 FF18     		adds	r7, r7, r3
 849 0098 C821     		movs	r1, #200
 850 009a 4900     		lsls	r1, r1, #1
 851 009c 2000     		movs	r0, r4
 852 009e FFF7FEFF 		bl	__aeabi_uidiv
 853              	.LVL87:
 854 00a2 3818     		adds	r0, r7, r0
 855 00a4 0721     		movs	r1, #7
 856 00a6 FFF7FEFF 		bl	__aeabi_uidivmod
 857              	.LVL88:
1206:Generated_Source\PSoC4/RTC_1.h **** 
1207:Generated_Source\PSoC4/RTC_1.h ****     /* Makes correction for Saturday. Saturday number should be 7 instead of 0. */
1208:Generated_Source\PSoC4/RTC_1.h ****     if(0u == retVal)
 858              		.loc 2 1208 0
ARM GAS  C:\Users\corne\AppData\Local\Temp\ccR3s0rF.s 			page 61


 859 00aa 0029     		cmp	r1, #0
 860 00ac 00D1     		bne	.L45
1209:Generated_Source\PSoC4/RTC_1.h ****     {
1210:Generated_Source\PSoC4/RTC_1.h ****         retVal = (uint32)RTC_1_SATURDAY;
 861              		.loc 2 1210 0
 862 00ae 0731     		adds	r1, r1, #7
 863              	.LVL89:
 864              	.L45:
 865              	.LBE86:
 866              	.LBE85:
 242:Generated_Source\PSoC4/RTC_1.c **** 
 867              		.loc 1 242 0
 868 00b0 024B     		ldr	r3, .L47+4
 869 00b2 9960     		str	r1, [r3, #8]
 266:Generated_Source\PSoC4/RTC_1.c **** 
 870              		.loc 1 266 0
 871 00b4 03B0     		add	sp, sp, #12
 872              		@ sp needed
 873              	.LVL90:
 874 00b6 F0BD     		pop	{r4, r5, r6, r7, pc}
 875              	.L48:
 876              		.align	2
 877              	.L47:
 878 00b8 00000000 		.word	RTC_1_unixTime
 879 00bc 00000000 		.word	RTC_1_currentTimeDate
 880              		.cfi_endproc
 881              	.LFE30:
 882              		.size	RTC_1_SetDateAndTime, .-RTC_1_SetDateAndTime
 883              		.section	.text.RTC_1_Init,"ax",%progbits
 884              		.align	2
 885              		.global	RTC_1_Init
 886              		.code	16
 887              		.thumb_func
 888              		.type	RTC_1_Init, %function
 889              	RTC_1_Init:
 890              	.LFB29:
 141:Generated_Source\PSoC4/RTC_1.c ****     uint32 tmpDate;
 891              		.loc 1 141 0
 892              		.cfi_startproc
 893              		@ args = 0, pretend = 0, frame = 0
 894              		@ frame_needed = 0, uses_anonymous_args = 0
 895 0000 10B5     		push	{r4, lr}
 896              		.cfi_def_cfa_offset 8
 897              		.cfi_offset 4, -8
 898              		.cfi_offset 14, -4
 149:Generated_Source\PSoC4/RTC_1.c ****     RTC_1_dstTimeOffset = 0uL;
 899              		.loc 1 149 0
 900 0002 0122     		movs	r2, #1
 901 0004 084B     		ldr	r3, .L50
 902 0006 1A70     		strb	r2, [r3]
 150:Generated_Source\PSoC4/RTC_1.c ****     RTC_1_currentTimeDate.status = 0uL;
 903              		.loc 1 150 0
 904 0008 0023     		movs	r3, #0
 905 000a 084A     		ldr	r2, .L50+4
 906 000c D360     		str	r3, [r2, #12]
 151:Generated_Source\PSoC4/RTC_1.c **** 
 907              		.loc 1 151 0
ARM GAS  C:\Users\corne\AppData\Local\Temp\ccR3s0rF.s 			page 62


 908 000e 084A     		ldr	r2, .L50+8
 909 0010 D360     		str	r3, [r2, #12]
 153:Generated_Source\PSoC4/RTC_1.c ****     RTC_1_alarmCurStatus = RTC_1_INITIAL_ALARM_STATUS;
 910              		.loc 1 153 0
 911 0012 084A     		ldr	r2, .L50+12
 912 0014 1370     		strb	r3, [r2]
 154:Generated_Source\PSoC4/RTC_1.c **** 
 913              		.loc 1 154 0
 914 0016 084A     		ldr	r2, .L50+16
 915 0018 1360     		str	r3, [r2]
 197:Generated_Source\PSoC4/RTC_1.c **** }
 916              		.loc 1 197 0
 917 001a 0849     		ldr	r1, .L50+20
 918 001c 8020     		movs	r0, #128
 919 001e 0004     		lsls	r0, r0, #16
 920 0020 FFF7FEFF 		bl	RTC_1_SetDateAndTime
 921              	.LVL91:
 198:Generated_Source\PSoC4/RTC_1.c **** 
 922              		.loc 1 198 0
 923              		@ sp needed
 924 0024 10BD     		pop	{r4, pc}
 925              	.L51:
 926 0026 C046     		.align	2
 927              	.L50:
 928 0028 00000000 		.word	RTC_1_initVar
 929 002c 00000000 		.word	.LANCHOR0
 930 0030 00000000 		.word	RTC_1_currentTimeDate
 931 0034 00000000 		.word	RTC_1_dstStatus
 932 0038 00000000 		.word	RTC_1_alarmCurStatus
 933 003c 70190101 		.word	16849264
 934              		.cfi_endproc
 935              	.LFE29:
 936              		.size	RTC_1_Init, .-RTC_1_Init
 937              		.section	.text.RTC_1_Start,"ax",%progbits
 938              		.align	2
 939              		.global	RTC_1_Start
 940              		.code	16
 941              		.thumb_func
 942              		.type	RTC_1_Start, %function
 943              	RTC_1_Start:
 944              	.LFB27:
  91:Generated_Source\PSoC4/RTC_1.c ****     if(0u == RTC_1_initVar)
 945              		.loc 1 91 0
 946              		.cfi_startproc
 947              		@ args = 0, pretend = 0, frame = 0
 948              		@ frame_needed = 0, uses_anonymous_args = 0
 949 0000 10B5     		push	{r4, lr}
 950              		.cfi_def_cfa_offset 8
 951              		.cfi_offset 4, -8
 952              		.cfi_offset 14, -4
  92:Generated_Source\PSoC4/RTC_1.c ****     {
 953              		.loc 1 92 0
 954 0002 034B     		ldr	r3, .L54
 955 0004 1B78     		ldrb	r3, [r3]
 956 0006 002B     		cmp	r3, #0
 957 0008 01D1     		bne	.L52
  94:Generated_Source\PSoC4/RTC_1.c ****     }
ARM GAS  C:\Users\corne\AppData\Local\Temp\ccR3s0rF.s 			page 63


 958              		.loc 1 94 0
 959 000a FFF7FEFF 		bl	RTC_1_Init
 960              	.LVL92:
 961              	.L52:
 102:Generated_Source\PSoC4/RTC_1.c **** 
 962              		.loc 1 102 0
 963              		@ sp needed
 964 000e 10BD     		pop	{r4, pc}
 965              	.L55:
 966              		.align	2
 967              	.L54:
 968 0010 00000000 		.word	RTC_1_initVar
 969              		.cfi_endproc
 970              	.LFE27:
 971              		.size	RTC_1_Start, .-RTC_1_Start
 972              		.section	.text.RTC_1_DaysInMonth,"ax",%progbits
 973              		.align	2
 974              		.global	RTC_1_DaysInMonth
 975              		.code	16
 976              		.thumb_func
 977              		.type	RTC_1_DaysInMonth, %function
 978              	RTC_1_DaysInMonth:
 979              	.LFB46:
1320:Generated_Source\PSoC4/RTC_1.c **** 
1321:Generated_Source\PSoC4/RTC_1.c **** 
1322:Generated_Source\PSoC4/RTC_1.c **** /*******************************************************************************
1323:Generated_Source\PSoC4/RTC_1.c **** * Function Name: RTC_1_UnixToDateTime
1324:Generated_Source\PSoC4/RTC_1.c **** ****************************************************************************//**
1325:Generated_Source\PSoC4/RTC_1.c **** *
1326:Generated_Source\PSoC4/RTC_1.c **** * \brief
1327:Generated_Source\PSoC4/RTC_1.c **** *  This is an internal function to convert the date and time from
1328:Generated_Source\PSoC4/RTC_1.c **** *  the UNIX time format into the regular time format.
1329:Generated_Source\PSoC4/RTC_1.c **** *
1330:Generated_Source\PSoC4/RTC_1.c **** * \param dayOfWeek A day of a week <br>
1331:Generated_Source\PSoC4/RTC_1.c **** *                 RTC_1_SUNDAY <br>
1332:Generated_Source\PSoC4/RTC_1.c **** *                 RTC_1_MONDAY <br>
1333:Generated_Source\PSoC4/RTC_1.c **** *                 RTC_1_TUESDAY <br>
1334:Generated_Source\PSoC4/RTC_1.c **** *                 RTC_1_WEDNESDAY <br>
1335:Generated_Source\PSoC4/RTC_1.c **** *                 RTC_1_THURSDAY <br>
1336:Generated_Source\PSoC4/RTC_1.c **** *                 RTC_1_FRIDAY <br>
1337:Generated_Source\PSoC4/RTC_1.c **** *                 RTC_1_SATURDAY <br>
1338:Generated_Source\PSoC4/RTC_1.c **** *
1339:Generated_Source\PSoC4/RTC_1.c **** * \param weekOfMonth A week of a month <br>
1340:Generated_Source\PSoC4/RTC_1.c **** *                 RTC_1_FIRST <br>
1341:Generated_Source\PSoC4/RTC_1.c **** *                 RTC_1_SECOND <br>
1342:Generated_Source\PSoC4/RTC_1.c **** *                 RTC_1_THIRD <br>
1343:Generated_Source\PSoC4/RTC_1.c **** *                 RTC_1_FOURTH <br>
1344:Generated_Source\PSoC4/RTC_1.c **** *                 RTC_1_LAST <br>
1345:Generated_Source\PSoC4/RTC_1.c **** *
1346:Generated_Source\PSoC4/RTC_1.c **** * \param month A month of a year <br>
1347:Generated_Source\PSoC4/RTC_1.c **** *                   RTC_1_JANUARY <br>
1348:Generated_Source\PSoC4/RTC_1.c **** *                  RTC_1_FEBRUARY <br>
1349:Generated_Source\PSoC4/RTC_1.c **** *                  RTC_1_MARCH <br>
1350:Generated_Source\PSoC4/RTC_1.c **** *                  RTC_1_APRIL <br>
1351:Generated_Source\PSoC4/RTC_1.c **** *                  RTC_1_MAY <br>
1352:Generated_Source\PSoC4/RTC_1.c **** *                  RTC_1_JUNE <br>
1353:Generated_Source\PSoC4/RTC_1.c **** *                  RTC_1_JULY <br>
ARM GAS  C:\Users\corne\AppData\Local\Temp\ccR3s0rF.s 			page 64


1354:Generated_Source\PSoC4/RTC_1.c **** *                  RTC_1_AUGUST <br>
1355:Generated_Source\PSoC4/RTC_1.c **** *                  RTC_1_SEPTEMBER <br>
1356:Generated_Source\PSoC4/RTC_1.c **** *                  RTC_1_OCTOBER <br>
1357:Generated_Source\PSoC4/RTC_1.c **** *                  RTC_1_NOVEMBER <br>
1358:Generated_Source\PSoC4/RTC_1.c **** *                  RTC_1_DECEMBER <br>
1359:Generated_Source\PSoC4/RTC_1.c **** *
1360:Generated_Source\PSoC4/RTC_1.c **** * \param year A year value.
1361:Generated_Source\PSoC4/RTC_1.c **** *
1362:Generated_Source\PSoC4/RTC_1.c **** * \return A date in the "date format".
1363:Generated_Source\PSoC4/RTC_1.c **** *
1364:Generated_Source\PSoC4/RTC_1.c **** *******************************************************************************/
1365:Generated_Source\PSoC4/RTC_1.c **** void RTC_1_UnixToDateTime(RTC_1_DATE_TIME* dateTime, uint64 unixTime, uint32 timeFormat)
1366:Generated_Source\PSoC4/RTC_1.c **** {
1367:Generated_Source\PSoC4/RTC_1.c ****     uint32 tmpMinute;
1368:Generated_Source\PSoC4/RTC_1.c ****     uint32 tmpHour;
1369:Generated_Source\PSoC4/RTC_1.c ****     uint32 tmpAmPmState;
1370:Generated_Source\PSoC4/RTC_1.c **** 
1371:Generated_Source\PSoC4/RTC_1.c ****     uint32 tmpDay;
1372:Generated_Source\PSoC4/RTC_1.c ****     uint32 tmpMonth;
1373:Generated_Source\PSoC4/RTC_1.c ****     uint32 tmpYear;
1374:Generated_Source\PSoC4/RTC_1.c **** 
1375:Generated_Source\PSoC4/RTC_1.c ****     uint32 tmpVar;
1376:Generated_Source\PSoC4/RTC_1.c **** 
1377:Generated_Source\PSoC4/RTC_1.c ****     tmpAmPmState = 0u;
1378:Generated_Source\PSoC4/RTC_1.c ****     tmpYear = RTC_1_YEAR_0;
1379:Generated_Source\PSoC4/RTC_1.c ****     tmpVar = RTC_1_SECONDS_PER_NONLEAP_YEAR;
1380:Generated_Source\PSoC4/RTC_1.c **** 
1381:Generated_Source\PSoC4/RTC_1.c ****     /* Calculates current year value. Variable tmpYear
1382:Generated_Source\PSoC4/RTC_1.c ****     *  increments while it contains value greater than number
1383:Generated_Source\PSoC4/RTC_1.c ****     *  of seconds in current year.
1384:Generated_Source\PSoC4/RTC_1.c ****     */
1385:Generated_Source\PSoC4/RTC_1.c ****     while(unixTime > tmpVar)
1386:Generated_Source\PSoC4/RTC_1.c ****     {
1387:Generated_Source\PSoC4/RTC_1.c ****         unixTime -= tmpVar;
1388:Generated_Source\PSoC4/RTC_1.c ****         tmpYear++;
1389:Generated_Source\PSoC4/RTC_1.c **** 
1390:Generated_Source\PSoC4/RTC_1.c ****         if(0u != RTC_1_LeapYear(tmpYear))
1391:Generated_Source\PSoC4/RTC_1.c ****         {
1392:Generated_Source\PSoC4/RTC_1.c ****             tmpVar = RTC_1_SECONDS_PER_LEAP_YEAR;
1393:Generated_Source\PSoC4/RTC_1.c ****         }
1394:Generated_Source\PSoC4/RTC_1.c ****         else
1395:Generated_Source\PSoC4/RTC_1.c ****         {
1396:Generated_Source\PSoC4/RTC_1.c ****             tmpVar = RTC_1_SECONDS_PER_NONLEAP_YEAR;
1397:Generated_Source\PSoC4/RTC_1.c ****         }
1398:Generated_Source\PSoC4/RTC_1.c **** 
1399:Generated_Source\PSoC4/RTC_1.c ****     }
1400:Generated_Source\PSoC4/RTC_1.c **** 
1401:Generated_Source\PSoC4/RTC_1.c ****     /* Calculates current month value. tmpMonth variable increments
1402:Generated_Source\PSoC4/RTC_1.c ****      * while unixTime variable value is greater than time
1403:Generated_Source\PSoC4/RTC_1.c ****      * interval from beginning of current year to beginning of
1404:Generated_Source\PSoC4/RTC_1.c ****      * current month
1405:Generated_Source\PSoC4/RTC_1.c ****     */
1406:Generated_Source\PSoC4/RTC_1.c ****     tmpMonth = (uint32)RTC_1_JANUARY;
1407:Generated_Source\PSoC4/RTC_1.c ****     tmpVar = RTC_1_DaysInMonth(tmpMonth, tmpYear) * RTC_1_SECONDS_PER_DAY;
1408:Generated_Source\PSoC4/RTC_1.c **** 
1409:Generated_Source\PSoC4/RTC_1.c ****     while(unixTime >= tmpVar)
1410:Generated_Source\PSoC4/RTC_1.c ****     {
ARM GAS  C:\Users\corne\AppData\Local\Temp\ccR3s0rF.s 			page 65


1411:Generated_Source\PSoC4/RTC_1.c ****         unixTime -= tmpVar;
1412:Generated_Source\PSoC4/RTC_1.c ****         tmpMonth++;
1413:Generated_Source\PSoC4/RTC_1.c ****         tmpVar = RTC_1_DaysInMonth(tmpMonth, tmpYear) * RTC_1_SECONDS_PER_DAY;
1414:Generated_Source\PSoC4/RTC_1.c ****     }
1415:Generated_Source\PSoC4/RTC_1.c **** 
1416:Generated_Source\PSoC4/RTC_1.c ****     /* Calculates current day value. */
1417:Generated_Source\PSoC4/RTC_1.c ****     tmpDay = (unixTime / RTC_1_SECONDS_PER_DAY);
1418:Generated_Source\PSoC4/RTC_1.c ****     tmpVar = tmpDay * RTC_1_SECONDS_PER_DAY;
1419:Generated_Source\PSoC4/RTC_1.c ****     unixTime -= (unixTime >= tmpVar) ? tmpVar : 0u;
1420:Generated_Source\PSoC4/RTC_1.c ****     tmpDay += 1u;
1421:Generated_Source\PSoC4/RTC_1.c **** 
1422:Generated_Source\PSoC4/RTC_1.c ****     /* Calculates current hour value. If function works in 12-Hour mode,
1423:Generated_Source\PSoC4/RTC_1.c ****      * it converts time to 12-Hours mode and calculates AmPm status */
1424:Generated_Source\PSoC4/RTC_1.c ****     tmpHour = unixTime / RTC_1_SECONDS_PER_HOUR;
1425:Generated_Source\PSoC4/RTC_1.c ****     tmpVar  = tmpHour * RTC_1_SECONDS_PER_HOUR;
1426:Generated_Source\PSoC4/RTC_1.c ****     if((uint32)RTC_1_24_HOURS_FORMAT != timeFormat)
1427:Generated_Source\PSoC4/RTC_1.c ****     {
1428:Generated_Source\PSoC4/RTC_1.c ****         if(unixTime > RTC_1_UNIX_TIME_PM)
1429:Generated_Source\PSoC4/RTC_1.c ****         {
1430:Generated_Source\PSoC4/RTC_1.c ****             tmpAmPmState = RTC_1_PM;
1431:Generated_Source\PSoC4/RTC_1.c ****             tmpHour = (tmpHour > 12u) ? (tmpHour - 12u) : tmpHour;
1432:Generated_Source\PSoC4/RTC_1.c ****         }
1433:Generated_Source\PSoC4/RTC_1.c ****         else
1434:Generated_Source\PSoC4/RTC_1.c ****         {
1435:Generated_Source\PSoC4/RTC_1.c ****             tmpAmPmState = RTC_1_AM;
1436:Generated_Source\PSoC4/RTC_1.c ****             tmpHour = (0u != tmpHour) ? tmpHour : 12u;
1437:Generated_Source\PSoC4/RTC_1.c ****         }
1438:Generated_Source\PSoC4/RTC_1.c ****     }
1439:Generated_Source\PSoC4/RTC_1.c ****     unixTime -= (unixTime >= tmpVar) ? tmpVar : 0u;
1440:Generated_Source\PSoC4/RTC_1.c **** 
1441:Generated_Source\PSoC4/RTC_1.c ****     /* Calculates current minute.  */
1442:Generated_Source\PSoC4/RTC_1.c ****     tmpMinute = unixTime / RTC_1_SECONDS_PER_MINUTE;
1443:Generated_Source\PSoC4/RTC_1.c ****     tmpVar = tmpMinute * RTC_1_SECONDS_PER_MINUTE;
1444:Generated_Source\PSoC4/RTC_1.c **** 
1445:Generated_Source\PSoC4/RTC_1.c ****     /* Calculates current second. */
1446:Generated_Source\PSoC4/RTC_1.c ****     unixTime -= (unixTime >= tmpVar) ? tmpVar : 0u;
1447:Generated_Source\PSoC4/RTC_1.c **** 
1448:Generated_Source\PSoC4/RTC_1.c **** 
1449:Generated_Source\PSoC4/RTC_1.c ****     dateTime->date = RTC_1_ConstructDate(tmpMonth, tmpDay, tmpYear);
1450:Generated_Source\PSoC4/RTC_1.c ****     dateTime->time = RTC_1_ConstructTime(timeFormat, tmpAmPmState, tmpHour, tmpMinute, unixTime);
1451:Generated_Source\PSoC4/RTC_1.c ****     dateTime->dayOfWeek = RTC_1_GetDayOfWeek(tmpDay, tmpMonth, tmpYear);
1452:Generated_Source\PSoC4/RTC_1.c **** }
1453:Generated_Source\PSoC4/RTC_1.c **** 
1454:Generated_Source\PSoC4/RTC_1.c **** 
1455:Generated_Source\PSoC4/RTC_1.c **** /*******************************************************************************
1456:Generated_Source\PSoC4/RTC_1.c **** * Function Name: RTC_1_RelativeToFixed
1457:Generated_Source\PSoC4/RTC_1.c **** ****************************************************************************//**
1458:Generated_Source\PSoC4/RTC_1.c **** *
1459:Generated_Source\PSoC4/RTC_1.c **** * \brief
1460:Generated_Source\PSoC4/RTC_1.c **** * This is an internal function to convert a relative date into
1461:Generated_Source\PSoC4/RTC_1.c **** * a fixed date.
1462:Generated_Source\PSoC4/RTC_1.c **** *
1463:Generated_Source\PSoC4/RTC_1.c **** * \param dayOfWeek A day of a week <br>
1464:Generated_Source\PSoC4/RTC_1.c **** *                 RTC_1_SUNDAY <br>
1465:Generated_Source\PSoC4/RTC_1.c **** *                 RTC_1_MONDAY <br>
1466:Generated_Source\PSoC4/RTC_1.c **** *                 RTC_1_TUESDAY <br>
1467:Generated_Source\PSoC4/RTC_1.c **** *                 RTC_1_WEDNESDAY <br>
ARM GAS  C:\Users\corne\AppData\Local\Temp\ccR3s0rF.s 			page 66


1468:Generated_Source\PSoC4/RTC_1.c **** *                 RTC_1_THURSDAY <br>
1469:Generated_Source\PSoC4/RTC_1.c **** *                 RTC_1_FRIDAY <br>
1470:Generated_Source\PSoC4/RTC_1.c **** *                 RTC_1_SATURDAY <br>
1471:Generated_Source\PSoC4/RTC_1.c **** *
1472:Generated_Source\PSoC4/RTC_1.c **** *  \param weekOfMonth A week of a month <br>
1473:Generated_Source\PSoC4/RTC_1.c **** *                 RTC_1_FIRST <br>
1474:Generated_Source\PSoC4/RTC_1.c **** *                 RTC_1_SECOND <br>
1475:Generated_Source\PSoC4/RTC_1.c **** *                 RTC_1_THIRD <br>
1476:Generated_Source\PSoC4/RTC_1.c **** *                 RTC_1_FOURTH <br>
1477:Generated_Source\PSoC4/RTC_1.c **** *                 RTC_1_FIFTH <br>
1478:Generated_Source\PSoC4/RTC_1.c **** *                 RTC_1_LAST <br>
1479:Generated_Source\PSoC4/RTC_1.c **** *
1480:Generated_Source\PSoC4/RTC_1.c **** * \param month A month of a year <br>
1481:Generated_Source\PSoC4/RTC_1.c **** *                  RTC_1_JANUARY <br>
1482:Generated_Source\PSoC4/RTC_1.c **** *                  RTC_1_FEBRUARY <br>
1483:Generated_Source\PSoC4/RTC_1.c **** *                  RTC_1_MARCH <br>
1484:Generated_Source\PSoC4/RTC_1.c **** *                  RTC_1_APRIL <br>
1485:Generated_Source\PSoC4/RTC_1.c **** *                  RTC_1_MAY <br>
1486:Generated_Source\PSoC4/RTC_1.c **** *                  RTC_1_JUNE <br>
1487:Generated_Source\PSoC4/RTC_1.c **** *                  RTC_1_JULY <br>
1488:Generated_Source\PSoC4/RTC_1.c **** *                  RTC_1_AUGUST <br>
1489:Generated_Source\PSoC4/RTC_1.c **** *                  RTC_1_SEPTEMBER <br>
1490:Generated_Source\PSoC4/RTC_1.c **** *                  RTC_1_OCTOBER <br>
1491:Generated_Source\PSoC4/RTC_1.c **** *                  RTC_1_NOVEMBER <br>
1492:Generated_Source\PSoC4/RTC_1.c **** *                  RTC_1_DECEMBER <br>
1493:Generated_Source\PSoC4/RTC_1.c **** *
1494:Generated_Source\PSoC4/RTC_1.c **** * \param year A year value.
1495:Generated_Source\PSoC4/RTC_1.c **** *
1496:Generated_Source\PSoC4/RTC_1.c **** * \return A date in the "date format".
1497:Generated_Source\PSoC4/RTC_1.c **** *
1498:Generated_Source\PSoC4/RTC_1.c **** *******************************************************************************/
1499:Generated_Source\PSoC4/RTC_1.c **** uint32 RTC_1_RelativeToFixed(uint32 dayOfWeek, uint32 weekOfMonth, uint32 month, uint32 year)
1500:Generated_Source\PSoC4/RTC_1.c **** {
1501:Generated_Source\PSoC4/RTC_1.c ****     uint32 curDay;
1502:Generated_Source\PSoC4/RTC_1.c ****     uint32 curWeek;
1503:Generated_Source\PSoC4/RTC_1.c ****     uint32 daysInMonth;
1504:Generated_Source\PSoC4/RTC_1.c ****     uint32 dayOfMonthTmp;
1505:Generated_Source\PSoC4/RTC_1.c **** 
1506:Generated_Source\PSoC4/RTC_1.c ****     uint32 retVal;
1507:Generated_Source\PSoC4/RTC_1.c **** 
1508:Generated_Source\PSoC4/RTC_1.c ****     curDay      = 1u;
1509:Generated_Source\PSoC4/RTC_1.c ****     curWeek     = (uint32)RTC_1_FIRST;
1510:Generated_Source\PSoC4/RTC_1.c ****     daysInMonth = RTC_1_DaysInMonth(month, year);
1511:Generated_Source\PSoC4/RTC_1.c ****     dayOfMonthTmp = curDay;
1512:Generated_Source\PSoC4/RTC_1.c **** 
1513:Generated_Source\PSoC4/RTC_1.c ****     while((curWeek <= weekOfMonth) && (curDay <= daysInMonth))
1514:Generated_Source\PSoC4/RTC_1.c ****     {
1515:Generated_Source\PSoC4/RTC_1.c ****         if(dayOfWeek == RTC_1_GetDayOfWeek(curDay, month, year))
1516:Generated_Source\PSoC4/RTC_1.c ****         {
1517:Generated_Source\PSoC4/RTC_1.c ****             dayOfMonthTmp = curDay;
1518:Generated_Source\PSoC4/RTC_1.c ****             curWeek++;
1519:Generated_Source\PSoC4/RTC_1.c ****         }
1520:Generated_Source\PSoC4/RTC_1.c ****         curDay++;
1521:Generated_Source\PSoC4/RTC_1.c ****     }
1522:Generated_Source\PSoC4/RTC_1.c **** 
1523:Generated_Source\PSoC4/RTC_1.c ****     retVal = RTC_1_ConstructDate(month, dayOfMonthTmp, year);
1524:Generated_Source\PSoC4/RTC_1.c **** 
ARM GAS  C:\Users\corne\AppData\Local\Temp\ccR3s0rF.s 			page 67


1525:Generated_Source\PSoC4/RTC_1.c ****     return(retVal);
1526:Generated_Source\PSoC4/RTC_1.c **** }
1527:Generated_Source\PSoC4/RTC_1.c **** 
1528:Generated_Source\PSoC4/RTC_1.c **** 
1529:Generated_Source\PSoC4/RTC_1.c **** /*******************************************************************************
1530:Generated_Source\PSoC4/RTC_1.c **** * Function Name: RTC_1_DaysInMonth
1531:Generated_Source\PSoC4/RTC_1.c **** ****************************************************************************//**
1532:Generated_Source\PSoC4/RTC_1.c **** *
1533:Generated_Source\PSoC4/RTC_1.c **** * \brief
1534:Generated_Source\PSoC4/RTC_1.c **** *  Returns a number of days in a month passed through the parameters.
1535:Generated_Source\PSoC4/RTC_1.c **** *
1536:Generated_Source\PSoC4/RTC_1.c **** * \param
1537:Generated_Source\PSoC4/RTC_1.c **** *  month A month of a year
1538:Generated_Source\PSoC4/RTC_1.c **** *  RTC_1_JANUARY
1539:Generated_Source\PSoC4/RTC_1.c **** *  RTC_1_FEBRUARY
