ARM GAS  C:\Users\corne\AppData\Local\Temp\ccxwtZbO.s 			page 1


   1              		.syntax unified
   2              		.cpu cortex-m0
   3              		.fpu softvfp
   4              		.eabi_attribute 20, 1
   5              		.eabi_attribute 21, 1
   6              		.eabi_attribute 23, 3
   7              		.eabi_attribute 24, 1
   8              		.eabi_attribute 25, 1
   9              		.eabi_attribute 26, 1
  10              		.eabi_attribute 30, 1
  11              		.eabi_attribute 34, 0
  12              		.eabi_attribute 18, 4
  13              		.thumb
  14              		.syntax unified
  15              		.file	"temp_bme280.c"
  16              		.text
  17              	.Ltext0:
  18              		.cfi_sections	.debug_frame
  19              		.section	.text.BME_SpiRead,"ax",%progbits
  20              		.align	2
  21              		.global	BME_SpiRead
  22              		.code	16
  23              		.thumb_func
  24              		.type	BME_SpiRead, %function
  25              	BME_SpiRead:
  26              	.LFB68:
  27              		.file 1 "temp_bme280.c"
   1:temp_bme280.c **** /* ========================================
   2:temp_bme280.c ****  *
   3:temp_bme280.c ****  * Copyright YOUR COMPANY, THE YEAR
   4:temp_bme280.c ****  * All Rights Reserved
   5:temp_bme280.c ****  * UNPUBLISHED, LICENSED SOFTWARE.
   6:temp_bme280.c ****  *
   7:temp_bme280.c ****  * CONFIDENTIAL AND PROPRIETARY INFORMATION
   8:temp_bme280.c ****  * WHICH IS THE PROPERTY OF your company.
   9:temp_bme280.c ****  *
  10:temp_bme280.c ****  * ========================================
  11:temp_bme280.c **** */
  12:temp_bme280.c **** #include "temp_bme280.h"
  13:temp_bme280.c **** #define SPI2
  14:temp_bme280.c **** bme280_dev dev;
  15:temp_bme280.c **** int8_t rslt = BME280_OK;
  16:temp_bme280.c **** 
  17:temp_bme280.c **** void BME280_setup()
  18:temp_bme280.c **** {
  19:temp_bme280.c ****     //BME280//////////////////////////////////////////////////////
  20:temp_bme280.c ****     /* Sensor_0 interface over SPI with native chip select line */
  21:temp_bme280.c ****     dev.id = 0;
  22:temp_bme280.c ****     dev.interface = BME280_SPI_INTF;
  23:temp_bme280.c ****     dev.read = &BME_SpiRead;
  24:temp_bme280.c ****     dev.write = &BME_SpiWrite;
  25:temp_bme280.c ****     dev.delay_ms = (void *)CyDelay;
  26:temp_bme280.c ****     #ifdef SPI1
  27:temp_bme280.c ****         SPI_BME280_Start();
  28:temp_bme280.c ****     #endif
  29:temp_bme280.c ****     #ifdef SPI2
  30:temp_bme280.c ****         SPIM_Start();
ARM GAS  C:\Users\corne\AppData\Local\Temp\ccxwtZbO.s 			page 2


  31:temp_bme280.c ****     #endif
  32:temp_bme280.c ****     rslt = bme280_init(&dev);
  33:temp_bme280.c **** }
  34:temp_bme280.c **** 
  35:temp_bme280.c **** int8_t get_sensor_data_normal_mode(bme280_dev *dev)
  36:temp_bme280.c **** {
  37:temp_bme280.c **** 	int8_t rslt;
  38:temp_bme280.c **** 	uint8_t settings_sel;
  39:temp_bme280.c **** 	bme280_data comp_data;
  40:temp_bme280.c **** 
  41:temp_bme280.c **** 	dev->settings.osr_h = BME280_OVERSAMPLING_4X;
  42:temp_bme280.c **** 	dev->settings.osr_p = BME280_OVERSAMPLING_4X;
  43:temp_bme280.c **** 	dev->settings.osr_t = BME280_OVERSAMPLING_4X;
  44:temp_bme280.c **** 
  45:temp_bme280.c **** 	settings_sel = BME280_OSR_PRESS_SEL|BME280_OSR_TEMP_SEL|BME280_OSR_HUM_SEL;
  46:temp_bme280.c **** 	rslt = bme280_set_sensor_settings(settings_sel, dev);
  47:temp_bme280.c **** 	rslt = bme280_set_sensor_mode(BME280_NORMAL_MODE, dev);
  48:temp_bme280.c **** 	/* Give some delay for the sensor to go into normal mode */
  49:temp_bme280.c **** 	CyDelay(5);
  50:temp_bme280.c **** 	
  51:temp_bme280.c **** 	while (1) {
  52:temp_bme280.c **** 		rslt = bme280_get_sensor_data(BME280_PRESS | BME280_HUM | BME280_TEMP, &comp_data, dev);
  53:temp_bme280.c **** 		//print_sensor_data(&comp_data);
  54:temp_bme280.c **** 	}
  55:temp_bme280.c **** 
  56:temp_bme280.c **** 	return rslt;
  57:temp_bme280.c **** }
  58:temp_bme280.c **** 
  59:temp_bme280.c **** int8_t get_sensor_data_forced_mode(bme280_dev *devp)
  60:temp_bme280.c **** {
  61:temp_bme280.c **** 	int8_t rslt;
  62:temp_bme280.c **** 	uint8_t settings_sel;
  63:temp_bme280.c **** 	bme280_data comp_data;
  64:temp_bme280.c **** 
  65:temp_bme280.c **** 	/* Continuously get the sensor data */
  66:temp_bme280.c **** 	while (1) {
  67:temp_bme280.c **** 		devp->settings.osr_h = BME280_OVERSAMPLING_1X;
  68:temp_bme280.c **** 		devp->settings.osr_p = BME280_OVERSAMPLING_1X;
  69:temp_bme280.c **** 		devp->settings.osr_t = BME280_OVERSAMPLING_1X;
  70:temp_bme280.c ****  
  71:temp_bme280.c **** 		settings_sel = BME280_OSR_PRESS_SEL|BME280_OSR_TEMP_SEL|BME280_OSR_HUM_SEL;
  72:temp_bme280.c **** 
  73:temp_bme280.c **** 		rslt = bme280_set_sensor_settings(settings_sel, devp);
  74:temp_bme280.c **** 		rslt = bme280_set_sensor_mode(BME280_FORCED_MODE, devp);
  75:temp_bme280.c **** 		/* Give some delay for the sensor to go into force mode */
  76:temp_bme280.c **** 		CyDelay(5);
  77:temp_bme280.c **** 
  78:temp_bme280.c **** 		rslt = bme280_get_sensor_data(BME280_PRESS | BME280_HUM | BME280_TEMP, &comp_data, devp);
  79:temp_bme280.c ****         
  80:temp_bme280.c ****         char outstring[100];
  81:temp_bme280.c ****         uint16 templ = comp_data.temperature;
  82:temp_bme280.c ****         uint16 temph = comp_data.temperature /100;
  83:temp_bme280.c ****         templ = templ - (temph *100);
  84:temp_bme280.c ****         sprintf(outstring, "Temperature is:\t%d.%02d C\r\n",temph,templ);
  85:temp_bme280.c ****         UART_UartPutString(outstring);
  86:temp_bme280.c ****         
  87:temp_bme280.c ****         uint16 humil = comp_data.humidity;
ARM GAS  C:\Users\corne\AppData\Local\Temp\ccxwtZbO.s 			page 3


  88:temp_bme280.c ****         uint16 humih = comp_data.humidity / 1000;
  89:temp_bme280.c ****         humil = humil - (humih *1000);
  90:temp_bme280.c ****         sprintf(outstring, "Humidity is:\t%d.%03d %%\r\n",humih,humil);
  91:temp_bme280.c ****         UART_UartPutString(outstring);
  92:temp_bme280.c ****         
  93:temp_bme280.c ****         uint16 presh = comp_data.pressure / 100;
  94:temp_bme280.c ****         uint16 presl = comp_data.pressure;
  95:temp_bme280.c ****         presl = presl - (presh *100);
  96:temp_bme280.c ****         sprintf(outstring, "Pressure is:\t%d.%02d Pa\r\n\r\n",presh,presl);
  97:temp_bme280.c ****         UART_UartPutString(outstring);
  98:temp_bme280.c ****         
  99:temp_bme280.c ****         CyDelay(6000);
 100:temp_bme280.c **** 	}
 101:temp_bme280.c **** 	return rslt;
 102:temp_bme280.c **** }
 103:temp_bme280.c **** 
 104:temp_bme280.c **** 
 105:temp_bme280.c **** 
 106:temp_bme280.c **** int8_t BME_SpiRead( uint8_t dev_id,volatile uint8_t reg_addr,volatile uint8_t *data,volatile uint16
 107:temp_bme280.c **** {
  28              		.loc 1 107 0
  29              		.cfi_startproc
  30              		@ args = 0, pretend = 0, frame = 80
  31              		@ frame_needed = 0, uses_anonymous_args = 0
  32              	.LVL0:
  33 0000 70B5     		push	{r4, r5, r6, lr}
  34              		.cfi_def_cfa_offset 16
  35              		.cfi_offset 4, -16
  36              		.cfi_offset 5, -12
  37              		.cfi_offset 6, -8
  38              		.cfi_offset 14, -4
  39 0002 94B0     		sub	sp, sp, #80
  40              		.cfi_def_cfa_offset 96
  41 0004 1500     		movs	r5, r2
  42 0006 6A46     		mov	r2, sp
  43              	.LVL1:
  44 0008 D171     		strb	r1, [r2, #7]
  45 000a 01A9     		add	r1, sp, #4
  46              	.LVL2:
  47 000c 0B80     		strh	r3, [r1]
  48              	.LVL3:
 108:temp_bme280.c ****     volatile int test = 0;
  49              		.loc 1 108 0
  50 000e 0023     		movs	r3, #0
  51              	.LVL4:
  52 0010 1393     		str	r3, [sp, #76]
  53              	.LVL5:
 109:temp_bme280.c ****     if(reg_addr == 0x74)
  54              		.loc 1 109 0
  55 0012 D379     		ldrb	r3, [r2, #7]
  56              	.LVL6:
  57 0014 742B     		cmp	r3, #116
  58 0016 02D1     		bne	.L2
 110:temp_bme280.c ****     {
 111:temp_bme280.c ****         CyDelay(1);
  59              		.loc 1 111 0
  60 0018 0120     		movs	r0, #1
ARM GAS  C:\Users\corne\AppData\Local\Temp\ccxwtZbO.s 			page 4


  61              	.LVL7:
  62 001a FFF7FEFF 		bl	CyDelay
  63              	.LVL8:
  64              	.L2:
 112:temp_bme280.c ****     }
 113:temp_bme280.c ****     len = len +1;
  65              		.loc 1 113 0
  66 001e 01AA     		add	r2, sp, #4
  67 0020 1388     		ldrh	r3, [r2]
  68              	.LVL9:
  69 0022 0133     		adds	r3, r3, #1
  70 0024 9BB2     		uxth	r3, r3
  71 0026 1380     		strh	r3, [r2]
 114:temp_bme280.c ****     uint8 packetsize = len;
  72              		.loc 1 114 0
  73 0028 1488     		ldrh	r4, [r2]
  74 002a E4B2     		uxtb	r4, r4
  75              	.LVL10:
 115:temp_bme280.c ****     uint8 dummyBuffer[30];
 116:temp_bme280.c ****     volatile uint8 tmpBuffer[30];
 117:temp_bme280.c ****     uint8 status;
 118:temp_bme280.c ****     uint32 i=0;
 119:temp_bme280.c ****     for(i=0;i<30;i++)
  76              		.loc 1 119 0
  77 002c 0023     		movs	r3, #0
  78 002e 06E0     		b	.L3
  79              	.LVL11:
  80              	.L4:
 120:temp_bme280.c ****     {
 121:temp_bme280.c ****         dummyBuffer[i] = 0xFFu;
  81              		.loc 1 121 0 discriminator 3
  82 0030 FF21     		movs	r1, #255
  83 0032 0BAA     		add	r2, sp, #44
  84 0034 D154     		strb	r1, [r2, r3]
 122:temp_bme280.c ****         tmpBuffer[i] = 0x00u;
  85              		.loc 1 122 0 discriminator 3
  86 0036 0021     		movs	r1, #0
  87 0038 03AA     		add	r2, sp, #12
  88 003a D154     		strb	r1, [r2, r3]
 119:temp_bme280.c ****     {
  89              		.loc 1 119 0 discriminator 3
  90 003c 0133     		adds	r3, r3, #1
  91              	.LVL12:
  92              	.L3:
 119:temp_bme280.c ****     {
  93              		.loc 1 119 0 is_stmt 0 discriminator 1
  94 003e 1D2B     		cmp	r3, #29
  95 0040 F6D9     		bls	.L4
  96              	.LVL13:
 123:temp_bme280.c ****     }
 124:temp_bme280.c ****     i=0;
 125:temp_bme280.c ****     dummyBuffer[0] = (reg_addr | 0x80);
  97              		.loc 1 125 0 is_stmt 1
  98 0042 6B46     		mov	r3, sp
  99 0044 DA79     		ldrb	r2, [r3, #7]
 100 0046 8023     		movs	r3, #128
 101 0048 5B42     		rsbs	r3, r3, #0
ARM GAS  C:\Users\corne\AppData\Local\Temp\ccxwtZbO.s 			page 5


 102 004a 1343     		orrs	r3, r2
 103 004c 0BAA     		add	r2, sp, #44
 104 004e 1370     		strb	r3, [r2]
 126:temp_bme280.c ****     SPIM_ClearRxBuffer();
 105              		.loc 1 126 0
 106 0050 FFF7FEFF 		bl	SPIM_ClearRxBuffer
 107              	.LVL14:
 124:temp_bme280.c ****     dummyBuffer[0] = (reg_addr | 0x80);
 108              		.loc 1 124 0
 109 0054 0026     		movs	r6, #0
 127:temp_bme280.c ****     while(len--)
 110              		.loc 1 127 0
 111 0056 04E0     		b	.L5
 112              	.LVL15:
 113              	.L6:
 128:temp_bme280.c ****     {
 129:temp_bme280.c ****         SPIM_WriteTxData(dummyBuffer[i]);
 114              		.loc 1 129 0
 115 0058 0BAB     		add	r3, sp, #44
 116 005a 985D     		ldrb	r0, [r3, r6]
 117 005c FFF7FEFF 		bl	SPIM_WriteTxData
 118              	.LVL16:
 130:temp_bme280.c ****         i++;
 119              		.loc 1 130 0
 120 0060 0136     		adds	r6, r6, #1
 121              	.LVL17:
 122              	.L5:
 127:temp_bme280.c ****     while(len--)
 123              		.loc 1 127 0
 124 0062 01A9     		add	r1, sp, #4
 125 0064 0B88     		ldrh	r3, [r1]
 126 0066 9BB2     		uxth	r3, r3
 127 0068 5A1E     		subs	r2, r3, #1
 128 006a 92B2     		uxth	r2, r2
 129 006c 0A80     		strh	r2, [r1]
 130 006e 002B     		cmp	r3, #0
 131 0070 F2D1     		bne	.L6
 132              	.L7:
 131:temp_bme280.c ****     }
 132:temp_bme280.c ****     while (packetsize != SPIM_GetRxBufferSize())
 133              		.loc 1 132 0 discriminator 1
 134 0072 FFF7FEFF 		bl	SPIM_GetRxBufferSize
 135              	.LVL18:
 136 0076 8442     		cmp	r4, r0
 137 0078 FBD1     		bne	.L7
 133:temp_bme280.c ****     {
 134:temp_bme280.c ****     }
 135:temp_bme280.c ****     SPIM_ClearTxBuffer();
 138              		.loc 1 135 0
 139 007a FFF7FEFF 		bl	SPIM_ClearTxBuffer
 140              	.LVL19:
 136:temp_bme280.c ****     
 137:temp_bme280.c ****     i=0u;
 141              		.loc 1 137 0
 142 007e 0024     		movs	r4, #0
 143              	.LVL20:
 138:temp_bme280.c ****     while(0u != SPIM_GetRxBufferSize())
ARM GAS  C:\Users\corne\AppData\Local\Temp\ccxwtZbO.s 			page 6


 144              		.loc 1 138 0
 145 0080 0AE0     		b	.L8
 146              	.LVL21:
 147              	.L10:
 139:temp_bme280.c ****     {
 140:temp_bme280.c ****         tmpBuffer[i] = SPIM_ReadRxData();
 148              		.loc 1 140 0
 149 0082 FFF7FEFF 		bl	SPIM_ReadRxData
 150              	.LVL22:
 151 0086 03AB     		add	r3, sp, #12
 152 0088 1855     		strb	r0, [r3, r4]
 141:temp_bme280.c ****         if(i > 0)
 153              		.loc 1 141 0
 154 008a 002C     		cmp	r4, #0
 155 008c 03D0     		beq	.L9
 142:temp_bme280.c ****         {
 143:temp_bme280.c ****             *data = tmpBuffer[i];
 156              		.loc 1 143 0
 157 008e 1B5D     		ldrb	r3, [r3, r4]
 158 0090 DBB2     		uxtb	r3, r3
 159 0092 2B70     		strb	r3, [r5]
 144:temp_bme280.c ****             data++;
 160              		.loc 1 144 0
 161 0094 0135     		adds	r5, r5, #1
 162              	.LVL23:
 163              	.L9:
 145:temp_bme280.c ****         }
 146:temp_bme280.c ****         i++;
 164              		.loc 1 146 0
 165 0096 0134     		adds	r4, r4, #1
 166              	.LVL24:
 167              	.L8:
 138:temp_bme280.c ****     {
 168              		.loc 1 138 0
 169 0098 FFF7FEFF 		bl	SPIM_GetRxBufferSize
 170              	.LVL25:
 171 009c 0028     		cmp	r0, #0
 172 009e F0D1     		bne	.L10
 147:temp_bme280.c ****         
 148:temp_bme280.c ****     }
 149:temp_bme280.c ****     return 0;
 150:temp_bme280.c **** }
 173              		.loc 1 150 0
 174 00a0 14B0     		add	sp, sp, #80
 175              		@ sp needed
 176              	.LVL26:
 177              	.LVL27:
 178 00a2 70BD     		pop	{r4, r5, r6, pc}
 179              		.cfi_endproc
 180              	.LFE68:
 181              		.size	BME_SpiRead, .-BME_SpiRead
 182              		.section	.text.BME_SpiWrite,"ax",%progbits
 183              		.align	2
 184              		.global	BME_SpiWrite
 185              		.code	16
 186              		.thumb_func
 187              		.type	BME_SpiWrite, %function
ARM GAS  C:\Users\corne\AppData\Local\Temp\ccxwtZbO.s 			page 7


 188              	BME_SpiWrite:
 189              	.LFB69:
 151:temp_bme280.c **** 
 152:temp_bme280.c **** int8_t BME_SpiWrite(uint8_t dev_id, uint8_t reg_addr, uint8_t *data, uint16_t len)
 153:temp_bme280.c **** {
 190              		.loc 1 153 0
 191              		.cfi_startproc
 192              		@ args = 0, pretend = 0, frame = 0
 193              		@ frame_needed = 0, uses_anonymous_args = 0
 194              	.LVL28:
 195 0000 10B5     		push	{r4, lr}
 196              		.cfi_def_cfa_offset 8
 197              		.cfi_offset 4, -8
 198              		.cfi_offset 14, -4
 154:temp_bme280.c ****     static uint8_t mTxBuffer[2];
 155:temp_bme280.c ****     mTxBuffer[0] = (reg_addr & (~0x80));
 199              		.loc 1 155 0
 200 0002 7F20     		movs	r0, #127
 201              	.LVL29:
 202 0004 0840     		ands	r0, r1
 203 0006 074C     		ldr	r4, .L13
 204 0008 2070     		strb	r0, [r4]
 156:temp_bme280.c ****     mTxBuffer[1] = *data;
 205              		.loc 1 156 0
 206 000a 1378     		ldrb	r3, [r2]
 207              	.LVL30:
 208 000c 6370     		strb	r3, [r4, #1]
 157:temp_bme280.c ****     SPIM_WriteTxData(mTxBuffer[0]);
 209              		.loc 1 157 0
 210 000e FFF7FEFF 		bl	SPIM_WriteTxData
 211              	.LVL31:
 158:temp_bme280.c ****     SPIM_WriteTxData(mTxBuffer[1]);
 212              		.loc 1 158 0
 213 0012 6078     		ldrb	r0, [r4, #1]
 214 0014 FFF7FEFF 		bl	SPIM_WriteTxData
 215              	.LVL32:
 216              	.L12:
 159:temp_bme280.c ****     while(0 != SPIM_GetTxBufferSize());
 217              		.loc 1 159 0 discriminator 1
 218 0018 FFF7FEFF 		bl	SPIM_GetTxBufferSize
 219              	.LVL33:
 220 001c 0028     		cmp	r0, #0
 221 001e FBD1     		bne	.L12
 160:temp_bme280.c ****     return 0;
 161:temp_bme280.c **** }
 222              		.loc 1 161 0
 223              		@ sp needed
 224 0020 10BD     		pop	{r4, pc}
 225              	.L14:
 226 0022 C046     		.align	2
 227              	.L13:
 228 0024 00000000 		.word	.LANCHOR0
 229              		.cfi_endproc
 230              	.LFE69:
 231              		.size	BME_SpiWrite, .-BME_SpiWrite
 232              		.section	.text.BME280_setup,"ax",%progbits
 233              		.align	2
ARM GAS  C:\Users\corne\AppData\Local\Temp\ccxwtZbO.s 			page 8


 234              		.global	BME280_setup
 235              		.code	16
 236              		.thumb_func
 237              		.type	BME280_setup, %function
 238              	BME280_setup:
 239              	.LFB65:
  18:temp_bme280.c ****     //BME280//////////////////////////////////////////////////////
 240              		.loc 1 18 0
 241              		.cfi_startproc
 242              		@ args = 0, pretend = 0, frame = 0
 243              		@ frame_needed = 0, uses_anonymous_args = 0
 244 0000 10B5     		push	{r4, lr}
 245              		.cfi_def_cfa_offset 8
 246              		.cfi_offset 4, -8
 247              		.cfi_offset 14, -4
  21:temp_bme280.c ****     dev.interface = BME280_SPI_INTF;
 248              		.loc 1 21 0
 249 0002 094C     		ldr	r4, .L16
 250 0004 0023     		movs	r3, #0
 251 0006 6370     		strb	r3, [r4, #1]
  22:temp_bme280.c ****     dev.read = &BME_SpiRead;
 252              		.loc 1 22 0
 253 0008 A370     		strb	r3, [r4, #2]
  23:temp_bme280.c ****     dev.write = &BME_SpiWrite;
 254              		.loc 1 23 0
 255 000a 084B     		ldr	r3, .L16+4
 256 000c 6360     		str	r3, [r4, #4]
  24:temp_bme280.c ****     dev.delay_ms = (void *)CyDelay;
 257              		.loc 1 24 0
 258 000e 084B     		ldr	r3, .L16+8
 259 0010 A360     		str	r3, [r4, #8]
  25:temp_bme280.c ****     #ifdef SPI1
 260              		.loc 1 25 0
 261 0012 084B     		ldr	r3, .L16+12
 262 0014 E360     		str	r3, [r4, #12]
  30:temp_bme280.c ****     #endif
 263              		.loc 1 30 0
 264 0016 FFF7FEFF 		bl	SPIM_Start
 265              	.LVL34:
  32:temp_bme280.c **** }
 266              		.loc 1 32 0
 267 001a 2000     		movs	r0, r4
 268 001c FFF7FEFF 		bl	bme280_init
 269              	.LVL35:
 270 0020 054B     		ldr	r3, .L16+16
 271 0022 9870     		strb	r0, [r3, #2]
  33:temp_bme280.c **** 
 272              		.loc 1 33 0
 273              		@ sp needed
 274 0024 10BD     		pop	{r4, pc}
 275              	.L17:
 276 0026 C046     		.align	2
 277              	.L16:
 278 0028 00000000 		.word	dev
 279 002c 00000000 		.word	BME_SpiRead
 280 0030 00000000 		.word	BME_SpiWrite
 281 0034 00000000 		.word	CyDelay
ARM GAS  C:\Users\corne\AppData\Local\Temp\ccxwtZbO.s 			page 9


 282 0038 00000000 		.word	.LANCHOR0
 283              		.cfi_endproc
 284              	.LFE65:
 285              		.size	BME280_setup, .-BME280_setup
 286              		.section	.text.get_sensor_data_normal_mode,"ax",%progbits
 287              		.align	2
 288              		.global	get_sensor_data_normal_mode
 289              		.code	16
 290              		.thumb_func
 291              		.type	get_sensor_data_normal_mode, %function
 292              	get_sensor_data_normal_mode:
 293              	.LFB66:
  36:temp_bme280.c **** 	int8_t rslt;
 294              		.loc 1 36 0
 295              		.cfi_startproc
 296              		@ args = 0, pretend = 0, frame = 16
 297              		@ frame_needed = 0, uses_anonymous_args = 0
 298              	.LVL36:
 299 0000 10B5     		push	{r4, lr}
 300              		.cfi_def_cfa_offset 8
 301              		.cfi_offset 4, -8
 302              		.cfi_offset 14, -4
 303 0002 84B0     		sub	sp, sp, #16
 304              		.cfi_def_cfa_offset 24
 305 0004 0400     		movs	r4, r0
  41:temp_bme280.c **** 	dev->settings.osr_p = BME280_OVERSAMPLING_4X;
 306              		.loc 1 41 0
 307 0006 0323     		movs	r3, #3
 308 0008 3A22     		movs	r2, #58
 309 000a 8354     		strb	r3, [r0, r2]
  42:temp_bme280.c **** 	dev->settings.osr_t = BME280_OVERSAMPLING_4X;
 310              		.loc 1 42 0
 311 000c 023A     		subs	r2, r2, #2
 312 000e 8354     		strb	r3, [r0, r2]
  43:temp_bme280.c **** 
 313              		.loc 1 43 0
 314 0010 0132     		adds	r2, r2, #1
 315 0012 8354     		strb	r3, [r0, r2]
 316              	.LVL37:
  46:temp_bme280.c **** 	rslt = bme280_set_sensor_mode(BME280_NORMAL_MODE, dev);
 317              		.loc 1 46 0
 318 0014 0100     		movs	r1, r0
 319 0016 0720     		movs	r0, #7
 320              	.LVL38:
 321 0018 FFF7FEFF 		bl	bme280_set_sensor_settings
 322              	.LVL39:
  47:temp_bme280.c **** 	/* Give some delay for the sensor to go into normal mode */
 323              		.loc 1 47 0
 324 001c 2100     		movs	r1, r4
 325 001e 0320     		movs	r0, #3
 326 0020 FFF7FEFF 		bl	bme280_set_sensor_mode
 327              	.LVL40:
  49:temp_bme280.c **** 	
 328              		.loc 1 49 0
 329 0024 0520     		movs	r0, #5
 330 0026 FFF7FEFF 		bl	CyDelay
 331              	.LVL41:
ARM GAS  C:\Users\corne\AppData\Local\Temp\ccxwtZbO.s 			page 10


 332              	.L19:
  52:temp_bme280.c **** 		//print_sensor_data(&comp_data);
 333              		.loc 1 52 0 discriminator 1
 334 002a 2200     		movs	r2, r4
 335 002c 01A9     		add	r1, sp, #4
 336 002e 0720     		movs	r0, #7
 337 0030 FFF7FEFF 		bl	bme280_get_sensor_data
 338              	.LVL42:
 339 0034 F9E7     		b	.L19
 340              		.cfi_endproc
 341              	.LFE66:
 342              		.size	get_sensor_data_normal_mode, .-get_sensor_data_normal_mode
 343              		.global	__aeabi_idiv
 344              		.global	__aeabi_uidiv
 345 0036 C046     		.section	.text.get_sensor_data_forced_mode,"ax",%progbits
 346              		.align	2
 347              		.global	get_sensor_data_forced_mode
 348              		.code	16
 349              		.thumb_func
 350              		.type	get_sensor_data_forced_mode, %function
 351              	get_sensor_data_forced_mode:
 352              	.LFB67:
  60:temp_bme280.c **** 	int8_t rslt;
 353              		.loc 1 60 0
 354              		.cfi_startproc
 355              		@ args = 0, pretend = 0, frame = 120
 356              		@ frame_needed = 0, uses_anonymous_args = 0
 357              	.LVL43:
 358 0000 70B5     		push	{r4, r5, r6, lr}
 359              		.cfi_def_cfa_offset 16
 360              		.cfi_offset 4, -16
 361              		.cfi_offset 5, -12
 362              		.cfi_offset 6, -8
 363              		.cfi_offset 14, -4
 364 0002 9EB0     		sub	sp, sp, #120
 365              		.cfi_def_cfa_offset 136
 366 0004 0500     		movs	r5, r0
 367              	.LVL44:
 368              	.L21:
 369              	.LBB2:
  67:temp_bme280.c **** 		devp->settings.osr_p = BME280_OVERSAMPLING_1X;
 370              		.loc 1 67 0 discriminator 1
 371 0006 0123     		movs	r3, #1
 372 0008 3A22     		movs	r2, #58
 373 000a AB54     		strb	r3, [r5, r2]
  68:temp_bme280.c **** 		devp->settings.osr_t = BME280_OVERSAMPLING_1X;
 374              		.loc 1 68 0 discriminator 1
 375 000c 023A     		subs	r2, r2, #2
 376 000e AB54     		strb	r3, [r5, r2]
  69:temp_bme280.c ****  
 377              		.loc 1 69 0 discriminator 1
 378 0010 0132     		adds	r2, r2, #1
 379 0012 AB54     		strb	r3, [r5, r2]
 380              	.LVL45:
  73:temp_bme280.c **** 		rslt = bme280_set_sensor_mode(BME280_FORCED_MODE, devp);
 381              		.loc 1 73 0 discriminator 1
 382 0014 2900     		movs	r1, r5
ARM GAS  C:\Users\corne\AppData\Local\Temp\ccxwtZbO.s 			page 11


 383 0016 0720     		movs	r0, #7
 384 0018 FFF7FEFF 		bl	bme280_set_sensor_settings
 385              	.LVL46:
  74:temp_bme280.c **** 		/* Give some delay for the sensor to go into force mode */
 386              		.loc 1 74 0 discriminator 1
 387 001c 2900     		movs	r1, r5
 388 001e 0120     		movs	r0, #1
 389 0020 FFF7FEFF 		bl	bme280_set_sensor_mode
 390              	.LVL47:
  76:temp_bme280.c **** 
 391              		.loc 1 76 0 discriminator 1
 392 0024 0520     		movs	r0, #5
 393 0026 FFF7FEFF 		bl	CyDelay
 394              	.LVL48:
  78:temp_bme280.c ****         
 395              		.loc 1 78 0 discriminator 1
 396 002a 2A00     		movs	r2, r5
 397 002c 1BA9     		add	r1, sp, #108
 398 002e 0720     		movs	r0, #7
 399 0030 FFF7FEFF 		bl	bme280_get_sensor_data
 400              	.LVL49:
  81:temp_bme280.c ****         uint16 temph = comp_data.temperature /100;
 401              		.loc 1 81 0 discriminator 1
 402 0034 1C9B     		ldr	r3, [sp, #112]
 403 0036 0193     		str	r3, [sp, #4]
 404 0038 6B46     		mov	r3, sp
 405 003a 9E88     		ldrh	r6, [r3, #4]
 406              	.LVL50:
  82:temp_bme280.c ****         templ = templ - (temph *100);
 407              		.loc 1 82 0 discriminator 1
 408 003c 6421     		movs	r1, #100
 409 003e 0198     		ldr	r0, [sp, #4]
 410 0040 FFF7FEFF 		bl	__aeabi_idiv
 411              	.LVL51:
 412 0044 83B2     		uxth	r3, r0
 413              	.LVL52:
  83:temp_bme280.c ****         sprintf(outstring, "Temperature is:\t%d.%02d C\r\n",temph,templ);
 414              		.loc 1 83 0 discriminator 1
 415 0046 6424     		movs	r4, #100
 416 0048 6442     		rsbs	r4, r4, #0
 417 004a 6343     		muls	r3, r4
 418              	.LVL53:
 419 004c F318     		adds	r3, r6, r3
 420 004e 9BB2     		uxth	r3, r3
 421              	.LVL54:
  84:temp_bme280.c ****         UART_UartPutString(outstring);
 422              		.loc 1 84 0 discriminator 1
 423 0050 0004     		lsls	r0, r0, #16
 424              	.LVL55:
 425 0052 020C     		lsrs	r2, r0, #16
 426 0054 1849     		ldr	r1, .L22
 427 0056 02A8     		add	r0, sp, #8
 428 0058 FFF7FEFF 		bl	sprintf
 429              	.LVL56:
  85:temp_bme280.c ****         
 430              		.loc 1 85 0 discriminator 1
 431 005c 02A8     		add	r0, sp, #8
ARM GAS  C:\Users\corne\AppData\Local\Temp\ccxwtZbO.s 			page 12


 432 005e FFF7FEFF 		bl	UART_UartPutString
 433              	.LVL57:
  87:temp_bme280.c ****         uint16 humih = comp_data.humidity / 1000;
 434              		.loc 1 87 0 discriminator 1
 435 0062 1D98     		ldr	r0, [sp, #116]
 436 0064 86B2     		uxth	r6, r0
 437              	.LVL58:
  88:temp_bme280.c ****         humil = humil - (humih *1000);
 438              		.loc 1 88 0 discriminator 1
 439 0066 FA21     		movs	r1, #250
 440 0068 8900     		lsls	r1, r1, #2
 441 006a FFF7FEFF 		bl	__aeabi_uidiv
 442              	.LVL59:
 443 006e 82B2     		uxth	r2, r0
 444              	.LVL60:
  89:temp_bme280.c ****         sprintf(outstring, "Humidity is:\t%d.%03d %%\r\n",humih,humil);
 445              		.loc 1 89 0 discriminator 1
 446 0070 124B     		ldr	r3, .L22+4
 447 0072 5343     		muls	r3, r2
 448 0074 F318     		adds	r3, r6, r3
 449 0076 9BB2     		uxth	r3, r3
 450              	.LVL61:
  90:temp_bme280.c ****         UART_UartPutString(outstring);
 451              		.loc 1 90 0 discriminator 1
 452 0078 0004     		lsls	r0, r0, #16
 453 007a 020C     		lsrs	r2, r0, #16
 454              	.LVL62:
 455 007c 1049     		ldr	r1, .L22+8
 456 007e 02A8     		add	r0, sp, #8
 457 0080 FFF7FEFF 		bl	sprintf
 458              	.LVL63:
  91:temp_bme280.c ****         
 459              		.loc 1 91 0 discriminator 1
 460 0084 02A8     		add	r0, sp, #8
 461 0086 FFF7FEFF 		bl	UART_UartPutString
 462              	.LVL64:
  93:temp_bme280.c ****         uint16 presl = comp_data.pressure;
 463              		.loc 1 93 0 discriminator 1
 464 008a 1B9E     		ldr	r6, [sp, #108]
 465 008c 6421     		movs	r1, #100
 466 008e 3000     		movs	r0, r6
 467 0090 FFF7FEFF 		bl	__aeabi_uidiv
 468              	.LVL65:
 469 0094 82B2     		uxth	r2, r0
 470              	.LVL66:
  94:temp_bme280.c ****         presl = presl - (presh *100);
 471              		.loc 1 94 0 discriminator 1
 472 0096 B3B2     		uxth	r3, r6
 473              	.LVL67:
  95:temp_bme280.c ****         sprintf(outstring, "Pressure is:\t%d.%02d Pa\r\n\r\n",presh,presl);
 474              		.loc 1 95 0 discriminator 1
 475 0098 5443     		muls	r4, r2
 476 009a 1C19     		adds	r4, r3, r4
 477 009c A3B2     		uxth	r3, r4
 478              	.LVL68:
  96:temp_bme280.c ****         UART_UartPutString(outstring);
 479              		.loc 1 96 0 discriminator 1
ARM GAS  C:\Users\corne\AppData\Local\Temp\ccxwtZbO.s 			page 13


 480 009e 0004     		lsls	r0, r0, #16
 481 00a0 020C     		lsrs	r2, r0, #16
 482              	.LVL69:
 483 00a2 0849     		ldr	r1, .L22+12
 484 00a4 02A8     		add	r0, sp, #8
 485 00a6 FFF7FEFF 		bl	sprintf
 486              	.LVL70:
  97:temp_bme280.c ****         
 487              		.loc 1 97 0 discriminator 1
 488 00aa 02A8     		add	r0, sp, #8
 489 00ac FFF7FEFF 		bl	UART_UartPutString
 490              	.LVL71:
  99:temp_bme280.c **** 	}
 491              		.loc 1 99 0 discriminator 1
 492 00b0 0548     		ldr	r0, .L22+16
 493 00b2 FFF7FEFF 		bl	CyDelay
 494              	.LVL72:
 495 00b6 A6E7     		b	.L21
 496              	.L23:
 497              		.align	2
 498              	.L22:
 499 00b8 00000000 		.word	.LC6
 500 00bc 18FCFFFF 		.word	-1000
 501 00c0 1C000000 		.word	.LC8
 502 00c4 38000000 		.word	.LC10
 503 00c8 70170000 		.word	6000
 504              	.LBE2:
 505              		.cfi_endproc
 506              	.LFE67:
 507              		.size	get_sensor_data_forced_mode, .-get_sensor_data_forced_mode
 508              		.section	.text.BME_DelayMs,"ax",%progbits
 509              		.align	2
 510              		.global	BME_DelayMs
 511              		.code	16
 512              		.thumb_func
 513              		.type	BME_DelayMs, %function
 514              	BME_DelayMs:
 515              	.LFB70:
 162:temp_bme280.c **** 
 163:temp_bme280.c **** void BME_DelayMs(uint32_t delay)
 164:temp_bme280.c **** {
 516              		.loc 1 164 0
 517              		.cfi_startproc
 518              		@ args = 0, pretend = 0, frame = 0
 519              		@ frame_needed = 0, uses_anonymous_args = 0
 520              	.LVL73:
 521 0000 10B5     		push	{r4, lr}
 522              		.cfi_def_cfa_offset 8
 523              		.cfi_offset 4, -8
 524              		.cfi_offset 14, -4
 165:temp_bme280.c ****     CyDelay(delay);
 525              		.loc 1 165 0
 526 0002 FFF7FEFF 		bl	CyDelay
 527              	.LVL74:
 166:temp_bme280.c **** }
 528              		.loc 1 166 0
 529              		@ sp needed
ARM GAS  C:\Users\corne\AppData\Local\Temp\ccxwtZbO.s 			page 14


 530 0006 10BD     		pop	{r4, pc}
 531              		.cfi_endproc
 532              	.LFE70:
 533              		.size	BME_DelayMs, .-BME_DelayMs
 534              		.global	rslt
 535              		.comm	dev,64,4
 536              		.section	.rodata.str1.4,"aMS",%progbits,1
 537              		.align	2
 538              	.LC6:
 539 0000 54656D70 		.ascii	"Temperature is:\011%d.%02d C\015\012\000"
 539      65726174 
 539      75726520 
 539      69733A09 
 539      25642E25 
 540              	.LC8:
 541 001c 48756D69 		.ascii	"Humidity is:\011%d.%03d %%\015\012\000"
 541      64697479 
 541      2069733A 
 541      0925642E 
 541      25303364 
 542 0036 0000     		.space	2
 543              	.LC10:
 544 0038 50726573 		.ascii	"Pressure is:\011%d.%02d Pa\015\012\015\012\000"
 544      73757265 
 544      2069733A 
 544      0925642E 
 544      25303264 
 545              		.bss
 546              		.align	2
 547              		.set	.LANCHOR0,. + 0
 548              		.type	mTxBuffer.8052, %object
 549              		.size	mTxBuffer.8052, 2
 550              	mTxBuffer.8052:
 551 0000 0000     		.space	2
 552              		.type	rslt, %object
 553              		.size	rslt, 1
 554              	rslt:
 555 0002 00       		.space	1
 556              		.text
 557              	.Letext0:
 558              		.file 2 "c:\\program files (x86)\\cypress\\psoc creator\\4.1\\psoc creator\\import\\gnu\\arm\\5.4.
 559              		.file 3 "c:\\program files (x86)\\cypress\\psoc creator\\4.1\\psoc creator\\import\\gnu\\arm\\5.4.
 560              		.file 4 "Generated_Source\\PSoC4/cytypes.h"
 561              		.file 5 "bme280_defs.h"
 562              		.file 6 "Generated_Source\\PSoC4/CyLib.h"
 563              		.file 7 "Generated_Source\\PSoC4/SPIM.h"
 564              		.file 8 "bme280.h"
 565              		.file 9 "c:\\program files (x86)\\cypress\\psoc creator\\4.1\\psoc creator\\import\\gnu\\arm\\5.4.
 566              		.file 10 "Generated_Source\\PSoC4/UART_SPI_UART.h"