ARM GAS  C:\Users\corne\AppData\Local\Temp\ccpoOR4q.s 			page 1


   1              		.syntax unified
   2              		.cpu cortex-m0
   3              		.fpu softvfp
   4              		.eabi_attribute 20, 1
   5              		.eabi_attribute 21, 1
   6              		.eabi_attribute 23, 3
   7              		.eabi_attribute 24, 1
   8              		.eabi_attribute 25, 1
   9              		.eabi_attribute 26, 1
  10              		.eabi_attribute 30, 1
  11              		.eabi_attribute 34, 0
  12              		.eabi_attribute 18, 4
  13              		.thumb
  14              		.syntax unified
  15              		.file	"weathersensors.c"
  16              		.text
  17              	.Ltext0:
  18              		.cfi_sections	.debug_frame
  19              		.section	.text.Counter_ISR,"ax",%progbits
  20              		.align	2
  21              		.global	Counter_ISR
  22              		.code	16
  23              		.thumb_func
  24              		.type	Counter_ISR, %function
  25              	Counter_ISR:
  26              	.LFB66:
  27              		.file 1 "weathersensors.c"
   1:weathersensors.c **** /* ========================================
   2:weathersensors.c ****  *
   3:weathersensors.c ****  * Copyright YOUR COMPANY, THE YEAR
   4:weathersensors.c ****  * All Rights Reserved
   5:weathersensors.c ****  * UNPUBLISHED, LICENSED SOFTWARE.
   6:weathersensors.c ****  *
   7:weathersensors.c ****  * CONFIDENTIAL AND PROPRIETARY INFORMATION
   8:weathersensors.c ****  * WHICH IS THE PROPERTY OF your company.
   9:weathersensors.c ****  *
  10:weathersensors.c ****  * ========================================
  11:weathersensors.c **** */
  12:weathersensors.c **** 
  13:weathersensors.c **** #include "weathersensors.h"
  14:weathersensors.c **** 
  15:weathersensors.c **** //Local functions
  16:weathersensors.c **** uint16  wind_vane_lut[8] = {218,372,657,1647,2941,2600,2232,1112};
  17:weathersensors.c **** winddirection olddirection= north;
  18:weathersensors.c **** void lookupWindVane(winddirection *p_angle, uint16 ain)
  19:weathersensors.c **** {
  20:weathersensors.c ****     uint16  diff;
  21:weathersensors.c ****     int i=0;
  22:weathersensors.c ****     for( i=0; i<8; i+=1 )
  23:weathersensors.c ****     {
  24:weathersensors.c ****         diff = abs( wind_vane_lut[i] - ain );
  25:weathersensors.c ****         if( diff <= 18 )
  26:weathersensors.c ****         {
  27:weathersensors.c ****             *p_angle =  i;
  28:weathersensors.c ****             return;
  29:weathersensors.c ****         }
  30:weathersensors.c ****     }
ARM GAS  C:\Users\corne\AppData\Local\Temp\ccpoOR4q.s 			page 2


  31:weathersensors.c ****     *p_angle = invalid;
  32:weathersensors.c ****     return;
  33:weathersensors.c **** }
  34:weathersensors.c **** 
  35:weathersensors.c **** /* Variable to store the number of times the Counter has overflown */
  36:weathersensors.c **** uint32 counter_overflowCount = 0u;
  37:weathersensors.c **** 
  38:weathersensors.c **** /* Variable to store the count value that is captured at the instance of the falling edge of the
  39:weathersensors.c ****  * capture signal */
  40:weathersensors.c **** uint16 capturedCount = 0u;
  41:weathersensors.c **** 
  42:weathersensors.c **** /* Variable to indicate the occurrence of the Capture Interrupt. The Counter generates interrupt on
  43:weathersensors.c ****  * Terminal count and / or on the Capture event. The flag is set inside the Capture interrupt and c
  44:weathersensors.c ****  * main.c after processing */
  45:weathersensors.c **** uint8 CC_ISR_flag = FALSE;
  46:weathersensors.c **** 
  47:weathersensors.c **** /*******************************************************************************
  48:weathersensors.c **** * Function Name: Counter_ISR
  49:weathersensors.c **** ********************************************************************************
  50:weathersensors.c **** * Summary:
  51:weathersensors.c **** *  ISR For Counter Interrupt.
  52:weathersensors.c **** *
  53:weathersensors.c **** * Parameters:
  54:weathersensors.c **** *  None
  55:weathersensors.c **** *
  56:weathersensors.c **** * Return:
  57:weathersensors.c **** *  None
  58:weathersensors.c **** *
  59:weathersensors.c **** *******************************************************************************/
  60:weathersensors.c **** CY_ISR_PROTO(Counter_ISR)
  61:weathersensors.c **** {
  28              		.loc 1 61 0
  29              		.cfi_startproc
  30              		@ args = 0, pretend = 0, frame = 0
  31              		@ frame_needed = 0, uses_anonymous_args = 0
  32 0000 70B5     		push	{r4, r5, r6, lr}
  33              		.cfi_def_cfa_offset 16
  34              		.cfi_offset 4, -16
  35              		.cfi_offset 5, -12
  36              		.cfi_offset 6, -8
  37              		.cfi_offset 14, -4
  38              	.LVL0:
  62:weathersensors.c ****     /* Variable to store the Counter Status register. This value is used to determine the event whi
  63:weathersensors.c ****      * Interrupt (either Terminal Count or Capture). */
  64:weathersensors.c ****     uint32 counter_status = 0u;
  65:weathersensors.c **** 
  66:weathersensors.c ****     /* Read the Counter Status register. The status register stores the info about type of interrup
  67:weathersensors.c ****     counter_status = Counter_GetInterruptSource();
  39              		.loc 1 67 0
  40 0002 FFF7FEFF 		bl	Counter_GetInterruptSource
  41              	.LVL1:
  42 0006 0400     		movs	r4, r0
  43              	.LVL2:
  68:weathersensors.c **** 
  69:weathersensors.c ****     /* Check if the Counter interrupt is caused by Terminal Count. This can be checked in the 
  70:weathersensors.c ****      * status register of the Counter. The Counter status register is read and the value is stored
  71:weathersensors.c ****      * in counter_status.
ARM GAS  C:\Users\corne\AppData\Local\Temp\ccpoOR4q.s 			page 3


  72:weathersensors.c ****      * The defines Counter_INTR_MASK_TC and Counter_INTR_MASK_CC_MATCH can be seen in Counter.h fil
  73:weathersensors.c ****      * These defines indicate the type of interrupt*/
  74:weathersensors.c ****     if ((counter_status & Counter_INTR_MASK_TC) == Counter_INTR_MASK_TC)
  44              		.loc 1 74 0
  45 0008 0120     		movs	r0, #1
  46              	.LVL3:
  47 000a 2040     		ands	r0, r4
  48 000c 05D0     		beq	.L2
  75:weathersensors.c ****     {
  76:weathersensors.c ****         /* This checks if the interrupt is due to Terminal Count */
  77:weathersensors.c ****         /* Increment the counter_overflowCount. This variable keeps track of the number of times th
  78:weathersensors.c ****          * counter had overflown before the capture signal occurred. This count is used to calculat
  79:weathersensors.c ****          * time when the capture occurs */
  80:weathersensors.c ****         counter_overflowCount++;
  49              		.loc 1 80 0
  50 000e 0B4A     		ldr	r2, .L4
  51 0010 1368     		ldr	r3, [r2]
  52 0012 0133     		adds	r3, r3, #1
  53 0014 1360     		str	r3, [r2]
  81:weathersensors.c **** 
  82:weathersensors.c ****         /*Clear Interrupt*/
  83:weathersensors.c ****         Counter_ClearInterrupt(counter_status & Counter_INTR_MASK_TC);        
  54              		.loc 1 83 0
  55 0016 FFF7FEFF 		bl	Counter_ClearInterrupt
  56              	.LVL4:
  57              	.L2:
  84:weathersensors.c ****     }    
  85:weathersensors.c **** 
  86:weathersensors.c ****     /* Check if the Counter interrupt is caused by Capture Event */
  87:weathersensors.c ****     if ((counter_status & Counter_INTR_MASK_CC_MATCH) == Counter_INTR_MASK_CC_MATCH)
  58              		.loc 1 87 0
  59 001a 0223     		movs	r3, #2
  60 001c 1C40     		ands	r4, r3
  61              	.LVL5:
  62 001e 0BD0     		beq	.L1
  88:weathersensors.c ****     {
  89:weathersensors.c ****         /* Read the value captured by the Counter on the falling edge of the capture signal */
  90:weathersensors.c ****         capturedCount = Counter_ReadCapture();    
  63              		.loc 1 90 0
  64 0020 FFF7FEFF 		bl	Counter_ReadCapture
  65              	.LVL6:
  66 0024 054D     		ldr	r5, .L4
  67 0026 A880     		strh	r0, [r5, #4]
  91:weathersensors.c ****         Counter_WriteCounter(0);
  68              		.loc 1 91 0
  69 0028 0020     		movs	r0, #0
  70 002a FFF7FEFF 		bl	Counter_WriteCounter
  71              	.LVL7:
  92:weathersensors.c **** 
  93:weathersensors.c ****         /* Set the ISR_flag to TRUE to indicate the occurrence of CC Interrupt */
  94:weathersensors.c ****         CC_ISR_flag = TRUE;  
  72              		.loc 1 94 0
  73 002e 0123     		movs	r3, #1
  74 0030 AB71     		strb	r3, [r5, #6]
  95:weathersensors.c **** 
  96:weathersensors.c ****         /*Clear the Interrupt*/
  97:weathersensors.c ****         Counter_ClearInterrupt(counter_status & Counter_INTR_MASK_CC_MATCH);
ARM GAS  C:\Users\corne\AppData\Local\Temp\ccpoOR4q.s 			page 4


  75              		.loc 1 97 0
  76 0032 2000     		movs	r0, r4
  77 0034 FFF7FEFF 		bl	Counter_ClearInterrupt
  78              	.LVL8:
  79              	.L1:
  98:weathersensors.c ****     }
  99:weathersensors.c **** }
  80              		.loc 1 99 0
  81              		@ sp needed
  82 0038 70BD     		pop	{r4, r5, r6, pc}
  83              	.L5:
  84 003a C046     		.align	2
  85              	.L4:
  86 003c 00000000 		.word	.LANCHOR0
  87              		.cfi_endproc
  88              	.LFE66:
  89              		.size	Counter_ISR, .-Counter_ISR
  90              		.section	.text.lookupWindVane,"ax",%progbits
  91              		.align	2
  92              		.global	lookupWindVane
  93              		.code	16
  94              		.thumb_func
  95              		.type	lookupWindVane, %function
  96              	lookupWindVane:
  97              	.LFB65:
  19:weathersensors.c ****     uint16  diff;
  98              		.loc 1 19 0
  99              		.cfi_startproc
 100              		@ args = 0, pretend = 0, frame = 0
 101              		@ frame_needed = 0, uses_anonymous_args = 0
 102              	.LVL9:
 103 0000 10B5     		push	{r4, lr}
 104              		.cfi_def_cfa_offset 8
 105              		.cfi_offset 4, -8
 106              		.cfi_offset 14, -4
 107              	.LVL10:
  22:weathersensors.c ****     {
 108              		.loc 1 22 0
 109 0002 0022     		movs	r2, #0
 110 0004 0CE0     		b	.L7
 111              	.LVL11:
 112              	.L10:
  24:weathersensors.c ****         if( diff <= 18 )
 113              		.loc 1 24 0
 114 0006 5300     		lsls	r3, r2, #1
 115 0008 084C     		ldr	r4, .L11
 116 000a 1B5B     		ldrh	r3, [r3, r4]
 117 000c 5B1A     		subs	r3, r3, r1
 118 000e DC17     		asrs	r4, r3, #31
 119 0010 1B19     		adds	r3, r3, r4
 120 0012 6340     		eors	r3, r4
 121 0014 9BB2     		uxth	r3, r3
 122              	.LVL12:
  25:weathersensors.c ****         {
 123              		.loc 1 25 0
 124 0016 122B     		cmp	r3, #18
 125 0018 01D8     		bhi	.L8
ARM GAS  C:\Users\corne\AppData\Local\Temp\ccpoOR4q.s 			page 5


  27:weathersensors.c ****             return;
 126              		.loc 1 27 0
 127 001a 0270     		strb	r2, [r0]
  28:weathersensors.c ****         }
 128              		.loc 1 28 0
 129 001c 04E0     		b	.L6
 130              	.L8:
  22:weathersensors.c ****     {
 131              		.loc 1 22 0 discriminator 2
 132 001e 0132     		adds	r2, r2, #1
 133              	.LVL13:
 134              	.L7:
  22:weathersensors.c ****     {
 135              		.loc 1 22 0 is_stmt 0 discriminator 1
 136 0020 072A     		cmp	r2, #7
 137 0022 F0DD     		ble	.L10
  31:weathersensors.c ****     return;
 138              		.loc 1 31 0 is_stmt 1
 139 0024 0823     		movs	r3, #8
 140 0026 0370     		strb	r3, [r0]
 141              	.L6:
  33:weathersensors.c **** 
 142              		.loc 1 33 0
 143              		@ sp needed
 144 0028 10BD     		pop	{r4, pc}
 145              	.L12:
 146 002a C046     		.align	2
 147              	.L11:
 148 002c 00000000 		.word	.LANCHOR1
 149              		.cfi_endproc
 150              	.LFE65:
 151              		.size	lookupWindVane, .-lookupWindVane
 152              		.section	.text.WEATHER_Setup,"ax",%progbits
 153              		.align	2
 154              		.global	WEATHER_Setup
 155              		.code	16
 156              		.thumb_func
 157              		.type	WEATHER_Setup, %function
 158              	WEATHER_Setup:
 159              	.LFB67:
 100:weathersensors.c **** 
 101:weathersensors.c **** //Public functions
 102:weathersensors.c **** void WEATHER_Setup()
 103:weathersensors.c **** {
 160              		.loc 1 103 0
 161              		.cfi_startproc
 162              		@ args = 0, pretend = 0, frame = 0
 163              		@ frame_needed = 0, uses_anonymous_args = 0
 164 0000 10B5     		push	{r4, lr}
 165              		.cfi_def_cfa_offset 8
 166              		.cfi_offset 4, -8
 167              		.cfi_offset 14, -4
 104:weathersensors.c ****     Counter_Start();
 168              		.loc 1 104 0
 169 0002 FFF7FEFF 		bl	Counter_Start
 170              	.LVL14:
 105:weathersensors.c ****     TIMER0_ISR_StartEx(Counter_ISR);
ARM GAS  C:\Users\corne\AppData\Local\Temp\ccpoOR4q.s 			page 6


 171              		.loc 1 105 0
 172 0006 0348     		ldr	r0, .L14
 173 0008 FFF7FEFF 		bl	TIMER0_ISR_StartEx
 174              	.LVL15:
 106:weathersensors.c ****     CC_ISR_flag = FALSE;
 175              		.loc 1 106 0
 176 000c 0022     		movs	r2, #0
 177 000e 024B     		ldr	r3, .L14+4
 178 0010 9A71     		strb	r2, [r3, #6]
 107:weathersensors.c **** }
 179              		.loc 1 107 0
 180              		@ sp needed
 181 0012 10BD     		pop	{r4, pc}
 182              	.L15:
 183              		.align	2
 184              	.L14:
 185 0014 00000000 		.word	Counter_ISR
 186 0018 00000000 		.word	.LANCHOR0
 187              		.cfi_endproc
 188              	.LFE67:
 189              		.size	WEATHER_Setup, .-WEATHER_Setup
 190              		.section	.text.WEATHER_getWindDirection,"ax",%progbits
 191              		.align	2
 192              		.global	WEATHER_getWindDirection
 193              		.code	16
 194              		.thumb_func
 195              		.type	WEATHER_getWindDirection, %function
 196              	WEATHER_getWindDirection:
 197              	.LFB68:
 108:weathersensors.c **** 
 109:weathersensors.c **** 
 110:weathersensors.c **** winddirection   WEATHER_getWindDirection()
 111:weathersensors.c **** {
 198              		.loc 1 111 0
 199              		.cfi_startproc
 200              		@ args = 0, pretend = 0, frame = 8
 201              		@ frame_needed = 0, uses_anonymous_args = 0
 202 0000 10B5     		push	{r4, lr}
 203              		.cfi_def_cfa_offset 8
 204              		.cfi_offset 4, -8
 205              		.cfi_offset 14, -4
 206 0002 82B0     		sub	sp, sp, #8
 207              		.cfi_def_cfa_offset 16
 208              	.LVL16:
 112:weathersensors.c ****     int16 vane_adc = 0;
 113:weathersensors.c ****     int16 resultmv=0;
 114:weathersensors.c ****     winddirection direction;
 115:weathersensors.c ****     
 116:weathersensors.c ****     ADC_SAR_IsEndConversion(ADC_SAR_WAIT_FOR_RESULT);
 209              		.loc 1 116 0
 210 0004 0220     		movs	r0, #2
 211 0006 FFF7FEFF 		bl	ADC_SAR_IsEndConversion
 212              	.LVL17:
 117:weathersensors.c ****     /******************************************************************************
 118:weathersensors.c ****     * Adjust data from ADC with respect to Vref value.
 119:weathersensors.c ****     * This adjustment is to be done if Vref is set to any other than
 120:weathersensors.c ****     * internal 1.024V.
ARM GAS  C:\Users\corne\AppData\Local\Temp\ccpoOR4q.s 			page 7


 121:weathersensors.c ****     * For more detailed description see Functional Description section
 122:weathersensors.c ****     * of DieTemp P4 datasheet.
 123:weathersensors.c ****     *******************************************************************************/
 124:weathersensors.c ****     vane_adc = ADC_SAR_GetResult16(0);
 213              		.loc 1 124 0
 214 000a 0020     		movs	r0, #0
 215 000c FFF7FEFF 		bl	ADC_SAR_GetResult16
 216              	.LVL18:
 217 0010 0100     		movs	r1, r0
 218              	.LVL19:
 125:weathersensors.c ****     resultmv = ADC_SAR_CountsTo_mVolts(0, vane_adc);
 219              		.loc 1 125 0
 220 0012 0020     		movs	r0, #0
 221 0014 FFF7FEFF 		bl	ADC_SAR_CountsTo_mVolts
 222              	.LVL20:
 126:weathersensors.c ****     lookupWindVane(&direction, resultmv);
 223              		.loc 1 126 0
 224 0018 81B2     		uxth	r1, r0
 225 001a 6B46     		mov	r3, sp
 226 001c DC1D     		adds	r4, r3, #7
 227 001e 2000     		movs	r0, r4
 228              	.LVL21:
 229 0020 FFF7FEFF 		bl	lookupWindVane
 230              	.LVL22:
 127:weathersensors.c ****     if(direction == invalid)
 231              		.loc 1 127 0
 232 0024 2378     		ldrb	r3, [r4]
 233 0026 082B     		cmp	r3, #8
 234 0028 03D1     		bne	.L17
 128:weathersensors.c ****         direction = olddirection;
 235              		.loc 1 128 0
 236 002a 044B     		ldr	r3, .L18
 237 002c DA79     		ldrb	r2, [r3, #7]
 238 002e 6B46     		mov	r3, sp
 239 0030 DA71     		strb	r2, [r3, #7]
 240              	.L17:
 129:weathersensors.c ****     
 130:weathersensors.c ****     return direction;
 241              		.loc 1 130 0
 242 0032 6B46     		mov	r3, sp
 243 0034 D879     		ldrb	r0, [r3, #7]
 131:weathersensors.c **** }
 244              		.loc 1 131 0
 245 0036 02B0     		add	sp, sp, #8
 246              		@ sp needed
 247 0038 10BD     		pop	{r4, pc}
 248              	.L19:
 249 003a C046     		.align	2
 250              	.L18:
 251 003c 00000000 		.word	.LANCHOR0
 252              		.cfi_endproc
 253              	.LFE68:
 254              		.size	WEATHER_getWindDirection, .-WEATHER_getWindDirection
 255              		.global	__aeabi_idiv
 256              		.section	.text.WEATHER_getWindSpeed,"ax",%progbits
 257              		.align	2
 258              		.global	WEATHER_getWindSpeed
ARM GAS  C:\Users\corne\AppData\Local\Temp\ccpoOR4q.s 			page 8


 259              		.code	16
 260              		.thumb_func
 261              		.type	WEATHER_getWindSpeed, %function
 262              	WEATHER_getWindSpeed:
 263              	.LFB69:
 132:weathersensors.c **** 
 133:weathersensors.c **** uint8_t WEATHER_getWindSpeed()
 134:weathersensors.c **** {
 264              		.loc 1 134 0
 265              		.cfi_startproc
 266              		@ args = 0, pretend = 0, frame = 104
 267              		@ frame_needed = 0, uses_anonymous_args = 0
 268 0000 00B5     		push	{lr}
 269              		.cfi_def_cfa_offset 4
 270              		.cfi_offset 14, -4
 271 0002 9BB0     		sub	sp, sp, #108
 272              		.cfi_def_cfa_offset 112
 135:weathersensors.c ****     uint8_t windspeed;
 136:weathersensors.c ****     windspeed = 2400/capturedCount;
 273              		.loc 1 136 0
 274 0004 084B     		ldr	r3, .L21
 275 0006 9988     		ldrh	r1, [r3, #4]
 276 0008 9620     		movs	r0, #150
 277 000a 0001     		lsls	r0, r0, #4
 278 000c FFF7FEFF 		bl	__aeabi_idiv
 279              	.LVL23:
 137:weathersensors.c ****     char8 outstring[100];
 138:weathersensors.c ****     sprintf(outstring, "%d\r\n", windspeed);
 280              		.loc 1 138 0
 281 0010 FF22     		movs	r2, #255
 282 0012 0240     		ands	r2, r0
 283 0014 0549     		ldr	r1, .L21+4
 284 0016 01A8     		add	r0, sp, #4
 285              	.LVL24:
 286 0018 FFF7FEFF 		bl	sprintf
 287              	.LVL25:
 139:weathersensors.c ****     UART_UartPutString(outstring);
 288              		.loc 1 139 0
 289 001c 01A8     		add	r0, sp, #4
 290 001e FFF7FEFF 		bl	UART_UartPutString
 291              	.LVL26:
 140:weathersensors.c ****     
 141:weathersensors.c ****     return 0;
 142:weathersensors.c **** }
 292              		.loc 1 142 0
 293 0022 0020     		movs	r0, #0
 294 0024 1BB0     		add	sp, sp, #108
 295              		@ sp needed
 296 0026 00BD     		pop	{pc}
 297              	.L22:
 298              		.align	2
 299              	.L21:
 300 0028 00000000 		.word	.LANCHOR0
 301 002c 00000000 		.word	.LC6
 302              		.cfi_endproc
 303              	.LFE69:
 304              		.size	WEATHER_getWindSpeed, .-WEATHER_getWindSpeed
ARM GAS  C:\Users\corne\AppData\Local\Temp\ccpoOR4q.s 			page 9


 305              		.global	CC_ISR_flag
 306              		.global	capturedCount
 307              		.global	counter_overflowCount
 308              		.global	olddirection
 309              		.global	wind_vane_lut
 310              		.data
 311              		.align	2
 312              		.set	.LANCHOR1,. + 0
 313              		.type	wind_vane_lut, %object
 314              		.size	wind_vane_lut, 16
 315              	wind_vane_lut:
 316 0000 DA00     		.short	218
 317 0002 7401     		.short	372
 318 0004 9102     		.short	657
 319 0006 6F06     		.short	1647
 320 0008 7D0B     		.short	2941
 321 000a 280A     		.short	2600
 322 000c B808     		.short	2232
 323 000e 5804     		.short	1112
 324              		.section	.rodata.str1.4,"aMS",%progbits,1
 325              		.align	2
 326              	.LC6:
 327 0000 25640D0A 		.ascii	"%d\015\012\000"
 327      00
 328              		.bss
 329              		.align	2
 330              		.set	.LANCHOR0,. + 0
 331              		.type	counter_overflowCount, %object
 332              		.size	counter_overflowCount, 4
 333              	counter_overflowCount:
 334 0000 00000000 		.space	4
 335              		.type	capturedCount, %object
 336              		.size	capturedCount, 2
 337              	capturedCount:
 338 0004 0000     		.space	2
 339              		.type	CC_ISR_flag, %object
 340              		.size	CC_ISR_flag, 1
 341              	CC_ISR_flag:
 342 0006 00       		.space	1
 343              		.type	olddirection, %object
 344              		.size	olddirection, 1
 345              	olddirection:
 346 0007 00       		.space	1
 347              		.text
 348              	.Letext0:
 349              		.file 2 "c:\\program files (x86)\\cypress\\psoc creator\\4.1\\psoc creator\\import\\gnu\\arm\\5.4.
 350              		.file 3 "c:\\program files (x86)\\cypress\\psoc creator\\4.1\\psoc creator\\import\\gnu\\arm\\5.4.
 351              		.file 4 "Generated_Source\\PSoC4/cytypes.h"
 352              		.file 5 "weathersensors.h"
 353              		.file 6 "Generated_Source\\PSoC4/Counter.h"
 354              		.file 7 "Generated_Source\\PSoC4/TIMER0_ISR.h"
 355              		.file 8 "Generated_Source\\PSoC4/ADC_SAR.h"
 356              		.file 9 "c:\\program files (x86)\\cypress\\psoc creator\\4.1\\psoc creator\\import\\gnu\\arm\\5.4.
 357              		.file 10 "Generated_Source\\PSoC4/UART_SPI_UART.h"